; ModuleID = 'call_check.cpp'
target datalayout = "e-m:e-i64:64-f80:128-n8:16:32:64-S128"
target triple = "x86_64-unknown-linux-gnu"

%"class.std::ios_base::Init" = type { i8 }
%"struct.boost::arg" = type { i8 }
%"struct.boost::arg.0" = type { i8 }
%"struct.boost::arg.2" = type { i8 }
%"struct.boost::arg.4" = type { i8 }
%"struct.boost::arg.6" = type { i8 }
%"struct.boost::arg.8" = type { i8 }
%"struct.boost::arg.10" = type { i8 }
%"struct.boost::arg.12" = type { i8 }
%"struct.boost::arg.14" = type { i8 }
%"struct.boost::detail::function::basic_vtable1.40" = type { %"struct.boost::detail::function::vtable_base", void (%"union.boost::detail::function::function_buffer"*, %"class.boost::shared_ptr.26"*)* }
%"struct.boost::detail::function::vtable_base" = type { void (%"union.boost::detail::function::function_buffer"*, %"union.boost::detail::function::function_buffer"*, i32)* }
%"union.boost::detail::function::function_buffer" = type { %"struct.boost::detail::function::function_buffer::bound_memfunc_ptr_t" }
%"struct.boost::detail::function::function_buffer::bound_memfunc_ptr_t" = type { { i64, i64 }, i8* }
%"class.boost::shared_ptr.26" = type { %"struct.std_msgs::Int16_"*, %"class.boost::detail::shared_count" }
%"struct.std_msgs::Int16_" = type { i16 }
%"class.boost::detail::shared_count" = type { %"class.boost::detail::sp_counted_base"* }
%"class.boost::detail::sp_counted_base" = type { i32 (...)**, i32, i32 }
%"struct.ros::console::LogLocation" = type { i8, i8, i32, i8* }
%"struct.boost::detail::function::basic_vtable1.39" = type { %"struct.boost::detail::function::vtable_base", void (%"union.boost::detail::function::function_buffer"*, %"class.boost::shared_ptr.26"*)* }
%"struct.boost::detail::function::basic_vtable0" = type { %"struct.boost::detail::function::vtable_base", void (%"class.boost::shared_ptr.45"*, %"union.boost::detail::function::function_buffer"*)* }
%"class.boost::shared_ptr.45" = type { %"struct.std_msgs::Int16_"*, %"class.boost::detail::shared_count" }
%"struct.boost::detail::function::basic_vtable0.60" = type { %"struct.boost::detail::function::vtable_base", void (%"class.ros::SerializedMessage"*, %"union.boost::detail::function::function_buffer"*)* }
%"class.ros::SerializedMessage" = type { %"class.boost::shared_array", i64, i8*, %"class.boost::shared_ptr.30", %"class.std::type_info"* }
%"class.boost::shared_array" = type { i8*, %"class.boost::detail::shared_count" }
%"class.boost::shared_ptr.30" = type { i8*, %"class.boost::detail::shared_count" }
%"class.std::type_info" = type { i32 (...)**, i8* }
%class.Test = type { %"class.ros::NodeHandle", %"class.ros::NodeHandle", i32, %"class.ros::Subscriber", %"class.ros::Publisher" }
%"class.ros::NodeHandle" = type <{ %"class.std::basic_string", %"class.std::basic_string", %"class.std::map", %"class.std::map", %"class.ros::CallbackQueueInterface"*, %"class.ros::NodeHandleBackingCollection"*, i8, [7 x i8] }>
%"class.std::basic_string" = type { %"struct.std::basic_string<char, std::char_traits<char>, std::allocator<char> >::_Alloc_hider" }
%"struct.std::basic_string<char, std::char_traits<char>, std::allocator<char> >::_Alloc_hider" = type { i8* }
%"class.std::map" = type { %"class.std::_Rb_tree" }
%"class.std::_Rb_tree" = type { %"struct.std::_Rb_tree<std::basic_string<char>, std::pair<const std::basic_string<char>, std::basic_string<char> >, std::_Select1st<std::pair<const std::basic_string<char>, std::basic_string<char> > >, std::less<std::basic_string<char> >, std::allocator<std::pair<const std::basic_string<char>, std::basic_string<char> > > >::_Rb_tree_impl" }
%"struct.std::_Rb_tree<std::basic_string<char>, std::pair<const std::basic_string<char>, std::basic_string<char> >, std::_Select1st<std::pair<const std::basic_string<char>, std::basic_string<char> > >, std::less<std::basic_string<char> >, std::allocator<std::pair<const std::basic_string<char>, std::basic_string<char> > > >::_Rb_tree_impl" = type { %"struct.std::less", %"struct.std::_Rb_tree_node_base", i64 }
%"struct.std::less" = type { i8 }
%"struct.std::_Rb_tree_node_base" = type { i32, %"struct.std::_Rb_tree_node_base"*, %"struct.std::_Rb_tree_node_base"*, %"struct.std::_Rb_tree_node_base"* }
%"class.ros::CallbackQueueInterface" = type opaque
%"class.ros::NodeHandleBackingCollection" = type opaque
%"class.ros::Subscriber" = type { %"class.boost::shared_ptr" }
%"class.boost::shared_ptr" = type { %"class.ros::Subscriber::Impl"*, %"class.boost::detail::shared_count" }
%"class.ros::Subscriber::Impl" = type <{ %"class.std::basic_string", %"class.boost::shared_ptr.19", %"class.boost::shared_ptr.20", i8, [7 x i8] }>
%"class.boost::shared_ptr.19" = type { %"class.ros::NodeHandle"*, %"class.boost::detail::shared_count" }
%"class.boost::shared_ptr.20" = type { %"class.ros::SubscriptionCallbackHelper"*, %"class.boost::detail::shared_count" }
%"class.ros::SubscriptionCallbackHelper" = type { i32 (...)** }
%"class.ros::Publisher" = type { %"class.boost::shared_ptr.21" }
%"class.boost::shared_ptr.21" = type { %"class.ros::Publisher::Impl"*, %"class.boost::detail::shared_count" }
%"class.ros::Publisher::Impl" = type <{ %"class.std::basic_string", %"class.std::basic_string", %"class.std::basic_string", %"class.boost::shared_ptr.19", %"class.boost::shared_ptr.22", i8, [7 x i8] }>
%"class.boost::shared_ptr.22" = type { %"struct.ros::SubscriberCallbacks"*, %"class.boost::detail::shared_count" }
%"struct.ros::SubscriberCallbacks" = type { %"class.boost::function", %"class.boost::function", i8, %"class.boost::weak_ptr", %"class.ros::CallbackQueueInterface"* }
%"class.boost::function" = type { %"class.boost::function1" }
%"class.boost::function1" = type { %"class.boost::function_base" }
%"class.boost::function_base" = type { %"struct.boost::detail::function::vtable_base"*, %"union.boost::detail::function::function_buffer" }
%"class.boost::weak_ptr" = type { i8*, %"class.boost::detail::weak_count" }
%"class.boost::detail::weak_count" = type { %"class.boost::detail::sp_counted_base"* }
%"class.std::allocator" = type { i8 }
%"class.ros::TransportHints" = type { %"class.std::vector", %"class.std::map" }
%"class.std::vector" = type { %"struct.std::_Vector_base" }
%"struct.std::_Vector_base" = type { %"struct.std::_Vector_base<std::basic_string<char>, std::allocator<std::basic_string<char> > >::_Vector_impl" }
%"struct.std::_Vector_base<std::basic_string<char>, std::allocator<std::basic_string<char> > >::_Vector_impl" = type { %"class.std::basic_string"*, %"class.std::basic_string"*, %"class.std::basic_string"* }
%"struct.ros::AdvertiseOptions" = type <{ %"class.std::basic_string", i32, [4 x i8], %"class.std::basic_string", %"class.std::basic_string", %"class.std::basic_string", %"class.boost::function", %"class.boost::function", %"class.ros::CallbackQueueInterface"*, %"class.boost::shared_ptr.30", i8, i8, [6 x i8] }>
%"struct.ros::SubscribeOptions" = type { %"class.std::basic_string", i32, %"class.std::basic_string", %"class.std::basic_string", %"class.boost::shared_ptr.20", %"class.ros::CallbackQueueInterface"*, i8, %"class.boost::shared_ptr.30", %"class.ros::TransportHints" }
%"class.boost::function.32" = type { %"class.boost::function1.33" }
%"class.boost::function1.33" = type { %"class.boost::function_base" }
%"class.boost::_bi::bind_t" = type { %"class.boost::_mfi::mf1", %"class.boost::_bi::list2" }
%"class.boost::_mfi::mf1" = type { { i64, i64 } }
%"class.boost::_bi::list2" = type { %"struct.boost::_bi::storage2" }
%"struct.boost::_bi::storage2" = type { %"struct.boost::_bi::storage1" }
%"struct.boost::_bi::storage1" = type { %"class.boost::_bi::value" }
%"class.boost::_bi::value" = type { %class.Test* }
%"class.boost::function.35" = type { %"class.boost::function0" }
%"class.boost::function0" = type { %"class.boost::function_base" }
%"struct.ros::DefaultMessageCreator" = type { i8 }
%"class.boost::function.52" = type { %"class.boost::function0.53" }
%"class.boost::function0.53" = type { %"class.boost::function_base" }
%"class.boost::_bi::bind_t.54" = type { void (%"class.ros::SerializedMessage"*, %"struct.std_msgs::Int16_"*)*, %"class.boost::_bi::list1.55" }
%"class.boost::_bi::list1.55" = type { %"struct.boost::_bi::storage1.56" }
%"struct.boost::_bi::storage1.56" = type { %"class.boost::reference_wrapper" }
%"class.boost::reference_wrapper" = type { %"struct.std_msgs::Int16_"* }
%"class.ros::console::FilterBase" = type { i32 (...)** }
%"struct.std::_Rb_tree_node" = type { %"struct.std::_Rb_tree_node_base", %"struct.std::pair" }
%"struct.std::pair" = type { %"class.std::basic_string", %"class.std::basic_string" }
%"class.std::allocator.16" = type { i8 }
%"class.std::allocator.27" = type { i8 }
%"class.__gnu_cxx::new_allocator.28" = type { i8 }
%"class.__gnu_cxx::new_allocator.17" = type { i8 }
%"class.std::allocator.23" = type { i8 }
%"class.__gnu_cxx::new_allocator.24" = type { i8 }
%"struct.std::unary_function" = type { i8 }
%"struct.boost::detail::function::basic_vtable1" = type { %"struct.boost::detail::function::vtable_base", void (%"union.boost::detail::function::function_buffer"*, %"class.ros::SingleSubscriberPublisher"*)* }
%"class.ros::SingleSubscriberPublisher" = type { %"class.boost::shared_ptr.31" }
%"class.boost::shared_ptr.31" = type { %"class.ros::SubscriberLink"*, %"class.boost::detail::shared_count" }
%"class.ros::SubscriberLink" = type opaque
%"class.boost::function.36" = type { %"class.boost::function1.37" }
%"class.boost::function1.37" = type { %"class.boost::function_base" }
%"class.ros::SubscriptionCallbackHelperT" = type { %"class.ros::SubscriptionCallbackHelper", %"class.boost::function.36", %"class.boost::function.35" }
%"struct.std::unary_function.34" = type { i8 }
%"struct.std::unary_function.38" = type { i8 }
%"struct.boost::detail::function::function_obj_tag" = type { i8 }
%"struct.boost::detail::function::function_buffer::type_t" = type { %"class.std::type_info"*, i8, i8 }
%"struct.mpl_::bool_" = type { i8 }
%"class.boost::bad_function_call" = type { %"class.std::runtime_error" }
%"class.std::runtime_error" = type { %"class.std::exception", %"class.std::basic_string" }
%"class.std::exception" = type { i32 (...)** }
%"struct.boost::exception_detail::error_info_injector" = type <{ %"class.boost::bad_function_call", %"class.boost::exception.base", [4 x i8] }>
%"class.boost::exception.base" = type <{ i32 (...)**, %"class.boost::exception_detail::refcount_ptr", i8*, i8*, i32 }>
%"class.boost::exception_detail::refcount_ptr" = type { %"struct.boost::exception_detail::error_info_container"* }
%"struct.boost::exception_detail::error_info_container" = type { i32 (...)** }
%"class.boost::exception_detail::clone_impl" = type { %"struct.boost::exception_detail::error_info_injector.base", %"class.boost::exception_detail::clone_base" }
%"struct.boost::exception_detail::error_info_injector.base" = type <{ %"class.boost::bad_function_call", %"class.boost::exception.base" }>
%"class.boost::exception_detail::clone_base" = type { i32 (...)** }
%"class.boost::exception" = type <{ i32 (...)**, %"class.boost::exception_detail::refcount_ptr", i8*, i8*, i32, [4 x i8] }>
%"struct.boost::exception_detail::clone_impl<boost::exception_detail::error_info_injector<boost::bad_function_call> >::clone_tag" = type { i8 }
%"struct.boost::detail::addr_impl_ref" = type { %"class.boost::function.32"* }
%"struct.ros::SubscriptionCallbackHelperDeserializeParams" = type { i8*, i32, %"class.boost::shared_ptr.41" }
%"class.boost::shared_ptr.41" = type { %"class.std::map"*, %"class.boost::detail::shared_count" }
%"struct.ros::serialization::PreDeserializeParams" = type { %"class.boost::shared_ptr.45", %"class.boost::shared_ptr.41" }
%"struct.ros::serialization::IStream" = type { %"struct.ros::serialization::Stream" }
%"struct.ros::serialization::Stream" = type { i8*, i8* }
%"struct.boost::detail::sp_empty" = type { i8 }
%"struct.ros::SubscriptionCallbackHelperCallParams" = type { %"class.ros::MessageEvent" }
%"class.ros::MessageEvent" = type { %"class.boost::shared_ptr.30", %"class.boost::shared_ptr.42", %"class.boost::shared_ptr.41", %"class.ros::Time", i8, %"class.boost::function.43" }
%"class.boost::shared_ptr.42" = type { i8*, %"class.boost::detail::shared_count" }
%"class.ros::Time" = type { %"class.ros::TimeBase" }
%"class.ros::TimeBase" = type { i32, i32 }
%"class.boost::function.43" = type { %"class.boost::function0.44" }
%"class.boost::function0.44" = type { %"class.boost::function_base" }
%"class.ros::MessageEvent.46" = type { %"class.boost::shared_ptr.26", %"class.boost::shared_ptr.45", %"class.boost::shared_ptr.41", %"class.ros::Time", i8, %"class.boost::function.35" }
%"class.boost::detail::sp_counted_impl_p" = type { %"class.boost::detail::sp_counted_base", %"class.ros::SubscriptionCallbackHelperT"* }
%"struct.mpl_::bool_.47" = type { i8 }
%"class.boost::_bi::list1" = type { %"struct.boost::_bi::storage1.48" }
%"struct.boost::_bi::storage1.48" = type { %"class.boost::shared_ptr.26"* }
%"class.boost::_bi::type" = type { i8 }
%"struct.boost::detail::addr_impl_ref.49" = type { %"class.boost::_bi::bind_t"* }
%"struct.boost::detail::sp_inplace_tag" = type { i8 }
%"class.boost::detail::sp_ms_deleter" = type { i8, i8, %"union.boost::detail::sp_aligned_storage<2, 2>::type" }
%"union.boost::detail::sp_aligned_storage<2, 2>::type" = type { [2 x i8] }
%"class.boost::detail::sp_counted_impl_pd" = type <{ %"class.boost::detail::sp_counted_base", %"struct.std_msgs::Int16_"*, %"class.boost::detail::sp_ms_deleter", [4 x i8] }>
%"struct.boost::detail::addr_impl_ref.50" = type { %"struct.ros::DefaultMessageCreator"* }
%"class.__gnu_cxx::__normal_iterator" = type { %"class.std::basic_string"* }
%"class.__gnu_cxx::__normal_iterator.51" = type { %"class.std::basic_string"* }
%"struct.ros::serialization::OStream" = type { %"struct.ros::serialization::Stream" }
%"struct.ros::serialization::LStream" = type { i32 }
%"struct.boost::checked_array_deleter" = type { i8 }
%"class.boost::detail::sp_counted_impl_pd.57" = type <{ %"class.boost::detail::sp_counted_base", i8*, %"struct.boost::checked_array_deleter", [7 x i8] }>
%"struct.boost::detail::addr_impl_ref.59" = type { %"struct.std_msgs::Int16_"* }
%"class.boost::_bi::list0" = type { i8 }
%"class.boost::_bi::type.61" = type { i8 }
%"struct.boost::detail::addr_impl_ref.62" = type { %"class.boost::_bi::bind_t.54"* }

$_ZN5boost3argILi1EEC2Ev = comdat any

$_ZN5boost3argILi2EEC2Ev = comdat any

$_ZN5boost3argILi3EEC2Ev = comdat any

$_ZN5boost3argILi4EEC2Ev = comdat any

$_ZN5boost3argILi5EEC2Ev = comdat any

$_ZN5boost3argILi6EEC2Ev = comdat any

$_ZN5boost3argILi7EEC2Ev = comdat any

$_ZN5boost3argILi8EEC2Ev = comdat any

$_ZN5boost3argILi9EEC2Ev = comdat any

$_ZNSt3mapISsSsSt4lessISsESaISt4pairIKSsSsEEEC2Ev = comdat any

$_ZNSt3mapISsSsSt4lessISsESaISt4pairIKSsSsEEED2Ev = comdat any

$__clang_call_terminate = comdat any

$_ZN3ros10SubscriberC2Ev = comdat any

$_ZN3ros9PublisherC2Ev = comdat any

$_ZNK3ros10NodeHandle5paramIiEEvRKSsRT_RKS4_ = comdat any

$_ZN3ros9PublisheraSERKS0_ = comdat any

$_ZN3ros10NodeHandle9advertiseIN8std_msgs6Int16_ISaIvEEEEENS_9PublisherERKSsjb = comdat any

$_ZN3ros10SubscriberaSERKS0_ = comdat any

$_ZN3ros10NodeHandle9subscribeIN8std_msgs6Int16_ISaIvEEE4TestEENS_10SubscriberERKSsjMT0_FvRKN5boost10shared_ptrIKT_EEEPSA_RKNS_14TransportHintsE = comdat any

$_ZN3ros14TransportHintsC2Ev = comdat any

$_ZN3ros14TransportHintsD2Ev = comdat any

$_ZNK5boost10shared_ptrIKN8std_msgs6Int16_ISaIvEEEEptEv = comdat any

$_ZN8std_msgs6Int16_ISaIvEEC2Ev = comdat any

$_ZNK3ros9Publisher7publishIN8std_msgs6Int16_ISaIvEEEEEvRKT_ = comdat any

$_ZN4TestD2Ev = comdat any

$_ZNSt8_Rb_treeISsSt4pairIKSsSsESt10_Select1stIS2_ESt4lessISsESaIS2_EED2Ev = comdat any

$_ZNSt8_Rb_treeISsSt4pairIKSsSsESt10_Select1stIS2_ESt4lessISsESaIS2_EE8_M_eraseEPSt13_Rb_tree_nodeIS2_E = comdat any

$_ZNSt8_Rb_treeISsSt4pairIKSsSsESt10_Select1stIS2_ESt4lessISsESaIS2_EE8_M_beginEv = comdat any

$_ZNSt8_Rb_treeISsSt4pairIKSsSsESt10_Select1stIS2_ESt4lessISsESaIS2_EE13_Rb_tree_implIS6_Lb0EED2Ev = comdat any

$_ZNSt8_Rb_treeISsSt4pairIKSsSsESt10_Select1stIS2_ESt4lessISsESaIS2_EE8_S_rightEPSt18_Rb_tree_node_base = comdat any

$_ZNSt8_Rb_treeISsSt4pairIKSsSsESt10_Select1stIS2_ESt4lessISsESaIS2_EE7_S_leftEPSt18_Rb_tree_node_base = comdat any

$_ZNSt8_Rb_treeISsSt4pairIKSsSsESt10_Select1stIS2_ESt4lessISsESaIS2_EE15_M_destroy_nodeEPSt13_Rb_tree_nodeIS2_E = comdat any

$_ZNKSt8_Rb_treeISsSt4pairIKSsSsESt10_Select1stIS2_ESt4lessISsESaIS2_EE13get_allocatorEv = comdat any

$_ZN9__gnu_cxx13new_allocatorISt4pairIKSsSsEE7destroyEPS3_ = comdat any

$_ZSt11__addressofISt4pairIKSsSsEEPT_RS3_ = comdat any

$_ZNSaISt4pairIKSsSsEED2Ev = comdat any

$_ZNSt8_Rb_treeISsSt4pairIKSsSsESt10_Select1stIS2_ESt4lessISsESaIS2_EE11_M_put_nodeEPSt13_Rb_tree_nodeIS2_E = comdat any

$_ZNKSt8_Rb_treeISsSt4pairIKSsSsESt10_Select1stIS2_ESt4lessISsESaIS2_EE21_M_get_Node_allocatorEv = comdat any

$_ZNSaISt4pairIKSsSsEEC2ISt13_Rb_tree_nodeIS1_EEERKSaIT_E = comdat any

$_ZN9__gnu_cxx13new_allocatorISt4pairIKSsSsEEC2Ev = comdat any

$_ZNSt4pairIKSsSsED2Ev = comdat any

$_ZN9__gnu_cxx13new_allocatorISt4pairIKSsSsEED2Ev = comdat any

$_ZN9__gnu_cxx13new_allocatorISt13_Rb_tree_nodeISt4pairIKSsSsEEE10deallocateEPS5_m = comdat any

$_ZNSaISt13_Rb_tree_nodeISt4pairIKSsSsEEED2Ev = comdat any

$_ZN9__gnu_cxx13new_allocatorISt13_Rb_tree_nodeISt4pairIKSsSsEEED2Ev = comdat any

$_ZN5boost10shared_ptrIN3ros10Subscriber4ImplEEC2Ev = comdat any

$_ZN5boost6detail12shared_countC2Ev = comdat any

$_ZN5boost10shared_ptrIN3ros9Publisher4ImplEEC2Ev = comdat any

$_ZN5boost10shared_ptrIN3ros9Publisher4ImplEEaSERKS4_ = comdat any

$_ZN5boost10shared_ptrIN3ros9Publisher4ImplEEC2ERKS4_ = comdat any

$_ZN5boost10shared_ptrIN3ros9Publisher4ImplEE4swapERS4_ = comdat any

$_ZN5boost10shared_ptrIN3ros9Publisher4ImplEED2Ev = comdat any

$_ZN5boost6detail12shared_countC2ERKS1_ = comdat any

$_ZN5boost6detail15sp_counted_base12add_ref_copyEv = comdat any

$_ZN5boost6detail16atomic_incrementEPi = comdat any

$_ZSt4swapIPN3ros9Publisher4ImplEEvRT_S5_ = comdat any

$_ZN5boost6detail12shared_count4swapERS1_ = comdat any

$_ZN5boost6detail12shared_countD2Ev = comdat any

$_ZN5boost6detail15sp_counted_base7releaseEv = comdat any

$_ZN5boost6detail23atomic_exchange_and_addEPii = comdat any

$_ZN5boost6detail15sp_counted_base12weak_releaseEv = comdat any

$_ZN5boost10shared_ptrIN3ros10Subscriber4ImplEEaSERKS4_ = comdat any

$_ZN5boost10shared_ptrIN3ros10Subscriber4ImplEEC2ERKS4_ = comdat any

$_ZN5boost10shared_ptrIN3ros10Subscriber4ImplEE4swapERS4_ = comdat any

$_ZN5boost10shared_ptrIN3ros10Subscriber4ImplEED2Ev = comdat any

$_ZSt4swapIPN3ros10Subscriber4ImplEEvRT_S5_ = comdat any

$_ZNSt6vectorISsSaISsEEC2Ev = comdat any

$_ZNSt6vectorISsSaISsEED2Ev = comdat any

$_ZNSt12_Vector_baseISsSaISsEEC2Ev = comdat any

$_ZNSt12_Vector_baseISsSaISsEE12_Vector_implC2Ev = comdat any

$_ZNSaISsEC2Ev = comdat any

$_ZN9__gnu_cxx13new_allocatorISsEC2Ev = comdat any

$_ZSt8_DestroyIPSsSsEvT_S1_RSaIT0_E = comdat any

$_ZNSt12_Vector_baseISsSaISsEE19_M_get_Tp_allocatorEv = comdat any

$_ZNSt12_Vector_baseISsSaISsEED2Ev = comdat any

$_ZSt8_DestroyIPSsEvT_S1_ = comdat any

$_ZNSt12_Destroy_auxILb0EE9__destroyIPSsEEvT_S3_ = comdat any

$_ZSt8_DestroyISsEvPT_ = comdat any

$_ZSt11__addressofISsEPT_RS0_ = comdat any

$_ZNSt12_Vector_baseISsSaISsEE13_M_deallocateEPSsm = comdat any

$_ZNSt12_Vector_baseISsSaISsEE12_Vector_implD2Ev = comdat any

$_ZN9__gnu_cxx13new_allocatorISsE10deallocateEPSsm = comdat any

$_ZNSaISsED2Ev = comdat any

$_ZN9__gnu_cxx13new_allocatorISsED2Ev = comdat any

$_ZNSt8_Rb_treeISsSt4pairIKSsSsESt10_Select1stIS2_ESt4lessISsESaIS2_EEC2Ev = comdat any

$_ZNSt8_Rb_treeISsSt4pairIKSsSsESt10_Select1stIS2_ESt4lessISsESaIS2_EE13_Rb_tree_implIS6_Lb0EEC2Ev = comdat any

$_ZNSaISt13_Rb_tree_nodeISt4pairIKSsSsEEEC2Ev = comdat any

$_ZNSt8_Rb_treeISsSt4pairIKSsSsESt10_Select1stIS2_ESt4lessISsESaIS2_EE13_Rb_tree_implIS6_Lb0EE13_M_initializeEv = comdat any

$_ZN9__gnu_cxx13new_allocatorISt13_Rb_tree_nodeISt4pairIKSsSsEEEC2Ev = comdat any

$_ZN3ros16AdvertiseOptionsC2Ev = comdat any

$_ZN3ros16AdvertiseOptions4initIN8std_msgs6Int16_ISaIvEEEEEvRKSsjRKN5boost8functionIFvRKNS_25SingleSubscriberPublisherEEEESG_ = comdat any

$_ZN5boost8functionIFvRKN3ros25SingleSubscriberPublisherEEEC2Ev = comdat any

$_ZN5boost8functionIFvRKN3ros25SingleSubscriberPublisherEEED2Ev = comdat any

$_ZN3ros16AdvertiseOptionsD2Ev = comdat any

$_ZN5boost10shared_ptrIKvEC2Ev = comdat any

$_ZN5boost8functionIFvRKN3ros25SingleSubscriberPublisherEEEaSERKS6_ = comdat any

$_ZN3ros14message_traits6md5sumIN8std_msgs6Int16_ISaIvEEEEEPKcv = comdat any

$_ZN3ros14message_traits8datatypeIN8std_msgs6Int16_ISaIvEEEEEPKcv = comdat any

$_ZN3ros14message_traits10definitionIN8std_msgs6Int16_ISaIvEEEEEPKcv = comdat any

$_ZN3ros14message_traits9hasHeaderIN8std_msgs6Int16_ISaIvEEEEEbv = comdat any

$_ZN5boost8functionIFvRKN3ros25SingleSubscriberPublisherEEEC2ERKS6_ = comdat any

$_ZN5boost9function1IvRKN3ros25SingleSubscriberPublisherEE4swapERS5_ = comdat any

$_ZN5boost9function1IvRKN3ros25SingleSubscriberPublisherEEC2ERKS5_ = comdat any

$_ZN5boost13function_baseC2Ev = comdat any

$_ZN5boost9function1IvRKN3ros25SingleSubscriberPublisherEE13assign_to_ownERKS5_ = comdat any

$_ZNK5boost13function_base5emptyEv = comdat any

$_ZNK5boost13function_base28has_trivial_copy_and_destroyEv = comdat any

$_ZNK5boost9function1IvRKN3ros25SingleSubscriberPublisherEE10get_vtableEv = comdat any

$_ZN5boost9function1IvRKN3ros25SingleSubscriberPublisherEEC2Ev = comdat any

$_ZN5boost9function1IvRKN3ros25SingleSubscriberPublisherEE11move_assignERS5_ = comdat any

$_ZN5boost9function1IvRKN3ros25SingleSubscriberPublisherEED2Ev = comdat any

$_ZN5boost9function1IvRKN3ros25SingleSubscriberPublisherEE5clearEv = comdat any

$_ZNK5boost6detail8function13basic_vtable1IvRKN3ros25SingleSubscriberPublisherEE5clearERNS1_15function_bufferE = comdat any

$_ZN3ros14message_traits6MD5SumIN8std_msgs6Int16_ISaIvEEEE5valueEv = comdat any

$_ZN3ros14message_traits8DataTypeIN8std_msgs6Int16_ISaIvEEEE5valueEv = comdat any

$_ZN3ros14message_traits10DefinitionIN8std_msgs6Int16_ISaIvEEEE5valueEv = comdat any

$_ZN5boost10shared_ptrIKvED2Ev = comdat any

$_ZN3ros16SubscribeOptionsC2Ev = comdat any

$_ZN3ros16SubscribeOptions4initIN8std_msgs6Int16_ISaIvEEEEEvRKSsjRKN5boost8functionIFvRKNS8_10shared_ptrIKT_EEEEERKNS9_IFNSA_ISB_EEvEEE = comdat any

$_ZN5boost4bindIv4TestRKNS_10shared_ptrIKN8std_msgs6Int16_ISaIvEEEEEPS1_NS_3argILi1EEEEENS_3_bi6bind_tIT_NS_4_mfi3mf1ISG_T0_T1_EENSE_9list_av_2IT2_T3_E4typeEEEMSJ_FSG_SK_ESN_SO_ = comdat any

$_ZN5boost8functionIFvRKNS_10shared_ptrIKN8std_msgs6Int16_ISaIvEEEEEEEC2INS_3_bi6bind_tIvNS_4_mfi3mf1Iv4TestS9_EENSD_5list2INSD_5valueIPSH_EENS_3argILi1EEEEEEEEET_NS_11enable_if_cIXsr5boost11type_traits7ice_notIXsr11is_integralISR_EE5valueEEE5valueEiE4typeE = comdat any

$_ZN5boost8functionIFNS_10shared_ptrIN8std_msgs6Int16_ISaIvEEEEEvEEC2IN3ros21DefaultMessageCreatorIS5_EEEET_NS_11enable_if_cIXsr5boost11type_traits7ice_notIXsr11is_integralISD_EE5valueEEE5valueEiE4typeE = comdat any

$_ZN5boost8functionIFNS_10shared_ptrIN8std_msgs6Int16_ISaIvEEEEEvEED2Ev = comdat any

$_ZN5boost8functionIFvRKNS_10shared_ptrIKN8std_msgs6Int16_ISaIvEEEEEEED2Ev = comdat any

$_ZN3ros14TransportHintsaSERKS0_ = comdat any

$_ZN3ros16SubscribeOptionsD2Ev = comdat any

$_ZN5boost10shared_ptrIN3ros26SubscriptionCallbackHelperEEC2Ev = comdat any

$_ZN5boost10shared_ptrIN3ros26SubscriptionCallbackHelperEED2Ev = comdat any

$_ZN5boost10shared_ptrIN3ros26SubscriptionCallbackHelperEEaSERKS3_ = comdat any

$_ZN5boost8functionIFvRKNS_10shared_ptrIKN8std_msgs6Int16_ISaIvEEEEEEEC2ERKSB_ = comdat any

$_ZN5boost8functionIFvNS_10shared_ptrIKN8std_msgs6Int16_ISaIvEEEEEEEC2INS0_IFvRKS7_EEEEET_NS_11enable_if_cIXsr5boost11type_traits7ice_notIXsr11is_integralISF_EE5valueEEE5valueEiE4typeE = comdat any

$_ZN3ros27SubscriptionCallbackHelperTIRKN5boost10shared_ptrIKN8std_msgs6Int16_ISaIvEEEEEvEC2ERKNS1_8functionIFvS8_EEERKNSC_IFNS2_IS6_EEvEEE = comdat any

$_ZN5boost10shared_ptrIN3ros26SubscriptionCallbackHelperEEC2INS1_27SubscriptionCallbackHelperTIRKNS0_IKN8std_msgs6Int16_ISaIvEEEEEvEEEEPT_ = comdat any

$_ZN5boost8functionIFvNS_10shared_ptrIKN8std_msgs6Int16_ISaIvEEEEEEED2Ev = comdat any

$_ZN5boost10shared_ptrIN3ros26SubscriptionCallbackHelperEEC2ERKS3_ = comdat any

$_ZN5boost10shared_ptrIN3ros26SubscriptionCallbackHelperEE4swapERS3_ = comdat any

$_ZSt4swapIPN3ros26SubscriptionCallbackHelperEEvRT_S4_ = comdat any

$_ZN5boost9function1IvRKNS_10shared_ptrIKN8std_msgs6Int16_ISaIvEEEEEEC2ERKSA_ = comdat any

$_ZN5boost9function1IvRKNS_10shared_ptrIKN8std_msgs6Int16_ISaIvEEEEEE13assign_to_ownERKSA_ = comdat any

$_ZNK5boost9function1IvRKNS_10shared_ptrIKN8std_msgs6Int16_ISaIvEEEEEE10get_vtableEv = comdat any

$_ZN5boost9function1IvNS_10shared_ptrIKN8std_msgs6Int16_ISaIvEEEEEEC2INS_8functionIFvRKS7_EEEEET_NS_11enable_if_cIXsr5boost11type_traits7ice_notIXsr11is_integralISF_EE5valueEEE5valueEiE4typeE = comdat any

$_ZN5boost9function1IvNS_10shared_ptrIKN8std_msgs6Int16_ISaIvEEEEEE9assign_toINS_8functionIFvRKS7_EEEEEvT_ = comdat any

$_ZN5boost6detail8function15functor_managerINS_8functionIFvRKNS_10shared_ptrIKN8std_msgs6Int16_ISaIvEEEEEEEEE6manageERKNS1_15function_bufferERSG_NS1_30functor_manager_operation_typeE = comdat any

$_ZN5boost6detail8function26void_function_obj_invoker1INS_8functionIFvRKNS_10shared_ptrIKN8std_msgs6Int16_ISaIvEEEEEEEEvSA_E6invokeERNS1_15function_bufferESA_ = comdat any

$_ZNK5boost6detail8function13basic_vtable1IvNS_10shared_ptrIKN8std_msgs6Int16_ISaIvEEEEEE9assign_toINS_8functionIFvRKS9_EEEEEbT_RNS1_15function_bufferE = comdat any

$_ZN5boost6detail8function15functor_managerINS_8functionIFvRKNS_10shared_ptrIKN8std_msgs6Int16_ISaIvEEEEEEEEE7managerERKNS1_15function_bufferERSG_NS1_30functor_manager_operation_typeENS1_16function_obj_tagE = comdat any

$_ZN5boost6detail8function15functor_managerINS_8functionIFvRKNS_10shared_ptrIKN8std_msgs6Int16_ISaIvEEEEEEEEE7managerERKNS1_15function_bufferERSG_NS1_30functor_manager_operation_typeEN4mpl_5bool_ILb0EEE = comdat any

$_ZNKSt9type_info4nameEv = comdat any

$_ZNK5boost9function1IvRKNS_10shared_ptrIKN8std_msgs6Int16_ISaIvEEEEEEclES9_ = comdat any

$_ZN5boost15throw_exceptionINS_17bad_function_callEEEvRKT_ = comdat any

$_ZN5boost17bad_function_callC2Ev = comdat any

$_ZN5boost17bad_function_callD2Ev = comdat any

$_ZN5boost36throw_exception_assert_compatibilityERKSt9exception = comdat any

$_ZN5boost24enable_current_exceptionINS_16exception_detail19error_info_injectorINS_17bad_function_callEEEEENS1_10clone_implIT_EERKS6_ = comdat any

$_ZN5boost17enable_error_infoINS_17bad_function_callEEENS_16exception_detail29enable_error_info_return_typeIT_E4typeERKS4_ = comdat any

$_ZN5boost16exception_detail10clone_implINS0_19error_info_injectorINS_17bad_function_callEEEED1Ev = comdat any

$_ZN5boost16exception_detail19error_info_injectorINS_17bad_function_callEED2Ev = comdat any

$_ZN5boost16exception_detail10clone_implINS0_19error_info_injectorINS_17bad_function_callEEEEC1ERKS4_ = comdat any

$_ZN5boost16exception_detail10clone_baseC2Ev = comdat any

$_ZN5boost16exception_detail19error_info_injectorINS_17bad_function_callEEC2ERKS3_ = comdat any

$_ZN5boost16exception_detail20copy_boost_exceptionEPNS_9exceptionEPKS1_ = comdat any

$_ZN5boost16exception_detail10clone_implINS0_19error_info_injectorINS_17bad_function_callEEEED0Ev = comdat any

$_ZNK5boost16exception_detail10clone_implINS0_19error_info_injectorINS_17bad_function_callEEEE5cloneEv = comdat any

$_ZNK5boost16exception_detail10clone_implINS0_19error_info_injectorINS_17bad_function_callEEEE7rethrowEv = comdat any

$_ZThn16_N5boost16exception_detail10clone_implINS0_19error_info_injectorINS_17bad_function_callEEEED1Ev = comdat any

$_ZThn16_N5boost16exception_detail10clone_implINS0_19error_info_injectorINS_17bad_function_callEEEED0Ev = comdat any

$_ZTv0_n24_NK5boost16exception_detail10clone_implINS0_19error_info_injectorINS_17bad_function_callEEEE5cloneEv = comdat any

$_ZTv0_n32_NK5boost16exception_detail10clone_implINS0_19error_info_injectorINS_17bad_function_callEEEE7rethrowEv = comdat any

$_ZTv0_n40_N5boost16exception_detail10clone_implINS0_19error_info_injectorINS_17bad_function_callEEEED1Ev = comdat any

$_ZTv0_n40_N5boost16exception_detail10clone_implINS0_19error_info_injectorINS_17bad_function_callEEEED0Ev = comdat any

$_ZN5boost16exception_detail10clone_baseD2Ev = comdat any

$_ZN5boost16exception_detail10clone_baseD0Ev = comdat any

$_ZN5boost17bad_function_callC2ERKS0_ = comdat any

$_ZN5boost9exceptionC2ERKS0_ = comdat any

$_ZN5boost16exception_detail19error_info_injectorINS_17bad_function_callEED0Ev = comdat any

$_ZThn16_N5boost16exception_detail19error_info_injectorINS_17bad_function_callEED1Ev = comdat any

$_ZThn16_N5boost16exception_detail19error_info_injectorINS_17bad_function_callEED0Ev = comdat any

$_ZNSt13runtime_errorC2ERKS_ = comdat any

$_ZN5boost17bad_function_callD0Ev = comdat any

$_ZNSt9exceptionC2ERKS_ = comdat any

$_ZN5boost16exception_detail12refcount_ptrINS0_20error_info_containerEEC2ERKS3_ = comdat any

$_ZN5boost16exception_detail12refcount_ptrINS0_20error_info_containerEE7add_refEv = comdat any

$_ZN5boost16exception_detail12refcount_ptrINS0_20error_info_containerEEC2Ev = comdat any

$_ZNK5boost16exception_detail12refcount_ptrINS0_20error_info_containerEE3getEv = comdat any

$_ZN5boost16exception_detail12refcount_ptrINS0_20error_info_containerEEaSERKS3_ = comdat any

$_ZN5boost16exception_detail12refcount_ptrINS0_20error_info_containerEED2Ev = comdat any

$_ZN5boost16exception_detail12refcount_ptrINS0_20error_info_containerEE5adoptEPS2_ = comdat any

$_ZN5boost16exception_detail12refcount_ptrINS0_20error_info_containerEE7releaseEv = comdat any

$_ZN5boost9exceptionD2Ev = comdat any

$_ZN5boost16exception_detail10clone_implINS0_19error_info_injectorINS_17bad_function_callEEEEC1ERKS5_NS5_9clone_tagE = comdat any

$_ZN5boost16exception_detail10clone_implINS0_19error_info_injectorINS_17bad_function_callEEEEC1ERKS5_ = comdat any

$_ZN5boost16exception_detail10clone_baseC2ERKS1_ = comdat any

$_ZN5boost16exception_detail19error_info_injectorINS_17bad_function_callEEC2ERKS2_ = comdat any

$_ZN5boost9exceptionC2Ev = comdat any

$_ZN5boost16exception_detail10clone_implINS0_19error_info_injectorINS_17bad_function_callEEEED2Ev = comdat any

$_ZNK5boost6detail8function13basic_vtable1IvNS_10shared_ptrIKN8std_msgs6Int16_ISaIvEEEEEE9assign_toINS_8functionIFvRKS9_EEEEEbT_RNS1_15function_bufferENS1_16function_obj_tagE = comdat any

$_ZN5boost6detail8function16has_empty_targetEPKNS_13function_baseE = comdat any

$_ZN5boost9addressofINS_8functionIFvRKNS_10shared_ptrIKN8std_msgs6Int16_ISaIvEEEEEEEEEEPT_RSD_ = comdat any

$_ZNK5boost6detail8function13basic_vtable1IvNS_10shared_ptrIKN8std_msgs6Int16_ISaIvEEEEEE14assign_functorINS_8functionIFvRKS9_EEEEEvT_RNS1_15function_bufferEN4mpl_5bool_ILb0EEE = comdat any

$_ZN5boost6detail14addressof_implINS_8functionIFvRKNS_10shared_ptrIKN8std_msgs6Int16_ISaIvEEEEEEEEE1fERSD_l = comdat any

$_ZN5boost6detail13addr_impl_refINS_8functionIFvRKNS_10shared_ptrIKN8std_msgs6Int16_ISaIvEEEEEEEEEC2ERSD_ = comdat any

$_ZNK5boost6detail13addr_impl_refINS_8functionIFvRKNS_10shared_ptrIKN8std_msgs6Int16_ISaIvEEEEEEEEEcvRSD_Ev = comdat any

$_ZN3ros26SubscriptionCallbackHelperC2Ev = comdat any

$_ZN5boost8functionIFvNS_10shared_ptrIKN8std_msgs6Int16_ISaIvEEEEEEEC2ERKS9_ = comdat any

$_ZN5boost8functionIFNS_10shared_ptrIN8std_msgs6Int16_ISaIvEEEEEvEEC2ERKS8_ = comdat any

$_ZN3ros27SubscriptionCallbackHelperTIRKN5boost10shared_ptrIKN8std_msgs6Int16_ISaIvEEEEEvED2Ev = comdat any

$_ZN3ros27SubscriptionCallbackHelperTIRKN5boost10shared_ptrIKN8std_msgs6Int16_ISaIvEEEEEvED0Ev = comdat any

$_ZN3ros27SubscriptionCallbackHelperTIRKN5boost10shared_ptrIKN8std_msgs6Int16_ISaIvEEEEEvE11deserializeERKNS_43SubscriptionCallbackHelperDeserializeParamsE = comdat any

$_ZN3ros27SubscriptionCallbackHelperTIRKN5boost10shared_ptrIKN8std_msgs6Int16_ISaIvEEEEEvE4callERNS_36SubscriptionCallbackHelperCallParamsE = comdat any

$_ZN3ros27SubscriptionCallbackHelperTIRKN5boost10shared_ptrIKN8std_msgs6Int16_ISaIvEEEEEvE11getTypeInfoEv = comdat any

$_ZN3ros27SubscriptionCallbackHelperTIRKN5boost10shared_ptrIKN8std_msgs6Int16_ISaIvEEEEEvE7isConstEv = comdat any

$_ZN3ros27SubscriptionCallbackHelperTIRKN5boost10shared_ptrIKN8std_msgs6Int16_ISaIvEEEEEvE9hasHeaderEv = comdat any

$_ZN3ros26SubscriptionCallbackHelperD2Ev = comdat any

$_ZN3ros26SubscriptionCallbackHelperD0Ev = comdat any

$_ZN5boost9function1IvNS_10shared_ptrIKN8std_msgs6Int16_ISaIvEEEEEEC2ERKS8_ = comdat any

$_ZN5boost9function1IvNS_10shared_ptrIKN8std_msgs6Int16_ISaIvEEEEEE13assign_to_ownERKS8_ = comdat any

$_ZNK5boost9function1IvNS_10shared_ptrIKN8std_msgs6Int16_ISaIvEEEEEE10get_vtableEv = comdat any

$_ZN5boost9function0INS_10shared_ptrIN8std_msgs6Int16_ISaIvEEEEEEC2ERKS7_ = comdat any

$_ZN5boost9function0INS_10shared_ptrIN8std_msgs6Int16_ISaIvEEEEEE13assign_to_ownERKS7_ = comdat any

$_ZNK5boost9function0INS_10shared_ptrIN8std_msgs6Int16_ISaIvEEEEEE10get_vtableEv = comdat any

$_ZNK5boost9function0INS_10shared_ptrIN8std_msgs6Int16_ISaIvEEEEEEclEv = comdat any

$_ZNK5boost10shared_ptrIN8std_msgs6Int16_ISaIvEEEEntEv = comdat any

$_ZN3ros13serialization20PreDeserializeParamsIN8std_msgs6Int16_ISaIvEEEEC2Ev = comdat any

$_ZN5boost10shared_ptrIN8std_msgs6Int16_ISaIvEEEEaSERKS5_ = comdat any

$_ZN5boost10shared_ptrISt3mapISsSsSt4lessISsESaISt4pairIKSsSsEEEEaSERKS9_ = comdat any

$_ZN3ros13serialization14PreDeserializeIN8std_msgs6Int16_ISaIvEEEE6notifyERKNS0_20PreDeserializeParamsIS5_EE = comdat any

$_ZN3ros13serialization7IStreamC2EPhj = comdat any

$_ZN3ros13serialization11deserializeIN8std_msgs6Int16_ISaIvEEENS0_7IStreamEEEvRT0_RT_ = comdat any

$_ZNK5boost10shared_ptrIN8std_msgs6Int16_ISaIvEEEEdeEv = comdat any

$_ZN5boost10shared_ptrIKvEC2IN8std_msgs6Int16_ISaIvEEEEERKNS0_IT_EENS_6detail24sp_enable_if_convertibleIS8_S1_E4typeE = comdat any

$_ZN3ros13serialization20PreDeserializeParamsIN8std_msgs6Int16_ISaIvEEEED2Ev = comdat any

$_ZN5boost10shared_ptrIN8std_msgs6Int16_ISaIvEEEED2Ev = comdat any

$_ZN5boost10shared_ptrIN8std_msgs6Int16_ISaIvEEEEC2Ev = comdat any

$_ZN5boost10shared_ptrISt3mapISsSsSt4lessISsESaISt4pairIKSsSsEEEEC2Ev = comdat any

$_ZN5boost10shared_ptrIN8std_msgs6Int16_ISaIvEEEEC2ERKS5_ = comdat any

$_ZN5boost10shared_ptrIN8std_msgs6Int16_ISaIvEEEE4swapERS5_ = comdat any

$_ZSt4swapIPN8std_msgs6Int16_ISaIvEEEEvRT_S6_ = comdat any

$_ZN5boost10shared_ptrISt3mapISsSsSt4lessISsESaISt4pairIKSsSsEEEEC2ERKS9_ = comdat any

$_ZN5boost10shared_ptrISt3mapISsSsSt4lessISsESaISt4pairIKSsSsEEEE4swapERS9_ = comdat any

$_ZN5boost10shared_ptrISt3mapISsSsSt4lessISsESaISt4pairIKSsSsEEEED2Ev = comdat any

$_ZSt4swapIPSt3mapISsSsSt4lessISsESaISt4pairIKSsSsEEEEvRT_SA_ = comdat any

$_ZN3ros13serialization6StreamC2EPhj = comdat any

$_ZN3ros13serialization10SerializerIN8std_msgs6Int16_ISaIvEEEE4readINS0_7IStreamES5_EEvRT_RT0_ = comdat any

$_ZN3ros13serialization10SerializerIN8std_msgs6Int16_ISaIvEEEE8allInOneINS0_7IStreamERS5_EEvRT_T0_ = comdat any

$_ZN3ros13serialization7IStream4nextIsEEvRT_ = comdat any

$_ZN3ros13serialization11deserializeIsNS0_7IStreamEEEvRT0_RT_ = comdat any

$_ZN3ros13serialization10SerializerIsE4readINS0_7IStreamEEEvRT_Rs = comdat any

$_ZN3ros13serialization6Stream7advanceEj = comdat any

$_ZN5boost6detail21sp_assert_convertibleIN8std_msgs6Int16_ISaIvEEEKvEEvv = comdat any

$_ZN3ros12MessageEventIKN8std_msgs6Int16_ISaIvEEEEC2ERKNS0_IKvEERKN5boost8functionIFNSB_10shared_ptrIS4_EEvEEE = comdat any

$_ZNK5boost9function1IvNS_10shared_ptrIKN8std_msgs6Int16_ISaIvEEEEEEclES7_ = comdat any

$_ZN3ros16ParameterAdapterIRKN5boost10shared_ptrIKN8std_msgs6Int16_ISaIvEEEEEE12getParameterERKNS_12MessageEventIS7_EE = comdat any

$_ZN5boost10shared_ptrIKN8std_msgs6Int16_ISaIvEEEED2Ev = comdat any

$_ZN3ros12MessageEventIKN8std_msgs6Int16_ISaIvEEEED2Ev = comdat any

$_ZN5boost10shared_ptrIKN8std_msgs6Int16_ISaIvEEEEC2Ev = comdat any

$_ZN3ros4TimeC2Ev = comdat any

$_ZN5boost8functionIFNS_10shared_ptrIN8std_msgs6Int16_ISaIvEEEEEvEEC2Ev = comdat any

$_ZN3ros12MessageEventIKN8std_msgs6Int16_ISaIvEEEE4initERKN5boost10shared_ptrIS5_EERKNS8_ISt3mapISsSsSt4lessISsESaISt4pairIKSsSsEEEEENS_4TimeEbRKNS7_8functionIFNS8_IS4_EEvEEE = comdat any

$_ZN5boost18const_pointer_castIN8std_msgs6Int16_ISaIvEEEKS4_EENS_10shared_ptrIT_EERKNS6_IT0_EE = comdat any

$_ZN5boost19static_pointer_castIKN8std_msgs6Int16_ISaIvEEEKvEENS_10shared_ptrIT_EERKNS7_IT0_EE = comdat any

$_ZNK3ros12MessageEventIKvE10getMessageEv = comdat any

$_ZN5boost10shared_ptrIKN8std_msgs6Int16_ISaIvEEEEC2IS4_EERKNS0_IT_EENS_6detail24sp_enable_if_convertibleIS8_S5_E4typeE = comdat any

$_ZNK3ros12MessageEventIKvE22getConnectionHeaderPtrEv = comdat any

$_ZNK3ros12MessageEventIKvE14getReceiptTimeEv = comdat any

$_ZNK3ros12MessageEventIKvE16nonConstWillCopyEv = comdat any

$_ZN3ros4TimeD2Ev = comdat any

$_ZN3ros8TimeBaseINS_4TimeENS_8DurationEEC2Ev = comdat any

$_ZN5boost10shared_ptrIKN8std_msgs6Int16_ISaIvEEEEaSERKS6_ = comdat any

$_ZN5boost8functionIFNS_10shared_ptrIN8std_msgs6Int16_ISaIvEEEEEvEEaSERKS8_ = comdat any

$_ZN5boost10shared_ptrIKN8std_msgs6Int16_ISaIvEEEEC2ERKS6_ = comdat any

$_ZN5boost10shared_ptrIKN8std_msgs6Int16_ISaIvEEEE4swapERS6_ = comdat any

$_ZSt4swapIPKN8std_msgs6Int16_ISaIvEEEEvRT_S7_ = comdat any

$_ZN5boost9function0INS_10shared_ptrIN8std_msgs6Int16_ISaIvEEEEEE4swapERS7_ = comdat any

$_ZN5boost9function0INS_10shared_ptrIN8std_msgs6Int16_ISaIvEEEEEEC2Ev = comdat any

$_ZN5boost9function0INS_10shared_ptrIN8std_msgs6Int16_ISaIvEEEEEE11move_assignERS7_ = comdat any

$_ZN5boost9function0INS_10shared_ptrIN8std_msgs6Int16_ISaIvEEEEEED2Ev = comdat any

$_ZN5boost9function0INS_10shared_ptrIN8std_msgs6Int16_ISaIvEEEEEE5clearEv = comdat any

$_ZNK5boost6detail8function13basic_vtable0INS_10shared_ptrIN8std_msgs6Int16_ISaIvEEEEEE5clearERNS1_15function_bufferE = comdat any

$_ZNK5boost10shared_ptrIKN8std_msgs6Int16_ISaIvEEEE3getEv = comdat any

$_ZN5boost10shared_ptrIN8std_msgs6Int16_ISaIvEEEEC2IKS4_EERKNS0_IT_EEPS4_ = comdat any

$_ZNK5boost10shared_ptrIKvE3getEv = comdat any

$_ZN5boost10shared_ptrIKN8std_msgs6Int16_ISaIvEEEEC2IKvEERKNS0_IT_EEPS5_ = comdat any

$_ZNK3ros12MessageEventIKvE22copyMessageIfNecessaryIS1_EEN5boost9enable_ifINS4_7is_voidIT_EENS4_10shared_ptrIS1_EEE4typeEv = comdat any

$_ZN5boost18const_pointer_castIvKvEENS_10shared_ptrIT_EERKNS2_IT0_EE = comdat any

$_ZN5boost10shared_ptrIKvEC2IvEERKNS0_IT_EENS_6detail24sp_enable_if_convertibleIS4_S1_E4typeE = comdat any

$_ZN5boost10shared_ptrIvED2Ev = comdat any

$_ZN5boost10shared_ptrIvEC2IKvEERKNS0_IT_EEPv = comdat any

$_ZN5boost6detail21sp_assert_convertibleIvKvEEvv = comdat any

$_ZN5boost6detail21sp_assert_convertibleIN8std_msgs6Int16_ISaIvEEEKS5_EEvv = comdat any

$_ZN3ros8TimeBaseINS_4TimeENS_8DurationEED2Ev = comdat any

$_ZNK3ros12MessageEventIKN8std_msgs6Int16_ISaIvEEEE10getMessageEv = comdat any

$_ZNK3ros12MessageEventIKN8std_msgs6Int16_ISaIvEEEE22copyMessageIfNecessaryIS5_EEN5boost10disable_ifINS8_7is_voidIT_EENS8_10shared_ptrIS5_EEE4typeEv = comdat any

$_ZN5boost6detail20sp_pointer_constructIN3ros26SubscriptionCallbackHelperENS2_27SubscriptionCallbackHelperTIRKNS_10shared_ptrIKN8std_msgs6Int16_ISaIvEEEEEvEEEEvPNS5_IT_EEPT0_RNS0_12shared_countE = comdat any

$_ZN5boost6detail12shared_countC2IN3ros27SubscriptionCallbackHelperTIRKNS_10shared_ptrIKN8std_msgs6Int16_ISaIvEEEEEvEEEEPT_ = comdat any

$_ZN5boost6detail26sp_enable_shared_from_thisEz = comdat any

$_ZN5boost6detail17sp_counted_impl_pIN3ros27SubscriptionCallbackHelperTIRKNS_10shared_ptrIKN8std_msgs6Int16_ISaIvEEEEEvEEEC2EPSD_ = comdat any

$_ZN5boost14checked_deleteIN3ros27SubscriptionCallbackHelperTIRKNS_10shared_ptrIKN8std_msgs6Int16_ISaIvEEEEEvEEEEvPT_ = comdat any

$_ZN5boost6detail15sp_counted_baseC2Ev = comdat any

$_ZN5boost6detail17sp_counted_impl_pIN3ros27SubscriptionCallbackHelperTIRKNS_10shared_ptrIKN8std_msgs6Int16_ISaIvEEEEEvEEED2Ev = comdat any

$_ZN5boost6detail17sp_counted_impl_pIN3ros27SubscriptionCallbackHelperTIRKNS_10shared_ptrIKN8std_msgs6Int16_ISaIvEEEEEvEEED0Ev = comdat any

$_ZN5boost6detail17sp_counted_impl_pIN3ros27SubscriptionCallbackHelperTIRKNS_10shared_ptrIKN8std_msgs6Int16_ISaIvEEEEEvEEE7disposeEv = comdat any

$_ZN5boost6detail15sp_counted_base7destroyEv = comdat any

$_ZN5boost6detail17sp_counted_impl_pIN3ros27SubscriptionCallbackHelperTIRKNS_10shared_ptrIKN8std_msgs6Int16_ISaIvEEEEEvEEE11get_deleterERKSt9type_info = comdat any

$_ZN5boost6detail17sp_counted_impl_pIN3ros27SubscriptionCallbackHelperTIRKNS_10shared_ptrIKN8std_msgs6Int16_ISaIvEEEEEvEEE19get_untyped_deleterEv = comdat any

$_ZN5boost6detail15sp_counted_baseD2Ev = comdat any

$_ZN5boost6detail15sp_counted_baseD0Ev = comdat any

$_ZN5boost9function1IvNS_10shared_ptrIKN8std_msgs6Int16_ISaIvEEEEEED2Ev = comdat any

$_ZN5boost9function1IvNS_10shared_ptrIKN8std_msgs6Int16_ISaIvEEEEEE5clearEv = comdat any

$_ZNK5boost6detail8function13basic_vtable1IvNS_10shared_ptrIKN8std_msgs6Int16_ISaIvEEEEEE5clearERNS1_15function_bufferE = comdat any

$_ZN5boost4_mfi3mf1Iv4TestRKNS_10shared_ptrIKN8std_msgs6Int16_ISaIvEEEEEEC2EMS2_FvSB_E = comdat any

$_ZN5boost3_bi5valueIP4TestEC2ERKS3_ = comdat any

$_ZN5boost3_bi5list2INS0_5valueIP4TestEENS_3argILi1EEEEC2ES5_S7_ = comdat any

$_ZN5boost3_bi6bind_tIvNS_4_mfi3mf1Iv4TestRKNS_10shared_ptrIKN8std_msgs6Int16_ISaIvEEEEEEENS0_5list2INS0_5valueIPS4_EENS_3argILi1EEEEEEC2ESE_RKSL_ = comdat any

$_ZN5boost3_bi8storage2INS0_5valueIP4TestEENS_3argILi1EEEEC2ES5_S7_ = comdat any

$_ZN5boost3_bi8storage1INS0_5valueIP4TestEEEC2ES5_ = comdat any

$_ZN5boost9function1IvRKNS_10shared_ptrIKN8std_msgs6Int16_ISaIvEEEEEEC2INS_3_bi6bind_tIvNS_4_mfi3mf1Iv4TestS9_EENSC_5list2INSC_5valueIPSG_EENS_3argILi1EEEEEEEEET_NS_11enable_if_cIXsr5boost11type_traits7ice_notIXsr11is_integralISQ_EE5valueEEE5valueEiE4typeE = comdat any

$_ZN5boost9function1IvRKNS_10shared_ptrIKN8std_msgs6Int16_ISaIvEEEEEE9assign_toINS_3_bi6bind_tIvNS_4_mfi3mf1Iv4TestS9_EENSC_5list2INSC_5valueIPSG_EENS_3argILi1EEEEEEEEEvT_ = comdat any

$_ZN5boost6detail8function15functor_managerINS_3_bi6bind_tIvNS_4_mfi3mf1Iv4TestRKNS_10shared_ptrIKN8std_msgs6Int16_ISaIvEEEEEEENS3_5list2INS3_5valueIPS7_EENS_3argILi1EEEEEEEE6manageERKNS1_15function_bufferERSR_NS1_30functor_manager_operation_typeE = comdat any

$_ZN5boost6detail8function26void_function_obj_invoker1INS_3_bi6bind_tIvNS_4_mfi3mf1Iv4TestRKNS_10shared_ptrIKN8std_msgs6Int16_ISaIvEEEEEEENS3_5list2INS3_5valueIPS7_EENS_3argILi1EEEEEEEvSG_E6invokeERNS1_15function_bufferESG_ = comdat any

$_ZNK5boost6detail8function13basic_vtable1IvRKNS_10shared_ptrIKN8std_msgs6Int16_ISaIvEEEEEE9assign_toINS_3_bi6bind_tIvNS_4_mfi3mf1Iv4TestSB_EENSE_5list2INSE_5valueIPSI_EENS_3argILi1EEEEEEEEEbT_RNS1_15function_bufferE = comdat any

$_ZN5boost6detail8function15functor_managerINS_3_bi6bind_tIvNS_4_mfi3mf1Iv4TestRKNS_10shared_ptrIKN8std_msgs6Int16_ISaIvEEEEEEENS3_5list2INS3_5valueIPS7_EENS_3argILi1EEEEEEEE7managerERKNS1_15function_bufferERSR_NS1_30functor_manager_operation_typeENS1_16function_obj_tagE = comdat any

$_ZN5boost6detail8function15functor_managerINS_3_bi6bind_tIvNS_4_mfi3mf1Iv4TestRKNS_10shared_ptrIKN8std_msgs6Int16_ISaIvEEEEEEENS3_5list2INS3_5valueIPS7_EENS_3argILi1EEEEEEEE7managerERKNS1_15function_bufferERSR_NS1_30functor_manager_operation_typeEN4mpl_5bool_ILb1EEE = comdat any

$_ZN5boost6detail8function22functor_manager_commonINS_3_bi6bind_tIvNS_4_mfi3mf1Iv4TestRKNS_10shared_ptrIKN8std_msgs6Int16_ISaIvEEEEEEENS3_5list2INS3_5valueIPS7_EENS_3argILi1EEEEEEEE12manage_smallERKNS1_15function_bufferERSR_NS1_30functor_manager_operation_typeE = comdat any

$_ZN5boost3_bi6bind_tIvNS_4_mfi3mf1Iv4TestRKNS_10shared_ptrIKN8std_msgs6Int16_ISaIvEEEEEEENS0_5list2INS0_5valueIPS4_EENS_3argILi1EEEEEEclISB_EEvRKT_ = comdat any

$_ZN5boost3_bi5list1IRKNS_10shared_ptrIKN8std_msgs6Int16_ISaIvEEEEEEC2ESA_ = comdat any

$_ZN5boost3_bi5list2INS0_5valueIP4TestEENS_3argILi1EEEEclINS_4_mfi3mf1IvS3_RKNS_10shared_ptrIKN8std_msgs6Int16_ISaIvEEEEEEENS0_5list1ISK_EEEEvNS0_4typeIvEERT_RT0_i = comdat any

$_ZN5boost3_bi8storage1IRKNS_10shared_ptrIKN8std_msgs6Int16_ISaIvEEEEEEC2ESA_ = comdat any

$_ZN5boost3_bi9unwrapperINS_4_mfi3mf1Iv4TestRKNS_10shared_ptrIKN8std_msgs6Int16_ISaIvEEEEEEEE6unwrapERSE_l = comdat any

$_ZNK5boost4_mfi3mf1Iv4TestRKNS_10shared_ptrIKN8std_msgs6Int16_ISaIvEEEEEEclEPS2_SB_ = comdat any

$_ZNK5boost3_bi5list1IRKNS_10shared_ptrIKN8std_msgs6Int16_ISaIvEEEEEEixIP4TestEERT_RNS0_5valueISF_EE = comdat any

$_ZNK5boost3_bi5list1IRKNS_10shared_ptrIKN8std_msgs6Int16_ISaIvEEEEEEixEPFNS_3argILi1EEEvE = comdat any

$_ZN5boost3_bi8storage2INS0_5valueIP4TestEENS_3argILi1EEEE3a2_Ev = comdat any

$_ZN5boost3_bi5valueIP4TestE3getEv = comdat any

$_ZNK5boost6detail8function13basic_vtable1IvRKNS_10shared_ptrIKN8std_msgs6Int16_ISaIvEEEEEE9assign_toINS_3_bi6bind_tIvNS_4_mfi3mf1Iv4TestSB_EENSE_5list2INSE_5valueIPSI_EENS_3argILi1EEEEEEEEEbT_RNS1_15function_bufferENS1_16function_obj_tagE = comdat any

$_ZN5boost6detail8function16has_empty_targetEz = comdat any

$_ZN5boost9addressofINS_3_bi6bind_tIvNS_4_mfi3mf1Iv4TestRKNS_10shared_ptrIKN8std_msgs6Int16_ISaIvEEEEEEENS1_5list2INS1_5valueIPS5_EENS_3argILi1EEEEEEEEEPT_RSO_ = comdat any

$_ZNK5boost6detail8function13basic_vtable1IvRKNS_10shared_ptrIKN8std_msgs6Int16_ISaIvEEEEEE14assign_functorINS_3_bi6bind_tIvNS_4_mfi3mf1Iv4TestSB_EENSE_5list2INSE_5valueIPSI_EENS_3argILi1EEEEEEEEEvT_RNS1_15function_bufferEN4mpl_5bool_ILb1EEE = comdat any

$_ZN5boost6detail14addressof_implINS_3_bi6bind_tIvNS_4_mfi3mf1Iv4TestRKNS_10shared_ptrIKN8std_msgs6Int16_ISaIvEEEEEEENS2_5list2INS2_5valueIPS6_EENS_3argILi1EEEEEEEE1fERSO_l = comdat any

$_ZN5boost6detail13addr_impl_refINS_3_bi6bind_tIvNS_4_mfi3mf1Iv4TestRKNS_10shared_ptrIKN8std_msgs6Int16_ISaIvEEEEEEENS2_5list2INS2_5valueIPS6_EENS_3argILi1EEEEEEEEC2ERSO_ = comdat any

$_ZNK5boost6detail13addr_impl_refINS_3_bi6bind_tIvNS_4_mfi3mf1Iv4TestRKNS_10shared_ptrIKN8std_msgs6Int16_ISaIvEEEEEEENS2_5list2INS2_5valueIPS6_EENS_3argILi1EEEEEEEEcvRSO_Ev = comdat any

$_ZN5boost9function0INS_10shared_ptrIN8std_msgs6Int16_ISaIvEEEEEEC2IN3ros21DefaultMessageCreatorIS5_EEEET_NS_11enable_if_cIXsr5boost11type_traits7ice_notIXsr11is_integralISC_EE5valueEEE5valueEiE4typeE = comdat any

$_ZN5boost9function0INS_10shared_ptrIN8std_msgs6Int16_ISaIvEEEEEE9assign_toIN3ros21DefaultMessageCreatorIS5_EEEEvT_ = comdat any

$_ZN5boost6detail8function15functor_managerIN3ros21DefaultMessageCreatorIN8std_msgs6Int16_ISaIvEEEEEE6manageERKNS1_15function_bufferERSB_NS1_30functor_manager_operation_typeE = comdat any

$_ZN5boost6detail8function21function_obj_invoker0IN3ros21DefaultMessageCreatorIN8std_msgs6Int16_ISaIvEEEEENS_10shared_ptrIS8_EEE6invokeERNS1_15function_bufferE = comdat any

$_ZNK5boost6detail8function13basic_vtable0INS_10shared_ptrIN8std_msgs6Int16_ISaIvEEEEEE9assign_toIN3ros21DefaultMessageCreatorIS7_EEEEbT_RNS1_15function_bufferE = comdat any

$_ZN5boost6detail8function15functor_managerIN3ros21DefaultMessageCreatorIN8std_msgs6Int16_ISaIvEEEEEE7managerERKNS1_15function_bufferERSB_NS1_30functor_manager_operation_typeENS1_16function_obj_tagE = comdat any

$_ZN5boost6detail8function15functor_managerIN3ros21DefaultMessageCreatorIN8std_msgs6Int16_ISaIvEEEEEE7managerERKNS1_15function_bufferERSB_NS1_30functor_manager_operation_typeEN4mpl_5bool_ILb1EEE = comdat any

$_ZN5boost6detail8function22functor_manager_commonIN3ros21DefaultMessageCreatorIN8std_msgs6Int16_ISaIvEEEEEE12manage_smallERKNS1_15function_bufferERSB_NS1_30functor_manager_operation_typeE = comdat any

$_ZN3ros21DefaultMessageCreatorIN8std_msgs6Int16_ISaIvEEEEclEv = comdat any

$_ZN5boost11make_sharedIN8std_msgs6Int16_ISaIvEEEEENS_6detail15sp_if_not_arrayIT_E4typeEv = comdat any

$_ZN5boost10shared_ptrIN8std_msgs6Int16_ISaIvEEEEC2IS4_NS_6detail14sp_inplace_tagINS7_13sp_ms_deleterIS4_EEEEEEPT_T0_ = comdat any

$_ZNK5boost10shared_ptrIN8std_msgs6Int16_ISaIvEEEE29_internal_get_untyped_deleterEv = comdat any

$_ZN5boost6detail13sp_ms_deleterIN8std_msgs6Int16_ISaIvEEEE7addressEv = comdat any

$_ZN5boost6detail13sp_ms_deleterIN8std_msgs6Int16_ISaIvEEEE15set_initializedEv = comdat any

$_ZN5boost10shared_ptrIN8std_msgs6Int16_ISaIvEEEEC2IS4_EERKNS0_IT_EEPS4_ = comdat any

$_ZN5boost6detail12shared_countC2IPN8std_msgs6Int16_ISaIvEEENS0_13sp_ms_deleterIS6_EEEET_NS0_14sp_inplace_tagIT0_EE = comdat any

$_ZN5boost6detail20sp_deleter_constructIN8std_msgs6Int16_ISaIvEEES5_EEvPNS_10shared_ptrIT_EEPT0_ = comdat any

$_ZN5boost6detail18sp_counted_impl_pdIPN8std_msgs6Int16_ISaIvEEENS0_13sp_ms_deleterIS5_EEEC2ES6_ = comdat any

$_ZN5boost6detail13sp_ms_deleterIN8std_msgs6Int16_ISaIvEEEE11operator_fnEPS5_ = comdat any

$_ZN5boost6detail13sp_ms_deleterIN8std_msgs6Int16_ISaIvEEEEC2Ev = comdat any

$_ZN5boost6detail18sp_counted_impl_pdIPN8std_msgs6Int16_ISaIvEEENS0_13sp_ms_deleterIS5_EEED2Ev = comdat any

$_ZN5boost6detail18sp_counted_impl_pdIPN8std_msgs6Int16_ISaIvEEENS0_13sp_ms_deleterIS5_EEED0Ev = comdat any

$_ZN5boost6detail18sp_counted_impl_pdIPN8std_msgs6Int16_ISaIvEEENS0_13sp_ms_deleterIS5_EEE7disposeEv = comdat any

$_ZN5boost6detail18sp_counted_impl_pdIPN8std_msgs6Int16_ISaIvEEENS0_13sp_ms_deleterIS5_EEE11get_deleterERKSt9type_info = comdat any

$_ZN5boost6detail18sp_counted_impl_pdIPN8std_msgs6Int16_ISaIvEEENS0_13sp_ms_deleterIS5_EEE19get_untyped_deleterEv = comdat any

$_ZN5boost6detail13sp_ms_deleterIN8std_msgs6Int16_ISaIvEEEED2Ev = comdat any

$_ZN5boost6detail13sp_ms_deleterIN8std_msgs6Int16_ISaIvEEEE7destroyEv = comdat any

$_ZN5boost6detail13sp_ms_deleterIN8std_msgs6Int16_ISaIvEEEEclEPS5_ = comdat any

$_ZNKSt9type_infoeqERKS_ = comdat any

$_ZNK5boost6detail12shared_count19get_untyped_deleterEv = comdat any

$_ZNK5boost6detail8function13basic_vtable0INS_10shared_ptrIN8std_msgs6Int16_ISaIvEEEEEE9assign_toIN3ros21DefaultMessageCreatorIS7_EEEEbT_RNS1_15function_bufferENS1_16function_obj_tagE = comdat any

$_ZN5boost9addressofIN3ros21DefaultMessageCreatorIN8std_msgs6Int16_ISaIvEEEEEEEPT_RS8_ = comdat any

$_ZNK5boost6detail8function13basic_vtable0INS_10shared_ptrIN8std_msgs6Int16_ISaIvEEEEEE14assign_functorIN3ros21DefaultMessageCreatorIS7_EEEEvT_RNS1_15function_bufferEN4mpl_5bool_ILb1EEE = comdat any

$_ZN5boost6detail14addressof_implIN3ros21DefaultMessageCreatorIN8std_msgs6Int16_ISaIvEEEEEE1fERS8_l = comdat any

$_ZN5boost6detail13addr_impl_refIN3ros21DefaultMessageCreatorIN8std_msgs6Int16_ISaIvEEEEEEC2ERS8_ = comdat any

$_ZNK5boost6detail13addr_impl_refIN3ros21DefaultMessageCreatorIN8std_msgs6Int16_ISaIvEEEEEEcvRS8_Ev = comdat any

$_ZN5boost9function1IvRKNS_10shared_ptrIKN8std_msgs6Int16_ISaIvEEEEEED2Ev = comdat any

$_ZN5boost9function1IvRKNS_10shared_ptrIKN8std_msgs6Int16_ISaIvEEEEEE5clearEv = comdat any

$_ZNK5boost6detail8function13basic_vtable1IvRKNS_10shared_ptrIKN8std_msgs6Int16_ISaIvEEEEEE5clearERNS1_15function_bufferE = comdat any

$_ZNSt6vectorISsSaISsEEaSERKS1_ = comdat any

$_ZNSt3mapISsSsSt4lessISsESaISt4pairIKSsSsEEEaSERKS6_ = comdat any

$_ZNKSt6vectorISsSaISsEE4sizeEv = comdat any

$_ZNKSt6vectorISsSaISsEE8capacityEv = comdat any

$_ZNSt6vectorISsSaISsEE20_M_allocate_and_copyIN9__gnu_cxx17__normal_iteratorIPKSsS1_EEEEPSsmT_S9_ = comdat any

$_ZNKSt6vectorISsSaISsEE5beginEv = comdat any

$_ZNKSt6vectorISsSaISsEE3endEv = comdat any

$_ZSt8_DestroyIN9__gnu_cxx17__normal_iteratorIPSsSt6vectorISsSaISsEEEESsEvT_S7_RSaIT0_E = comdat any

$_ZSt4copyIN9__gnu_cxx17__normal_iteratorIPKSsSt6vectorISsSaISsEEEENS1_IPSsS6_EEET0_T_SB_SA_ = comdat any

$_ZNSt6vectorISsSaISsEE5beginEv = comdat any

$_ZNSt6vectorISsSaISsEE3endEv = comdat any

$_ZSt4copyIPSsS0_ET0_T_S2_S1_ = comdat any

$_ZSt22__uninitialized_copy_aIPSsS0_SsET0_T_S2_S1_RSaIT1_E = comdat any

$_ZNSt12_Vector_baseISsSaISsEE11_M_allocateEm = comdat any

$_ZSt22__uninitialized_copy_aIN9__gnu_cxx17__normal_iteratorIPKSsSt6vectorISsSaISsEEEEPSsSsET0_T_SA_S9_RSaIT1_E = comdat any

$_ZN9__gnu_cxx13new_allocatorISsE8allocateEmPKv = comdat any

$_ZNK9__gnu_cxx13new_allocatorISsE8max_sizeEv = comdat any

$_ZSt18uninitialized_copyIN9__gnu_cxx17__normal_iteratorIPKSsSt6vectorISsSaISsEEEEPSsET0_T_SA_S9_ = comdat any

$_ZNSt20__uninitialized_copyILb0EE13__uninit_copyIN9__gnu_cxx17__normal_iteratorIPKSsSt6vectorISsSaISsEEEEPSsEET0_T_SC_SB_ = comdat any

$_ZN9__gnu_cxxneIPKSsSt6vectorISsSaISsEEEEbRKNS_17__normal_iteratorIT_T0_EESB_ = comdat any

$_ZSt10_ConstructISsSsEvPT_RKT0_ = comdat any

$_ZNK9__gnu_cxx17__normal_iteratorIPKSsSt6vectorISsSaISsEEEdeEv = comdat any

$_ZN9__gnu_cxx17__normal_iteratorIPKSsSt6vectorISsSaISsEEEppEv = comdat any

$_ZNK9__gnu_cxx17__normal_iteratorIPKSsSt6vectorISsSaISsEEE4baseEv = comdat any

$_ZN9__gnu_cxx17__normal_iteratorIPKSsSt6vectorISsSaISsEEEC2ERKS2_ = comdat any

$_ZSt8_DestroyIN9__gnu_cxx17__normal_iteratorIPSsSt6vectorISsSaISsEEEEEvT_S7_ = comdat any

$_ZNSt12_Destroy_auxILb0EE9__destroyIN9__gnu_cxx17__normal_iteratorIPSsSt6vectorISsSaISsEEEEEEvT_S9_ = comdat any

$_ZN9__gnu_cxxneIPSsSt6vectorISsSaISsEEEEbRKNS_17__normal_iteratorIT_T0_EESA_ = comdat any

$_ZNK9__gnu_cxx17__normal_iteratorIPSsSt6vectorISsSaISsEEEdeEv = comdat any

$_ZN9__gnu_cxx17__normal_iteratorIPSsSt6vectorISsSaISsEEEppEv = comdat any

$_ZNK9__gnu_cxx17__normal_iteratorIPSsSt6vectorISsSaISsEEE4baseEv = comdat any

$_ZSt14__copy_move_a2ILb0EN9__gnu_cxx17__normal_iteratorIPKSsSt6vectorISsSaISsEEEENS1_IPSsS6_EEET1_T0_SB_SA_ = comdat any

$_ZSt12__miter_baseIN9__gnu_cxx17__normal_iteratorIPKSsSt6vectorISsSaISsEEEEENSt11_Miter_baseIT_E13iterator_typeES9_ = comdat any

$_ZSt13__copy_move_aILb0EPKSsPSsET1_T0_S4_S3_ = comdat any

$_ZSt12__niter_baseIN9__gnu_cxx17__normal_iteratorIPKSsSt6vectorISsSaISsEEEEENSt11_Niter_baseIT_E13iterator_typeES9_ = comdat any

$_ZSt12__niter_baseIN9__gnu_cxx17__normal_iteratorIPSsSt6vectorISsSaISsEEEEENSt11_Niter_baseIT_E13iterator_typeES8_ = comdat any

$_ZN9__gnu_cxx17__normal_iteratorIPSsSt6vectorISsSaISsEEEC2ERKS1_ = comdat any

$_ZNSt11__copy_moveILb0ELb0ESt26random_access_iterator_tagE8__copy_mIPKSsPSsEET0_T_S7_S6_ = comdat any

$_ZNSt10_Iter_baseIN9__gnu_cxx17__normal_iteratorIPKSsSt6vectorISsSaISsEEEELb1EE7_S_baseES7_ = comdat any

$_ZNSt10_Iter_baseIN9__gnu_cxx17__normal_iteratorIPSsSt6vectorISsSaISsEEEELb1EE7_S_baseES6_ = comdat any

$_ZNSt10_Iter_baseIN9__gnu_cxx17__normal_iteratorIPKSsSt6vectorISsSaISsEEEELb0EE7_S_baseES7_ = comdat any

$_ZSt14__copy_move_a2ILb0EPSsS0_ET1_T0_S2_S1_ = comdat any

$_ZSt12__miter_baseIPSsENSt11_Miter_baseIT_E13iterator_typeES2_ = comdat any

$_ZSt13__copy_move_aILb0EPSsS0_ET1_T0_S2_S1_ = comdat any

$_ZSt12__niter_baseIPSsENSt11_Niter_baseIT_E13iterator_typeES2_ = comdat any

$_ZNSt11__copy_moveILb0ELb0ESt26random_access_iterator_tagE8__copy_mIPSsS3_EET0_T_S5_S4_ = comdat any

$_ZNSt10_Iter_baseIPSsLb0EE7_S_baseES0_ = comdat any

$_ZSt18uninitialized_copyIPSsS0_ET0_T_S2_S1_ = comdat any

$_ZNSt20__uninitialized_copyILb0EE13__uninit_copyIPSsS2_EET0_T_S4_S3_ = comdat any

$_ZNSt8_Rb_treeISsSt4pairIKSsSsESt10_Select1stIS2_ESt4lessISsESaIS2_EEaSERKS8_ = comdat any

$_ZNSt8_Rb_treeISsSt4pairIKSsSsESt10_Select1stIS2_ESt4lessISsESaIS2_EE5clearEv = comdat any

$_ZNKSt8_Rb_treeISsSt4pairIKSsSsESt10_Select1stIS2_ESt4lessISsESaIS2_EE7_M_rootEv = comdat any

$_ZNSt8_Rb_treeISsSt4pairIKSsSsESt10_Select1stIS2_ESt4lessISsESaIS2_EE7_M_copyEPKSt13_Rb_tree_nodeIS2_EPSA_ = comdat any

$_ZNKSt8_Rb_treeISsSt4pairIKSsSsESt10_Select1stIS2_ESt4lessISsESaIS2_EE8_M_beginEv = comdat any

$_ZNSt8_Rb_treeISsSt4pairIKSsSsESt10_Select1stIS2_ESt4lessISsESaIS2_EE6_M_endEv = comdat any

$_ZNSt8_Rb_treeISsSt4pairIKSsSsESt10_Select1stIS2_ESt4lessISsESaIS2_EE7_M_rootEv = comdat any

$_ZNSt8_Rb_treeISsSt4pairIKSsSsESt10_Select1stIS2_ESt4lessISsESaIS2_EE10_S_minimumEPSt18_Rb_tree_node_base = comdat any

$_ZNSt8_Rb_treeISsSt4pairIKSsSsESt10_Select1stIS2_ESt4lessISsESaIS2_EE11_M_leftmostEv = comdat any

$_ZNSt8_Rb_treeISsSt4pairIKSsSsESt10_Select1stIS2_ESt4lessISsESaIS2_EE10_S_maximumEPSt18_Rb_tree_node_base = comdat any

$_ZNSt8_Rb_treeISsSt4pairIKSsSsESt10_Select1stIS2_ESt4lessISsESaIS2_EE12_M_rightmostEv = comdat any

$_ZNSt8_Rb_treeISsSt4pairIKSsSsESt10_Select1stIS2_ESt4lessISsESaIS2_EE13_M_clone_nodeEPKSt13_Rb_tree_nodeIS2_E = comdat any

$_ZNSt8_Rb_treeISsSt4pairIKSsSsESt10_Select1stIS2_ESt4lessISsESaIS2_EE8_S_rightEPKSt18_Rb_tree_node_base = comdat any

$_ZNSt8_Rb_treeISsSt4pairIKSsSsESt10_Select1stIS2_ESt4lessISsESaIS2_EE7_S_leftEPKSt18_Rb_tree_node_base = comdat any

$_ZNSt8_Rb_treeISsSt4pairIKSsSsESt10_Select1stIS2_ESt4lessISsESaIS2_EE14_M_create_nodeERKS2_ = comdat any

$_ZNSt8_Rb_treeISsSt4pairIKSsSsESt10_Select1stIS2_ESt4lessISsESaIS2_EE11_M_get_nodeEv = comdat any

$_ZN9__gnu_cxx13new_allocatorISt4pairIKSsSsEE9constructEPS3_RKS3_ = comdat any

$_ZN9__gnu_cxx13new_allocatorISt13_Rb_tree_nodeISt4pairIKSsSsEEE8allocateEmPKv = comdat any

$_ZNK9__gnu_cxx13new_allocatorISt13_Rb_tree_nodeISt4pairIKSsSsEEE8max_sizeEv = comdat any

$_ZNSt4pairIKSsSsEC2ERKS1_ = comdat any

$_ZNSt18_Rb_tree_node_base10_S_minimumEPS_ = comdat any

$_ZNSt18_Rb_tree_node_base10_S_maximumEPS_ = comdat any

$_ZNK5boost10shared_ptrIN3ros9Publisher4ImplEEntEv = comdat any

$_ZNK5boost10shared_ptrIN3ros9Publisher4ImplEEptEv = comdat any

$_ZSteqIcSt11char_traitsIcESaIcEEbRKSbIT_T0_T1_EPKS3_ = comdat any

$_ZN3ros14message_traits6md5sumIN8std_msgs6Int16_ISaIvEEEEEPKcRKT_ = comdat any

$_ZN3ros14message_traits8datatypeIN8std_msgs6Int16_ISaIvEEEEEPKcRKT_ = comdat any

$_ZN3ros17SerializedMessageC2Ev = comdat any

$_ZN5boost4bindIN3ros17SerializedMessageERKN8std_msgs6Int16_ISaIvEEENS_17reference_wrapperIS7_EEEENS_3_bi6bind_tIT_PFSD_T0_ENSB_9list_av_1IT1_E4typeEEESG_SI_ = comdat any

$_ZN3ros13serialization16serializeMessageIN8std_msgs6Int16_ISaIvEEEEENS_17SerializedMessageERKT_ = comdat any

$_ZN5boost3refIKN8std_msgs6Int16_ISaIvEEEEEKNS_17reference_wrapperIT_EERS7_ = comdat any

$_ZN5boost8functionIFN3ros17SerializedMessageEvEEC2INS_3_bi6bind_tIS2_PFS2_RKN8std_msgs6Int16_ISaIvEEEENS6_5list1INS_17reference_wrapperISC_EEEEEEEET_NS_11enable_if_cIXsr5boost11type_traits7ice_notIXsr11is_integralISL_EE5valueEEE5valueEiE4typeE = comdat any

$_ZN5boost8functionIFN3ros17SerializedMessageEvEED2Ev = comdat any

$_ZN3ros17SerializedMessageD2Ev = comdat any

$_ZN3ros14message_traits6MD5SumIN8std_msgs6Int16_ISaIvEEEE5valueERKS5_ = comdat any

$_ZN3ros14message_traits8DataTypeIN8std_msgs6Int16_ISaIvEEEE5valueERKS5_ = comdat any

$_ZN5boost12shared_arrayIhEC2Ev = comdat any

$_ZN5boost12shared_arrayIhED2Ev = comdat any

$_ZN5boost3_bi5list1INS_17reference_wrapperIKN8std_msgs6Int16_ISaIvEEEEEEC2ES8_ = comdat any

$_ZN5boost3_bi6bind_tIN3ros17SerializedMessageEPFS3_RKN8std_msgs6Int16_ISaIvEEEENS0_5list1INS_17reference_wrapperIS8_EEEEEC2ESB_RKSF_ = comdat any

$_ZN5boost3_bi8storage1INS_17reference_wrapperIKN8std_msgs6Int16_ISaIvEEEEEEC2ES8_ = comdat any

$_ZN3ros13serialization19serializationLengthIN8std_msgs6Int16_ISaIvEEEEEjRKT_ = comdat any

$_ZN5boost12shared_arrayIhE5resetIhEEvPT_ = comdat any

$_ZNK5boost12shared_arrayIhE3getEv = comdat any

$_ZN3ros13serialization7OStreamC2EPhj = comdat any

$_ZN3ros13serialization9serializeIjNS0_7OStreamEEEvRT0_RKT_ = comdat any

$_ZN3ros13serialization6Stream7getDataEv = comdat any

$_ZN3ros13serialization9serializeIN8std_msgs6Int16_ISaIvEEENS0_7OStreamEEEvRT0_RKT_ = comdat any

$_ZN3ros13serialization10SerializerIN8std_msgs6Int16_ISaIvEEEE16serializedLengthIS5_EEjRKT_ = comdat any

$_ZN3ros13serialization7LStreamC2Ev = comdat any

$_ZN3ros13serialization10SerializerIN8std_msgs6Int16_ISaIvEEEE8allInOneINS0_7LStreamERKS5_EEvRT_T0_ = comdat any

$_ZN3ros13serialization7LStream9getLengthEv = comdat any

$_ZN3ros13serialization7LStream4nextIsEEvRKT_ = comdat any

$_ZN3ros13serialization19serializationLengthIsEEjRKT_ = comdat any

$_ZN3ros13serialization10SerializerIsE16serializedLengthERKs = comdat any

$_ZN5boost12shared_arrayIhEC2IhEEPT_ = comdat any

$_ZN5boost12shared_arrayIhE4swapERS1_ = comdat any

$_ZN5boost6detail12shared_countC2IPhNS_21checked_array_deleterIhEEEET_T0_ = comdat any

$_ZN5boost6detail21sp_assert_convertibleIA_hS2_EEvv = comdat any

$_ZN5boost6detail18sp_counted_impl_pdIPhNS_21checked_array_deleterIhEEEC2ES2_RS4_ = comdat any

$_ZNK5boost21checked_array_deleterIhEclEPh = comdat any

$_ZN5boost6detail18sp_counted_impl_pdIPhNS_21checked_array_deleterIhEEED2Ev = comdat any

$_ZN5boost6detail18sp_counted_impl_pdIPhNS_21checked_array_deleterIhEEED0Ev = comdat any

$_ZN5boost6detail18sp_counted_impl_pdIPhNS_21checked_array_deleterIhEEE7disposeEv = comdat any

$_ZN5boost6detail18sp_counted_impl_pdIPhNS_21checked_array_deleterIhEEE11get_deleterERKSt9type_info = comdat any

$_ZN5boost6detail18sp_counted_impl_pdIPhNS_21checked_array_deleterIhEEE19get_untyped_deleterEv = comdat any

$_ZN5boost20checked_array_deleteIhEEvPT_ = comdat any

$_ZSt4swapIPhEvRT_S2_ = comdat any

$_ZN3ros13serialization10SerializerIjE5writeINS0_7OStreamEEEvRT_j = comdat any

$_ZN3ros13serialization10SerializerIN8std_msgs6Int16_ISaIvEEEE5writeINS0_7OStreamES5_EEvRT_RKT0_ = comdat any

$_ZN3ros13serialization10SerializerIN8std_msgs6Int16_ISaIvEEEE8allInOneINS0_7OStreamERKS5_EEvRT_T0_ = comdat any

$_ZN3ros13serialization7OStream4nextIsEEvRKT_ = comdat any

$_ZN3ros13serialization9serializeIsNS0_7OStreamEEEvRT0_RKT_ = comdat any

$_ZN3ros13serialization10SerializerIsE5writeINS0_7OStreamEEEvRT_s = comdat any

$_ZN5boost17reference_wrapperIKN8std_msgs6Int16_ISaIvEEEEC2ERS5_ = comdat any

$_ZN5boost9addressofIKN8std_msgs6Int16_ISaIvEEEEEPT_RS6_ = comdat any

$_ZN5boost6detail14addressof_implIKN8std_msgs6Int16_ISaIvEEEE1fERS6_l = comdat any

$_ZN5boost6detail13addr_impl_refIKN8std_msgs6Int16_ISaIvEEEEC2ERS6_ = comdat any

$_ZNK5boost6detail13addr_impl_refIKN8std_msgs6Int16_ISaIvEEEEcvRS6_Ev = comdat any

$_ZN5boost9function0IN3ros17SerializedMessageEEC2INS_3_bi6bind_tIS2_PFS2_RKN8std_msgs6Int16_ISaIvEEEENS5_5list1INS_17reference_wrapperISB_EEEEEEEET_NS_11enable_if_cIXsr5boost11type_traits7ice_notIXsr11is_integralISK_EE5valueEEE5valueEiE4typeE = comdat any

$_ZN5boost9function0IN3ros17SerializedMessageEE9assign_toINS_3_bi6bind_tIS2_PFS2_RKN8std_msgs6Int16_ISaIvEEEENS5_5list1INS_17reference_wrapperISB_EEEEEEEEvT_ = comdat any

$_ZN5boost6detail8function15functor_managerINS_3_bi6bind_tIN3ros17SerializedMessageEPFS6_RKN8std_msgs6Int16_ISaIvEEEENS3_5list1INS_17reference_wrapperISB_EEEEEEE6manageERKNS1_15function_bufferERSL_NS1_30functor_manager_operation_typeE = comdat any

$_ZN5boost6detail8function21function_obj_invoker0INS_3_bi6bind_tIN3ros17SerializedMessageEPFS6_RKN8std_msgs6Int16_ISaIvEEEENS3_5list1INS_17reference_wrapperISB_EEEEEES6_E6invokeERNS1_15function_bufferE = comdat any

$_ZNK5boost6detail8function13basic_vtable0IN3ros17SerializedMessageEE9assign_toINS_3_bi6bind_tIS4_PFS4_RKN8std_msgs6Int16_ISaIvEEEENS7_5list1INS_17reference_wrapperISD_EEEEEEEEbT_RNS1_15function_bufferE = comdat any

$_ZN5boost6detail8function15functor_managerINS_3_bi6bind_tIN3ros17SerializedMessageEPFS6_RKN8std_msgs6Int16_ISaIvEEEENS3_5list1INS_17reference_wrapperISB_EEEEEEE7managerERKNS1_15function_bufferERSL_NS1_30functor_manager_operation_typeENS1_16function_obj_tagE = comdat any

$_ZN5boost6detail8function15functor_managerINS_3_bi6bind_tIN3ros17SerializedMessageEPFS6_RKN8std_msgs6Int16_ISaIvEEEENS3_5list1INS_17reference_wrapperISB_EEEEEEE7managerERKNS1_15function_bufferERSL_NS1_30functor_manager_operation_typeEN4mpl_5bool_ILb1EEE = comdat any

$_ZN5boost6detail8function22functor_manager_commonINS_3_bi6bind_tIN3ros17SerializedMessageEPFS6_RKN8std_msgs6Int16_ISaIvEEEENS3_5list1INS_17reference_wrapperISB_EEEEEEE12manage_smallERKNS1_15function_bufferERSL_NS1_30functor_manager_operation_typeE = comdat any

$_ZN5boost3_bi6bind_tIN3ros17SerializedMessageEPFS3_RKN8std_msgs6Int16_ISaIvEEEENS0_5list1INS_17reference_wrapperIS8_EEEEEclEv = comdat any

$_ZN5boost3_bi5list0C2Ev = comdat any

$_ZN5boost3_bi5list1INS_17reference_wrapperIKN8std_msgs6Int16_ISaIvEEEEEEclIN3ros17SerializedMessageEPFSC_RS7_ENS0_5list0EEET_NS0_4typeISH_EERT0_RT1_l = comdat any

$_ZN5boost3_bi9unwrapperIPFN3ros17SerializedMessageERKN8std_msgs6Int16_ISaIvEEEEE6unwrapERSB_l = comdat any

$_ZNK5boost3_bi5list0ixIKN8std_msgs6Int16_ISaIvEEEEERT_RKNS_17reference_wrapperIS8_EE = comdat any

$_ZNK5boost17reference_wrapperIKN8std_msgs6Int16_ISaIvEEEE3getEv = comdat any

$_ZNK5boost6detail8function13basic_vtable0IN3ros17SerializedMessageEE9assign_toINS_3_bi6bind_tIS4_PFS4_RKN8std_msgs6Int16_ISaIvEEEENS7_5list1INS_17reference_wrapperISD_EEEEEEEEbT_RNS1_15function_bufferENS1_16function_obj_tagE = comdat any

$_ZN5boost9addressofINS_3_bi6bind_tIN3ros17SerializedMessageEPFS4_RKN8std_msgs6Int16_ISaIvEEEENS1_5list1INS_17reference_wrapperIS9_EEEEEEEEPT_RSI_ = comdat any

$_ZNK5boost6detail8function13basic_vtable0IN3ros17SerializedMessageEE14assign_functorINS_3_bi6bind_tIS4_PFS4_RKN8std_msgs6Int16_ISaIvEEEENS7_5list1INS_17reference_wrapperISD_EEEEEEEEvT_RNS1_15function_bufferEN4mpl_5bool_ILb1EEE = comdat any

$_ZN5boost6detail14addressof_implINS_3_bi6bind_tIN3ros17SerializedMessageEPFS5_RKN8std_msgs6Int16_ISaIvEEEENS2_5list1INS_17reference_wrapperISA_EEEEEEE1fERSI_l = comdat any

$_ZN5boost6detail13addr_impl_refINS_3_bi6bind_tIN3ros17SerializedMessageEPFS5_RKN8std_msgs6Int16_ISaIvEEEENS2_5list1INS_17reference_wrapperISA_EEEEEEEC2ERSI_ = comdat any

$_ZNK5boost6detail13addr_impl_refINS_3_bi6bind_tIN3ros17SerializedMessageEPFS5_RKN8std_msgs6Int16_ISaIvEEEENS2_5list1INS_17reference_wrapperISA_EEEEEEEcvRSI_Ev = comdat any

$_ZN5boost9function0IN3ros17SerializedMessageEED2Ev = comdat any

$_ZN5boost9function0IN3ros17SerializedMessageEE5clearEv = comdat any

$_ZNK5boost9function0IN3ros17SerializedMessageEE10get_vtableEv = comdat any

$_ZNK5boost6detail8function13basic_vtable0IN3ros17SerializedMessageEE5clearERNS1_15function_bufferE = comdat any

$_ZZN5boost9function1IvNS_10shared_ptrIKN8std_msgs6Int16_ISaIvEEEEEE9assign_toINS_8functionIFvRKS7_EEEEEvT_E13stored_vtable = comdat any

$_ZTSN5boost8functionIFvRKNS_10shared_ptrIKN8std_msgs6Int16_ISaIvEEEEEEEE = comdat any

$_ZTSN5boost9function1IvRKNS_10shared_ptrIKN8std_msgs6Int16_ISaIvEEEEEEE = comdat any

$_ZTSN5boost13function_baseE = comdat any

$_ZTIN5boost13function_baseE = comdat any

$_ZTSSt14unary_functionIRKN5boost10shared_ptrIKN8std_msgs6Int16_ISaIvEEEEEvE = comdat any

$_ZTISt14unary_functionIRKN5boost10shared_ptrIKN8std_msgs6Int16_ISaIvEEEEEvE = comdat any

$_ZTIN5boost9function1IvRKNS_10shared_ptrIKN8std_msgs6Int16_ISaIvEEEEEEE = comdat any

$_ZTIN5boost8functionIFvRKNS_10shared_ptrIKN8std_msgs6Int16_ISaIvEEEEEEEE = comdat any

$_ZTSN5boost16exception_detail10clone_implINS0_19error_info_injectorINS_17bad_function_callEEEEE = comdat any

$_ZTSN5boost16exception_detail19error_info_injectorINS_17bad_function_callEEE = comdat any

$_ZTSN5boost17bad_function_callE = comdat any

$_ZTIN5boost17bad_function_callE = comdat any

$_ZTSN5boost9exceptionE = comdat any

$_ZTIN5boost9exceptionE = comdat any

$_ZTIN5boost16exception_detail19error_info_injectorINS_17bad_function_callEEE = comdat any

$_ZTSN5boost16exception_detail10clone_baseE = comdat any

$_ZTIN5boost16exception_detail10clone_baseE = comdat any

$_ZTIN5boost16exception_detail10clone_implINS0_19error_info_injectorINS_17bad_function_callEEEEE = comdat any

$_ZTVN5boost16exception_detail10clone_implINS0_19error_info_injectorINS_17bad_function_callEEEEE = comdat any

$_ZTTN5boost16exception_detail10clone_implINS0_19error_info_injectorINS_17bad_function_callEEEEE = comdat any

$_ZTVN5boost16exception_detail10clone_baseE = comdat any

$_ZTVN5boost16exception_detail19error_info_injectorINS_17bad_function_callEEE = comdat any

$_ZTVN5boost17bad_function_callE = comdat any

$_ZTVN5boost9exceptionE = comdat any

$_ZTVN3ros27SubscriptionCallbackHelperTIRKN5boost10shared_ptrIKN8std_msgs6Int16_ISaIvEEEEEvEE = comdat any

$_ZTSN3ros27SubscriptionCallbackHelperTIRKN5boost10shared_ptrIKN8std_msgs6Int16_ISaIvEEEEEvEE = comdat any

$_ZTSN3ros26SubscriptionCallbackHelperE = comdat any

$_ZTIN3ros26SubscriptionCallbackHelperE = comdat any

$_ZTIN3ros27SubscriptionCallbackHelperTIRKN5boost10shared_ptrIKN8std_msgs6Int16_ISaIvEEEEEvEE = comdat any

$_ZTVN3ros26SubscriptionCallbackHelperE = comdat any

$_ZZN3ros27SubscriptionCallbackHelperTIRKN5boost10shared_ptrIKN8std_msgs6Int16_ISaIvEEEEEvE11deserializeERKNS_43SubscriptionCallbackHelperDeserializeParamsEE33__rosconsole_define_location__loc = comdat any

$_ZTSN8std_msgs6Int16_ISaIvEEE = comdat any

$_ZTIN8std_msgs6Int16_ISaIvEEE = comdat any

$_ZTVN5boost6detail17sp_counted_impl_pIN3ros27SubscriptionCallbackHelperTIRKNS_10shared_ptrIKN8std_msgs6Int16_ISaIvEEEEEvEEEE = comdat any

$_ZTSN5boost6detail17sp_counted_impl_pIN3ros27SubscriptionCallbackHelperTIRKNS_10shared_ptrIKN8std_msgs6Int16_ISaIvEEEEEvEEEE = comdat any

$_ZTSN5boost6detail15sp_counted_baseE = comdat any

$_ZTIN5boost6detail15sp_counted_baseE = comdat any

$_ZTIN5boost6detail17sp_counted_impl_pIN3ros27SubscriptionCallbackHelperTIRKNS_10shared_ptrIKN8std_msgs6Int16_ISaIvEEEEEvEEEE = comdat any

$_ZTVN5boost6detail15sp_counted_baseE = comdat any

$_ZZN5boost9function1IvRKNS_10shared_ptrIKN8std_msgs6Int16_ISaIvEEEEEE9assign_toINS_3_bi6bind_tIvNS_4_mfi3mf1Iv4TestS9_EENSC_5list2INSC_5valueIPSG_EENS_3argILi1EEEEEEEEEvT_E13stored_vtable = comdat any

$_ZTSN5boost3_bi6bind_tIvNS_4_mfi3mf1Iv4TestRKNS_10shared_ptrIKN8std_msgs6Int16_ISaIvEEEEEEENS0_5list2INS0_5valueIPS4_EENS_3argILi1EEEEEEE = comdat any

$_ZTIN5boost3_bi6bind_tIvNS_4_mfi3mf1Iv4TestRKNS_10shared_ptrIKN8std_msgs6Int16_ISaIvEEEEEEENS0_5list2INS0_5valueIPS4_EENS_3argILi1EEEEEEE = comdat any

$_ZZN5boost9function0INS_10shared_ptrIN8std_msgs6Int16_ISaIvEEEEEE9assign_toIN3ros21DefaultMessageCreatorIS5_EEEEvT_E13stored_vtable = comdat any

$_ZTSN3ros21DefaultMessageCreatorIN8std_msgs6Int16_ISaIvEEEEE = comdat any

$_ZTIN3ros21DefaultMessageCreatorIN8std_msgs6Int16_ISaIvEEEEE = comdat any

$_ZTVN5boost6detail18sp_counted_impl_pdIPN8std_msgs6Int16_ISaIvEEENS0_13sp_ms_deleterIS5_EEEE = comdat any

$_ZTSN5boost6detail18sp_counted_impl_pdIPN8std_msgs6Int16_ISaIvEEENS0_13sp_ms_deleterIS5_EEEE = comdat any

$_ZTIN5boost6detail18sp_counted_impl_pdIPN8std_msgs6Int16_ISaIvEEENS0_13sp_ms_deleterIS5_EEEE = comdat any

$_ZTSN5boost6detail13sp_ms_deleterIN8std_msgs6Int16_ISaIvEEEEE = comdat any

$_ZTIN5boost6detail13sp_ms_deleterIN8std_msgs6Int16_ISaIvEEEEE = comdat any

$_ZZNK3ros9Publisher7publishIN8std_msgs6Int16_ISaIvEEEEEvRKT_E33__rosconsole_define_location__loc = comdat any

$_ZZNK3ros9Publisher7publishIN8std_msgs6Int16_ISaIvEEEEEvRKT_E33__rosconsole_define_location__loc_0 = comdat any

$_ZZNK3ros9Publisher7publishIN8std_msgs6Int16_ISaIvEEEEEvRKT_E33__rosconsole_define_location__loc_1 = comdat any

$_ZZNK3ros9Publisher7publishIN8std_msgs6Int16_ISaIvEEEEEvRKT_E33__rosconsole_define_location__loc_2 = comdat any

$_ZZNK3ros9Publisher7publishIN8std_msgs6Int16_ISaIvEEEEEvRKT_E33__rosconsole_define_location__loc_3 = comdat any

$_ZZNK3ros9Publisher7publishIN8std_msgs6Int16_ISaIvEEEEEvRKT_E33__rosconsole_define_location__loc_4 = comdat any

$_ZZNK3ros9Publisher7publishIN8std_msgs6Int16_ISaIvEEEEEvRKT_E33__rosconsole_define_location__loc_5 = comdat any

$_ZZNK3ros9Publisher7publishIN8std_msgs6Int16_ISaIvEEEEEvRKT_E33__rosconsole_define_location__loc_6 = comdat any

$_ZZNK3ros9Publisher7publishIN8std_msgs6Int16_ISaIvEEEEEvRKT_E33__rosconsole_define_location__loc_7 = comdat any

$_ZTVN5boost6detail18sp_counted_impl_pdIPhNS_21checked_array_deleterIhEEEE = comdat any

$_ZTSN5boost6detail18sp_counted_impl_pdIPhNS_21checked_array_deleterIhEEEE = comdat any

$_ZTIN5boost6detail18sp_counted_impl_pdIPhNS_21checked_array_deleterIhEEEE = comdat any

$_ZTSN5boost21checked_array_deleterIhEE = comdat any

$_ZTIN5boost21checked_array_deleterIhEE = comdat any

$_ZZN5boost9function0IN3ros17SerializedMessageEE9assign_toINS_3_bi6bind_tIS2_PFS2_RKN8std_msgs6Int16_ISaIvEEEENS5_5list1INS_17reference_wrapperISB_EEEEEEEEvT_E13stored_vtable = comdat any

$_ZTSN5boost3_bi6bind_tIN3ros17SerializedMessageEPFS3_RKN8std_msgs6Int16_ISaIvEEEENS0_5list1INS_17reference_wrapperIS8_EEEEEE = comdat any

$_ZTIN5boost3_bi6bind_tIN3ros17SerializedMessageEPFS3_RKN8std_msgs6Int16_ISaIvEEEENS0_5list1INS_17reference_wrapperIS8_EEEEEE = comdat any

@_ZStL8__ioinit = internal global %"class.std::ios_base::Init" zeroinitializer, align 1
@__dso_handle = external global i8
@_ZN12_GLOBAL__N_12_1E = internal global %"struct.boost::arg" zeroinitializer, align 1
@_ZN12_GLOBAL__N_12_2E = internal global %"struct.boost::arg.0" zeroinitializer, align 1
@_ZN12_GLOBAL__N_12_3E = internal global %"struct.boost::arg.2" zeroinitializer, align 1
@_ZN12_GLOBAL__N_12_4E = internal global %"struct.boost::arg.4" zeroinitializer, align 1
@_ZN12_GLOBAL__N_12_5E = internal global %"struct.boost::arg.6" zeroinitializer, align 1
@_ZN12_GLOBAL__N_12_6E = internal global %"struct.boost::arg.8" zeroinitializer, align 1
@_ZN12_GLOBAL__N_12_7E = internal global %"struct.boost::arg.10" zeroinitializer, align 1
@_ZN12_GLOBAL__N_12_8E = internal global %"struct.boost::arg.12" zeroinitializer, align 1
@_ZN12_GLOBAL__N_12_9E = internal global %"struct.boost::arg.14" zeroinitializer, align 1
@.str = private unnamed_addr constant [2 x i8] c"~\00", align 1
@.str10 = private unnamed_addr constant [11 x i8] c"thresh_val\00", align 1
@.str11 = private unnamed_addr constant [14 x i8] c"publish_topic\00", align 1
@.str12 = private unnamed_addr constant [13 x i8] c"give_me_info\00", align 1
@.str13 = private unnamed_addr constant [7 x i8] c"Kalman\00", align 1
@.str14 = private unnamed_addr constant [33 x i8] c"8524586e34fbd7cb1c08c5f5f1ca0e57\00", align 1
@.str15 = private unnamed_addr constant [15 x i8] c"std_msgs/Int16\00", align 1
@.str16 = private unnamed_addr constant [12 x i8] c"int16 data\0A\00", align 1
@_ZZN5boost9function1IvNS_10shared_ptrIKN8std_msgs6Int16_ISaIvEEEEEE9assign_toINS_8functionIFvRKS7_EEEEEvT_E13stored_vtable = linkonce_odr constant %"struct.boost::detail::function::basic_vtable1.40" { %"struct.boost::detail::function::vtable_base" { void (%"union.boost::detail::function::function_buffer"*, %"union.boost::detail::function::function_buffer"*, i32)* @_ZN5boost6detail8function15functor_managerINS_8functionIFvRKNS_10shared_ptrIKN8std_msgs6Int16_ISaIvEEEEEEEEE6manageERKNS1_15function_bufferERSG_NS1_30functor_manager_operation_typeE }, void (%"union.boost::detail::function::function_buffer"*, %"class.boost::shared_ptr.26"*)* @_ZN5boost6detail8function26void_function_obj_invoker1INS_8functionIFvRKNS_10shared_ptrIKN8std_msgs6Int16_ISaIvEEEEEEEEvSA_E6invokeERNS1_15function_bufferESA_ }, comdat, align 8
@_ZTVN10__cxxabiv120__si_class_type_infoE = external global i8*
@_ZTSN5boost8functionIFvRKNS_10shared_ptrIKN8std_msgs6Int16_ISaIvEEEEEEEE = linkonce_odr constant [69 x i8] c"N5boost8functionIFvRKNS_10shared_ptrIKN8std_msgs6Int16_ISaIvEEEEEEEE\00", comdat
@_ZTVN10__cxxabiv121__vmi_class_type_infoE = external global i8*
@_ZTSN5boost9function1IvRKNS_10shared_ptrIKN8std_msgs6Int16_ISaIvEEEEEEE = linkonce_odr constant [68 x i8] c"N5boost9function1IvRKNS_10shared_ptrIKN8std_msgs6Int16_ISaIvEEEEEEE\00", comdat
@_ZTVN10__cxxabiv117__class_type_infoE = external global i8*
@_ZTSN5boost13function_baseE = linkonce_odr constant [24 x i8] c"N5boost13function_baseE\00", comdat
@_ZTIN5boost13function_baseE = linkonce_odr constant { i8*, i8* } { i8* bitcast (i8** getelementptr inbounds (i8** @_ZTVN10__cxxabiv117__class_type_infoE, i64 2) to i8*), i8* getelementptr inbounds ([24 x i8]* @_ZTSN5boost13function_baseE, i32 0, i32 0) }, comdat
@_ZTSSt14unary_functionIRKN5boost10shared_ptrIKN8std_msgs6Int16_ISaIvEEEEEvE = linkonce_odr constant [72 x i8] c"St14unary_functionIRKN5boost10shared_ptrIKN8std_msgs6Int16_ISaIvEEEEEvE\00", comdat
@_ZTISt14unary_functionIRKN5boost10shared_ptrIKN8std_msgs6Int16_ISaIvEEEEEvE = linkonce_odr constant { i8*, i8* } { i8* bitcast (i8** getelementptr inbounds (i8** @_ZTVN10__cxxabiv117__class_type_infoE, i64 2) to i8*), i8* getelementptr inbounds ([72 x i8]* @_ZTSSt14unary_functionIRKN5boost10shared_ptrIKN8std_msgs6Int16_ISaIvEEEEEvE, i32 0, i32 0) }, comdat
@_ZTIN5boost9function1IvRKNS_10shared_ptrIKN8std_msgs6Int16_ISaIvEEEEEEE = linkonce_odr constant { i8*, i8*, i32, i32, i8*, i64, i8*, i64 } { i8* bitcast (i8** getelementptr inbounds (i8** @_ZTVN10__cxxabiv121__vmi_class_type_infoE, i64 2) to i8*), i8* getelementptr inbounds ([68 x i8]* @_ZTSN5boost9function1IvRKNS_10shared_ptrIKN8std_msgs6Int16_ISaIvEEEEEEE, i32 0, i32 0), i32 0, i32 2, i8* bitcast ({ i8*, i8* }* @_ZTIN5boost13function_baseE to i8*), i64 2, i8* bitcast ({ i8*, i8* }* @_ZTISt14unary_functionIRKN5boost10shared_ptrIKN8std_msgs6Int16_ISaIvEEEEEvE to i8*), i64 2 }, comdat
@_ZTIN5boost8functionIFvRKNS_10shared_ptrIKN8std_msgs6Int16_ISaIvEEEEEEEE = linkonce_odr constant { i8*, i8*, i8* } { i8* bitcast (i8** getelementptr inbounds (i8** @_ZTVN10__cxxabiv120__si_class_type_infoE, i64 2) to i8*), i8* getelementptr inbounds ([69 x i8]* @_ZTSN5boost8functionIFvRKNS_10shared_ptrIKN8std_msgs6Int16_ISaIvEEEEEEEE, i32 0, i32 0), i8* bitcast ({ i8*, i8*, i32, i32, i8*, i64, i8*, i64 }* @_ZTIN5boost9function1IvRKNS_10shared_ptrIKN8std_msgs6Int16_ISaIvEEEEEEE to i8*) }, comdat
@_ZTSN5boost16exception_detail10clone_implINS0_19error_info_injectorINS_17bad_function_callEEEEE = linkonce_odr constant [92 x i8] c"N5boost16exception_detail10clone_implINS0_19error_info_injectorINS_17bad_function_callEEEEE\00", comdat
@_ZTSN5boost16exception_detail19error_info_injectorINS_17bad_function_callEEE = linkonce_odr constant [73 x i8] c"N5boost16exception_detail19error_info_injectorINS_17bad_function_callEEE\00", comdat
@_ZTSN5boost17bad_function_callE = linkonce_odr constant [28 x i8] c"N5boost17bad_function_callE\00", comdat
@_ZTISt13runtime_error = external constant i8*
@_ZTIN5boost17bad_function_callE = linkonce_odr constant { i8*, i8*, i8* } { i8* bitcast (i8** getelementptr inbounds (i8** @_ZTVN10__cxxabiv120__si_class_type_infoE, i64 2) to i8*), i8* getelementptr inbounds ([28 x i8]* @_ZTSN5boost17bad_function_callE, i32 0, i32 0), i8* bitcast (i8** @_ZTISt13runtime_error to i8*) }, comdat
@_ZTSN5boost9exceptionE = linkonce_odr constant [19 x i8] c"N5boost9exceptionE\00", comdat
@_ZTIN5boost9exceptionE = linkonce_odr constant { i8*, i8* } { i8* bitcast (i8** getelementptr inbounds (i8** @_ZTVN10__cxxabiv117__class_type_infoE, i64 2) to i8*), i8* getelementptr inbounds ([19 x i8]* @_ZTSN5boost9exceptionE, i32 0, i32 0) }, comdat
@_ZTIN5boost16exception_detail19error_info_injectorINS_17bad_function_callEEE = linkonce_odr constant { i8*, i8*, i32, i32, i8*, i64, i8*, i64 } { i8* bitcast (i8** getelementptr inbounds (i8** @_ZTVN10__cxxabiv121__vmi_class_type_infoE, i64 2) to i8*), i8* getelementptr inbounds ([73 x i8]* @_ZTSN5boost16exception_detail19error_info_injectorINS_17bad_function_callEEE, i32 0, i32 0), i32 0, i32 2, i8* bitcast ({ i8*, i8*, i8* }* @_ZTIN5boost17bad_function_callE to i8*), i64 2, i8* bitcast ({ i8*, i8* }* @_ZTIN5boost9exceptionE to i8*), i64 4098 }, comdat
@_ZTSN5boost16exception_detail10clone_baseE = linkonce_odr constant [39 x i8] c"N5boost16exception_detail10clone_baseE\00", comdat
@_ZTIN5boost16exception_detail10clone_baseE = linkonce_odr constant { i8*, i8* } { i8* bitcast (i8** getelementptr inbounds (i8** @_ZTVN10__cxxabiv117__class_type_infoE, i64 2) to i8*), i8* getelementptr inbounds ([39 x i8]* @_ZTSN5boost16exception_detail10clone_baseE, i32 0, i32 0) }, comdat
@_ZTIN5boost16exception_detail10clone_implINS0_19error_info_injectorINS_17bad_function_callEEEEE = linkonce_odr constant { i8*, i8*, i32, i32, i8*, i64, i8*, i64 } { i8* bitcast (i8** getelementptr inbounds (i8** @_ZTVN10__cxxabiv121__vmi_class_type_infoE, i64 2) to i8*), i8* getelementptr inbounds ([92 x i8]* @_ZTSN5boost16exception_detail10clone_implINS0_19error_info_injectorINS_17bad_function_callEEEEE, i32 0, i32 0), i32 0, i32 2, i8* bitcast ({ i8*, i8*, i32, i32, i8*, i64, i8*, i64 }* @_ZTIN5boost16exception_detail19error_info_injectorINS_17bad_function_callEEE to i8*), i64 2, i8* bitcast ({ i8*, i8* }* @_ZTIN5boost16exception_detail10clone_baseE to i8*), i64 -6141 }, comdat
@_ZTVN5boost16exception_detail10clone_implINS0_19error_info_injectorINS_17bad_function_callEEEEE = linkonce_odr unnamed_addr constant [21 x i8*] [i8* inttoptr (i64 56 to i8*), i8* null, i8* bitcast ({ i8*, i8*, i32, i32, i8*, i64, i8*, i64 }* @_ZTIN5boost16exception_detail10clone_implINS0_19error_info_injectorINS_17bad_function_callEEEEE to i8*), i8* bitcast (void (%"class.boost::exception_detail::clone_impl"*)* @_ZN5boost16exception_detail10clone_implINS0_19error_info_injectorINS_17bad_function_callEEEED1Ev to i8*), i8* bitcast (void (%"class.boost::exception_detail::clone_impl"*)* @_ZN5boost16exception_detail10clone_implINS0_19error_info_injectorINS_17bad_function_callEEEED0Ev to i8*), i8* bitcast (i8* (%"class.std::runtime_error"*)* @_ZNKSt13runtime_error4whatEv to i8*), i8* bitcast (%"class.boost::exception_detail::clone_base"* (%"class.boost::exception_detail::clone_impl"*)* @_ZNK5boost16exception_detail10clone_implINS0_19error_info_injectorINS_17bad_function_callEEEE5cloneEv to i8*), i8* bitcast (void (%"class.boost::exception_detail::clone_impl"*)* @_ZNK5boost16exception_detail10clone_implINS0_19error_info_injectorINS_17bad_function_callEEEE7rethrowEv to i8*), i8* inttoptr (i64 -16 to i8*), i8* bitcast ({ i8*, i8*, i32, i32, i8*, i64, i8*, i64 }* @_ZTIN5boost16exception_detail10clone_implINS0_19error_info_injectorINS_17bad_function_callEEEEE to i8*), i8* bitcast (void (%"class.boost::exception_detail::clone_impl"*)* @_ZThn16_N5boost16exception_detail10clone_implINS0_19error_info_injectorINS_17bad_function_callEEEED1Ev to i8*), i8* bitcast (void (%"class.boost::exception_detail::clone_impl"*)* @_ZThn16_N5boost16exception_detail10clone_implINS0_19error_info_injectorINS_17bad_function_callEEEED0Ev to i8*), i8* inttoptr (i64 -56 to i8*), i8* inttoptr (i64 -56 to i8*), i8* inttoptr (i64 -56 to i8*), i8* inttoptr (i64 -56 to i8*), i8* bitcast ({ i8*, i8*, i32, i32, i8*, i64, i8*, i64 }* @_ZTIN5boost16exception_detail10clone_implINS0_19error_info_injectorINS_17bad_function_callEEEEE to i8*), i8* bitcast (%"class.boost::exception_detail::clone_base"* (%"class.boost::exception_detail::clone_impl"*)* @_ZTv0_n24_NK5boost16exception_detail10clone_implINS0_19error_info_injectorINS_17bad_function_callEEEE5cloneEv to i8*), i8* bitcast (void (%"class.boost::exception_detail::clone_impl"*)* @_ZTv0_n32_NK5boost16exception_detail10clone_implINS0_19error_info_injectorINS_17bad_function_callEEEE7rethrowEv to i8*), i8* bitcast (void (%"class.boost::exception_detail::clone_impl"*)* @_ZTv0_n40_N5boost16exception_detail10clone_implINS0_19error_info_injectorINS_17bad_function_callEEEED1Ev to i8*), i8* bitcast (void (%"class.boost::exception_detail::clone_impl"*)* @_ZTv0_n40_N5boost16exception_detail10clone_implINS0_19error_info_injectorINS_17bad_function_callEEEED0Ev to i8*)], comdat, align 8
@_ZTTN5boost16exception_detail10clone_implINS0_19error_info_injectorINS_17bad_function_callEEEEE = linkonce_odr unnamed_addr constant [2 x i8*] [i8* bitcast (i8** getelementptr inbounds ([21 x i8*]* @_ZTVN5boost16exception_detail10clone_implINS0_19error_info_injectorINS_17bad_function_callEEEEE, i64 0, i64 3) to i8*), i8* bitcast (i8** getelementptr inbounds ([21 x i8*]* @_ZTVN5boost16exception_detail10clone_implINS0_19error_info_injectorINS_17bad_function_callEEEEE, i64 0, i64 17) to i8*)], comdat
@_ZTVN5boost16exception_detail10clone_baseE = linkonce_odr unnamed_addr constant [6 x i8*] [i8* null, i8* bitcast ({ i8*, i8* }* @_ZTIN5boost16exception_detail10clone_baseE to i8*), i8* bitcast (void ()* @__cxa_pure_virtual to i8*), i8* bitcast (void ()* @__cxa_pure_virtual to i8*), i8* bitcast (void (%"class.boost::exception_detail::clone_base"*)* @_ZN5boost16exception_detail10clone_baseD2Ev to i8*), i8* bitcast (void (%"class.boost::exception_detail::clone_base"*)* @_ZN5boost16exception_detail10clone_baseD0Ev to i8*)], comdat, align 8
@_ZTVN5boost16exception_detail19error_info_injectorINS_17bad_function_callEEE = linkonce_odr unnamed_addr constant [9 x i8*] [i8* null, i8* bitcast ({ i8*, i8*, i32, i32, i8*, i64, i8*, i64 }* @_ZTIN5boost16exception_detail19error_info_injectorINS_17bad_function_callEEE to i8*), i8* bitcast (void (%"struct.boost::exception_detail::error_info_injector"*)* @_ZN5boost16exception_detail19error_info_injectorINS_17bad_function_callEED2Ev to i8*), i8* bitcast (void (%"struct.boost::exception_detail::error_info_injector"*)* @_ZN5boost16exception_detail19error_info_injectorINS_17bad_function_callEED0Ev to i8*), i8* bitcast (i8* (%"class.std::runtime_error"*)* @_ZNKSt13runtime_error4whatEv to i8*), i8* inttoptr (i64 -16 to i8*), i8* bitcast ({ i8*, i8*, i32, i32, i8*, i64, i8*, i64 }* @_ZTIN5boost16exception_detail19error_info_injectorINS_17bad_function_callEEE to i8*), i8* bitcast (void (%"struct.boost::exception_detail::error_info_injector"*)* @_ZThn16_N5boost16exception_detail19error_info_injectorINS_17bad_function_callEED1Ev to i8*), i8* bitcast (void (%"struct.boost::exception_detail::error_info_injector"*)* @_ZThn16_N5boost16exception_detail19error_info_injectorINS_17bad_function_callEED0Ev to i8*)], comdat, align 8
@_ZTVN5boost17bad_function_callE = linkonce_odr unnamed_addr constant [5 x i8*] [i8* null, i8* bitcast ({ i8*, i8*, i8* }* @_ZTIN5boost17bad_function_callE to i8*), i8* bitcast (void (%"class.boost::bad_function_call"*)* @_ZN5boost17bad_function_callD2Ev to i8*), i8* bitcast (void (%"class.boost::bad_function_call"*)* @_ZN5boost17bad_function_callD0Ev to i8*), i8* bitcast (i8* (%"class.std::runtime_error"*)* @_ZNKSt13runtime_error4whatEv to i8*)], comdat, align 8
@_ZTVSt13runtime_error = external unnamed_addr constant [5 x i8*]
@_ZTVSt9exception = external unnamed_addr constant [5 x i8*]
@_ZTVN5boost9exceptionE = linkonce_odr unnamed_addr constant [4 x i8*] [i8* null, i8* bitcast ({ i8*, i8* }* @_ZTIN5boost9exceptionE to i8*), i8* bitcast (void ()* @__cxa_pure_virtual to i8*), i8* bitcast (void ()* @__cxa_pure_virtual to i8*)], comdat, align 8
@.str17 = private unnamed_addr constant [30 x i8] c"call to empty boost::function\00", align 1
@_ZTVN3ros27SubscriptionCallbackHelperTIRKN5boost10shared_ptrIKN8std_msgs6Int16_ISaIvEEEEEvEE = linkonce_odr unnamed_addr constant [9 x i8*] [i8* null, i8* bitcast ({ i8*, i8*, i8* }* @_ZTIN3ros27SubscriptionCallbackHelperTIRKN5boost10shared_ptrIKN8std_msgs6Int16_ISaIvEEEEEvEE to i8*), i8* bitcast (void (%"class.ros::SubscriptionCallbackHelperT"*)* @_ZN3ros27SubscriptionCallbackHelperTIRKN5boost10shared_ptrIKN8std_msgs6Int16_ISaIvEEEEEvED2Ev to i8*), i8* bitcast (void (%"class.ros::SubscriptionCallbackHelperT"*)* @_ZN3ros27SubscriptionCallbackHelperTIRKN5boost10shared_ptrIKN8std_msgs6Int16_ISaIvEEEEEvED0Ev to i8*), i8* bitcast (void (%"class.boost::shared_ptr.30"*, %"class.ros::SubscriptionCallbackHelperT"*, %"struct.ros::SubscriptionCallbackHelperDeserializeParams"*)* @_ZN3ros27SubscriptionCallbackHelperTIRKN5boost10shared_ptrIKN8std_msgs6Int16_ISaIvEEEEEvE11deserializeERKNS_43SubscriptionCallbackHelperDeserializeParamsE to i8*), i8* bitcast (void (%"class.ros::SubscriptionCallbackHelperT"*, %"struct.ros::SubscriptionCallbackHelperCallParams"*)* @_ZN3ros27SubscriptionCallbackHelperTIRKN5boost10shared_ptrIKN8std_msgs6Int16_ISaIvEEEEEvE4callERNS_36SubscriptionCallbackHelperCallParamsE to i8*), i8* bitcast (%"class.std::type_info"* (%"class.ros::SubscriptionCallbackHelperT"*)* @_ZN3ros27SubscriptionCallbackHelperTIRKN5boost10shared_ptrIKN8std_msgs6Int16_ISaIvEEEEEvE11getTypeInfoEv to i8*), i8* bitcast (i1 (%"class.ros::SubscriptionCallbackHelperT"*)* @_ZN3ros27SubscriptionCallbackHelperTIRKN5boost10shared_ptrIKN8std_msgs6Int16_ISaIvEEEEEvE7isConstEv to i8*), i8* bitcast (i1 (%"class.ros::SubscriptionCallbackHelperT"*)* @_ZN3ros27SubscriptionCallbackHelperTIRKN5boost10shared_ptrIKN8std_msgs6Int16_ISaIvEEEEEvE9hasHeaderEv to i8*)], comdat, align 8
@_ZTSN3ros27SubscriptionCallbackHelperTIRKN5boost10shared_ptrIKN8std_msgs6Int16_ISaIvEEEEEvEE = linkonce_odr constant [89 x i8] c"N3ros27SubscriptionCallbackHelperTIRKN5boost10shared_ptrIKN8std_msgs6Int16_ISaIvEEEEEvEE\00", comdat
@_ZTSN3ros26SubscriptionCallbackHelperE = linkonce_odr constant [35 x i8] c"N3ros26SubscriptionCallbackHelperE\00", comdat
@_ZTIN3ros26SubscriptionCallbackHelperE = linkonce_odr constant { i8*, i8* } { i8* bitcast (i8** getelementptr inbounds (i8** @_ZTVN10__cxxabiv117__class_type_infoE, i64 2) to i8*), i8* getelementptr inbounds ([35 x i8]* @_ZTSN3ros26SubscriptionCallbackHelperE, i32 0, i32 0) }, comdat
@_ZTIN3ros27SubscriptionCallbackHelperTIRKN5boost10shared_ptrIKN8std_msgs6Int16_ISaIvEEEEEvEE = linkonce_odr constant { i8*, i8*, i8* } { i8* bitcast (i8** getelementptr inbounds (i8** @_ZTVN10__cxxabiv120__si_class_type_infoE, i64 2) to i8*), i8* getelementptr inbounds ([89 x i8]* @_ZTSN3ros27SubscriptionCallbackHelperTIRKN5boost10shared_ptrIKN8std_msgs6Int16_ISaIvEEEEEvEE, i32 0, i32 0), i8* bitcast ({ i8*, i8* }* @_ZTIN3ros26SubscriptionCallbackHelperE to i8*) }, comdat
@_ZTVN3ros26SubscriptionCallbackHelperE = linkonce_odr unnamed_addr constant [9 x i8*] [i8* null, i8* bitcast ({ i8*, i8* }* @_ZTIN3ros26SubscriptionCallbackHelperE to i8*), i8* bitcast (void (%"class.ros::SubscriptionCallbackHelper"*)* @_ZN3ros26SubscriptionCallbackHelperD2Ev to i8*), i8* bitcast (void (%"class.ros::SubscriptionCallbackHelper"*)* @_ZN3ros26SubscriptionCallbackHelperD0Ev to i8*), i8* bitcast (void ()* @__cxa_pure_virtual to i8*), i8* bitcast (void ()* @__cxa_pure_virtual to i8*), i8* bitcast (void ()* @__cxa_pure_virtual to i8*), i8* bitcast (void ()* @__cxa_pure_virtual to i8*), i8* bitcast (void ()* @__cxa_pure_virtual to i8*)], comdat, align 8
@_ZN3ros7console13g_initializedE = external global i8
@_ZZN3ros27SubscriptionCallbackHelperTIRKN5boost10shared_ptrIKN8std_msgs6Int16_ISaIvEEEEEvE11deserializeERKNS_43SubscriptionCallbackHelperDeserializeParamsEE33__rosconsole_define_location__loc = linkonce_odr global %"struct.ros::console::LogLocation" { i8 0, i8 0, i32 5, i8* null }, comdat, align 8
@.str18 = private unnamed_addr constant [20 x i8] c"ros.unknown_package\00", align 1
@.str19 = private unnamed_addr constant [59 x i8] c"/opt/ros/indigo/include/ros/subscription_callback_helper.h\00", align 1
@__PRETTY_FUNCTION__._ZN3ros27SubscriptionCallbackHelperTIRKN5boost10shared_ptrIKN8std_msgs6Int16_ISaIvEEEEEvE11deserializeERKNS_43SubscriptionCallbackHelperDeserializeParamsE = private unnamed_addr constant [302 x i8] c"virtual VoidConstPtr ros::SubscriptionCallbackHelperT<const boost::shared_ptr<const std_msgs::Int16_<std::allocator<void> > > &, void>::deserialize(const ros::SubscriptionCallbackHelperDeserializeParams &) [P = const boost::shared_ptr<const std_msgs::Int16_<std::allocator<void> > > &, Enabled = void]\00", align 1
@.str20 = private unnamed_addr constant [43 x i8] c"Allocation failed for message of type [%s]\00", align 1
@.str21 = private unnamed_addr constant [8 x i8] c"px != 0\00", align 1
@.str22 = private unnamed_addr constant [44 x i8] c"/usr/include/boost/smart_ptr/shared_ptr.hpp\00", align 1
@__PRETTY_FUNCTION__._ZNK5boost10shared_ptrIN8std_msgs6Int16_ISaIvEEEEdeEv = private unnamed_addr constant [173 x i8] c"typename boost::detail::sp_dereference<T>::type boost::shared_ptr<std_msgs::Int16_<std::allocator<void> > >::operator*() const [Y = std_msgs::Int16_<std::allocator<void> >]\00", align 1
@_ZTSN8std_msgs6Int16_ISaIvEEE = linkonce_odr constant [26 x i8] c"N8std_msgs6Int16_ISaIvEEE\00", comdat
@_ZTIN8std_msgs6Int16_ISaIvEEE = linkonce_odr constant { i8*, i8* } { i8* bitcast (i8** getelementptr inbounds (i8** @_ZTVN10__cxxabiv117__class_type_infoE, i64 2) to i8*), i8* getelementptr inbounds ([26 x i8]* @_ZTSN8std_msgs6Int16_ISaIvEEE, i32 0, i32 0) }, comdat
@_ZTVN5boost6detail17sp_counted_impl_pIN3ros27SubscriptionCallbackHelperTIRKNS_10shared_ptrIKN8std_msgs6Int16_ISaIvEEEEEvEEEE = linkonce_odr unnamed_addr constant [8 x i8*] [i8* null, i8* bitcast ({ i8*, i8*, i8* }* @_ZTIN5boost6detail17sp_counted_impl_pIN3ros27SubscriptionCallbackHelperTIRKNS_10shared_ptrIKN8std_msgs6Int16_ISaIvEEEEEvEEEE to i8*), i8* bitcast (void (%"class.boost::detail::sp_counted_impl_p"*)* @_ZN5boost6detail17sp_counted_impl_pIN3ros27SubscriptionCallbackHelperTIRKNS_10shared_ptrIKN8std_msgs6Int16_ISaIvEEEEEvEEED2Ev to i8*), i8* bitcast (void (%"class.boost::detail::sp_counted_impl_p"*)* @_ZN5boost6detail17sp_counted_impl_pIN3ros27SubscriptionCallbackHelperTIRKNS_10shared_ptrIKN8std_msgs6Int16_ISaIvEEEEEvEEED0Ev to i8*), i8* bitcast (void (%"class.boost::detail::sp_counted_impl_p"*)* @_ZN5boost6detail17sp_counted_impl_pIN3ros27SubscriptionCallbackHelperTIRKNS_10shared_ptrIKN8std_msgs6Int16_ISaIvEEEEEvEEE7disposeEv to i8*), i8* bitcast (void (%"class.boost::detail::sp_counted_base"*)* @_ZN5boost6detail15sp_counted_base7destroyEv to i8*), i8* bitcast (i8* (%"class.boost::detail::sp_counted_impl_p"*, %"class.std::type_info"*)* @_ZN5boost6detail17sp_counted_impl_pIN3ros27SubscriptionCallbackHelperTIRKNS_10shared_ptrIKN8std_msgs6Int16_ISaIvEEEEEvEEE11get_deleterERKSt9type_info to i8*), i8* bitcast (i8* (%"class.boost::detail::sp_counted_impl_p"*)* @_ZN5boost6detail17sp_counted_impl_pIN3ros27SubscriptionCallbackHelperTIRKNS_10shared_ptrIKN8std_msgs6Int16_ISaIvEEEEEvEEE19get_untyped_deleterEv to i8*)], comdat, align 8
@_ZTSN5boost6detail17sp_counted_impl_pIN3ros27SubscriptionCallbackHelperTIRKNS_10shared_ptrIKN8std_msgs6Int16_ISaIvEEEEEvEEEE = linkonce_odr constant [121 x i8] c"N5boost6detail17sp_counted_impl_pIN3ros27SubscriptionCallbackHelperTIRKNS_10shared_ptrIKN8std_msgs6Int16_ISaIvEEEEEvEEEE\00", comdat
@_ZTSN5boost6detail15sp_counted_baseE = linkonce_odr constant [33 x i8] c"N5boost6detail15sp_counted_baseE\00", comdat
@_ZTIN5boost6detail15sp_counted_baseE = linkonce_odr constant { i8*, i8* } { i8* bitcast (i8** getelementptr inbounds (i8** @_ZTVN10__cxxabiv117__class_type_infoE, i64 2) to i8*), i8* getelementptr inbounds ([33 x i8]* @_ZTSN5boost6detail15sp_counted_baseE, i32 0, i32 0) }, comdat
@_ZTIN5boost6detail17sp_counted_impl_pIN3ros27SubscriptionCallbackHelperTIRKNS_10shared_ptrIKN8std_msgs6Int16_ISaIvEEEEEvEEEE = linkonce_odr constant { i8*, i8*, i8* } { i8* bitcast (i8** getelementptr inbounds (i8** @_ZTVN10__cxxabiv120__si_class_type_infoE, i64 2) to i8*), i8* getelementptr inbounds ([121 x i8]* @_ZTSN5boost6detail17sp_counted_impl_pIN3ros27SubscriptionCallbackHelperTIRKNS_10shared_ptrIKN8std_msgs6Int16_ISaIvEEEEEvEEEE, i32 0, i32 0), i8* bitcast ({ i8*, i8* }* @_ZTIN5boost6detail15sp_counted_baseE to i8*) }, comdat
@_ZTVN5boost6detail15sp_counted_baseE = linkonce_odr unnamed_addr constant [8 x i8*] [i8* null, i8* bitcast ({ i8*, i8* }* @_ZTIN5boost6detail15sp_counted_baseE to i8*), i8* bitcast (void (%"class.boost::detail::sp_counted_base"*)* @_ZN5boost6detail15sp_counted_baseD2Ev to i8*), i8* bitcast (void (%"class.boost::detail::sp_counted_base"*)* @_ZN5boost6detail15sp_counted_baseD0Ev to i8*), i8* bitcast (void ()* @__cxa_pure_virtual to i8*), i8* bitcast (void (%"class.boost::detail::sp_counted_base"*)* @_ZN5boost6detail15sp_counted_base7destroyEv to i8*), i8* bitcast (void ()* @__cxa_pure_virtual to i8*), i8* bitcast (void ()* @__cxa_pure_virtual to i8*)], comdat, align 8
@_ZZN5boost9function1IvRKNS_10shared_ptrIKN8std_msgs6Int16_ISaIvEEEEEE9assign_toINS_3_bi6bind_tIvNS_4_mfi3mf1Iv4TestS9_EENSC_5list2INSC_5valueIPSG_EENS_3argILi1EEEEEEEEEvT_E13stored_vtable = linkonce_odr constant %"struct.boost::detail::function::basic_vtable1.39" { %"struct.boost::detail::function::vtable_base" { void (%"union.boost::detail::function::function_buffer"*, %"union.boost::detail::function::function_buffer"*, i32)* @_ZN5boost6detail8function15functor_managerINS_3_bi6bind_tIvNS_4_mfi3mf1Iv4TestRKNS_10shared_ptrIKN8std_msgs6Int16_ISaIvEEEEEEENS3_5list2INS3_5valueIPS7_EENS_3argILi1EEEEEEEE6manageERKNS1_15function_bufferERSR_NS1_30functor_manager_operation_typeE }, void (%"union.boost::detail::function::function_buffer"*, %"class.boost::shared_ptr.26"*)* @_ZN5boost6detail8function26void_function_obj_invoker1INS_3_bi6bind_tIvNS_4_mfi3mf1Iv4TestRKNS_10shared_ptrIKN8std_msgs6Int16_ISaIvEEEEEEENS3_5list2INS3_5valueIPS7_EENS_3argILi1EEEEEEEvSG_E6invokeERNS1_15function_bufferESG_ }, comdat, align 8
@_ZTSN5boost3_bi6bind_tIvNS_4_mfi3mf1Iv4TestRKNS_10shared_ptrIKN8std_msgs6Int16_ISaIvEEEEEEENS0_5list2INS0_5valueIPS4_EENS_3argILi1EEEEEEE = linkonce_odr constant [134 x i8] c"N5boost3_bi6bind_tIvNS_4_mfi3mf1Iv4TestRKNS_10shared_ptrIKN8std_msgs6Int16_ISaIvEEEEEEENS0_5list2INS0_5valueIPS4_EENS_3argILi1EEEEEEE\00", comdat
@_ZTIN5boost3_bi6bind_tIvNS_4_mfi3mf1Iv4TestRKNS_10shared_ptrIKN8std_msgs6Int16_ISaIvEEEEEEENS0_5list2INS0_5valueIPS4_EENS_3argILi1EEEEEEE = linkonce_odr constant { i8*, i8* } { i8* bitcast (i8** getelementptr inbounds (i8** @_ZTVN10__cxxabiv117__class_type_infoE, i64 2) to i8*), i8* getelementptr inbounds ([134 x i8]* @_ZTSN5boost3_bi6bind_tIvNS_4_mfi3mf1Iv4TestRKNS_10shared_ptrIKN8std_msgs6Int16_ISaIvEEEEEEENS0_5list2INS0_5valueIPS4_EENS_3argILi1EEEEEEE, i32 0, i32 0) }, comdat
@_ZZN5boost9function0INS_10shared_ptrIN8std_msgs6Int16_ISaIvEEEEEE9assign_toIN3ros21DefaultMessageCreatorIS5_EEEEvT_E13stored_vtable = linkonce_odr constant %"struct.boost::detail::function::basic_vtable0" { %"struct.boost::detail::function::vtable_base" { void (%"union.boost::detail::function::function_buffer"*, %"union.boost::detail::function::function_buffer"*, i32)* @_ZN5boost6detail8function15functor_managerIN3ros21DefaultMessageCreatorIN8std_msgs6Int16_ISaIvEEEEEE6manageERKNS1_15function_bufferERSB_NS1_30functor_manager_operation_typeE }, void (%"class.boost::shared_ptr.45"*, %"union.boost::detail::function::function_buffer"*)* @_ZN5boost6detail8function21function_obj_invoker0IN3ros21DefaultMessageCreatorIN8std_msgs6Int16_ISaIvEEEEENS_10shared_ptrIS8_EEE6invokeERNS1_15function_bufferE }, comdat, align 8
@_ZTSN3ros21DefaultMessageCreatorIN8std_msgs6Int16_ISaIvEEEEE = linkonce_odr constant [57 x i8] c"N3ros21DefaultMessageCreatorIN8std_msgs6Int16_ISaIvEEEEE\00", comdat
@_ZTIN3ros21DefaultMessageCreatorIN8std_msgs6Int16_ISaIvEEEEE = linkonce_odr constant { i8*, i8* } { i8* bitcast (i8** getelementptr inbounds (i8** @_ZTVN10__cxxabiv117__class_type_infoE, i64 2) to i8*), i8* getelementptr inbounds ([57 x i8]* @_ZTSN3ros21DefaultMessageCreatorIN8std_msgs6Int16_ISaIvEEEEE, i32 0, i32 0) }, comdat
@_ZTVN5boost6detail18sp_counted_impl_pdIPN8std_msgs6Int16_ISaIvEEENS0_13sp_ms_deleterIS5_EEEE = linkonce_odr unnamed_addr constant [8 x i8*] [i8* null, i8* bitcast ({ i8*, i8*, i8* }* @_ZTIN5boost6detail18sp_counted_impl_pdIPN8std_msgs6Int16_ISaIvEEENS0_13sp_ms_deleterIS5_EEEE to i8*), i8* bitcast (void (%"class.boost::detail::sp_counted_impl_pd"*)* @_ZN5boost6detail18sp_counted_impl_pdIPN8std_msgs6Int16_ISaIvEEENS0_13sp_ms_deleterIS5_EEED2Ev to i8*), i8* bitcast (void (%"class.boost::detail::sp_counted_impl_pd"*)* @_ZN5boost6detail18sp_counted_impl_pdIPN8std_msgs6Int16_ISaIvEEENS0_13sp_ms_deleterIS5_EEED0Ev to i8*), i8* bitcast (void (%"class.boost::detail::sp_counted_impl_pd"*)* @_ZN5boost6detail18sp_counted_impl_pdIPN8std_msgs6Int16_ISaIvEEENS0_13sp_ms_deleterIS5_EEE7disposeEv to i8*), i8* bitcast (void (%"class.boost::detail::sp_counted_base"*)* @_ZN5boost6detail15sp_counted_base7destroyEv to i8*), i8* bitcast (i8* (%"class.boost::detail::sp_counted_impl_pd"*, %"class.std::type_info"*)* @_ZN5boost6detail18sp_counted_impl_pdIPN8std_msgs6Int16_ISaIvEEENS0_13sp_ms_deleterIS5_EEE11get_deleterERKSt9type_info to i8*), i8* bitcast (i8* (%"class.boost::detail::sp_counted_impl_pd"*)* @_ZN5boost6detail18sp_counted_impl_pdIPN8std_msgs6Int16_ISaIvEEENS0_13sp_ms_deleterIS5_EEE19get_untyped_deleterEv to i8*)], comdat, align 8
@_ZTSN5boost6detail18sp_counted_impl_pdIPN8std_msgs6Int16_ISaIvEEENS0_13sp_ms_deleterIS5_EEEE = linkonce_odr constant [89 x i8] c"N5boost6detail18sp_counted_impl_pdIPN8std_msgs6Int16_ISaIvEEENS0_13sp_ms_deleterIS5_EEEE\00", comdat
@_ZTIN5boost6detail18sp_counted_impl_pdIPN8std_msgs6Int16_ISaIvEEENS0_13sp_ms_deleterIS5_EEEE = linkonce_odr constant { i8*, i8*, i8* } { i8* bitcast (i8** getelementptr inbounds (i8** @_ZTVN10__cxxabiv120__si_class_type_infoE, i64 2) to i8*), i8* getelementptr inbounds ([89 x i8]* @_ZTSN5boost6detail18sp_counted_impl_pdIPN8std_msgs6Int16_ISaIvEEENS0_13sp_ms_deleterIS5_EEEE, i32 0, i32 0), i8* bitcast ({ i8*, i8* }* @_ZTIN5boost6detail15sp_counted_baseE to i8*) }, comdat
@_ZTSN5boost6detail13sp_ms_deleterIN8std_msgs6Int16_ISaIvEEEEE = linkonce_odr constant [58 x i8] c"N5boost6detail13sp_ms_deleterIN8std_msgs6Int16_ISaIvEEEEE\00", comdat
@_ZTIN5boost6detail13sp_ms_deleterIN8std_msgs6Int16_ISaIvEEEEE = linkonce_odr constant { i8*, i8* } { i8* bitcast (i8** getelementptr inbounds (i8** @_ZTVN10__cxxabiv117__class_type_infoE, i64 2) to i8*), i8* getelementptr inbounds ([58 x i8]* @_ZTSN5boost6detail13sp_ms_deleterIN8std_msgs6Int16_ISaIvEEEEE, i32 0, i32 0) }, comdat
@__PRETTY_FUNCTION__._ZNK5boost10shared_ptrIKN8std_msgs6Int16_ISaIvEEEEptEv = private unnamed_addr constant [188 x i8] c"typename boost::detail::sp_member_access<T>::type boost::shared_ptr<const std_msgs::Int16_<std::allocator<void> > >::operator->() const [Y = const std_msgs::Int16_<std::allocator<void> >]\00", align 1
@_ZZNK3ros9Publisher7publishIN8std_msgs6Int16_ISaIvEEEEEvRKT_E33__rosconsole_define_location__loc = linkonce_odr global %"struct.ros::console::LogLocation" { i8 0, i8 0, i32 5, i8* null }, comdat, align 8
@.str23 = private unnamed_addr constant [40 x i8] c"/opt/ros/indigo/include/ros/publisher.h\00", align 1
@__PRETTY_FUNCTION__._ZNK3ros9Publisher7publishIN8std_msgs6Int16_ISaIvEEEEEvRKT_ = private unnamed_addr constant [92 x i8] c"void ros::Publisher::publish(const M &) const [M = std_msgs::Int16_<std::allocator<void> >]\00", align 1
@.str24 = private unnamed_addr constant [62 x i8] c"ASSERTION FAILED\0A\09file = %s\0A\09line = %d\0A\09cond = %s\0A\09message = \00", align 1
@.str25 = private unnamed_addr constant [6 x i8] c"false\00", align 1
@_ZZNK3ros9Publisher7publishIN8std_msgs6Int16_ISaIvEEEEEvRKT_E33__rosconsole_define_location__loc_0 = linkonce_odr global %"struct.ros::console::LogLocation" { i8 0, i8 0, i32 5, i8* null }, comdat, align 8
@.str26 = private unnamed_addr constant [42 x i8] c"Call to publish() on an invalid Publisher\00", align 1
@_ZZNK3ros9Publisher7publishIN8std_msgs6Int16_ISaIvEEEEEvRKT_E33__rosconsole_define_location__loc_1 = linkonce_odr global %"struct.ros::console::LogLocation" { i8 0, i8 0, i32 5, i8* null }, comdat, align 8
@.str27 = private unnamed_addr constant [2 x i8] c"\0A\00", align 1
@_ZZNK3ros9Publisher7publishIN8std_msgs6Int16_ISaIvEEEEEvRKT_E33__rosconsole_define_location__loc_2 = linkonce_odr global %"struct.ros::console::LogLocation" { i8 0, i8 0, i32 5, i8* null }, comdat, align 8
@_ZZNK3ros9Publisher7publishIN8std_msgs6Int16_ISaIvEEEEEvRKT_E33__rosconsole_define_location__loc_3 = linkonce_odr global %"struct.ros::console::LogLocation" { i8 0, i8 0, i32 5, i8* null }, comdat, align 8
@.str28 = private unnamed_addr constant [55 x i8] c"Call to publish() on an invalid Publisher (topic [%s])\00", align 1
@_ZZNK3ros9Publisher7publishIN8std_msgs6Int16_ISaIvEEEEEvRKT_E33__rosconsole_define_location__loc_4 = linkonce_odr global %"struct.ros::console::LogLocation" { i8 0, i8 0, i32 5, i8* null }, comdat, align 8
@.str29 = private unnamed_addr constant [2 x i8] c"*\00", align 1
@_ZZNK3ros9Publisher7publishIN8std_msgs6Int16_ISaIvEEEEEvRKT_E33__rosconsole_define_location__loc_5 = linkonce_odr global %"struct.ros::console::LogLocation" { i8 0, i8 0, i32 5, i8* null }, comdat, align 8
@.str30 = private unnamed_addr constant [112 x i8] c"impl_->md5sum_ == \22*\22 || std::string(mt::md5sum<M>(message)) == \22*\22 || impl_->md5sum_ == mt::md5sum<M>(message)\00", align 1
@_ZZNK3ros9Publisher7publishIN8std_msgs6Int16_ISaIvEEEEEvRKT_E33__rosconsole_define_location__loc_6 = linkonce_odr global %"struct.ros::console::LogLocation" { i8 0, i8 0, i32 5, i8* null }, comdat, align 8
@.str31 = private unnamed_addr constant [75 x i8] c"Trying to publish message of type [%s/%s] on a publisher with type [%s/%s]\00", align 1
@_ZZNK3ros9Publisher7publishIN8std_msgs6Int16_ISaIvEEEEEvRKT_E33__rosconsole_define_location__loc_7 = linkonce_odr global %"struct.ros::console::LogLocation" { i8 0, i8 0, i32 5, i8* null }, comdat, align 8
@__PRETTY_FUNCTION__._ZNK5boost10shared_ptrIN3ros9Publisher4ImplEEptEv = private unnamed_addr constant [137 x i8] c"typename boost::detail::sp_member_access<T>::type boost::shared_ptr<ros::Publisher::Impl>::operator->() const [Y = ros::Publisher::Impl]\00", align 1
@.str32 = private unnamed_addr constant [18 x i8] c"p == 0 || p != px\00", align 1
@.str33 = private unnamed_addr constant [46 x i8] c"/usr/include/boost/smart_ptr/shared_array.hpp\00", align 1
@__PRETTY_FUNCTION__._ZN5boost12shared_arrayIhE5resetIhEEvPT_ = private unnamed_addr constant [91 x i8] c"void boost::shared_array<unsigned char>::reset(Y *) [T = unsigned char, Y = unsigned char]\00", align 1
@_ZTVN5boost6detail18sp_counted_impl_pdIPhNS_21checked_array_deleterIhEEEE = linkonce_odr unnamed_addr constant [8 x i8*] [i8* null, i8* bitcast ({ i8*, i8*, i8* }* @_ZTIN5boost6detail18sp_counted_impl_pdIPhNS_21checked_array_deleterIhEEEE to i8*), i8* bitcast (void (%"class.boost::detail::sp_counted_impl_pd.57"*)* @_ZN5boost6detail18sp_counted_impl_pdIPhNS_21checked_array_deleterIhEEED2Ev to i8*), i8* bitcast (void (%"class.boost::detail::sp_counted_impl_pd.57"*)* @_ZN5boost6detail18sp_counted_impl_pdIPhNS_21checked_array_deleterIhEEED0Ev to i8*), i8* bitcast (void (%"class.boost::detail::sp_counted_impl_pd.57"*)* @_ZN5boost6detail18sp_counted_impl_pdIPhNS_21checked_array_deleterIhEEE7disposeEv to i8*), i8* bitcast (void (%"class.boost::detail::sp_counted_base"*)* @_ZN5boost6detail15sp_counted_base7destroyEv to i8*), i8* bitcast (i8* (%"class.boost::detail::sp_counted_impl_pd.57"*, %"class.std::type_info"*)* @_ZN5boost6detail18sp_counted_impl_pdIPhNS_21checked_array_deleterIhEEE11get_deleterERKSt9type_info to i8*), i8* bitcast (i8* (%"class.boost::detail::sp_counted_impl_pd.57"*)* @_ZN5boost6detail18sp_counted_impl_pdIPhNS_21checked_array_deleterIhEEE19get_untyped_deleterEv to i8*)], comdat, align 8
@_ZTSN5boost6detail18sp_counted_impl_pdIPhNS_21checked_array_deleterIhEEEE = linkonce_odr constant [70 x i8] c"N5boost6detail18sp_counted_impl_pdIPhNS_21checked_array_deleterIhEEEE\00", comdat
@_ZTIN5boost6detail18sp_counted_impl_pdIPhNS_21checked_array_deleterIhEEEE = linkonce_odr constant { i8*, i8*, i8* } { i8* bitcast (i8** getelementptr inbounds (i8** @_ZTVN10__cxxabiv120__si_class_type_infoE, i64 2) to i8*), i8* getelementptr inbounds ([70 x i8]* @_ZTSN5boost6detail18sp_counted_impl_pdIPhNS_21checked_array_deleterIhEEEE, i32 0, i32 0), i8* bitcast ({ i8*, i8* }* @_ZTIN5boost6detail15sp_counted_baseE to i8*) }, comdat
@_ZTSN5boost21checked_array_deleterIhEE = linkonce_odr constant [35 x i8] c"N5boost21checked_array_deleterIhEE\00", comdat
@_ZTIN5boost21checked_array_deleterIhEE = linkonce_odr constant { i8*, i8* } { i8* bitcast (i8** getelementptr inbounds (i8** @_ZTVN10__cxxabiv117__class_type_infoE, i64 2) to i8*), i8* getelementptr inbounds ([35 x i8]* @_ZTSN5boost21checked_array_deleterIhEE, i32 0, i32 0) }, comdat
@_ZZN5boost9function0IN3ros17SerializedMessageEE9assign_toINS_3_bi6bind_tIS2_PFS2_RKN8std_msgs6Int16_ISaIvEEEENS5_5list1INS_17reference_wrapperISB_EEEEEEEEvT_E13stored_vtable = linkonce_odr constant %"struct.boost::detail::function::basic_vtable0.60" { %"struct.boost::detail::function::vtable_base" { void (%"union.boost::detail::function::function_buffer"*, %"union.boost::detail::function::function_buffer"*, i32)* @_ZN5boost6detail8function15functor_managerINS_3_bi6bind_tIN3ros17SerializedMessageEPFS6_RKN8std_msgs6Int16_ISaIvEEEENS3_5list1INS_17reference_wrapperISB_EEEEEEE6manageERKNS1_15function_bufferERSL_NS1_30functor_manager_operation_typeE }, void (%"class.ros::SerializedMessage"*, %"union.boost::detail::function::function_buffer"*)* @_ZN5boost6detail8function21function_obj_invoker0INS_3_bi6bind_tIN3ros17SerializedMessageEPFS6_RKN8std_msgs6Int16_ISaIvEEEENS3_5list1INS_17reference_wrapperISB_EEEEEES6_E6invokeERNS1_15function_bufferE }, comdat, align 8
@_ZTSN5boost3_bi6bind_tIN3ros17SerializedMessageEPFS3_RKN8std_msgs6Int16_ISaIvEEEENS0_5list1INS_17reference_wrapperIS8_EEEEEE = linkonce_odr constant [121 x i8] c"N5boost3_bi6bind_tIN3ros17SerializedMessageEPFS3_RKN8std_msgs6Int16_ISaIvEEEENS0_5list1INS_17reference_wrapperIS8_EEEEEE\00", comdat
@_ZTIN5boost3_bi6bind_tIN3ros17SerializedMessageEPFS3_RKN8std_msgs6Int16_ISaIvEEEENS0_5list1INS_17reference_wrapperIS8_EEEEEE = linkonce_odr constant { i8*, i8* } { i8* bitcast (i8** getelementptr inbounds (i8** @_ZTVN10__cxxabiv117__class_type_infoE, i64 2) to i8*), i8* getelementptr inbounds ([121 x i8]* @_ZTSN5boost3_bi6bind_tIN3ros17SerializedMessageEPFS3_RKN8std_msgs6Int16_ISaIvEEEENS0_5list1INS_17reference_wrapperIS8_EEEEEE, i32 0, i32 0) }, comdat
@llvm.global_ctors = appending global [1 x { i32, void ()*, i8* }] [{ i32, void ()*, i8* } { i32 65535, void ()* @_GLOBAL__sub_I_call_check.cpp, i8* null }]

@_ZN4TestC1Ev = alias void (%class.Test*)* @_ZN4TestC2Ev

define internal void @__cxx_global_var_init() section ".text.startup" {
entry:
  call void @_ZNSt8ios_base4InitC1Ev(%"class.std::ios_base::Init"* @_ZStL8__ioinit), !dbg !10241
  %0 = call i32 @__cxa_atexit(void (i8*)* bitcast (void (%"class.std::ios_base::Init"*)* @_ZNSt8ios_base4InitD1Ev to void (i8*)*), i8* getelementptr inbounds (%"class.std::ios_base::Init"* @_ZStL8__ioinit, i32 0, i32 0), i8* @__dso_handle) #1, !dbg !10241
  ret void, !dbg !10241
}

declare void @_ZNSt8ios_base4InitC1Ev(%"class.std::ios_base::Init"*) #0

declare void @_ZNSt8ios_base4InitD1Ev(%"class.std::ios_base::Init"*) #0

; Function Attrs: nounwind
declare i32 @__cxa_atexit(void (i8*)*, i8*, i8*) #1

define internal void @__cxx_global_var_init1() section ".text.startup" {
entry:
  call void @_ZN5boost3argILi1EEC2Ev(%"struct.boost::arg"* @_ZN12_GLOBAL__N_12_1E), !dbg !10242
  ret void, !dbg !10242
}

; Function Attrs: nounwind uwtable
define linkonce_odr void @_ZN5boost3argILi1EEC2Ev(%"struct.boost::arg"* %this) unnamed_addr #2 comdat align 2 {
entry:
  %this.addr = alloca %"struct.boost::arg"*, align 8
  store %"struct.boost::arg"* %this, %"struct.boost::arg"** %this.addr, align 8
  call void @llvm.dbg.declare(metadata %"struct.boost::arg"** %this.addr, metadata !10243, metadata !10245), !dbg !10246
  %this1 = load %"struct.boost::arg"** %this.addr
  ret void, !dbg !10247
}

define internal void @__cxx_global_var_init2() section ".text.startup" {
entry:
  call void @_ZN5boost3argILi2EEC2Ev(%"struct.boost::arg.0"* @_ZN12_GLOBAL__N_12_2E), !dbg !10248
  ret void, !dbg !10248
}

; Function Attrs: nounwind uwtable
define linkonce_odr void @_ZN5boost3argILi2EEC2Ev(%"struct.boost::arg.0"* %this) unnamed_addr #2 comdat align 2 {
entry:
  %this.addr = alloca %"struct.boost::arg.0"*, align 8
  store %"struct.boost::arg.0"* %this, %"struct.boost::arg.0"** %this.addr, align 8
  call void @llvm.dbg.declare(metadata %"struct.boost::arg.0"** %this.addr, metadata !10249, metadata !10245), !dbg !10251
  %this1 = load %"struct.boost::arg.0"** %this.addr
  ret void, !dbg !10252
}

define internal void @__cxx_global_var_init3() section ".text.startup" {
entry:
  call void @_ZN5boost3argILi3EEC2Ev(%"struct.boost::arg.2"* @_ZN12_GLOBAL__N_12_3E), !dbg !10253
  ret void, !dbg !10253
}

; Function Attrs: nounwind uwtable
define linkonce_odr void @_ZN5boost3argILi3EEC2Ev(%"struct.boost::arg.2"* %this) unnamed_addr #2 comdat align 2 {
entry:
  %this.addr = alloca %"struct.boost::arg.2"*, align 8
  store %"struct.boost::arg.2"* %this, %"struct.boost::arg.2"** %this.addr, align 8
  call void @llvm.dbg.declare(metadata %"struct.boost::arg.2"** %this.addr, metadata !10254, metadata !10245), !dbg !10256
  %this1 = load %"struct.boost::arg.2"** %this.addr
  ret void, !dbg !10257
}

define internal void @__cxx_global_var_init4() section ".text.startup" {
entry:
  call void @_ZN5boost3argILi4EEC2Ev(%"struct.boost::arg.4"* @_ZN12_GLOBAL__N_12_4E), !dbg !10258
  ret void, !dbg !10258
}

; Function Attrs: nounwind uwtable
define linkonce_odr void @_ZN5boost3argILi4EEC2Ev(%"struct.boost::arg.4"* %this) unnamed_addr #2 comdat align 2 {
entry:
  %this.addr = alloca %"struct.boost::arg.4"*, align 8
  store %"struct.boost::arg.4"* %this, %"struct.boost::arg.4"** %this.addr, align 8
  call void @llvm.dbg.declare(metadata %"struct.boost::arg.4"** %this.addr, metadata !10259, metadata !10245), !dbg !10261
  %this1 = load %"struct.boost::arg.4"** %this.addr
  ret void, !dbg !10262
}

define internal void @__cxx_global_var_init5() section ".text.startup" {
entry:
  call void @_ZN5boost3argILi5EEC2Ev(%"struct.boost::arg.6"* @_ZN12_GLOBAL__N_12_5E), !dbg !10263
  ret void, !dbg !10263
}

; Function Attrs: nounwind uwtable
define linkonce_odr void @_ZN5boost3argILi5EEC2Ev(%"struct.boost::arg.6"* %this) unnamed_addr #2 comdat align 2 {
entry:
  %this.addr = alloca %"struct.boost::arg.6"*, align 8
  store %"struct.boost::arg.6"* %this, %"struct.boost::arg.6"** %this.addr, align 8
  call void @llvm.dbg.declare(metadata %"struct.boost::arg.6"** %this.addr, metadata !10264, metadata !10245), !dbg !10266
  %this1 = load %"struct.boost::arg.6"** %this.addr
  ret void, !dbg !10267
}

define internal void @__cxx_global_var_init6() section ".text.startup" {
entry:
  call void @_ZN5boost3argILi6EEC2Ev(%"struct.boost::arg.8"* @_ZN12_GLOBAL__N_12_6E), !dbg !10268
  ret void, !dbg !10268
}

; Function Attrs: nounwind uwtable
define linkonce_odr void @_ZN5boost3argILi6EEC2Ev(%"struct.boost::arg.8"* %this) unnamed_addr #2 comdat align 2 {
entry:
  %this.addr = alloca %"struct.boost::arg.8"*, align 8
  store %"struct.boost::arg.8"* %this, %"struct.boost::arg.8"** %this.addr, align 8
  call void @llvm.dbg.declare(metadata %"struct.boost::arg.8"** %this.addr, metadata !10269, metadata !10245), !dbg !10271
  %this1 = load %"struct.boost::arg.8"** %this.addr
  ret void, !dbg !10272
}

define internal void @__cxx_global_var_init7() section ".text.startup" {
entry:
  call void @_ZN5boost3argILi7EEC2Ev(%"struct.boost::arg.10"* @_ZN12_GLOBAL__N_12_7E), !dbg !10273
  ret void, !dbg !10273
}

; Function Attrs: nounwind uwtable
define linkonce_odr void @_ZN5boost3argILi7EEC2Ev(%"struct.boost::arg.10"* %this) unnamed_addr #2 comdat align 2 {
entry:
  %this.addr = alloca %"struct.boost::arg.10"*, align 8
  store %"struct.boost::arg.10"* %this, %"struct.boost::arg.10"** %this.addr, align 8
  call void @llvm.dbg.declare(metadata %"struct.boost::arg.10"** %this.addr, metadata !10274, metadata !10245), !dbg !10276
  %this1 = load %"struct.boost::arg.10"** %this.addr
  ret void, !dbg !10277
}

define internal void @__cxx_global_var_init8() section ".text.startup" {
entry:
  call void @_ZN5boost3argILi8EEC2Ev(%"struct.boost::arg.12"* @_ZN12_GLOBAL__N_12_8E), !dbg !10278
  ret void, !dbg !10278
}

; Function Attrs: nounwind uwtable
define linkonce_odr void @_ZN5boost3argILi8EEC2Ev(%"struct.boost::arg.12"* %this) unnamed_addr #2 comdat align 2 {
entry:
  %this.addr = alloca %"struct.boost::arg.12"*, align 8
  store %"struct.boost::arg.12"* %this, %"struct.boost::arg.12"** %this.addr, align 8
  call void @llvm.dbg.declare(metadata %"struct.boost::arg.12"** %this.addr, metadata !10279, metadata !10245), !dbg !10281
  %this1 = load %"struct.boost::arg.12"** %this.addr
  ret void, !dbg !10282
}

define internal void @__cxx_global_var_init9() section ".text.startup" {
entry:
  call void @_ZN5boost3argILi9EEC2Ev(%"struct.boost::arg.14"* @_ZN12_GLOBAL__N_12_9E), !dbg !10283
  ret void, !dbg !10283
}

; Function Attrs: nounwind uwtable
define linkonce_odr void @_ZN5boost3argILi9EEC2Ev(%"struct.boost::arg.14"* %this) unnamed_addr #2 comdat align 2 {
entry:
  %this.addr = alloca %"struct.boost::arg.14"*, align 8
  store %"struct.boost::arg.14"* %this, %"struct.boost::arg.14"** %this.addr, align 8
  call void @llvm.dbg.declare(metadata %"struct.boost::arg.14"** %this.addr, metadata !10284, metadata !10245), !dbg !10286
  %this1 = load %"struct.boost::arg.14"** %this.addr
  ret void, !dbg !10287
}

; Function Attrs: uwtable
define void @_ZN4TestC2Ev(%class.Test* %this) unnamed_addr #3 align 2 {
entry:
  %this.addr = alloca %class.Test*, align 8
  %ref.tmp = alloca %"class.std::basic_string", align 8
  %ref.tmp2 = alloca %"class.std::allocator", align 1
  %exn.slot = alloca i8*
  %ehselector.slot = alloca i32
  %ref.tmp3 = alloca %"class.std::map", align 8
  %ref.tmp13 = alloca %"class.std::basic_string", align 8
  %ref.tmp16 = alloca %"class.std::map", align 8
  %ref.tmp32 = alloca %"class.std::basic_string", align 8
  %ref.tmp33 = alloca %"class.std::allocator", align 1
  %ref.tmp36 = alloca i32, align 4
  %ref.tmp44 = alloca %"class.ros::Publisher", align 8
  %ref.tmp46 = alloca %"class.std::basic_string", align 8
  %ref.tmp47 = alloca %"class.std::allocator", align 1
  %ref.tmp62 = alloca %"class.ros::Subscriber", align 8
  %ref.tmp64 = alloca %"class.std::basic_string", align 8
  %ref.tmp65 = alloca %"class.std::allocator", align 1
  %ref.tmp68 = alloca %"class.ros::TransportHints", align 8
  %coerce = alloca { i64, i64 }, align 8
  store %class.Test* %this, %class.Test** %this.addr, align 8
  call void @llvm.dbg.declare(metadata %class.Test** %this.addr, metadata !10288, metadata !10245), !dbg !10289
  %this1 = load %class.Test** %this.addr
  %private_nh_ = getelementptr inbounds %class.Test* %this1, i32 0, i32 0, !dbg !10290
  call void @_ZNSaIcEC1Ev(%"class.std::allocator"* %ref.tmp2) #1, !dbg !10291
  invoke void @_ZNSsC1EPKcRKSaIcE(%"class.std::basic_string"* %ref.tmp, i8* getelementptr inbounds ([2 x i8]* @.str, i32 0, i32 0), %"class.std::allocator"* dereferenceable(1) %ref.tmp2)
          to label %invoke.cont unwind label %lpad, !dbg !10291

invoke.cont:                                      ; preds = %entry
  invoke void @_ZNSt3mapISsSsSt4lessISsESaISt4pairIKSsSsEEEC2Ev(%"class.std::map"* %ref.tmp3)
          to label %invoke.cont5 unwind label %lpad4, !dbg !10292

invoke.cont5:                                     ; preds = %invoke.cont
  invoke void @_ZN3ros10NodeHandleC1ERKSsRKSt3mapISsSsSt4lessISsESaISt4pairIS1_SsEEE(%"class.ros::NodeHandle"* %private_nh_, %"class.std::basic_string"* dereferenceable(8) %ref.tmp, %"class.std::map"* dereferenceable(48) %ref.tmp3)
          to label %invoke.cont7 unwind label %lpad6, !dbg !10294

invoke.cont7:                                     ; preds = %invoke.cont5
  invoke void @_ZNSt3mapISsSsSt4lessISsESaISt4pairIKSsSsEEED2Ev(%"class.std::map"* %ref.tmp3)
          to label %invoke.cont8 unwind label %lpad4, !dbg !10296

invoke.cont8:                                     ; preds = %invoke.cont7
  invoke void @_ZNSsD1Ev(%"class.std::basic_string"* %ref.tmp)
          to label %invoke.cont10 unwind label %lpad, !dbg !10298

invoke.cont10:                                    ; preds = %invoke.cont8
  call void @_ZNSaIcED1Ev(%"class.std::allocator"* %ref.tmp2) #1, !dbg !10300
  %nh = getelementptr inbounds %class.Test* %this1, i32 0, i32 1, !dbg !10302
  invoke void @_ZNSsC1Ev(%"class.std::basic_string"* %ref.tmp13)
          to label %invoke.cont15 unwind label %lpad14, !dbg !10302

invoke.cont15:                                    ; preds = %invoke.cont10
  invoke void @_ZNSt3mapISsSsSt4lessISsESaISt4pairIKSsSsEEEC2Ev(%"class.std::map"* %ref.tmp16)
          to label %invoke.cont18 unwind label %lpad17, !dbg !10303

invoke.cont18:                                    ; preds = %invoke.cont15
  invoke void @_ZN3ros10NodeHandleC1ERKSsRKSt3mapISsSsSt4lessISsESaISt4pairIS1_SsEEE(%"class.ros::NodeHandle"* %nh, %"class.std::basic_string"* dereferenceable(8) %ref.tmp13, %"class.std::map"* dereferenceable(48) %ref.tmp16)
          to label %invoke.cont20 unwind label %lpad19, !dbg !10305

invoke.cont20:                                    ; preds = %invoke.cont18
  invoke void @_ZNSt3mapISsSsSt4lessISsESaISt4pairIKSsSsEEED2Ev(%"class.std::map"* %ref.tmp16)
          to label %invoke.cont21 unwind label %lpad17, !dbg !10307

invoke.cont21:                                    ; preds = %invoke.cont20
  invoke void @_ZNSsD1Ev(%"class.std::basic_string"* %ref.tmp13)
          to label %invoke.cont24 unwind label %lpad14, !dbg !10309

invoke.cont24:                                    ; preds = %invoke.cont21
  %msg_sub = getelementptr inbounds %class.Test* %this1, i32 0, i32 3, !dbg !10311
  invoke void @_ZN3ros10SubscriberC2Ev(%"class.ros::Subscriber"* %msg_sub)
          to label %invoke.cont28 unwind label %lpad27, !dbg !10311

invoke.cont28:                                    ; preds = %invoke.cont24
  %msg_pub = getelementptr inbounds %class.Test* %this1, i32 0, i32 4, !dbg !10313
  invoke void @_ZN3ros9PublisherC2Ev(%"class.ros::Publisher"* %msg_pub)
          to label %invoke.cont30 unwind label %lpad29, !dbg !10313

invoke.cont30:                                    ; preds = %invoke.cont28
  %private_nh_31 = getelementptr inbounds %class.Test* %this1, i32 0, i32 0, !dbg !10315
  call void @_ZNSaIcEC1Ev(%"class.std::allocator"* %ref.tmp33) #1, !dbg !10317
  invoke void @_ZNSsC1EPKcRKSaIcE(%"class.std::basic_string"* %ref.tmp32, i8* getelementptr inbounds ([11 x i8]* @.str10, i32 0, i32 0), %"class.std::allocator"* dereferenceable(1) %ref.tmp33)
          to label %invoke.cont35 unwind label %lpad34, !dbg !10317

invoke.cont35:                                    ; preds = %invoke.cont30
  %_threshold = getelementptr inbounds %class.Test* %this1, i32 0, i32 2, !dbg !10318
  store i32 42, i32* %ref.tmp36, !dbg !10320
  invoke void @_ZNK3ros10NodeHandle5paramIiEEvRKSsRT_RKS4_(%"class.ros::NodeHandle"* %private_nh_31, %"class.std::basic_string"* dereferenceable(8) %ref.tmp32, i32* dereferenceable(4) %_threshold, i32* dereferenceable(4) %ref.tmp36)
          to label %invoke.cont38 unwind label %lpad37, !dbg !10315

invoke.cont38:                                    ; preds = %invoke.cont35
  invoke void @_ZNSsD1Ev(%"class.std::basic_string"* %ref.tmp32)
          to label %invoke.cont39 unwind label %lpad34, !dbg !10321

invoke.cont39:                                    ; preds = %invoke.cont38
  call void @_ZNSaIcED1Ev(%"class.std::allocator"* %ref.tmp33) #1, !dbg !10323
  %msg_pub43 = getelementptr inbounds %class.Test* %this1, i32 0, i32 4, !dbg !10325
  %nh45 = getelementptr inbounds %class.Test* %this1, i32 0, i32 1, !dbg !10326
  call void @_ZNSaIcEC1Ev(%"class.std::allocator"* %ref.tmp47) #1, !dbg !10327
  invoke void @_ZNSsC1EPKcRKSaIcE(%"class.std::basic_string"* %ref.tmp46, i8* getelementptr inbounds ([14 x i8]* @.str11, i32 0, i32 0), %"class.std::allocator"* dereferenceable(1) %ref.tmp47)
          to label %invoke.cont49 unwind label %lpad48, !dbg !10327

invoke.cont49:                                    ; preds = %invoke.cont39
  invoke void @_ZN3ros10NodeHandle9advertiseIN8std_msgs6Int16_ISaIvEEEEENS_9PublisherERKSsjb(%"class.ros::Publisher"* sret %ref.tmp44, %"class.ros::NodeHandle"* %nh45, %"class.std::basic_string"* dereferenceable(8) %ref.tmp46, i32 2, i1 zeroext false)
          to label %invoke.cont51 unwind label %lpad50, !dbg !10328

invoke.cont51:                                    ; preds = %invoke.cont49
  %call = invoke dereferenceable(16) %"class.ros::Publisher"* @_ZN3ros9PublisheraSERKS0_(%"class.ros::Publisher"* %msg_pub43, %"class.ros::Publisher"* dereferenceable(16) %ref.tmp44)
          to label %invoke.cont53 unwind label %lpad52, !dbg !10329

invoke.cont53:                                    ; preds = %invoke.cont51
  invoke void @_ZN3ros9PublisherD1Ev(%"class.ros::Publisher"* %ref.tmp44)
          to label %invoke.cont54 unwind label %lpad50, !dbg !10330

invoke.cont54:                                    ; preds = %invoke.cont53
  invoke void @_ZNSsD1Ev(%"class.std::basic_string"* %ref.tmp46)
          to label %invoke.cont57 unwind label %lpad48, !dbg !10331

invoke.cont57:                                    ; preds = %invoke.cont54
  call void @_ZNSaIcED1Ev(%"class.std::allocator"* %ref.tmp47) #1, !dbg !10333
  %msg_sub61 = getelementptr inbounds %class.Test* %this1, i32 0, i32 3, !dbg !10335
  %nh63 = getelementptr inbounds %class.Test* %this1, i32 0, i32 1, !dbg !10336
  call void @_ZNSaIcEC1Ev(%"class.std::allocator"* %ref.tmp65) #1, !dbg !10337
  invoke void @_ZNSsC1EPKcRKSaIcE(%"class.std::basic_string"* %ref.tmp64, i8* getelementptr inbounds ([13 x i8]* @.str12, i32 0, i32 0), %"class.std::allocator"* dereferenceable(1) %ref.tmp65)
          to label %invoke.cont67 unwind label %lpad66, !dbg !10337

invoke.cont67:                                    ; preds = %invoke.cont57
  %0 = bitcast %"class.ros::TransportHints"* %ref.tmp68 to i8*, !dbg !10338
  call void @llvm.memset.p0i8.i64(i8* %0, i8 0, i64 72, i32 8, i1 false), !dbg !10338
  invoke void @_ZN3ros14TransportHintsC2Ev(%"class.ros::TransportHints"* %ref.tmp68)
          to label %invoke.cont70 unwind label %lpad69, !dbg !10338

invoke.cont70:                                    ; preds = %invoke.cont67
  store { i64, i64 } { i64 ptrtoint (void (%class.Test*, %"class.boost::shared_ptr.26"*)* @_ZN4Test14callbackSimpleERKN5boost10shared_ptrIKN8std_msgs6Int16_ISaIvEEEEE to i64), i64 0 }, { i64, i64 }* %coerce, align 8, !dbg !10339
  %1 = getelementptr { i64, i64 }* %coerce, i32 0, i32 0, !dbg !10339
  %2 = load i64* %1, align 1, !dbg !10339
  %3 = getelementptr { i64, i64 }* %coerce, i32 0, i32 1, !dbg !10339
  %4 = load i64* %3, align 1, !dbg !10339
  invoke void @_ZN3ros10NodeHandle9subscribeIN8std_msgs6Int16_ISaIvEEE4TestEENS_10SubscriberERKSsjMT0_FvRKN5boost10shared_ptrIKT_EEEPSA_RKNS_14TransportHintsE(%"class.ros::Subscriber"* sret %ref.tmp62, %"class.ros::NodeHandle"* %nh63, %"class.std::basic_string"* dereferenceable(8) %ref.tmp64, i32 1, i64 %2, i64 %4, %class.Test* %this1, %"class.ros::TransportHints"* dereferenceable(72) %ref.tmp68)
          to label %invoke.cont72 unwind label %lpad71, !dbg !10339

invoke.cont72:                                    ; preds = %invoke.cont70
  %call75 = invoke dereferenceable(16) %"class.ros::Subscriber"* @_ZN3ros10SubscriberaSERKS0_(%"class.ros::Subscriber"* %msg_sub61, %"class.ros::Subscriber"* dereferenceable(16) %ref.tmp62)
          to label %invoke.cont74 unwind label %lpad73, !dbg !10340

invoke.cont74:                                    ; preds = %invoke.cont72
  invoke void @_ZN3ros10SubscriberD1Ev(%"class.ros::Subscriber"* %ref.tmp62)
          to label %invoke.cont76 unwind label %lpad71, !dbg !10341

invoke.cont76:                                    ; preds = %invoke.cont74
  invoke void @_ZN3ros14TransportHintsD2Ev(%"class.ros::TransportHints"* %ref.tmp68)
          to label %invoke.cont79 unwind label %lpad69, !dbg !10342

invoke.cont79:                                    ; preds = %invoke.cont76
  invoke void @_ZNSsD1Ev(%"class.std::basic_string"* %ref.tmp64)
          to label %invoke.cont82 unwind label %lpad66, !dbg !10344

invoke.cont82:                                    ; preds = %invoke.cont79
  call void @_ZNSaIcED1Ev(%"class.std::allocator"* %ref.tmp65) #1, !dbg !10346
  ret void, !dbg !10348

lpad:                                             ; preds = %invoke.cont8, %entry
  %5 = landingpad { i8*, i32 } personality i8* bitcast (i32 (...)* @__gxx_personality_v0 to i8*)
          cleanup, !dbg !10348
  %6 = extractvalue { i8*, i32 } %5, 0, !dbg !10348
  store i8* %6, i8** %exn.slot, !dbg !10348
  %7 = extractvalue { i8*, i32 } %5, 1, !dbg !10348
  store i32 %7, i32* %ehselector.slot, !dbg !10348
  br label %ehcleanup12, !dbg !10348

lpad4:                                            ; preds = %invoke.cont7, %invoke.cont
  %8 = landingpad { i8*, i32 } personality i8* bitcast (i32 (...)* @__gxx_personality_v0 to i8*)
          cleanup, !dbg !10349
  %9 = extractvalue { i8*, i32 } %8, 0, !dbg !10349
  store i8* %9, i8** %exn.slot, !dbg !10349
  %10 = extractvalue { i8*, i32 } %8, 1, !dbg !10349
  store i32 %10, i32* %ehselector.slot, !dbg !10349
  br label %ehcleanup, !dbg !10349

lpad6:                                            ; preds = %invoke.cont5
  %11 = landingpad { i8*, i32 } personality i8* bitcast (i32 (...)* @__gxx_personality_v0 to i8*)
          cleanup, !dbg !10348
  %12 = extractvalue { i8*, i32 } %11, 0, !dbg !10348
  store i8* %12, i8** %exn.slot, !dbg !10348
  %13 = extractvalue { i8*, i32 } %11, 1, !dbg !10348
  store i32 %13, i32* %ehselector.slot, !dbg !10348
  invoke void @_ZNSt3mapISsSsSt4lessISsESaISt4pairIKSsSsEEED2Ev(%"class.std::map"* %ref.tmp3)
          to label %invoke.cont9 unwind label %terminate.lpad, !dbg !10290

invoke.cont9:                                     ; preds = %lpad6
  br label %ehcleanup, !dbg !10352

ehcleanup:                                        ; preds = %invoke.cont9, %lpad4
  invoke void @_ZNSsD1Ev(%"class.std::basic_string"* %ref.tmp)
          to label %invoke.cont11 unwind label %terminate.lpad, !dbg !10354

invoke.cont11:                                    ; preds = %ehcleanup
  br label %ehcleanup12, !dbg !10357

ehcleanup12:                                      ; preds = %invoke.cont11, %lpad
  call void @_ZNSaIcED1Ev(%"class.std::allocator"* %ref.tmp2) #1, !dbg !10359
  br label %eh.resume, !dbg !10359

lpad14:                                           ; preds = %invoke.cont21, %invoke.cont10
  %14 = landingpad { i8*, i32 } personality i8* bitcast (i32 (...)* @__gxx_personality_v0 to i8*)
          cleanup, !dbg !10361
  %15 = extractvalue { i8*, i32 } %14, 0, !dbg !10361
  store i8* %15, i8** %exn.slot, !dbg !10361
  %16 = extractvalue { i8*, i32 } %14, 1, !dbg !10361
  store i32 %16, i32* %ehselector.slot, !dbg !10361
  br label %ehcleanup92, !dbg !10361

lpad17:                                           ; preds = %invoke.cont20, %invoke.cont15
  %17 = landingpad { i8*, i32 } personality i8* bitcast (i32 (...)* @__gxx_personality_v0 to i8*)
          cleanup, !dbg !10364
  %18 = extractvalue { i8*, i32 } %17, 0, !dbg !10364
  store i8* %18, i8** %exn.slot, !dbg !10364
  %19 = extractvalue { i8*, i32 } %17, 1, !dbg !10364
  store i32 %19, i32* %ehselector.slot, !dbg !10364
  br label %ehcleanup25, !dbg !10364

lpad19:                                           ; preds = %invoke.cont18
  %20 = landingpad { i8*, i32 } personality i8* bitcast (i32 (...)* @__gxx_personality_v0 to i8*)
          cleanup, !dbg !10348
  %21 = extractvalue { i8*, i32 } %20, 0, !dbg !10348
  store i8* %21, i8** %exn.slot, !dbg !10348
  %22 = extractvalue { i8*, i32 } %20, 1, !dbg !10348
  store i32 %22, i32* %ehselector.slot, !dbg !10348
  invoke void @_ZNSt3mapISsSsSt4lessISsESaISt4pairIKSsSsEEED2Ev(%"class.std::map"* %ref.tmp16)
          to label %invoke.cont23 unwind label %terminate.lpad, !dbg !10302

invoke.cont23:                                    ; preds = %lpad19
  br label %ehcleanup25, !dbg !10367

ehcleanup25:                                      ; preds = %invoke.cont23, %lpad17
  invoke void @_ZNSsD1Ev(%"class.std::basic_string"* %ref.tmp13)
          to label %invoke.cont26 unwind label %terminate.lpad, !dbg !10369

invoke.cont26:                                    ; preds = %ehcleanup25
  br label %ehcleanup92, !dbg !10372

lpad27:                                           ; preds = %invoke.cont24
  %23 = landingpad { i8*, i32 } personality i8* bitcast (i32 (...)* @__gxx_personality_v0 to i8*)
          cleanup, !dbg !10348
  %24 = extractvalue { i8*, i32 } %23, 0, !dbg !10348
  store i8* %24, i8** %exn.slot, !dbg !10348
  %25 = extractvalue { i8*, i32 } %23, 1, !dbg !10348
  store i32 %25, i32* %ehselector.slot, !dbg !10348
  br label %ehcleanup90, !dbg !10348

lpad29:                                           ; preds = %invoke.cont28
  %26 = landingpad { i8*, i32 } personality i8* bitcast (i32 (...)* @__gxx_personality_v0 to i8*)
          cleanup, !dbg !10348
  %27 = extractvalue { i8*, i32 } %26, 0, !dbg !10348
  store i8* %27, i8** %exn.slot, !dbg !10348
  %28 = extractvalue { i8*, i32 } %26, 1, !dbg !10348
  store i32 %28, i32* %ehselector.slot, !dbg !10348
  br label %ehcleanup88, !dbg !10348

lpad34:                                           ; preds = %invoke.cont38, %invoke.cont30
  %29 = landingpad { i8*, i32 } personality i8* bitcast (i32 (...)* @__gxx_personality_v0 to i8*)
          cleanup, !dbg !10374
  %30 = extractvalue { i8*, i32 } %29, 0, !dbg !10374
  store i8* %30, i8** %exn.slot, !dbg !10374
  %31 = extractvalue { i8*, i32 } %29, 1, !dbg !10374
  store i32 %31, i32* %ehselector.slot, !dbg !10374
  br label %ehcleanup42, !dbg !10374

lpad37:                                           ; preds = %invoke.cont35
  %32 = landingpad { i8*, i32 } personality i8* bitcast (i32 (...)* @__gxx_personality_v0 to i8*)
          cleanup, !dbg !10374
  %33 = extractvalue { i8*, i32 } %32, 0, !dbg !10374
  store i8* %33, i8** %exn.slot, !dbg !10374
  %34 = extractvalue { i8*, i32 } %32, 1, !dbg !10374
  store i32 %34, i32* %ehselector.slot, !dbg !10374
  invoke void @_ZNSsD1Ev(%"class.std::basic_string"* %ref.tmp32)
          to label %invoke.cont41 unwind label %terminate.lpad, !dbg !10315

invoke.cont41:                                    ; preds = %lpad37
  br label %ehcleanup42, !dbg !10375

ehcleanup42:                                      ; preds = %invoke.cont41, %lpad34
  call void @_ZNSaIcED1Ev(%"class.std::allocator"* %ref.tmp33) #1, !dbg !10376
  br label %ehcleanup86, !dbg !10376

lpad48:                                           ; preds = %invoke.cont54, %invoke.cont39
  %35 = landingpad { i8*, i32 } personality i8* bitcast (i32 (...)* @__gxx_personality_v0 to i8*)
          cleanup, !dbg !10374
  %36 = extractvalue { i8*, i32 } %35, 0, !dbg !10374
  store i8* %36, i8** %exn.slot, !dbg !10374
  %37 = extractvalue { i8*, i32 } %35, 1, !dbg !10374
  store i32 %37, i32* %ehselector.slot, !dbg !10374
  br label %ehcleanup60, !dbg !10374

lpad50:                                           ; preds = %invoke.cont53, %invoke.cont49
  %38 = landingpad { i8*, i32 } personality i8* bitcast (i32 (...)* @__gxx_personality_v0 to i8*)
          cleanup, !dbg !10374
  %39 = extractvalue { i8*, i32 } %38, 0, !dbg !10374
  store i8* %39, i8** %exn.slot, !dbg !10374
  %40 = extractvalue { i8*, i32 } %38, 1, !dbg !10374
  store i32 %40, i32* %ehselector.slot, !dbg !10374
  br label %ehcleanup58, !dbg !10374

lpad52:                                           ; preds = %invoke.cont51
  %41 = landingpad { i8*, i32 } personality i8* bitcast (i32 (...)* @__gxx_personality_v0 to i8*)
          cleanup, !dbg !10374
  %42 = extractvalue { i8*, i32 } %41, 0, !dbg !10374
  store i8* %42, i8** %exn.slot, !dbg !10374
  %43 = extractvalue { i8*, i32 } %41, 1, !dbg !10374
  store i32 %43, i32* %ehselector.slot, !dbg !10374
  invoke void @_ZN3ros9PublisherD1Ev(%"class.ros::Publisher"* %ref.tmp44)
          to label %invoke.cont56 unwind label %terminate.lpad, !dbg !10325

invoke.cont56:                                    ; preds = %lpad52
  br label %ehcleanup58, !dbg !10377

ehcleanup58:                                      ; preds = %invoke.cont56, %lpad50
  invoke void @_ZNSsD1Ev(%"class.std::basic_string"* %ref.tmp46)
          to label %invoke.cont59 unwind label %terminate.lpad, !dbg !10378

invoke.cont59:                                    ; preds = %ehcleanup58
  br label %ehcleanup60, !dbg !10379

ehcleanup60:                                      ; preds = %invoke.cont59, %lpad48
  call void @_ZNSaIcED1Ev(%"class.std::allocator"* %ref.tmp47) #1, !dbg !10381
  br label %ehcleanup86, !dbg !10381

lpad66:                                           ; preds = %invoke.cont79, %invoke.cont57
  %44 = landingpad { i8*, i32 } personality i8* bitcast (i32 (...)* @__gxx_personality_v0 to i8*)
          cleanup, !dbg !10374
  %45 = extractvalue { i8*, i32 } %44, 0, !dbg !10374
  store i8* %45, i8** %exn.slot, !dbg !10374
  %46 = extractvalue { i8*, i32 } %44, 1, !dbg !10374
  store i32 %46, i32* %ehselector.slot, !dbg !10374
  br label %ehcleanup85, !dbg !10374

lpad69:                                           ; preds = %invoke.cont76, %invoke.cont67
  %47 = landingpad { i8*, i32 } personality i8* bitcast (i32 (...)* @__gxx_personality_v0 to i8*)
          cleanup, !dbg !10382
  %48 = extractvalue { i8*, i32 } %47, 0, !dbg !10382
  store i8* %48, i8** %exn.slot, !dbg !10382
  %49 = extractvalue { i8*, i32 } %47, 1, !dbg !10382
  store i32 %49, i32* %ehselector.slot, !dbg !10382
  br label %ehcleanup83, !dbg !10382

lpad71:                                           ; preds = %invoke.cont74, %invoke.cont70
  %50 = landingpad { i8*, i32 } personality i8* bitcast (i32 (...)* @__gxx_personality_v0 to i8*)
          cleanup, !dbg !10374
  %51 = extractvalue { i8*, i32 } %50, 0, !dbg !10374
  store i8* %51, i8** %exn.slot, !dbg !10374
  %52 = extractvalue { i8*, i32 } %50, 1, !dbg !10374
  store i32 %52, i32* %ehselector.slot, !dbg !10374
  br label %ehcleanup80, !dbg !10374

lpad73:                                           ; preds = %invoke.cont72
  %53 = landingpad { i8*, i32 } personality i8* bitcast (i32 (...)* @__gxx_personality_v0 to i8*)
          cleanup, !dbg !10374
  %54 = extractvalue { i8*, i32 } %53, 0, !dbg !10374
  store i8* %54, i8** %exn.slot, !dbg !10374
  %55 = extractvalue { i8*, i32 } %53, 1, !dbg !10374
  store i32 %55, i32* %ehselector.slot, !dbg !10374
  invoke void @_ZN3ros10SubscriberD1Ev(%"class.ros::Subscriber"* %ref.tmp62)
          to label %invoke.cont78 unwind label %terminate.lpad, !dbg !10335

invoke.cont78:                                    ; preds = %lpad73
  br label %ehcleanup80, !dbg !10384

ehcleanup80:                                      ; preds = %invoke.cont78, %lpad71
  invoke void @_ZN3ros14TransportHintsD2Ev(%"class.ros::TransportHints"* %ref.tmp68)
          to label %invoke.cont81 unwind label %terminate.lpad, !dbg !10386

invoke.cont81:                                    ; preds = %ehcleanup80
  br label %ehcleanup83, !dbg !10388

ehcleanup83:                                      ; preds = %invoke.cont81, %lpad69
  invoke void @_ZNSsD1Ev(%"class.std::basic_string"* %ref.tmp64)
          to label %invoke.cont84 unwind label %terminate.lpad, !dbg !10390

invoke.cont84:                                    ; preds = %ehcleanup83
  br label %ehcleanup85, !dbg !10393

ehcleanup85:                                      ; preds = %invoke.cont84, %lpad66
  call void @_ZNSaIcED1Ev(%"class.std::allocator"* %ref.tmp65) #1, !dbg !10395
  br label %ehcleanup86, !dbg !10395

ehcleanup86:                                      ; preds = %ehcleanup85, %ehcleanup60, %ehcleanup42
  invoke void @_ZN3ros9PublisherD1Ev(%"class.ros::Publisher"* %msg_pub)
          to label %invoke.cont87 unwind label %terminate.lpad, !dbg !10374

invoke.cont87:                                    ; preds = %ehcleanup86
  br label %ehcleanup88, !dbg !10397

ehcleanup88:                                      ; preds = %invoke.cont87, %lpad29
  invoke void @_ZN3ros10SubscriberD1Ev(%"class.ros::Subscriber"* %msg_sub)
          to label %invoke.cont89 unwind label %terminate.lpad, !dbg !10398

invoke.cont89:                                    ; preds = %ehcleanup88
  br label %ehcleanup90, !dbg !10400

ehcleanup90:                                      ; preds = %invoke.cont89, %lpad27
  invoke void @_ZN3ros10NodeHandleD1Ev(%"class.ros::NodeHandle"* %nh)
          to label %invoke.cont91 unwind label %terminate.lpad, !dbg !10401

invoke.cont91:                                    ; preds = %ehcleanup90
  br label %ehcleanup92, !dbg !10403

ehcleanup92:                                      ; preds = %invoke.cont91, %invoke.cont26, %lpad14
  invoke void @_ZN3ros10NodeHandleD1Ev(%"class.ros::NodeHandle"* %private_nh_)
          to label %invoke.cont93 unwind label %terminate.lpad, !dbg !10404

invoke.cont93:                                    ; preds = %ehcleanup92
  br label %eh.resume, !dbg !10405

eh.resume:                                        ; preds = %invoke.cont93, %ehcleanup12
  %exn = load i8** %exn.slot, !dbg !10406
  %sel = load i32* %ehselector.slot, !dbg !10406
  %lpad.val = insertvalue { i8*, i32 } undef, i8* %exn, 0, !dbg !10406
  %lpad.val94 = insertvalue { i8*, i32 } %lpad.val, i32 %sel, 1, !dbg !10406
  resume { i8*, i32 } %lpad.val94, !dbg !10406

terminate.lpad:                                   ; preds = %ehcleanup92, %ehcleanup90, %ehcleanup88, %ehcleanup86, %ehcleanup83, %ehcleanup80, %lpad73, %ehcleanup58, %lpad52, %lpad37, %ehcleanup25, %lpad19, %ehcleanup, %lpad6
  %56 = landingpad { i8*, i32 } personality i8* bitcast (i32 (...)* @__gxx_personality_v0 to i8*)
          catch i8* null, !dbg !10408
  %57 = extractvalue { i8*, i32 } %56, 0, !dbg !10408
  call void @__clang_call_terminate(i8* %57) #15, !dbg !10408
  unreachable, !dbg !10408
}

; Function Attrs: nounwind readnone
declare void @llvm.dbg.declare(metadata, metadata, metadata) #4

; Function Attrs: nounwind
declare void @_ZNSaIcEC1Ev(%"class.std::allocator"*) #5

declare void @_ZNSsC1EPKcRKSaIcE(%"class.std::basic_string"*, i8*, %"class.std::allocator"* dereferenceable(1)) #0

declare i32 @__gxx_personality_v0(...)

; Function Attrs: uwtable
define linkonce_odr void @_ZNSt3mapISsSsSt4lessISsESaISt4pairIKSsSsEEEC2Ev(%"class.std::map"* %this) unnamed_addr #3 comdat align 2 {
entry:
  %this.addr = alloca %"class.std::map"*, align 8
  store %"class.std::map"* %this, %"class.std::map"** %this.addr, align 8
  call void @llvm.dbg.declare(metadata %"class.std::map"** %this.addr, metadata !10413, metadata !10245), !dbg !10414
  %this1 = load %"class.std::map"** %this.addr
  %_M_t = getelementptr inbounds %"class.std::map"* %this1, i32 0, i32 0, !dbg !10415
  call void @_ZNSt8_Rb_treeISsSt4pairIKSsSsESt10_Select1stIS2_ESt4lessISsESaIS2_EEC2Ev(%"class.std::_Rb_tree"* %_M_t), !dbg !10415
  ret void, !dbg !10416
}

declare void @_ZN3ros10NodeHandleC1ERKSsRKSt3mapISsSsSt4lessISsESaISt4pairIS1_SsEEE(%"class.ros::NodeHandle"*, %"class.std::basic_string"* dereferenceable(8), %"class.std::map"* dereferenceable(48)) #0

; Function Attrs: inlinehint uwtable
define linkonce_odr void @_ZNSt3mapISsSsSt4lessISsESaISt4pairIKSsSsEEED2Ev(%"class.std::map"* %this) unnamed_addr #6 comdat align 2 {
entry:
  %this.addr = alloca %"class.std::map"*, align 8
  store %"class.std::map"* %this, %"class.std::map"** %this.addr, align 8
  call void @llvm.dbg.declare(metadata %"class.std::map"** %this.addr, metadata !10417, metadata !10245), !dbg !10418
  %this1 = load %"class.std::map"** %this.addr
  %_M_t = getelementptr inbounds %"class.std::map"* %this1, i32 0, i32 0, !dbg !10419
  call void @_ZNSt8_Rb_treeISsSt4pairIKSsSsESt10_Select1stIS2_ESt4lessISsESaIS2_EED2Ev(%"class.std::_Rb_tree"* %_M_t), !dbg !10419
  ret void, !dbg !10421
}

; Function Attrs: noinline noreturn nounwind
define linkonce_odr hidden void @__clang_call_terminate(i8*) #7 comdat {
  %2 = call i8* @__cxa_begin_catch(i8* %0) #1
  call void @_ZSt9terminatev() #15
  unreachable
}

declare i8* @__cxa_begin_catch(i8*)

declare void @_ZSt9terminatev()

declare void @_ZNSsD1Ev(%"class.std::basic_string"*) #0

; Function Attrs: nounwind
declare void @_ZNSaIcED1Ev(%"class.std::allocator"*) #5

declare void @_ZNSsC1Ev(%"class.std::basic_string"*) #0

; Function Attrs: uwtable
define linkonce_odr void @_ZN3ros10SubscriberC2Ev(%"class.ros::Subscriber"* %this) unnamed_addr #3 comdat align 2 {
entry:
  %this.addr = alloca %"class.ros::Subscriber"*, align 8
  store %"class.ros::Subscriber"* %this, %"class.ros::Subscriber"** %this.addr, align 8
  call void @llvm.dbg.declare(metadata %"class.ros::Subscriber"** %this.addr, metadata !10422, metadata !10245), !dbg !10424
  %this1 = load %"class.ros::Subscriber"** %this.addr
  %impl_ = getelementptr inbounds %"class.ros::Subscriber"* %this1, i32 0, i32 0, !dbg !10425
  call void @_ZN5boost10shared_ptrIN3ros10Subscriber4ImplEEC2Ev(%"class.boost::shared_ptr"* %impl_), !dbg !10425
  ret void, !dbg !10426
}

; Function Attrs: uwtable
define linkonce_odr void @_ZN3ros9PublisherC2Ev(%"class.ros::Publisher"* %this) unnamed_addr #3 comdat align 2 {
entry:
  %this.addr = alloca %"class.ros::Publisher"*, align 8
  store %"class.ros::Publisher"* %this, %"class.ros::Publisher"** %this.addr, align 8
  call void @llvm.dbg.declare(metadata %"class.ros::Publisher"** %this.addr, metadata !10427, metadata !10245), !dbg !10429
  %this1 = load %"class.ros::Publisher"** %this.addr
  %impl_ = getelementptr inbounds %"class.ros::Publisher"* %this1, i32 0, i32 0, !dbg !10430
  call void @_ZN5boost10shared_ptrIN3ros9Publisher4ImplEEC2Ev(%"class.boost::shared_ptr.21"* %impl_), !dbg !10430
  ret void, !dbg !10431
}

; Function Attrs: uwtable
define linkonce_odr void @_ZNK3ros10NodeHandle5paramIiEEvRKSsRT_RKS4_(%"class.ros::NodeHandle"* %this, %"class.std::basic_string"* dereferenceable(8) %param_name, i32* dereferenceable(4) %param_val, i32* dereferenceable(4) %default_val) #3 comdat align 2 {
entry:
  %this.addr = alloca %"class.ros::NodeHandle"*, align 8
  %param_name.addr = alloca %"class.std::basic_string"*, align 8
  %param_val.addr = alloca i32*, align 8
  %default_val.addr = alloca i32*, align 8
  store %"class.ros::NodeHandle"* %this, %"class.ros::NodeHandle"** %this.addr, align 8
  call void @llvm.dbg.declare(metadata %"class.ros::NodeHandle"** %this.addr, metadata !10432, metadata !10245), !dbg !10434
  store %"class.std::basic_string"* %param_name, %"class.std::basic_string"** %param_name.addr, align 8
  call void @llvm.dbg.declare(metadata %"class.std::basic_string"** %param_name.addr, metadata !10435, metadata !10245), !dbg !10437
  store i32* %param_val, i32** %param_val.addr, align 8
  call void @llvm.dbg.declare(metadata i32** %param_val.addr, metadata !10438, metadata !10245), !dbg !10439
  store i32* %default_val, i32** %default_val.addr, align 8
  call void @llvm.dbg.declare(metadata i32** %default_val.addr, metadata !10440, metadata !10245), !dbg !10441
  %this1 = load %"class.ros::NodeHandle"** %this.addr
  %0 = load %"class.std::basic_string"** %param_name.addr, align 8, !dbg !10442
  %call = call zeroext i1 @_ZNK3ros10NodeHandle8hasParamERKSs(%"class.ros::NodeHandle"* %this1, %"class.std::basic_string"* dereferenceable(8) %0), !dbg !10444
  br i1 %call, label %if.then, label %if.end4, !dbg !10445

if.then:                                          ; preds = %entry
  %1 = load %"class.std::basic_string"** %param_name.addr, align 8, !dbg !10446
  %2 = load i32** %param_val.addr, align 8, !dbg !10449
  %call2 = call zeroext i1 @_ZNK3ros10NodeHandle8getParamERKSsRi(%"class.ros::NodeHandle"* %this1, %"class.std::basic_string"* dereferenceable(8) %1, i32* dereferenceable(4) %2), !dbg !10450
  br i1 %call2, label %if.then3, label %if.end, !dbg !10451

if.then3:                                         ; preds = %if.then
  br label %return, !dbg !10452

if.end:                                           ; preds = %if.then
  br label %if.end4, !dbg !10454

if.end4:                                          ; preds = %if.end, %entry
  %3 = load i32** %default_val.addr, align 8, !dbg !10455
  %4 = load i32* %3, align 4, !dbg !10455
  %5 = load i32** %param_val.addr, align 8, !dbg !10456
  store i32 %4, i32* %5, align 4, !dbg !10457
  br label %return, !dbg !10458

return:                                           ; preds = %if.end4, %if.then3
  ret void, !dbg !10459
}

; Function Attrs: inlinehint uwtable
define linkonce_odr dereferenceable(16) %"class.ros::Publisher"* @_ZN3ros9PublisheraSERKS0_(%"class.ros::Publisher"* %this, %"class.ros::Publisher"* dereferenceable(16)) #6 comdat align 2 {
entry:
  %this.addr = alloca %"class.ros::Publisher"*, align 8
  %.addr = alloca %"class.ros::Publisher"*, align 8
  store %"class.ros::Publisher"* %this, %"class.ros::Publisher"** %this.addr, align 8
  call void @llvm.dbg.declare(metadata %"class.ros::Publisher"** %this.addr, metadata !10461, metadata !10245), !dbg !10462
  store %"class.ros::Publisher"* %0, %"class.ros::Publisher"** %.addr, align 8
  call void @llvm.dbg.declare(metadata %"class.ros::Publisher"** %.addr, metadata !10463, metadata !10245), !dbg !10462
  %this1 = load %"class.ros::Publisher"** %this.addr
  %impl_ = getelementptr inbounds %"class.ros::Publisher"* %this1, i32 0, i32 0, !dbg !10464
  %1 = load %"class.ros::Publisher"** %.addr, align 8, !dbg !10464
  %impl_2 = getelementptr inbounds %"class.ros::Publisher"* %1, i32 0, i32 0, !dbg !10464
  %call = call dereferenceable(16) %"class.boost::shared_ptr.21"* @_ZN5boost10shared_ptrIN3ros9Publisher4ImplEEaSERKS4_(%"class.boost::shared_ptr.21"* %impl_, %"class.boost::shared_ptr.21"* dereferenceable(16) %impl_2), !dbg !10464
  ret %"class.ros::Publisher"* %this1, !dbg !10464
}

; Function Attrs: uwtable
define linkonce_odr void @_ZN3ros10NodeHandle9advertiseIN8std_msgs6Int16_ISaIvEEEEENS_9PublisherERKSsjb(%"class.ros::Publisher"* noalias sret %agg.result, %"class.ros::NodeHandle"* %this, %"class.std::basic_string"* dereferenceable(8) %topic, i32 %queue_size, i1 zeroext %latch) #3 comdat align 2 {
entry:
  %this.addr = alloca %"class.ros::NodeHandle"*, align 8
  %topic.addr = alloca %"class.std::basic_string"*, align 8
  %queue_size.addr = alloca i32, align 4
  %latch.addr = alloca i8, align 1
  %ops = alloca %"struct.ros::AdvertiseOptions", align 8
  %ref.tmp = alloca %"class.boost::function", align 8
  %exn.slot = alloca i8*
  %ehselector.slot = alloca i32
  %ref.tmp2 = alloca %"class.boost::function", align 8
  %cleanup.dest.slot = alloca i32
  store %"class.ros::NodeHandle"* %this, %"class.ros::NodeHandle"** %this.addr, align 8
  call void @llvm.dbg.declare(metadata %"class.ros::NodeHandle"** %this.addr, metadata !10466, metadata !10245), !dbg !10467
  store %"class.std::basic_string"* %topic, %"class.std::basic_string"** %topic.addr, align 8
  call void @llvm.dbg.declare(metadata %"class.std::basic_string"** %topic.addr, metadata !10468, metadata !10245), !dbg !10469
  store i32 %queue_size, i32* %queue_size.addr, align 4
  call void @llvm.dbg.declare(metadata i32* %queue_size.addr, metadata !10470, metadata !10245), !dbg !10471
  %frombool = zext i1 %latch to i8
  store i8 %frombool, i8* %latch.addr, align 1
  call void @llvm.dbg.declare(metadata i8* %latch.addr, metadata !10472, metadata !10245), !dbg !10473
  %this1 = load %"class.ros::NodeHandle"** %this.addr
  call void @llvm.dbg.declare(metadata %"struct.ros::AdvertiseOptions"* %ops, metadata !10474, metadata !10245), !dbg !10475
  call void @_ZN3ros16AdvertiseOptionsC2Ev(%"struct.ros::AdvertiseOptions"* %ops), !dbg !10475
  %0 = load %"class.std::basic_string"** %topic.addr, align 8, !dbg !10476
  %1 = load i32* %queue_size.addr, align 4, !dbg !10477
  invoke void @_ZN5boost8functionIFvRKN3ros25SingleSubscriberPublisherEEEC2Ev(%"class.boost::function"* %ref.tmp)
          to label %invoke.cont unwind label %lpad, !dbg !10478

invoke.cont:                                      ; preds = %entry
  invoke void @_ZN5boost8functionIFvRKN3ros25SingleSubscriberPublisherEEEC2Ev(%"class.boost::function"* %ref.tmp2)
          to label %invoke.cont4 unwind label %lpad3, !dbg !10479

invoke.cont4:                                     ; preds = %invoke.cont
  invoke void @_ZN3ros16AdvertiseOptions4initIN8std_msgs6Int16_ISaIvEEEEEvRKSsjRKN5boost8functionIFvRKNS_25SingleSubscriberPublisherEEEESG_(%"struct.ros::AdvertiseOptions"* %ops, %"class.std::basic_string"* dereferenceable(8) %0, i32 %1, %"class.boost::function"* dereferenceable(32) %ref.tmp, %"class.boost::function"* dereferenceable(32) %ref.tmp2)
          to label %invoke.cont6 unwind label %lpad5, !dbg !10481

invoke.cont6:                                     ; preds = %invoke.cont4
  invoke void @_ZN5boost8functionIFvRKN3ros25SingleSubscriberPublisherEEED2Ev(%"class.boost::function"* %ref.tmp2)
          to label %invoke.cont7 unwind label %lpad3, !dbg !10483

invoke.cont7:                                     ; preds = %invoke.cont6
  invoke void @_ZN5boost8functionIFvRKN3ros25SingleSubscriberPublisherEEED2Ev(%"class.boost::function"* %ref.tmp)
          to label %invoke.cont9 unwind label %lpad, !dbg !10485

invoke.cont9:                                     ; preds = %invoke.cont7
  %2 = load i8* %latch.addr, align 1, !dbg !10487
  %tobool = trunc i8 %2 to i1, !dbg !10487
  %latch11 = getelementptr inbounds %"struct.ros::AdvertiseOptions"* %ops, i32 0, i32 10, !dbg !10488
  %frombool12 = zext i1 %tobool to i8, !dbg !10489
  store i8 %frombool12, i8* %latch11, align 1, !dbg !10489
  invoke void @_ZN3ros10NodeHandle9advertiseERNS_16AdvertiseOptionsE(%"class.ros::Publisher"* sret %agg.result, %"class.ros::NodeHandle"* %this1, %"struct.ros::AdvertiseOptions"* dereferenceable(136) %ops)
          to label %invoke.cont13 unwind label %lpad, !dbg !10490

invoke.cont13:                                    ; preds = %invoke.cont9
  store i32 1, i32* %cleanup.dest.slot
  call void @_ZN3ros16AdvertiseOptionsD2Ev(%"struct.ros::AdvertiseOptions"* %ops), !dbg !10491
  ret void, !dbg !10491

lpad:                                             ; preds = %invoke.cont9, %invoke.cont7, %entry
  %3 = landingpad { i8*, i32 } personality i8* bitcast (i32 (...)* @__gxx_personality_v0 to i8*)
          cleanup, !dbg !10492
  %4 = extractvalue { i8*, i32 } %3, 0, !dbg !10492
  store i8* %4, i8** %exn.slot, !dbg !10492
  %5 = extractvalue { i8*, i32 } %3, 1, !dbg !10492
  store i32 %5, i32* %ehselector.slot, !dbg !10492
  br label %ehcleanup14, !dbg !10492

lpad3:                                            ; preds = %invoke.cont6, %invoke.cont
  %6 = landingpad { i8*, i32 } personality i8* bitcast (i32 (...)* @__gxx_personality_v0 to i8*)
          cleanup, !dbg !10495
  %7 = extractvalue { i8*, i32 } %6, 0, !dbg !10495
  store i8* %7, i8** %exn.slot, !dbg !10495
  %8 = extractvalue { i8*, i32 } %6, 1, !dbg !10495
  store i32 %8, i32* %ehselector.slot, !dbg !10495
  br label %ehcleanup, !dbg !10495

lpad5:                                            ; preds = %invoke.cont4
  %9 = landingpad { i8*, i32 } personality i8* bitcast (i32 (...)* @__gxx_personality_v0 to i8*)
          cleanup, !dbg !10491
  %10 = extractvalue { i8*, i32 } %9, 0, !dbg !10491
  store i8* %10, i8** %exn.slot, !dbg !10491
  %11 = extractvalue { i8*, i32 } %9, 1, !dbg !10491
  store i32 %11, i32* %ehselector.slot, !dbg !10491
  invoke void @_ZN5boost8functionIFvRKN3ros25SingleSubscriberPublisherEEED2Ev(%"class.boost::function"* %ref.tmp2)
          to label %invoke.cont8 unwind label %terminate.lpad, !dbg !10478

invoke.cont8:                                     ; preds = %lpad5
  br label %ehcleanup, !dbg !10498

ehcleanup:                                        ; preds = %invoke.cont8, %lpad3
  invoke void @_ZN5boost8functionIFvRKN3ros25SingleSubscriberPublisherEEED2Ev(%"class.boost::function"* %ref.tmp)
          to label %invoke.cont10 unwind label %terminate.lpad, !dbg !10500

invoke.cont10:                                    ; preds = %ehcleanup
  br label %ehcleanup14, !dbg !10503

ehcleanup14:                                      ; preds = %invoke.cont10, %lpad
  invoke void @_ZN3ros16AdvertiseOptionsD2Ev(%"struct.ros::AdvertiseOptions"* %ops)
          to label %invoke.cont15 unwind label %terminate.lpad, !dbg !10491

invoke.cont15:                                    ; preds = %ehcleanup14
  br label %eh.resume, !dbg !10505

eh.resume:                                        ; preds = %invoke.cont15
  %exn = load i8** %exn.slot, !dbg !10506
  %sel = load i32* %ehselector.slot, !dbg !10506
  %lpad.val = insertvalue { i8*, i32 } undef, i8* %exn, 0, !dbg !10506
  %lpad.val16 = insertvalue { i8*, i32 } %lpad.val, i32 %sel, 1, !dbg !10506
  resume { i8*, i32 } %lpad.val16, !dbg !10506

terminate.lpad:                                   ; preds = %ehcleanup14, %ehcleanup, %lpad5
  %12 = landingpad { i8*, i32 } personality i8* bitcast (i32 (...)* @__gxx_personality_v0 to i8*)
          catch i8* null, !dbg !10507
  %13 = extractvalue { i8*, i32 } %12, 0, !dbg !10507
  call void @__clang_call_terminate(i8* %13) #15, !dbg !10507
  unreachable, !dbg !10507
}

declare void @_ZN3ros9PublisherD1Ev(%"class.ros::Publisher"*) #0

; Function Attrs: inlinehint uwtable
define linkonce_odr dereferenceable(16) %"class.ros::Subscriber"* @_ZN3ros10SubscriberaSERKS0_(%"class.ros::Subscriber"* %this, %"class.ros::Subscriber"* dereferenceable(16)) #6 comdat align 2 {
entry:
  %this.addr = alloca %"class.ros::Subscriber"*, align 8
  %.addr = alloca %"class.ros::Subscriber"*, align 8
  store %"class.ros::Subscriber"* %this, %"class.ros::Subscriber"** %this.addr, align 8
  call void @llvm.dbg.declare(metadata %"class.ros::Subscriber"** %this.addr, metadata !10510, metadata !10245), !dbg !10511
  store %"class.ros::Subscriber"* %0, %"class.ros::Subscriber"** %.addr, align 8
  call void @llvm.dbg.declare(metadata %"class.ros::Subscriber"** %.addr, metadata !10512, metadata !10245), !dbg !10511
  %this1 = load %"class.ros::Subscriber"** %this.addr
  %impl_ = getelementptr inbounds %"class.ros::Subscriber"* %this1, i32 0, i32 0, !dbg !10513
  %1 = load %"class.ros::Subscriber"** %.addr, align 8, !dbg !10513
  %impl_2 = getelementptr inbounds %"class.ros::Subscriber"* %1, i32 0, i32 0, !dbg !10513
  %call = call dereferenceable(16) %"class.boost::shared_ptr"* @_ZN5boost10shared_ptrIN3ros10Subscriber4ImplEEaSERKS4_(%"class.boost::shared_ptr"* %impl_, %"class.boost::shared_ptr"* dereferenceable(16) %impl_2), !dbg !10513
  ret %"class.ros::Subscriber"* %this1, !dbg !10513
}

; Function Attrs: uwtable
define linkonce_odr void @_ZN3ros10NodeHandle9subscribeIN8std_msgs6Int16_ISaIvEEE4TestEENS_10SubscriberERKSsjMT0_FvRKN5boost10shared_ptrIKT_EEEPSA_RKNS_14TransportHintsE(%"class.ros::Subscriber"* noalias sret %agg.result, %"class.ros::NodeHandle"* %this, %"class.std::basic_string"* dereferenceable(8) %topic, i32 %queue_size, i64 %fp.coerce0, i64 %fp.coerce1, %class.Test* %obj, %"class.ros::TransportHints"* dereferenceable(72) %transport_hints) #3 comdat align 2 {
entry:
  %fp = alloca { i64, i64 }, align 8
  %this.addr = alloca %"class.ros::NodeHandle"*, align 8
  %topic.addr = alloca %"class.std::basic_string"*, align 8
  %queue_size.addr = alloca i32, align 4
  %fp.addr = alloca { i64, i64 }, align 8
  %obj.addr = alloca %class.Test*, align 8
  %transport_hints.addr = alloca %"class.ros::TransportHints"*, align 8
  %ops = alloca %"struct.ros::SubscribeOptions", align 8
  %ref.tmp = alloca %"class.boost::function.32", align 8
  %agg.tmp = alloca %"class.boost::_bi::bind_t", align 8
  %agg.tmp3 = alloca %"struct.boost::arg", align 1
  %coerce = alloca { i64, i64 }, align 8
  %exn.slot = alloca i8*
  %ehselector.slot = alloca i32
  %ref.tmp5 = alloca %"class.boost::function.35", align 8
  %agg.tmp6 = alloca %"struct.ros::DefaultMessageCreator", align 1
  %cleanup.dest.slot = alloca i32
  %0 = getelementptr { i64, i64 }* %fp, i32 0, i32 0
  store i64 %fp.coerce0, i64* %0
  %1 = getelementptr { i64, i64 }* %fp, i32 0, i32 1
  store i64 %fp.coerce1, i64* %1
  %fp1 = load { i64, i64 }* %fp, align 8
  store %"class.ros::NodeHandle"* %this, %"class.ros::NodeHandle"** %this.addr, align 8
  call void @llvm.dbg.declare(metadata %"class.ros::NodeHandle"** %this.addr, metadata !10515, metadata !10245), !dbg !10516
  store %"class.std::basic_string"* %topic, %"class.std::basic_string"** %topic.addr, align 8
  call void @llvm.dbg.declare(metadata %"class.std::basic_string"** %topic.addr, metadata !10517, metadata !10245), !dbg !10518
  store i32 %queue_size, i32* %queue_size.addr, align 4
  call void @llvm.dbg.declare(metadata i32* %queue_size.addr, metadata !10519, metadata !10245), !dbg !10520
  store { i64, i64 } %fp1, { i64, i64 }* %fp.addr, align 8
  call void @llvm.dbg.declare(metadata { i64, i64 }* %fp.addr, metadata !10521, metadata !10245), !dbg !10522
  store %class.Test* %obj, %class.Test** %obj.addr, align 8
  call void @llvm.dbg.declare(metadata %class.Test** %obj.addr, metadata !10523, metadata !10245), !dbg !10524
  store %"class.ros::TransportHints"* %transport_hints, %"class.ros::TransportHints"** %transport_hints.addr, align 8
  call void @llvm.dbg.declare(metadata %"class.ros::TransportHints"** %transport_hints.addr, metadata !10525, metadata !10245), !dbg !10526
  %this2 = load %"class.ros::NodeHandle"** %this.addr
  call void @llvm.dbg.declare(metadata %"struct.ros::SubscribeOptions"* %ops, metadata !10527, metadata !10245), !dbg !10528
  call void @_ZN3ros16SubscribeOptionsC2Ev(%"struct.ros::SubscribeOptions"* %ops), !dbg !10528
  %2 = load %"class.std::basic_string"** %topic.addr, align 8, !dbg !10529
  %3 = load i32* %queue_size.addr, align 4, !dbg !10530
  %4 = load { i64, i64 }* %fp.addr, align 8, !dbg !10531
  %5 = load %class.Test** %obj.addr, align 8, !dbg !10532
  store { i64, i64 } %4, { i64, i64 }* %coerce, align 8, !dbg !10533
  %6 = getelementptr { i64, i64 }* %coerce, i32 0, i32 0, !dbg !10533
  %7 = load i64* %6, align 1, !dbg !10533
  %8 = getelementptr { i64, i64 }* %coerce, i32 0, i32 1, !dbg !10533
  %9 = load i64* %8, align 1, !dbg !10533
  invoke void @_ZN5boost4bindIv4TestRKNS_10shared_ptrIKN8std_msgs6Int16_ISaIvEEEEEPS1_NS_3argILi1EEEEENS_3_bi6bind_tIT_NS_4_mfi3mf1ISG_T0_T1_EENSE_9list_av_2IT2_T3_E4typeEEEMSJ_FSG_SK_ESN_SO_(%"class.boost::_bi::bind_t"* sret %agg.tmp, i64 %7, i64 %9, %class.Test* %5)
          to label %invoke.cont unwind label %lpad, !dbg !10533

invoke.cont:                                      ; preds = %entry
  invoke void @_ZN5boost8functionIFvRKNS_10shared_ptrIKN8std_msgs6Int16_ISaIvEEEEEEEC2INS_3_bi6bind_tIvNS_4_mfi3mf1Iv4TestS9_EENSD_5list2INSD_5valueIPSH_EENS_3argILi1EEEEEEEEET_NS_11enable_if_cIXsr5boost11type_traits7ice_notIXsr11is_integralISR_EE5valueEEE5valueEiE4typeE(%"class.boost::function.32"* %ref.tmp, %"class.boost::_bi::bind_t"* byval align 8 %agg.tmp, i32 0)
          to label %invoke.cont4 unwind label %lpad, !dbg !10534

invoke.cont4:                                     ; preds = %invoke.cont
  invoke void @_ZN5boost8functionIFNS_10shared_ptrIN8std_msgs6Int16_ISaIvEEEEEvEEC2IN3ros21DefaultMessageCreatorIS5_EEEET_NS_11enable_if_cIXsr5boost11type_traits7ice_notIXsr11is_integralISD_EE5valueEEE5valueEiE4typeE(%"class.boost::function.35"* %ref.tmp5, i32 0)
          to label %invoke.cont8 unwind label %lpad7, !dbg !10536

invoke.cont8:                                     ; preds = %invoke.cont4
  invoke void @_ZN3ros16SubscribeOptions4initIN8std_msgs6Int16_ISaIvEEEEEvRKSsjRKN5boost8functionIFvRKNS8_10shared_ptrIKT_EEEEERKNS9_IFNSA_ISB_EEvEEE(%"struct.ros::SubscribeOptions"* %ops, %"class.std::basic_string"* dereferenceable(8) %2, i32 %3, %"class.boost::function.32"* dereferenceable(32) %ref.tmp, %"class.boost::function.35"* dereferenceable(32) %ref.tmp5)
          to label %invoke.cont10 unwind label %lpad9, !dbg !10538

invoke.cont10:                                    ; preds = %invoke.cont8
  invoke void @_ZN5boost8functionIFNS_10shared_ptrIN8std_msgs6Int16_ISaIvEEEEEvEED2Ev(%"class.boost::function.35"* %ref.tmp5)
          to label %invoke.cont11 unwind label %lpad7, !dbg !10540

invoke.cont11:                                    ; preds = %invoke.cont10
  invoke void @_ZN5boost8functionIFvRKNS_10shared_ptrIKN8std_msgs6Int16_ISaIvEEEEEEED2Ev(%"class.boost::function.32"* %ref.tmp)
          to label %invoke.cont13 unwind label %lpad, !dbg !10542

invoke.cont13:                                    ; preds = %invoke.cont11
  %transport_hints15 = getelementptr inbounds %"struct.ros::SubscribeOptions"* %ops, i32 0, i32 8, !dbg !10544
  %10 = load %"class.ros::TransportHints"** %transport_hints.addr, align 8, !dbg !10545
  %call = invoke dereferenceable(72) %"class.ros::TransportHints"* @_ZN3ros14TransportHintsaSERKS0_(%"class.ros::TransportHints"* %transport_hints15, %"class.ros::TransportHints"* dereferenceable(72) %10)
          to label %invoke.cont16 unwind label %lpad, !dbg !10546

invoke.cont16:                                    ; preds = %invoke.cont13
  invoke void @_ZN3ros10NodeHandle9subscribeERNS_16SubscribeOptionsE(%"class.ros::Subscriber"* sret %agg.result, %"class.ros::NodeHandle"* %this2, %"struct.ros::SubscribeOptions"* dereferenceable(152) %ops)
          to label %invoke.cont17 unwind label %lpad, !dbg !10547

invoke.cont17:                                    ; preds = %invoke.cont16
  store i32 1, i32* %cleanup.dest.slot
  call void @_ZN3ros16SubscribeOptionsD2Ev(%"struct.ros::SubscribeOptions"* %ops), !dbg !10548
  ret void, !dbg !10548

lpad:                                             ; preds = %invoke.cont16, %invoke.cont13, %invoke.cont11, %invoke.cont, %entry
  %11 = landingpad { i8*, i32 } personality i8* bitcast (i32 (...)* @__gxx_personality_v0 to i8*)
          cleanup, !dbg !10548
  %12 = extractvalue { i8*, i32 } %11, 0, !dbg !10548
  store i8* %12, i8** %exn.slot, !dbg !10548
  %13 = extractvalue { i8*, i32 } %11, 1, !dbg !10548
  store i32 %13, i32* %ehselector.slot, !dbg !10548
  br label %ehcleanup18, !dbg !10548

lpad7:                                            ; preds = %invoke.cont10, %invoke.cont4
  %14 = landingpad { i8*, i32 } personality i8* bitcast (i32 (...)* @__gxx_personality_v0 to i8*)
          cleanup, !dbg !10549
  %15 = extractvalue { i8*, i32 } %14, 0, !dbg !10549
  store i8* %15, i8** %exn.slot, !dbg !10549
  %16 = extractvalue { i8*, i32 } %14, 1, !dbg !10549
  store i32 %16, i32* %ehselector.slot, !dbg !10549
  br label %ehcleanup, !dbg !10549

lpad9:                                            ; preds = %invoke.cont8
  %17 = landingpad { i8*, i32 } personality i8* bitcast (i32 (...)* @__gxx_personality_v0 to i8*)
          cleanup, !dbg !10548
  %18 = extractvalue { i8*, i32 } %17, 0, !dbg !10548
  store i8* %18, i8** %exn.slot, !dbg !10548
  %19 = extractvalue { i8*, i32 } %17, 1, !dbg !10548
  store i32 %19, i32* %ehselector.slot, !dbg !10548
  invoke void @_ZN5boost8functionIFNS_10shared_ptrIN8std_msgs6Int16_ISaIvEEEEEvEED2Ev(%"class.boost::function.35"* %ref.tmp5)
          to label %invoke.cont12 unwind label %terminate.lpad, !dbg !10552

invoke.cont12:                                    ; preds = %lpad9
  br label %ehcleanup, !dbg !10553

ehcleanup:                                        ; preds = %invoke.cont12, %lpad7
  invoke void @_ZN5boost8functionIFvRKNS_10shared_ptrIKN8std_msgs6Int16_ISaIvEEEEEEED2Ev(%"class.boost::function.32"* %ref.tmp)
          to label %invoke.cont14 unwind label %terminate.lpad, !dbg !10555

invoke.cont14:                                    ; preds = %ehcleanup
  br label %ehcleanup18, !dbg !10558

ehcleanup18:                                      ; preds = %invoke.cont14, %lpad
  invoke void @_ZN3ros16SubscribeOptionsD2Ev(%"struct.ros::SubscribeOptions"* %ops)
          to label %invoke.cont19 unwind label %terminate.lpad, !dbg !10560

invoke.cont19:                                    ; preds = %ehcleanup18
  br label %eh.resume, !dbg !10561

eh.resume:                                        ; preds = %invoke.cont19
  %exn = load i8** %exn.slot, !dbg !10562
  %sel = load i32* %ehselector.slot, !dbg !10562
  %lpad.val = insertvalue { i8*, i32 } undef, i8* %exn, 0, !dbg !10562
  %lpad.val20 = insertvalue { i8*, i32 } %lpad.val, i32 %sel, 1, !dbg !10562
  resume { i8*, i32 } %lpad.val20, !dbg !10562

terminate.lpad:                                   ; preds = %ehcleanup18, %ehcleanup, %lpad9
  %20 = landingpad { i8*, i32 } personality i8* bitcast (i32 (...)* @__gxx_personality_v0 to i8*)
          catch i8* null, !dbg !10563
  %21 = extractvalue { i8*, i32 } %20, 0, !dbg !10563
  call void @__clang_call_terminate(i8* %21) #15, !dbg !10563
  unreachable, !dbg !10563
}

; Function Attrs: uwtable
define void @_ZN4Test14callbackSimpleERKN5boost10shared_ptrIKN8std_msgs6Int16_ISaIvEEEEE(%class.Test* %this, %"class.boost::shared_ptr.26"* nonnull %in_msg) #3 align 2 {
entry:
  %this.addr = alloca %class.Test*, align 8
  %in_msg.addr = alloca %"class.boost::shared_ptr.26"*, align 8
  %out = alloca %"struct.std_msgs::Int16_", align 2
  store %class.Test* %this, %class.Test** %this.addr, align 8
  call void @llvm.dbg.declare(metadata %class.Test** %this.addr, metadata !10566, metadata !10245), !dbg !10567
  store %"class.boost::shared_ptr.26"* %in_msg, %"class.boost::shared_ptr.26"** %in_msg.addr, align 8
  call void @llvm.dbg.declare(metadata %"class.boost::shared_ptr.26"** %in_msg.addr, metadata !10568, metadata !10245), !dbg !10569
  %this1 = load %class.Test** %this.addr
  %0 = load %"class.boost::shared_ptr.26"** %in_msg.addr, align 8, !dbg !10570
  %call = call %"struct.std_msgs::Int16_"* @_ZNK5boost10shared_ptrIKN8std_msgs6Int16_ISaIvEEEEptEv(%"class.boost::shared_ptr.26"* %0), !dbg !10570
  %data = getelementptr inbounds %"struct.std_msgs::Int16_"* %call, i32 0, i32 0, !dbg !10572
  %1 = load i16* %data, align 2, !dbg !10572
  %conv = sext i16 %1 to i32, !dbg !10570
  %call2 = call zeroext i1 @_ZN4Test9check_valEi(%class.Test* %this1, i32 %conv), !dbg !10573
  br i1 %call2, label %if.then, label %if.end, !dbg !10574

if.then:                                          ; preds = %entry
  call void @llvm.dbg.declare(metadata %"struct.std_msgs::Int16_"* %out, metadata !10575, metadata !10245), !dbg !10578
  call void @_ZN8std_msgs6Int16_ISaIvEEC2Ev(%"struct.std_msgs::Int16_"* %out), !dbg !10578
  %data3 = getelementptr inbounds %"struct.std_msgs::Int16_"* %out, i32 0, i32 0, !dbg !10579
  store i16 2, i16* %data3, align 2, !dbg !10580
  %msg_pub = getelementptr inbounds %class.Test* %this1, i32 0, i32 4, !dbg !10581
  call void @_ZNK3ros9Publisher7publishIN8std_msgs6Int16_ISaIvEEEEEvRKT_(%"class.ros::Publisher"* %msg_pub, %"struct.std_msgs::Int16_"* dereferenceable(2) %out), !dbg !10581
  br label %if.end, !dbg !10582

if.end:                                           ; preds = %if.then, %entry
  ret void, !dbg !10583
}

; Function Attrs: nounwind
declare void @llvm.memset.p0i8.i64(i8* nocapture, i8, i64, i32, i1) #1

; Function Attrs: inlinehint uwtable
define linkonce_odr void @_ZN3ros14TransportHintsC2Ev(%"class.ros::TransportHints"* %this) unnamed_addr #6 comdat align 2 {
entry:
  %this.addr = alloca %"class.ros::TransportHints"*, align 8
  %exn.slot = alloca i8*
  %ehselector.slot = alloca i32
  store %"class.ros::TransportHints"* %this, %"class.ros::TransportHints"** %this.addr, align 8
  call void @llvm.dbg.declare(metadata %"class.ros::TransportHints"** %this.addr, metadata !10584, metadata !10245), !dbg !10586
  %this1 = load %"class.ros::TransportHints"** %this.addr
  %transports_ = getelementptr inbounds %"class.ros::TransportHints"* %this1, i32 0, i32 0, !dbg !10587
  call void @_ZNSt6vectorISsSaISsEEC2Ev(%"class.std::vector"* %transports_), !dbg !10587
  %options_ = getelementptr inbounds %"class.ros::TransportHints"* %this1, i32 0, i32 1, !dbg !10587
  invoke void @_ZNSt3mapISsSsSt4lessISsESaISt4pairIKSsSsEEEC2Ev(%"class.std::map"* %options_)
          to label %invoke.cont unwind label %lpad, !dbg !10587

invoke.cont:                                      ; preds = %entry
  ret void, !dbg !10588

lpad:                                             ; preds = %entry
  %0 = landingpad { i8*, i32 } personality i8* bitcast (i32 (...)* @__gxx_personality_v0 to i8*)
          cleanup, !dbg !10590
  %1 = extractvalue { i8*, i32 } %0, 0, !dbg !10590
  store i8* %1, i8** %exn.slot, !dbg !10590
  %2 = extractvalue { i8*, i32 } %0, 1, !dbg !10590
  store i32 %2, i32* %ehselector.slot, !dbg !10590
  invoke void @_ZNSt6vectorISsSaISsEED2Ev(%"class.std::vector"* %transports_)
          to label %invoke.cont2 unwind label %terminate.lpad, !dbg !10592

invoke.cont2:                                     ; preds = %lpad
  br label %eh.resume, !dbg !10594

eh.resume:                                        ; preds = %invoke.cont2
  %exn = load i8** %exn.slot, !dbg !10596
  %sel = load i32* %ehselector.slot, !dbg !10596
  %lpad.val = insertvalue { i8*, i32 } undef, i8* %exn, 0, !dbg !10596
  %lpad.val3 = insertvalue { i8*, i32 } %lpad.val, i32 %sel, 1, !dbg !10596
  resume { i8*, i32 } %lpad.val3, !dbg !10596

terminate.lpad:                                   ; preds = %lpad
  %3 = landingpad { i8*, i32 } personality i8* bitcast (i32 (...)* @__gxx_personality_v0 to i8*)
          catch i8* null, !dbg !10598
  %4 = extractvalue { i8*, i32 } %3, 0, !dbg !10598
  call void @__clang_call_terminate(i8* %4) #15, !dbg !10598
  unreachable, !dbg !10598
}

declare void @_ZN3ros10SubscriberD1Ev(%"class.ros::Subscriber"*) #0

; Function Attrs: inlinehint uwtable
define linkonce_odr void @_ZN3ros14TransportHintsD2Ev(%"class.ros::TransportHints"* %this) unnamed_addr #6 comdat align 2 {
entry:
  %this.addr = alloca %"class.ros::TransportHints"*, align 8
  %exn.slot = alloca i8*
  %ehselector.slot = alloca i32
  store %"class.ros::TransportHints"* %this, %"class.ros::TransportHints"** %this.addr, align 8
  call void @llvm.dbg.declare(metadata %"class.ros::TransportHints"** %this.addr, metadata !10600, metadata !10245), !dbg !10601
  %this1 = load %"class.ros::TransportHints"** %this.addr
  %options_ = getelementptr inbounds %"class.ros::TransportHints"* %this1, i32 0, i32 1, !dbg !10602
  invoke void @_ZNSt3mapISsSsSt4lessISsESaISt4pairIKSsSsEEED2Ev(%"class.std::map"* %options_)
          to label %invoke.cont unwind label %lpad, !dbg !10602

invoke.cont:                                      ; preds = %entry
  %transports_ = getelementptr inbounds %"class.ros::TransportHints"* %this1, i32 0, i32 0, !dbg !10604
  call void @_ZNSt6vectorISsSaISsEED2Ev(%"class.std::vector"* %transports_), !dbg !10604
  ret void, !dbg !10606

lpad:                                             ; preds = %entry
  %0 = landingpad { i8*, i32 } personality i8* bitcast (i32 (...)* @__gxx_personality_v0 to i8*)
          cleanup, !dbg !10607
  %1 = extractvalue { i8*, i32 } %0, 0, !dbg !10607
  store i8* %1, i8** %exn.slot, !dbg !10607
  %2 = extractvalue { i8*, i32 } %0, 1, !dbg !10607
  store i32 %2, i32* %ehselector.slot, !dbg !10607
  %transports_2 = getelementptr inbounds %"class.ros::TransportHints"* %this1, i32 0, i32 0, !dbg !10602
  invoke void @_ZNSt6vectorISsSaISsEED2Ev(%"class.std::vector"* %transports_2)
          to label %invoke.cont3 unwind label %terminate.lpad, !dbg !10602

invoke.cont3:                                     ; preds = %lpad
  br label %eh.resume, !dbg !10609

eh.resume:                                        ; preds = %invoke.cont3
  %exn = load i8** %exn.slot, !dbg !10611
  %sel = load i32* %ehselector.slot, !dbg !10611
  %lpad.val = insertvalue { i8*, i32 } undef, i8* %exn, 0, !dbg !10611
  %lpad.val4 = insertvalue { i8*, i32 } %lpad.val, i32 %sel, 1, !dbg !10611
  resume { i8*, i32 } %lpad.val4, !dbg !10611

terminate.lpad:                                   ; preds = %lpad
  %3 = landingpad { i8*, i32 } personality i8* bitcast (i32 (...)* @__gxx_personality_v0 to i8*)
          catch i8* null, !dbg !10613
  %4 = extractvalue { i8*, i32 } %3, 0, !dbg !10613
  call void @__clang_call_terminate(i8* %4) #15, !dbg !10613
  unreachable, !dbg !10613
}

declare void @_ZN3ros10NodeHandleD1Ev(%"class.ros::NodeHandle"*) #0

; Function Attrs: nounwind uwtable
define zeroext i1 @_ZN4Test9check_valEi(%class.Test* %this, i32 %x) #2 align 2 {
entry:
  %retval = alloca i1, align 1
  %this.addr = alloca %class.Test*, align 8
  %x.addr = alloca i32, align 4
  store %class.Test* %this, %class.Test** %this.addr, align 8
  call void @llvm.dbg.declare(metadata %class.Test** %this.addr, metadata !10615, metadata !10245), !dbg !10616
  store i32 %x, i32* %x.addr, align 4
  call void @llvm.dbg.declare(metadata i32* %x.addr, metadata !10617, metadata !10245), !dbg !10618
  %this1 = load %class.Test** %this.addr
  %0 = load i32* %x.addr, align 4, !dbg !10619
  %_threshold = getelementptr inbounds %class.Test* %this1, i32 0, i32 2, !dbg !10621
  %1 = load i32* %_threshold, align 4, !dbg !10621
  %cmp = icmp sgt i32 %0, %1, !dbg !10622
  br i1 %cmp, label %if.then, label %if.else, !dbg !10623

if.then:                                          ; preds = %entry
  store i1 true, i1* %retval, !dbg !10624
  br label %return, !dbg !10624

if.else:                                          ; preds = %entry
  store i1 false, i1* %retval, !dbg !10626
  br label %return, !dbg !10626

return:                                           ; preds = %if.else, %if.then
  %2 = load i1* %retval, !dbg !10628
  ret i1 %2, !dbg !10628
}

; Function Attrs: nounwind uwtable
define linkonce_odr %"struct.std_msgs::Int16_"* @_ZNK5boost10shared_ptrIKN8std_msgs6Int16_ISaIvEEEEptEv(%"class.boost::shared_ptr.26"* %this) #2 comdat align 2 {
entry:
  %this.addr = alloca %"class.boost::shared_ptr.26"*, align 8
  store %"class.boost::shared_ptr.26"* %this, %"class.boost::shared_ptr.26"** %this.addr, align 8
  call void @llvm.dbg.declare(metadata %"class.boost::shared_ptr.26"** %this.addr, metadata !10629, metadata !10245), !dbg !10631
  %this1 = load %"class.boost::shared_ptr.26"** %this.addr
  %px = getelementptr inbounds %"class.boost::shared_ptr.26"* %this1, i32 0, i32 0, !dbg !10632
  %0 = load %"struct.std_msgs::Int16_"** %px, align 8, !dbg !10632
  %cmp = icmp ne %"struct.std_msgs::Int16_"* %0, null, !dbg !10632
  br i1 %cmp, label %cond.true, label %cond.false, !dbg !10632

cond.true:                                        ; preds = %entry
  br label %cond.end, !dbg !10633

cond.false:                                       ; preds = %entry
  call void @__assert_fail(i8* getelementptr inbounds ([8 x i8]* @.str21, i32 0, i32 0), i8* getelementptr inbounds ([44 x i8]* @.str22, i32 0, i32 0), i32 653, i8* getelementptr inbounds ([188 x i8]* @__PRETTY_FUNCTION__._ZNK5boost10shared_ptrIKN8std_msgs6Int16_ISaIvEEEEptEv, i32 0, i32 0)) #15, !dbg !10635
  unreachable, !dbg !10635
                                                  ; No predecessors!
  br label %cond.end, !dbg !10632

cond.end:                                         ; preds = %1, %cond.true
  %px2 = getelementptr inbounds %"class.boost::shared_ptr.26"* %this1, i32 0, i32 0, !dbg !10637
  %2 = load %"struct.std_msgs::Int16_"** %px2, align 8, !dbg !10637
  ret %"struct.std_msgs::Int16_"* %2, !dbg !10638
}

; Function Attrs: nounwind uwtable
define linkonce_odr void @_ZN8std_msgs6Int16_ISaIvEEC2Ev(%"struct.std_msgs::Int16_"* %this) unnamed_addr #2 comdat align 2 {
entry:
  %this.addr = alloca %"struct.std_msgs::Int16_"*, align 8
  store %"struct.std_msgs::Int16_"* %this, %"struct.std_msgs::Int16_"** %this.addr, align 8
  call void @llvm.dbg.declare(metadata %"struct.std_msgs::Int16_"** %this.addr, metadata !10639, metadata !10245), !dbg !10640
  %this1 = load %"struct.std_msgs::Int16_"** %this.addr
  %data = getelementptr inbounds %"struct.std_msgs::Int16_"* %this1, i32 0, i32 0, !dbg !10641
  store i16 0, i16* %data, align 2, !dbg !10641
  ret void, !dbg !10642
}

; Function Attrs: uwtable
define linkonce_odr void @_ZNK3ros9Publisher7publishIN8std_msgs6Int16_ISaIvEEEEEvRKT_(%"class.ros::Publisher"* %this, %"struct.std_msgs::Int16_"* dereferenceable(2) %message) #3 comdat align 2 {
entry:
  %this.addr = alloca %"class.ros::Publisher"*, align 8
  %message.addr = alloca %"struct.std_msgs::Int16_"*, align 8
  %ref.tmp = alloca %"class.std::basic_string", align 8
  %ref.tmp8 = alloca %"class.std::allocator", align 1
  %exn.slot = alloca i8*
  %ehselector.slot = alloca i32
  %__rosconsole_define_location__enabled = alloca i8, align 1
  %ref.tmp31 = alloca %"class.std::basic_string", align 8
  %ref.tmp32 = alloca %"class.std::allocator", align 1
  %__rosconsole_define_location__enabled45 = alloca i8, align 1
  %ref.tmp64 = alloca %"class.std::basic_string", align 8
  %ref.tmp65 = alloca %"class.std::allocator", align 1
  %__rosconsole_define_location__enabled78 = alloca i8, align 1
  %ref.tmp104 = alloca %"class.std::basic_string", align 8
  %ref.tmp105 = alloca %"class.std::allocator", align 1
  %__rosconsole_define_location__enabled118 = alloca i8, align 1
  %ref.tmp137 = alloca %"class.std::basic_string", align 8
  %ref.tmp138 = alloca %"class.std::allocator", align 1
  %__rosconsole_define_location__enabled151 = alloca i8, align 1
  %ref.tmp173 = alloca %"class.std::basic_string", align 8
  %ref.tmp174 = alloca %"class.std::allocator", align 1
  %__rosconsole_define_location__enabled187 = alloca i8, align 1
  %ref.tmp202 = alloca %"class.std::basic_string", align 8
  %ref.tmp204 = alloca %"class.std::allocator", align 1
  %cleanup.cond = alloca i1
  %cleanup.cond207 = alloca i1
  %ref.tmp244 = alloca %"class.std::basic_string", align 8
  %ref.tmp245 = alloca %"class.std::allocator", align 1
  %__rosconsole_define_location__enabled258 = alloca i8, align 1
  %ref.tmp277 = alloca %"class.std::basic_string", align 8
  %ref.tmp278 = alloca %"class.std::allocator", align 1
  %__rosconsole_define_location__enabled291 = alloca i8, align 1
  %ref.tmp319 = alloca %"class.std::basic_string", align 8
  %ref.tmp320 = alloca %"class.std::allocator", align 1
  %__rosconsole_define_location__enabled333 = alloca i8, align 1
  %m = alloca %"class.ros::SerializedMessage", align 8
  %ref.tmp344 = alloca %"class.boost::function.52", align 8
  %agg.tmp = alloca %"class.boost::_bi::bind_t.54", align 8
  %agg.tmp345 = alloca %"class.boost::reference_wrapper", align 8
  store %"class.ros::Publisher"* %this, %"class.ros::Publisher"** %this.addr, align 8
  call void @llvm.dbg.declare(metadata %"class.ros::Publisher"** %this.addr, metadata !10643, metadata !10245), !dbg !10645
  store %"struct.std_msgs::Int16_"* %message, %"struct.std_msgs::Int16_"** %message.addr, align 8
  call void @llvm.dbg.declare(metadata %"struct.std_msgs::Int16_"** %message.addr, metadata !10646, metadata !10245), !dbg !10647
  %this1 = load %"class.ros::Publisher"** %this.addr
  %impl_ = getelementptr inbounds %"class.ros::Publisher"* %this1, i32 0, i32 0, !dbg !10648
  %call = call zeroext i1 @_ZNK5boost10shared_ptrIN3ros9Publisher4ImplEEntEv(%"class.boost::shared_ptr.21"* %impl_), !dbg !10650
  br i1 %call, label %if.then, label %if.end88, !dbg !10651

if.then:                                          ; preds = %entry
  br label %do.body, !dbg !10652

do.body:                                          ; preds = %if.then
  br label %do.body2, !dbg !10654

do.body2:                                         ; preds = %do.body
  br label %do.body3, !dbg !10659

do.body3:                                         ; preds = %do.body2
  %0 = load i8* @_ZN3ros7console13g_initializedE, align 1, !dbg !10662
  %tobool = trunc i8 %0 to i1, !dbg !10662
  %lnot = xor i1 %tobool, true, !dbg !10662
  br i1 %lnot, label %if.then4, label %if.end, !dbg !10666

if.then4:                                         ; preds = %do.body3
  call void @_ZN3ros7console10initializeEv(), !dbg !10667
  br label %if.end, !dbg !10667

if.end:                                           ; preds = %if.then4, %do.body3
  br label %do.end, !dbg !10670

do.end:                                           ; preds = %if.end
  %1 = load i8* getelementptr inbounds (%"struct.ros::console::LogLocation"* @_ZZNK3ros9Publisher7publishIN8std_msgs6Int16_ISaIvEEEEEvRKT_E33__rosconsole_define_location__loc, i32 0, i32 0), align 1, !dbg !10673
  %tobool5 = trunc i8 %1 to i1, !dbg !10673
  %lnot6 = xor i1 %tobool5, true, !dbg !10673
  br i1 %lnot6, label %if.then7, label %if.end13, !dbg !10676

if.then7:                                         ; preds = %do.end
  call void @_ZNSaIcEC1Ev(%"class.std::allocator"* %ref.tmp8) #1, !dbg !10677
  invoke void @_ZNSsC1EPKcRKSaIcE(%"class.std::basic_string"* %ref.tmp, i8* getelementptr inbounds ([20 x i8]* @.str18, i32 0, i32 0), %"class.std::allocator"* dereferenceable(1) %ref.tmp8)
          to label %invoke.cont unwind label %lpad, !dbg !10677

invoke.cont:                                      ; preds = %if.then7
  invoke void @_ZN3ros7console21initializeLogLocationEPNS0_11LogLocationERKSsNS0_6levels5LevelE(%"struct.ros::console::LogLocation"* @_ZZNK3ros9Publisher7publishIN8std_msgs6Int16_ISaIvEEEEEvRKT_E33__rosconsole_define_location__loc, %"class.std::basic_string"* dereferenceable(8) %ref.tmp, i32 4)
          to label %invoke.cont10 unwind label %lpad9, !dbg !10680

invoke.cont10:                                    ; preds = %invoke.cont
  invoke void @_ZNSsD1Ev(%"class.std::basic_string"* %ref.tmp)
          to label %invoke.cont11 unwind label %lpad, !dbg !10682

invoke.cont11:                                    ; preds = %invoke.cont10
  call void @_ZNSaIcED1Ev(%"class.std::allocator"* %ref.tmp8) #1, !dbg !10684
  br label %if.end13, !dbg !10684

lpad:                                             ; preds = %invoke.cont10, %if.then7
  %2 = landingpad { i8*, i32 } personality i8* bitcast (i32 (...)* @__gxx_personality_v0 to i8*)
          cleanup, !dbg !10686
  %3 = extractvalue { i8*, i32 } %2, 0, !dbg !10686
  store i8* %3, i8** %exn.slot, !dbg !10686
  %4 = extractvalue { i8*, i32 } %2, 1, !dbg !10686
  store i32 %4, i32* %ehselector.slot, !dbg !10686
  br label %ehcleanup, !dbg !10686

lpad9:                                            ; preds = %invoke.cont
  %5 = landingpad { i8*, i32 } personality i8* bitcast (i32 (...)* @__gxx_personality_v0 to i8*)
          cleanup, !dbg !10686
  %6 = extractvalue { i8*, i32 } %5, 0, !dbg !10686
  store i8* %6, i8** %exn.slot, !dbg !10686
  %7 = extractvalue { i8*, i32 } %5, 1, !dbg !10686
  store i32 %7, i32* %ehselector.slot, !dbg !10686
  invoke void @_ZNSsD1Ev(%"class.std::basic_string"* %ref.tmp)
          to label %invoke.cont12 unwind label %terminate.lpad, !dbg !10687

invoke.cont12:                                    ; preds = %lpad9
  br label %ehcleanup, !dbg !10688

ehcleanup:                                        ; preds = %invoke.cont12, %lpad
  call void @_ZNSaIcED1Ev(%"class.std::allocator"* %ref.tmp8) #1, !dbg !10690
  br label %eh.resume, !dbg !10690

if.end13:                                         ; preds = %invoke.cont11, %do.end
  %8 = load i32* getelementptr inbounds (%"struct.ros::console::LogLocation"* @_ZZNK3ros9Publisher7publishIN8std_msgs6Int16_ISaIvEEEEEvRKT_E33__rosconsole_define_location__loc, i32 0, i32 2), align 4, !dbg !10692
  %cmp = icmp ne i32 %8, 4, !dbg !10692
  br i1 %cmp, label %if.then14, label %if.end15, !dbg !10676

if.then14:                                        ; preds = %if.end13
  call void @_ZN3ros7console19setLogLocationLevelEPNS0_11LogLocationENS0_6levels5LevelE(%"struct.ros::console::LogLocation"* @_ZZNK3ros9Publisher7publishIN8std_msgs6Int16_ISaIvEEEEEvRKT_E33__rosconsole_define_location__loc, i32 4), !dbg !10696
  call void @_ZN3ros7console23checkLogLocationEnabledEPNS0_11LogLocationE(%"struct.ros::console::LogLocation"* @_ZZNK3ros9Publisher7publishIN8std_msgs6Int16_ISaIvEEEEEvRKT_E33__rosconsole_define_location__loc), !dbg !10696
  br label %if.end15, !dbg !10696

if.end15:                                         ; preds = %if.then14, %if.end13
  call void @llvm.dbg.declare(metadata i8* %__rosconsole_define_location__enabled, metadata !10699, metadata !10245), !dbg !10676
  %9 = load i8* getelementptr inbounds (%"struct.ros::console::LogLocation"* @_ZZNK3ros9Publisher7publishIN8std_msgs6Int16_ISaIvEEEEEvRKT_E33__rosconsole_define_location__loc, i32 0, i32 1), align 1, !dbg !10700
  %tobool16 = trunc i8 %9 to i1, !dbg !10700
  br i1 %tobool16, label %land.rhs, label %land.end, !dbg !10700

land.rhs:                                         ; preds = %if.end15
  br label %land.end

land.end:                                         ; preds = %land.rhs, %if.end15
  %10 = phi i1 [ false, %if.end15 ], [ true, %land.rhs ]
  %frombool = zext i1 %10 to i8, !dbg !10703
  store i8 %frombool, i8* %__rosconsole_define_location__enabled, align 1, !dbg !10703
  %11 = load i8* %__rosconsole_define_location__enabled, align 1, !dbg !10705
  %tobool17 = trunc i8 %11 to i1, !dbg !10705
  br i1 %tobool17, label %if.then18, label %if.end19, !dbg !10676

if.then18:                                        ; preds = %land.end
  %12 = load i8** getelementptr inbounds (%"struct.ros::console::LogLocation"* @_ZZNK3ros9Publisher7publishIN8std_msgs6Int16_ISaIvEEEEEvRKT_E33__rosconsole_define_location__loc, i32 0, i32 3), align 8, !dbg !10707
  %13 = load i32* getelementptr inbounds (%"struct.ros::console::LogLocation"* @_ZZNK3ros9Publisher7publishIN8std_msgs6Int16_ISaIvEEEEEvRKT_E33__rosconsole_define_location__loc, i32 0, i32 2), align 4, !dbg !10707
  call void (%"class.ros::console::FilterBase"*, i8*, i32, i8*, i32, i8*, i8*, ...)* @_ZN3ros7console5printEPNS0_10FilterBaseEPvNS0_6levels5LevelEPKciS7_S7_z(%"class.ros::console::FilterBase"* null, i8* %12, i32 %13, i8* getelementptr inbounds ([40 x i8]* @.str23, i32 0, i32 0), i32 102, i8* getelementptr inbounds ([92 x i8]* @__PRETTY_FUNCTION__._ZNK3ros9Publisher7publishIN8std_msgs6Int16_ISaIvEEEEEvRKT_, i32 0, i32 0), i8* getelementptr inbounds ([62 x i8]* @.str24, i32 0, i32 0), i8* getelementptr inbounds ([40 x i8]* @.str23, i32 0, i32 0), i32 102, i8* getelementptr inbounds ([6 x i8]* @.str25, i32 0, i32 0)), !dbg !10707
  br label %if.end19, !dbg !10707

if.end19:                                         ; preds = %if.then18, %land.end
  br label %do.end20, !dbg !10710

do.end20:                                         ; preds = %if.end19
  br label %do.body21, !dbg !10713

do.body21:                                        ; preds = %do.end20
  br label %do.body22, !dbg !10715

do.body22:                                        ; preds = %do.body21
  %14 = load i8* @_ZN3ros7console13g_initializedE, align 1, !dbg !10718
  %tobool23 = trunc i8 %14 to i1, !dbg !10718
  %lnot24 = xor i1 %tobool23, true, !dbg !10718
  br i1 %lnot24, label %if.then25, label %if.end26, !dbg !10722

if.then25:                                        ; preds = %do.body22
  call void @_ZN3ros7console10initializeEv(), !dbg !10723
  br label %if.end26, !dbg !10723

if.end26:                                         ; preds = %if.then25, %do.body22
  br label %do.end27, !dbg !10726

do.end27:                                         ; preds = %if.end26
  %15 = load i8* getelementptr inbounds (%"struct.ros::console::LogLocation"* @_ZZNK3ros9Publisher7publishIN8std_msgs6Int16_ISaIvEEEEEvRKT_E33__rosconsole_define_location__loc_0, i32 0, i32 0), align 1, !dbg !10729
  %tobool28 = trunc i8 %15 to i1, !dbg !10729
  %lnot29 = xor i1 %tobool28, true, !dbg !10729
  br i1 %lnot29, label %if.then30, label %if.end41, !dbg !10732

if.then30:                                        ; preds = %do.end27
  call void @_ZNSaIcEC1Ev(%"class.std::allocator"* %ref.tmp32) #1, !dbg !10733
  invoke void @_ZNSsC1EPKcRKSaIcE(%"class.std::basic_string"* %ref.tmp31, i8* getelementptr inbounds ([20 x i8]* @.str18, i32 0, i32 0), %"class.std::allocator"* dereferenceable(1) %ref.tmp32)
          to label %invoke.cont34 unwind label %lpad33, !dbg !10733

invoke.cont34:                                    ; preds = %if.then30
  invoke void @_ZN3ros7console21initializeLogLocationEPNS0_11LogLocationERKSsNS0_6levels5LevelE(%"struct.ros::console::LogLocation"* @_ZZNK3ros9Publisher7publishIN8std_msgs6Int16_ISaIvEEEEEvRKT_E33__rosconsole_define_location__loc_0, %"class.std::basic_string"* dereferenceable(8) %ref.tmp31, i32 4)
          to label %invoke.cont36 unwind label %lpad35, !dbg !10736

invoke.cont36:                                    ; preds = %invoke.cont34
  invoke void @_ZNSsD1Ev(%"class.std::basic_string"* %ref.tmp31)
          to label %invoke.cont37 unwind label %lpad33, !dbg !10738

invoke.cont37:                                    ; preds = %invoke.cont36
  call void @_ZNSaIcED1Ev(%"class.std::allocator"* %ref.tmp32) #1, !dbg !10740
  br label %if.end41, !dbg !10740

lpad33:                                           ; preds = %invoke.cont36, %if.then30
  %16 = landingpad { i8*, i32 } personality i8* bitcast (i32 (...)* @__gxx_personality_v0 to i8*)
          cleanup, !dbg !10742
  %17 = extractvalue { i8*, i32 } %16, 0, !dbg !10742
  store i8* %17, i8** %exn.slot, !dbg !10742
  %18 = extractvalue { i8*, i32 } %16, 1, !dbg !10742
  store i32 %18, i32* %ehselector.slot, !dbg !10742
  br label %ehcleanup40, !dbg !10742

lpad35:                                           ; preds = %invoke.cont34
  %19 = landingpad { i8*, i32 } personality i8* bitcast (i32 (...)* @__gxx_personality_v0 to i8*)
          cleanup, !dbg !10742
  %20 = extractvalue { i8*, i32 } %19, 0, !dbg !10742
  store i8* %20, i8** %exn.slot, !dbg !10742
  %21 = extractvalue { i8*, i32 } %19, 1, !dbg !10742
  store i32 %21, i32* %ehselector.slot, !dbg !10742
  invoke void @_ZNSsD1Ev(%"class.std::basic_string"* %ref.tmp31)
          to label %invoke.cont39 unwind label %terminate.lpad, !dbg !10743

invoke.cont39:                                    ; preds = %lpad35
  br label %ehcleanup40, !dbg !10744

ehcleanup40:                                      ; preds = %invoke.cont39, %lpad33
  call void @_ZNSaIcED1Ev(%"class.std::allocator"* %ref.tmp32) #1, !dbg !10746
  br label %eh.resume, !dbg !10746

if.end41:                                         ; preds = %invoke.cont37, %do.end27
  %22 = load i32* getelementptr inbounds (%"struct.ros::console::LogLocation"* @_ZZNK3ros9Publisher7publishIN8std_msgs6Int16_ISaIvEEEEEvRKT_E33__rosconsole_define_location__loc_0, i32 0, i32 2), align 4, !dbg !10748
  %cmp42 = icmp ne i32 %22, 4, !dbg !10748
  br i1 %cmp42, label %if.then43, label %if.end44, !dbg !10732

if.then43:                                        ; preds = %if.end41
  call void @_ZN3ros7console19setLogLocationLevelEPNS0_11LogLocationENS0_6levels5LevelE(%"struct.ros::console::LogLocation"* @_ZZNK3ros9Publisher7publishIN8std_msgs6Int16_ISaIvEEEEEvRKT_E33__rosconsole_define_location__loc_0, i32 4), !dbg !10752
  call void @_ZN3ros7console23checkLogLocationEnabledEPNS0_11LogLocationE(%"struct.ros::console::LogLocation"* @_ZZNK3ros9Publisher7publishIN8std_msgs6Int16_ISaIvEEEEEvRKT_E33__rosconsole_define_location__loc_0), !dbg !10752
  br label %if.end44, !dbg !10752

if.end44:                                         ; preds = %if.then43, %if.end41
  call void @llvm.dbg.declare(metadata i8* %__rosconsole_define_location__enabled45, metadata !10755, metadata !10245), !dbg !10732
  %23 = load i8* getelementptr inbounds (%"struct.ros::console::LogLocation"* @_ZZNK3ros9Publisher7publishIN8std_msgs6Int16_ISaIvEEEEEvRKT_E33__rosconsole_define_location__loc_0, i32 0, i32 1), align 1, !dbg !10756
  %tobool46 = trunc i8 %23 to i1, !dbg !10756
  br i1 %tobool46, label %land.rhs47, label %land.end48, !dbg !10756

land.rhs47:                                       ; preds = %if.end44
  br label %land.end48

land.end48:                                       ; preds = %land.rhs47, %if.end44
  %24 = phi i1 [ false, %if.end44 ], [ true, %land.rhs47 ]
  %frombool49 = zext i1 %24 to i8, !dbg !10759
  store i8 %frombool49, i8* %__rosconsole_define_location__enabled45, align 1, !dbg !10759
  %25 = load i8* %__rosconsole_define_location__enabled45, align 1, !dbg !10761
  %tobool50 = trunc i8 %25 to i1, !dbg !10761
  br i1 %tobool50, label %if.then51, label %if.end52, !dbg !10732

if.then51:                                        ; preds = %land.end48
  %26 = load i8** getelementptr inbounds (%"struct.ros::console::LogLocation"* @_ZZNK3ros9Publisher7publishIN8std_msgs6Int16_ISaIvEEEEEvRKT_E33__rosconsole_define_location__loc_0, i32 0, i32 3), align 8, !dbg !10763
  %27 = load i32* getelementptr inbounds (%"struct.ros::console::LogLocation"* @_ZZNK3ros9Publisher7publishIN8std_msgs6Int16_ISaIvEEEEEvRKT_E33__rosconsole_define_location__loc_0, i32 0, i32 2), align 4, !dbg !10763
  call void (%"class.ros::console::FilterBase"*, i8*, i32, i8*, i32, i8*, i8*, ...)* @_ZN3ros7console5printEPNS0_10FilterBaseEPvNS0_6levels5LevelEPKciS7_S7_z(%"class.ros::console::FilterBase"* null, i8* %26, i32 %27, i8* getelementptr inbounds ([40 x i8]* @.str23, i32 0, i32 0), i32 102, i8* getelementptr inbounds ([92 x i8]* @__PRETTY_FUNCTION__._ZNK3ros9Publisher7publishIN8std_msgs6Int16_ISaIvEEEEEvRKT_, i32 0, i32 0), i8* getelementptr inbounds ([42 x i8]* @.str26, i32 0, i32 0)), !dbg !10763
  br label %if.end52, !dbg !10763

if.end52:                                         ; preds = %if.then51, %land.end48
  br label %do.end53, !dbg !10766

do.end53:                                         ; preds = %if.end52
  br label %do.body54, !dbg !10769

do.body54:                                        ; preds = %do.end53
  br label %do.body55, !dbg !10771

do.body55:                                        ; preds = %do.body54
  %28 = load i8* @_ZN3ros7console13g_initializedE, align 1, !dbg !10774
  %tobool56 = trunc i8 %28 to i1, !dbg !10774
  %lnot57 = xor i1 %tobool56, true, !dbg !10774
  br i1 %lnot57, label %if.then58, label %if.end59, !dbg !10778

if.then58:                                        ; preds = %do.body55
  call void @_ZN3ros7console10initializeEv(), !dbg !10779
  br label %if.end59, !dbg !10779

if.end59:                                         ; preds = %if.then58, %do.body55
  br label %do.end60, !dbg !10782

do.end60:                                         ; preds = %if.end59
  %29 = load i8* getelementptr inbounds (%"struct.ros::console::LogLocation"* @_ZZNK3ros9Publisher7publishIN8std_msgs6Int16_ISaIvEEEEEvRKT_E33__rosconsole_define_location__loc_1, i32 0, i32 0), align 1, !dbg !10785
  %tobool61 = trunc i8 %29 to i1, !dbg !10785
  %lnot62 = xor i1 %tobool61, true, !dbg !10785
  br i1 %lnot62, label %if.then63, label %if.end74, !dbg !10788

if.then63:                                        ; preds = %do.end60
  call void @_ZNSaIcEC1Ev(%"class.std::allocator"* %ref.tmp65) #1, !dbg !10789
  invoke void @_ZNSsC1EPKcRKSaIcE(%"class.std::basic_string"* %ref.tmp64, i8* getelementptr inbounds ([20 x i8]* @.str18, i32 0, i32 0), %"class.std::allocator"* dereferenceable(1) %ref.tmp65)
          to label %invoke.cont67 unwind label %lpad66, !dbg !10789

invoke.cont67:                                    ; preds = %if.then63
  invoke void @_ZN3ros7console21initializeLogLocationEPNS0_11LogLocationERKSsNS0_6levels5LevelE(%"struct.ros::console::LogLocation"* @_ZZNK3ros9Publisher7publishIN8std_msgs6Int16_ISaIvEEEEEvRKT_E33__rosconsole_define_location__loc_1, %"class.std::basic_string"* dereferenceable(8) %ref.tmp64, i32 4)
          to label %invoke.cont69 unwind label %lpad68, !dbg !10792

invoke.cont69:                                    ; preds = %invoke.cont67
  invoke void @_ZNSsD1Ev(%"class.std::basic_string"* %ref.tmp64)
          to label %invoke.cont70 unwind label %lpad66, !dbg !10794

invoke.cont70:                                    ; preds = %invoke.cont69
  call void @_ZNSaIcED1Ev(%"class.std::allocator"* %ref.tmp65) #1, !dbg !10796
  br label %if.end74, !dbg !10796

lpad66:                                           ; preds = %invoke.cont69, %if.then63
  %30 = landingpad { i8*, i32 } personality i8* bitcast (i32 (...)* @__gxx_personality_v0 to i8*)
          cleanup, !dbg !10798
  %31 = extractvalue { i8*, i32 } %30, 0, !dbg !10798
  store i8* %31, i8** %exn.slot, !dbg !10798
  %32 = extractvalue { i8*, i32 } %30, 1, !dbg !10798
  store i32 %32, i32* %ehselector.slot, !dbg !10798
  br label %ehcleanup73, !dbg !10798

lpad68:                                           ; preds = %invoke.cont67
  %33 = landingpad { i8*, i32 } personality i8* bitcast (i32 (...)* @__gxx_personality_v0 to i8*)
          cleanup, !dbg !10798
  %34 = extractvalue { i8*, i32 } %33, 0, !dbg !10798
  store i8* %34, i8** %exn.slot, !dbg !10798
  %35 = extractvalue { i8*, i32 } %33, 1, !dbg !10798
  store i32 %35, i32* %ehselector.slot, !dbg !10798
  invoke void @_ZNSsD1Ev(%"class.std::basic_string"* %ref.tmp64)
          to label %invoke.cont72 unwind label %terminate.lpad, !dbg !10799

invoke.cont72:                                    ; preds = %lpad68
  br label %ehcleanup73, !dbg !10800

ehcleanup73:                                      ; preds = %invoke.cont72, %lpad66
  call void @_ZNSaIcED1Ev(%"class.std::allocator"* %ref.tmp65) #1, !dbg !10802
  br label %eh.resume, !dbg !10802

if.end74:                                         ; preds = %invoke.cont70, %do.end60
  %36 = load i32* getelementptr inbounds (%"struct.ros::console::LogLocation"* @_ZZNK3ros9Publisher7publishIN8std_msgs6Int16_ISaIvEEEEEvRKT_E33__rosconsole_define_location__loc_1, i32 0, i32 2), align 4, !dbg !10804
  %cmp75 = icmp ne i32 %36, 4, !dbg !10804
  br i1 %cmp75, label %if.then76, label %if.end77, !dbg !10788

if.then76:                                        ; preds = %if.end74
  call void @_ZN3ros7console19setLogLocationLevelEPNS0_11LogLocationENS0_6levels5LevelE(%"struct.ros::console::LogLocation"* @_ZZNK3ros9Publisher7publishIN8std_msgs6Int16_ISaIvEEEEEvRKT_E33__rosconsole_define_location__loc_1, i32 4), !dbg !10808
  call void @_ZN3ros7console23checkLogLocationEnabledEPNS0_11LogLocationE(%"struct.ros::console::LogLocation"* @_ZZNK3ros9Publisher7publishIN8std_msgs6Int16_ISaIvEEEEEvRKT_E33__rosconsole_define_location__loc_1), !dbg !10808
  br label %if.end77, !dbg !10808

if.end77:                                         ; preds = %if.then76, %if.end74
  call void @llvm.dbg.declare(metadata i8* %__rosconsole_define_location__enabled78, metadata !10811, metadata !10245), !dbg !10788
  %37 = load i8* getelementptr inbounds (%"struct.ros::console::LogLocation"* @_ZZNK3ros9Publisher7publishIN8std_msgs6Int16_ISaIvEEEEEvRKT_E33__rosconsole_define_location__loc_1, i32 0, i32 1), align 1, !dbg !10812
  %tobool79 = trunc i8 %37 to i1, !dbg !10812
  br i1 %tobool79, label %land.rhs80, label %land.end81, !dbg !10812

land.rhs80:                                       ; preds = %if.end77
  br label %land.end81

land.end81:                                       ; preds = %land.rhs80, %if.end77
  %38 = phi i1 [ false, %if.end77 ], [ true, %land.rhs80 ]
  %frombool82 = zext i1 %38 to i8, !dbg !10815
  store i8 %frombool82, i8* %__rosconsole_define_location__enabled78, align 1, !dbg !10815
  %39 = load i8* %__rosconsole_define_location__enabled78, align 1, !dbg !10817
  %tobool83 = trunc i8 %39 to i1, !dbg !10817
  br i1 %tobool83, label %if.then84, label %if.end85, !dbg !10788

if.then84:                                        ; preds = %land.end81
  %40 = load i8** getelementptr inbounds (%"struct.ros::console::LogLocation"* @_ZZNK3ros9Publisher7publishIN8std_msgs6Int16_ISaIvEEEEEvRKT_E33__rosconsole_define_location__loc_1, i32 0, i32 3), align 8, !dbg !10819
  %41 = load i32* getelementptr inbounds (%"struct.ros::console::LogLocation"* @_ZZNK3ros9Publisher7publishIN8std_msgs6Int16_ISaIvEEEEEvRKT_E33__rosconsole_define_location__loc_1, i32 0, i32 2), align 4, !dbg !10819
  call void (%"class.ros::console::FilterBase"*, i8*, i32, i8*, i32, i8*, i8*, ...)* @_ZN3ros7console5printEPNS0_10FilterBaseEPvNS0_6levels5LevelEPKciS7_S7_z(%"class.ros::console::FilterBase"* null, i8* %40, i32 %41, i8* getelementptr inbounds ([40 x i8]* @.str23, i32 0, i32 0), i32 102, i8* getelementptr inbounds ([92 x i8]* @__PRETTY_FUNCTION__._ZNK3ros9Publisher7publishIN8std_msgs6Int16_ISaIvEEEEEvRKT_, i32 0, i32 0), i8* getelementptr inbounds ([2 x i8]* @.str27, i32 0, i32 0)), !dbg !10819
  br label %if.end85, !dbg !10819

if.end85:                                         ; preds = %if.then84, %land.end81
  br label %do.end86, !dbg !10822

do.end86:                                         ; preds = %if.end85
  call void asm sideeffect "int $$3", "~{dirflag},~{fpsr},~{flags}"() #1, !dbg !10825, !srcloc !10827
  br label %do.end87, !dbg !10828

do.end87:                                         ; preds = %do.end86
  br label %return, !dbg !10829

if.end88:                                         ; preds = %entry
  %impl_89 = getelementptr inbounds %"class.ros::Publisher"* %this1, i32 0, i32 0, !dbg !10830
  %call90 = call %"class.ros::Publisher::Impl"* @_ZNK5boost10shared_ptrIN3ros9Publisher4ImplEEptEv(%"class.boost::shared_ptr.21"* %impl_89), !dbg !10830
  %call91 = call zeroext i1 @_ZNK3ros9Publisher4Impl7isValidEv(%"class.ros::Publisher::Impl"* %call90), !dbg !10830
  br i1 %call91, label %if.end197, label %if.then92, !dbg !10832

if.then92:                                        ; preds = %if.end88
  br label %do.body93, !dbg !10833

do.body93:                                        ; preds = %if.then92
  br label %do.body94, !dbg !10835

do.body94:                                        ; preds = %do.body93
  br label %do.body95, !dbg !10840

do.body95:                                        ; preds = %do.body94
  %42 = load i8* @_ZN3ros7console13g_initializedE, align 1, !dbg !10843
  %tobool96 = trunc i8 %42 to i1, !dbg !10843
  %lnot97 = xor i1 %tobool96, true, !dbg !10843
  br i1 %lnot97, label %if.then98, label %if.end99, !dbg !10847

if.then98:                                        ; preds = %do.body95
  call void @_ZN3ros7console10initializeEv(), !dbg !10848
  br label %if.end99, !dbg !10848

if.end99:                                         ; preds = %if.then98, %do.body95
  br label %do.end100, !dbg !10851

do.end100:                                        ; preds = %if.end99
  %43 = load i8* getelementptr inbounds (%"struct.ros::console::LogLocation"* @_ZZNK3ros9Publisher7publishIN8std_msgs6Int16_ISaIvEEEEEvRKT_E33__rosconsole_define_location__loc_2, i32 0, i32 0), align 1, !dbg !10854
  %tobool101 = trunc i8 %43 to i1, !dbg !10854
  %lnot102 = xor i1 %tobool101, true, !dbg !10854
  br i1 %lnot102, label %if.then103, label %if.end114, !dbg !10857

if.then103:                                       ; preds = %do.end100
  call void @_ZNSaIcEC1Ev(%"class.std::allocator"* %ref.tmp105) #1, !dbg !10858
  invoke void @_ZNSsC1EPKcRKSaIcE(%"class.std::basic_string"* %ref.tmp104, i8* getelementptr inbounds ([20 x i8]* @.str18, i32 0, i32 0), %"class.std::allocator"* dereferenceable(1) %ref.tmp105)
          to label %invoke.cont107 unwind label %lpad106, !dbg !10858

invoke.cont107:                                   ; preds = %if.then103
  invoke void @_ZN3ros7console21initializeLogLocationEPNS0_11LogLocationERKSsNS0_6levels5LevelE(%"struct.ros::console::LogLocation"* @_ZZNK3ros9Publisher7publishIN8std_msgs6Int16_ISaIvEEEEEvRKT_E33__rosconsole_define_location__loc_2, %"class.std::basic_string"* dereferenceable(8) %ref.tmp104, i32 4)
          to label %invoke.cont109 unwind label %lpad108, !dbg !10861

invoke.cont109:                                   ; preds = %invoke.cont107
  invoke void @_ZNSsD1Ev(%"class.std::basic_string"* %ref.tmp104)
          to label %invoke.cont110 unwind label %lpad106, !dbg !10863

invoke.cont110:                                   ; preds = %invoke.cont109
  call void @_ZNSaIcED1Ev(%"class.std::allocator"* %ref.tmp105) #1, !dbg !10865
  br label %if.end114, !dbg !10865

lpad106:                                          ; preds = %invoke.cont109, %if.then103
  %44 = landingpad { i8*, i32 } personality i8* bitcast (i32 (...)* @__gxx_personality_v0 to i8*)
          cleanup, !dbg !10867
  %45 = extractvalue { i8*, i32 } %44, 0, !dbg !10867
  store i8* %45, i8** %exn.slot, !dbg !10867
  %46 = extractvalue { i8*, i32 } %44, 1, !dbg !10867
  store i32 %46, i32* %ehselector.slot, !dbg !10867
  br label %ehcleanup113, !dbg !10867

lpad108:                                          ; preds = %invoke.cont107
  %47 = landingpad { i8*, i32 } personality i8* bitcast (i32 (...)* @__gxx_personality_v0 to i8*)
          cleanup, !dbg !10867
  %48 = extractvalue { i8*, i32 } %47, 0, !dbg !10867
  store i8* %48, i8** %exn.slot, !dbg !10867
  %49 = extractvalue { i8*, i32 } %47, 1, !dbg !10867
  store i32 %49, i32* %ehselector.slot, !dbg !10867
  invoke void @_ZNSsD1Ev(%"class.std::basic_string"* %ref.tmp104)
          to label %invoke.cont112 unwind label %terminate.lpad, !dbg !10868

invoke.cont112:                                   ; preds = %lpad108
  br label %ehcleanup113, !dbg !10869

ehcleanup113:                                     ; preds = %invoke.cont112, %lpad106
  call void @_ZNSaIcED1Ev(%"class.std::allocator"* %ref.tmp105) #1, !dbg !10871
  br label %eh.resume, !dbg !10871

if.end114:                                        ; preds = %invoke.cont110, %do.end100
  %50 = load i32* getelementptr inbounds (%"struct.ros::console::LogLocation"* @_ZZNK3ros9Publisher7publishIN8std_msgs6Int16_ISaIvEEEEEvRKT_E33__rosconsole_define_location__loc_2, i32 0, i32 2), align 4, !dbg !10873
  %cmp115 = icmp ne i32 %50, 4, !dbg !10873
  br i1 %cmp115, label %if.then116, label %if.end117, !dbg !10857

if.then116:                                       ; preds = %if.end114
  call void @_ZN3ros7console19setLogLocationLevelEPNS0_11LogLocationENS0_6levels5LevelE(%"struct.ros::console::LogLocation"* @_ZZNK3ros9Publisher7publishIN8std_msgs6Int16_ISaIvEEEEEvRKT_E33__rosconsole_define_location__loc_2, i32 4), !dbg !10877
  call void @_ZN3ros7console23checkLogLocationEnabledEPNS0_11LogLocationE(%"struct.ros::console::LogLocation"* @_ZZNK3ros9Publisher7publishIN8std_msgs6Int16_ISaIvEEEEEvRKT_E33__rosconsole_define_location__loc_2), !dbg !10877
  br label %if.end117, !dbg !10877

if.end117:                                        ; preds = %if.then116, %if.end114
  call void @llvm.dbg.declare(metadata i8* %__rosconsole_define_location__enabled118, metadata !10880, metadata !10245), !dbg !10857
  %51 = load i8* getelementptr inbounds (%"struct.ros::console::LogLocation"* @_ZZNK3ros9Publisher7publishIN8std_msgs6Int16_ISaIvEEEEEvRKT_E33__rosconsole_define_location__loc_2, i32 0, i32 1), align 1, !dbg !10881
  %tobool119 = trunc i8 %51 to i1, !dbg !10881
  br i1 %tobool119, label %land.rhs120, label %land.end121, !dbg !10881

land.rhs120:                                      ; preds = %if.end117
  br label %land.end121

land.end121:                                      ; preds = %land.rhs120, %if.end117
  %52 = phi i1 [ false, %if.end117 ], [ true, %land.rhs120 ]
  %frombool122 = zext i1 %52 to i8, !dbg !10884
  store i8 %frombool122, i8* %__rosconsole_define_location__enabled118, align 1, !dbg !10884
  %53 = load i8* %__rosconsole_define_location__enabled118, align 1, !dbg !10886
  %tobool123 = trunc i8 %53 to i1, !dbg !10886
  br i1 %tobool123, label %if.then124, label %if.end125, !dbg !10857

if.then124:                                       ; preds = %land.end121
  %54 = load i8** getelementptr inbounds (%"struct.ros::console::LogLocation"* @_ZZNK3ros9Publisher7publishIN8std_msgs6Int16_ISaIvEEEEEvRKT_E33__rosconsole_define_location__loc_2, i32 0, i32 3), align 8, !dbg !10888
  %55 = load i32* getelementptr inbounds (%"struct.ros::console::LogLocation"* @_ZZNK3ros9Publisher7publishIN8std_msgs6Int16_ISaIvEEEEEvRKT_E33__rosconsole_define_location__loc_2, i32 0, i32 2), align 4, !dbg !10888
  call void (%"class.ros::console::FilterBase"*, i8*, i32, i8*, i32, i8*, i8*, ...)* @_ZN3ros7console5printEPNS0_10FilterBaseEPvNS0_6levels5LevelEPKciS7_S7_z(%"class.ros::console::FilterBase"* null, i8* %54, i32 %55, i8* getelementptr inbounds ([40 x i8]* @.str23, i32 0, i32 0), i32 108, i8* getelementptr inbounds ([92 x i8]* @__PRETTY_FUNCTION__._ZNK3ros9Publisher7publishIN8std_msgs6Int16_ISaIvEEEEEvRKT_, i32 0, i32 0), i8* getelementptr inbounds ([62 x i8]* @.str24, i32 0, i32 0), i8* getelementptr inbounds ([40 x i8]* @.str23, i32 0, i32 0), i32 108, i8* getelementptr inbounds ([6 x i8]* @.str25, i32 0, i32 0)), !dbg !10888
  br label %if.end125, !dbg !10888

if.end125:                                        ; preds = %if.then124, %land.end121
  br label %do.end126, !dbg !10891

do.end126:                                        ; preds = %if.end125
  br label %do.body127, !dbg !10894

do.body127:                                       ; preds = %do.end126
  br label %do.body128, !dbg !10896

do.body128:                                       ; preds = %do.body127
  %56 = load i8* @_ZN3ros7console13g_initializedE, align 1, !dbg !10899
  %tobool129 = trunc i8 %56 to i1, !dbg !10899
  %lnot130 = xor i1 %tobool129, true, !dbg !10899
  br i1 %lnot130, label %if.then131, label %if.end132, !dbg !10903

if.then131:                                       ; preds = %do.body128
  call void @_ZN3ros7console10initializeEv(), !dbg !10904
  br label %if.end132, !dbg !10904

if.end132:                                        ; preds = %if.then131, %do.body128
  br label %do.end133, !dbg !10907

do.end133:                                        ; preds = %if.end132
  %57 = load i8* getelementptr inbounds (%"struct.ros::console::LogLocation"* @_ZZNK3ros9Publisher7publishIN8std_msgs6Int16_ISaIvEEEEEvRKT_E33__rosconsole_define_location__loc_3, i32 0, i32 0), align 1, !dbg !10910
  %tobool134 = trunc i8 %57 to i1, !dbg !10910
  %lnot135 = xor i1 %tobool134, true, !dbg !10910
  br i1 %lnot135, label %if.then136, label %if.end147, !dbg !10913

if.then136:                                       ; preds = %do.end133
  call void @_ZNSaIcEC1Ev(%"class.std::allocator"* %ref.tmp138) #1, !dbg !10914
  invoke void @_ZNSsC1EPKcRKSaIcE(%"class.std::basic_string"* %ref.tmp137, i8* getelementptr inbounds ([20 x i8]* @.str18, i32 0, i32 0), %"class.std::allocator"* dereferenceable(1) %ref.tmp138)
          to label %invoke.cont140 unwind label %lpad139, !dbg !10914

invoke.cont140:                                   ; preds = %if.then136
  invoke void @_ZN3ros7console21initializeLogLocationEPNS0_11LogLocationERKSsNS0_6levels5LevelE(%"struct.ros::console::LogLocation"* @_ZZNK3ros9Publisher7publishIN8std_msgs6Int16_ISaIvEEEEEvRKT_E33__rosconsole_define_location__loc_3, %"class.std::basic_string"* dereferenceable(8) %ref.tmp137, i32 4)
          to label %invoke.cont142 unwind label %lpad141, !dbg !10917

invoke.cont142:                                   ; preds = %invoke.cont140
  invoke void @_ZNSsD1Ev(%"class.std::basic_string"* %ref.tmp137)
          to label %invoke.cont143 unwind label %lpad139, !dbg !10919

invoke.cont143:                                   ; preds = %invoke.cont142
  call void @_ZNSaIcED1Ev(%"class.std::allocator"* %ref.tmp138) #1, !dbg !10921
  br label %if.end147, !dbg !10921

lpad139:                                          ; preds = %invoke.cont142, %if.then136
  %58 = landingpad { i8*, i32 } personality i8* bitcast (i32 (...)* @__gxx_personality_v0 to i8*)
          cleanup, !dbg !10923
  %59 = extractvalue { i8*, i32 } %58, 0, !dbg !10923
  store i8* %59, i8** %exn.slot, !dbg !10923
  %60 = extractvalue { i8*, i32 } %58, 1, !dbg !10923
  store i32 %60, i32* %ehselector.slot, !dbg !10923
  br label %ehcleanup146, !dbg !10923

lpad141:                                          ; preds = %invoke.cont140
  %61 = landingpad { i8*, i32 } personality i8* bitcast (i32 (...)* @__gxx_personality_v0 to i8*)
          cleanup, !dbg !10923
  %62 = extractvalue { i8*, i32 } %61, 0, !dbg !10923
  store i8* %62, i8** %exn.slot, !dbg !10923
  %63 = extractvalue { i8*, i32 } %61, 1, !dbg !10923
  store i32 %63, i32* %ehselector.slot, !dbg !10923
  invoke void @_ZNSsD1Ev(%"class.std::basic_string"* %ref.tmp137)
          to label %invoke.cont145 unwind label %terminate.lpad, !dbg !10924

invoke.cont145:                                   ; preds = %lpad141
  br label %ehcleanup146, !dbg !10925

ehcleanup146:                                     ; preds = %invoke.cont145, %lpad139
  call void @_ZNSaIcED1Ev(%"class.std::allocator"* %ref.tmp138) #1, !dbg !10927
  br label %eh.resume, !dbg !10927

if.end147:                                        ; preds = %invoke.cont143, %do.end133
  %64 = load i32* getelementptr inbounds (%"struct.ros::console::LogLocation"* @_ZZNK3ros9Publisher7publishIN8std_msgs6Int16_ISaIvEEEEEvRKT_E33__rosconsole_define_location__loc_3, i32 0, i32 2), align 4, !dbg !10929
  %cmp148 = icmp ne i32 %64, 4, !dbg !10929
  br i1 %cmp148, label %if.then149, label %if.end150, !dbg !10913

if.then149:                                       ; preds = %if.end147
  call void @_ZN3ros7console19setLogLocationLevelEPNS0_11LogLocationENS0_6levels5LevelE(%"struct.ros::console::LogLocation"* @_ZZNK3ros9Publisher7publishIN8std_msgs6Int16_ISaIvEEEEEvRKT_E33__rosconsole_define_location__loc_3, i32 4), !dbg !10933
  call void @_ZN3ros7console23checkLogLocationEnabledEPNS0_11LogLocationE(%"struct.ros::console::LogLocation"* @_ZZNK3ros9Publisher7publishIN8std_msgs6Int16_ISaIvEEEEEvRKT_E33__rosconsole_define_location__loc_3), !dbg !10933
  br label %if.end150, !dbg !10933

if.end150:                                        ; preds = %if.then149, %if.end147
  call void @llvm.dbg.declare(metadata i8* %__rosconsole_define_location__enabled151, metadata !10936, metadata !10245), !dbg !10913
  %65 = load i8* getelementptr inbounds (%"struct.ros::console::LogLocation"* @_ZZNK3ros9Publisher7publishIN8std_msgs6Int16_ISaIvEEEEEvRKT_E33__rosconsole_define_location__loc_3, i32 0, i32 1), align 1, !dbg !10937
  %tobool152 = trunc i8 %65 to i1, !dbg !10937
  br i1 %tobool152, label %land.rhs153, label %land.end154, !dbg !10937

land.rhs153:                                      ; preds = %if.end150
  br label %land.end154

land.end154:                                      ; preds = %land.rhs153, %if.end150
  %66 = phi i1 [ false, %if.end150 ], [ true, %land.rhs153 ]
  %frombool155 = zext i1 %66 to i8, !dbg !10940
  store i8 %frombool155, i8* %__rosconsole_define_location__enabled151, align 1, !dbg !10940
  %67 = load i8* %__rosconsole_define_location__enabled151, align 1, !dbg !10942
  %tobool156 = trunc i8 %67 to i1, !dbg !10942
  br i1 %tobool156, label %if.then157, label %if.end161, !dbg !10913

if.then157:                                       ; preds = %land.end154
  %68 = load i8** getelementptr inbounds (%"struct.ros::console::LogLocation"* @_ZZNK3ros9Publisher7publishIN8std_msgs6Int16_ISaIvEEEEEvRKT_E33__rosconsole_define_location__loc_3, i32 0, i32 3), align 8, !dbg !10944
  %69 = load i32* getelementptr inbounds (%"struct.ros::console::LogLocation"* @_ZZNK3ros9Publisher7publishIN8std_msgs6Int16_ISaIvEEEEEvRKT_E33__rosconsole_define_location__loc_3, i32 0, i32 2), align 4, !dbg !10944
  %impl_158 = getelementptr inbounds %"class.ros::Publisher"* %this1, i32 0, i32 0, !dbg !10944
  %call159 = call %"class.ros::Publisher::Impl"* @_ZNK5boost10shared_ptrIN3ros9Publisher4ImplEEptEv(%"class.boost::shared_ptr.21"* %impl_158), !dbg !10944
  %topic_ = getelementptr inbounds %"class.ros::Publisher::Impl"* %call159, i32 0, i32 0, !dbg !10944
  %call160 = call i8* @_ZNKSs5c_strEv(%"class.std::basic_string"* %topic_), !dbg !10944
  call void (%"class.ros::console::FilterBase"*, i8*, i32, i8*, i32, i8*, i8*, ...)* @_ZN3ros7console5printEPNS0_10FilterBaseEPvNS0_6levels5LevelEPKciS7_S7_z(%"class.ros::console::FilterBase"* null, i8* %68, i32 %69, i8* getelementptr inbounds ([40 x i8]* @.str23, i32 0, i32 0), i32 108, i8* getelementptr inbounds ([92 x i8]* @__PRETTY_FUNCTION__._ZNK3ros9Publisher7publishIN8std_msgs6Int16_ISaIvEEEEEvRKT_, i32 0, i32 0), i8* getelementptr inbounds ([55 x i8]* @.str28, i32 0, i32 0), i8* %call160), !dbg !10944
  br label %if.end161, !dbg !10944

if.end161:                                        ; preds = %if.then157, %land.end154
  br label %do.end162, !dbg !10947

do.end162:                                        ; preds = %if.end161
  br label %do.body163, !dbg !10950

do.body163:                                       ; preds = %do.end162
  br label %do.body164, !dbg !10952

do.body164:                                       ; preds = %do.body163
  %70 = load i8* @_ZN3ros7console13g_initializedE, align 1, !dbg !10955
  %tobool165 = trunc i8 %70 to i1, !dbg !10955
  %lnot166 = xor i1 %tobool165, true, !dbg !10955
  br i1 %lnot166, label %if.then167, label %if.end168, !dbg !10959

if.then167:                                       ; preds = %do.body164
  call void @_ZN3ros7console10initializeEv(), !dbg !10960
  br label %if.end168, !dbg !10960

if.end168:                                        ; preds = %if.then167, %do.body164
  br label %do.end169, !dbg !10963

do.end169:                                        ; preds = %if.end168
  %71 = load i8* getelementptr inbounds (%"struct.ros::console::LogLocation"* @_ZZNK3ros9Publisher7publishIN8std_msgs6Int16_ISaIvEEEEEvRKT_E33__rosconsole_define_location__loc_4, i32 0, i32 0), align 1, !dbg !10966
  %tobool170 = trunc i8 %71 to i1, !dbg !10966
  %lnot171 = xor i1 %tobool170, true, !dbg !10966
  br i1 %lnot171, label %if.then172, label %if.end183, !dbg !10969

if.then172:                                       ; preds = %do.end169
  call void @_ZNSaIcEC1Ev(%"class.std::allocator"* %ref.tmp174) #1, !dbg !10970
  invoke void @_ZNSsC1EPKcRKSaIcE(%"class.std::basic_string"* %ref.tmp173, i8* getelementptr inbounds ([20 x i8]* @.str18, i32 0, i32 0), %"class.std::allocator"* dereferenceable(1) %ref.tmp174)
          to label %invoke.cont176 unwind label %lpad175, !dbg !10970

invoke.cont176:                                   ; preds = %if.then172
  invoke void @_ZN3ros7console21initializeLogLocationEPNS0_11LogLocationERKSsNS0_6levels5LevelE(%"struct.ros::console::LogLocation"* @_ZZNK3ros9Publisher7publishIN8std_msgs6Int16_ISaIvEEEEEvRKT_E33__rosconsole_define_location__loc_4, %"class.std::basic_string"* dereferenceable(8) %ref.tmp173, i32 4)
          to label %invoke.cont178 unwind label %lpad177, !dbg !10973

invoke.cont178:                                   ; preds = %invoke.cont176
  invoke void @_ZNSsD1Ev(%"class.std::basic_string"* %ref.tmp173)
          to label %invoke.cont179 unwind label %lpad175, !dbg !10975

invoke.cont179:                                   ; preds = %invoke.cont178
  call void @_ZNSaIcED1Ev(%"class.std::allocator"* %ref.tmp174) #1, !dbg !10977
  br label %if.end183, !dbg !10977

lpad175:                                          ; preds = %invoke.cont178, %if.then172
  %72 = landingpad { i8*, i32 } personality i8* bitcast (i32 (...)* @__gxx_personality_v0 to i8*)
          cleanup, !dbg !10979
  %73 = extractvalue { i8*, i32 } %72, 0, !dbg !10979
  store i8* %73, i8** %exn.slot, !dbg !10979
  %74 = extractvalue { i8*, i32 } %72, 1, !dbg !10979
  store i32 %74, i32* %ehselector.slot, !dbg !10979
  br label %ehcleanup182, !dbg !10979

lpad177:                                          ; preds = %invoke.cont176
  %75 = landingpad { i8*, i32 } personality i8* bitcast (i32 (...)* @__gxx_personality_v0 to i8*)
          cleanup, !dbg !10979
  %76 = extractvalue { i8*, i32 } %75, 0, !dbg !10979
  store i8* %76, i8** %exn.slot, !dbg !10979
  %77 = extractvalue { i8*, i32 } %75, 1, !dbg !10979
  store i32 %77, i32* %ehselector.slot, !dbg !10979
  invoke void @_ZNSsD1Ev(%"class.std::basic_string"* %ref.tmp173)
          to label %invoke.cont181 unwind label %terminate.lpad, !dbg !10980

invoke.cont181:                                   ; preds = %lpad177
  br label %ehcleanup182, !dbg !10981

ehcleanup182:                                     ; preds = %invoke.cont181, %lpad175
  call void @_ZNSaIcED1Ev(%"class.std::allocator"* %ref.tmp174) #1, !dbg !10983
  br label %eh.resume, !dbg !10983

if.end183:                                        ; preds = %invoke.cont179, %do.end169
  %78 = load i32* getelementptr inbounds (%"struct.ros::console::LogLocation"* @_ZZNK3ros9Publisher7publishIN8std_msgs6Int16_ISaIvEEEEEvRKT_E33__rosconsole_define_location__loc_4, i32 0, i32 2), align 4, !dbg !10985
  %cmp184 = icmp ne i32 %78, 4, !dbg !10985
  br i1 %cmp184, label %if.then185, label %if.end186, !dbg !10969

if.then185:                                       ; preds = %if.end183
  call void @_ZN3ros7console19setLogLocationLevelEPNS0_11LogLocationENS0_6levels5LevelE(%"struct.ros::console::LogLocation"* @_ZZNK3ros9Publisher7publishIN8std_msgs6Int16_ISaIvEEEEEvRKT_E33__rosconsole_define_location__loc_4, i32 4), !dbg !10989
  call void @_ZN3ros7console23checkLogLocationEnabledEPNS0_11LogLocationE(%"struct.ros::console::LogLocation"* @_ZZNK3ros9Publisher7publishIN8std_msgs6Int16_ISaIvEEEEEvRKT_E33__rosconsole_define_location__loc_4), !dbg !10989
  br label %if.end186, !dbg !10989

if.end186:                                        ; preds = %if.then185, %if.end183
  call void @llvm.dbg.declare(metadata i8* %__rosconsole_define_location__enabled187, metadata !10992, metadata !10245), !dbg !10969
  %79 = load i8* getelementptr inbounds (%"struct.ros::console::LogLocation"* @_ZZNK3ros9Publisher7publishIN8std_msgs6Int16_ISaIvEEEEEvRKT_E33__rosconsole_define_location__loc_4, i32 0, i32 1), align 1, !dbg !10993
  %tobool188 = trunc i8 %79 to i1, !dbg !10993
  br i1 %tobool188, label %land.rhs189, label %land.end190, !dbg !10993

land.rhs189:                                      ; preds = %if.end186
  br label %land.end190

land.end190:                                      ; preds = %land.rhs189, %if.end186
  %80 = phi i1 [ false, %if.end186 ], [ true, %land.rhs189 ]
  %frombool191 = zext i1 %80 to i8, !dbg !10996
  store i8 %frombool191, i8* %__rosconsole_define_location__enabled187, align 1, !dbg !10996
  %81 = load i8* %__rosconsole_define_location__enabled187, align 1, !dbg !10998
  %tobool192 = trunc i8 %81 to i1, !dbg !10998
  br i1 %tobool192, label %if.then193, label %if.end194, !dbg !10969

if.then193:                                       ; preds = %land.end190
  %82 = load i8** getelementptr inbounds (%"struct.ros::console::LogLocation"* @_ZZNK3ros9Publisher7publishIN8std_msgs6Int16_ISaIvEEEEEvRKT_E33__rosconsole_define_location__loc_4, i32 0, i32 3), align 8, !dbg !11000
  %83 = load i32* getelementptr inbounds (%"struct.ros::console::LogLocation"* @_ZZNK3ros9Publisher7publishIN8std_msgs6Int16_ISaIvEEEEEvRKT_E33__rosconsole_define_location__loc_4, i32 0, i32 2), align 4, !dbg !11000
  call void (%"class.ros::console::FilterBase"*, i8*, i32, i8*, i32, i8*, i8*, ...)* @_ZN3ros7console5printEPNS0_10FilterBaseEPvNS0_6levels5LevelEPKciS7_S7_z(%"class.ros::console::FilterBase"* null, i8* %82, i32 %83, i8* getelementptr inbounds ([40 x i8]* @.str23, i32 0, i32 0), i32 108, i8* getelementptr inbounds ([92 x i8]* @__PRETTY_FUNCTION__._ZNK3ros9Publisher7publishIN8std_msgs6Int16_ISaIvEEEEEvRKT_, i32 0, i32 0), i8* getelementptr inbounds ([2 x i8]* @.str27, i32 0, i32 0)), !dbg !11000
  br label %if.end194, !dbg !11000

if.end194:                                        ; preds = %if.then193, %land.end190
  br label %do.end195, !dbg !11003

do.end195:                                        ; preds = %if.end194
  call void asm sideeffect "int $$3", "~{dirflag},~{fpsr},~{flags}"() #1, !dbg !11006, !srcloc !11008
  br label %do.end196, !dbg !11009

do.end196:                                        ; preds = %do.end195
  br label %return, !dbg !11010

if.end197:                                        ; preds = %if.end88
  br label %do.body198, !dbg !11011

do.body198:                                       ; preds = %if.end197
  %impl_199 = getelementptr inbounds %"class.ros::Publisher"* %this1, i32 0, i32 0, !dbg !11012
  %call200 = call %"class.ros::Publisher::Impl"* @_ZNK5boost10shared_ptrIN3ros9Publisher4ImplEEptEv(%"class.boost::shared_ptr.21"* %impl_199), !dbg !11012
  %md5sum_ = getelementptr inbounds %"class.ros::Publisher::Impl"* %call200, i32 0, i32 1, !dbg !11012
  %call201 = call zeroext i1 @_ZSteqIcSt11char_traitsIcESaIcEEbRKSbIT_T0_T1_EPKS3_(%"class.std::basic_string"* dereferenceable(8) %md5sum_, i8* getelementptr inbounds ([2 x i8]* @.str29, i32 0, i32 0)), !dbg !11012
  store i1 false, i1* %cleanup.cond
  store i1 false, i1* %cleanup.cond207
  br i1 %call201, label %lor.end, label %lor.lhs.false, !dbg !11016

lor.lhs.false:                                    ; preds = %do.body198
  %84 = load %"struct.std_msgs::Int16_"** %message.addr, align 8, !dbg !11017
  %call203 = call i8* @_ZN3ros14message_traits6md5sumIN8std_msgs6Int16_ISaIvEEEEEPKcRKT_(%"struct.std_msgs::Int16_"* dereferenceable(2) %84), !dbg !11017
  call void @_ZNSaIcEC1Ev(%"class.std::allocator"* %ref.tmp204) #1, !dbg !11017
  store i1 true, i1* %cleanup.cond, !dbg !11017
  invoke void @_ZNSsC1EPKcRKSaIcE(%"class.std::basic_string"* %ref.tmp202, i8* %call203, %"class.std::allocator"* dereferenceable(1) %ref.tmp204)
          to label %invoke.cont206 unwind label %lpad205, !dbg !11017

invoke.cont206:                                   ; preds = %lor.lhs.false
  store i1 true, i1* %cleanup.cond207, !dbg !11019
  %call210 = invoke zeroext i1 @_ZSteqIcSt11char_traitsIcESaIcEEbRKSbIT_T0_T1_EPKS3_(%"class.std::basic_string"* dereferenceable(8) %ref.tmp202, i8* getelementptr inbounds ([2 x i8]* @.str29, i32 0, i32 0))
          to label %invoke.cont209 unwind label %lpad208, !dbg !11019

invoke.cont209:                                   ; preds = %invoke.cont206
  br i1 %call210, label %lor.end, label %lor.rhs, !dbg !11021

lor.rhs:                                          ; preds = %invoke.cont209
  %impl_211 = getelementptr inbounds %"class.ros::Publisher"* %this1, i32 0, i32 0, !dbg !11023
  %call213 = invoke %"class.ros::Publisher::Impl"* @_ZNK5boost10shared_ptrIN3ros9Publisher4ImplEEptEv(%"class.boost::shared_ptr.21"* %impl_211)
          to label %invoke.cont212 unwind label %lpad208, !dbg !11023

invoke.cont212:                                   ; preds = %lor.rhs
  %md5sum_214 = getelementptr inbounds %"class.ros::Publisher::Impl"* %call213, i32 0, i32 1, !dbg !11025
  %85 = load %"struct.std_msgs::Int16_"** %message.addr, align 8, !dbg !11025
  %call216 = invoke i8* @_ZN3ros14message_traits6md5sumIN8std_msgs6Int16_ISaIvEEEEEPKcRKT_(%"struct.std_msgs::Int16_"* dereferenceable(2) %85)
          to label %invoke.cont215 unwind label %lpad208, !dbg !11025

invoke.cont215:                                   ; preds = %invoke.cont212
  %call218 = invoke zeroext i1 @_ZSteqIcSt11char_traitsIcESaIcEEbRKSbIT_T0_T1_EPKS3_(%"class.std::basic_string"* dereferenceable(8) %md5sum_214, i8* %call216)
          to label %invoke.cont217 unwind label %lpad208, !dbg !11027

invoke.cont217:                                   ; preds = %invoke.cont215
  br label %lor.end, !dbg !11029

lor.end:                                          ; preds = %invoke.cont217, %invoke.cont209, %do.body198
  %86 = phi i1 [ true, %invoke.cont209 ], [ true, %do.body198 ], [ %call218, %invoke.cont217 ]
  %lnot219 = xor i1 %86, true, !dbg !11031
  %cleanup.is_active = load i1* %cleanup.cond207, !dbg !11031
  br i1 %cleanup.is_active, label %cleanup.action, label %cleanup.done, !dbg !11031

cleanup.action:                                   ; preds = %lor.end
  invoke void @_ZNSsD1Ev(%"class.std::basic_string"* %ref.tmp202)
          to label %invoke.cont220 unwind label %lpad205, !dbg !11035

invoke.cont220:                                   ; preds = %cleanup.action
  br label %cleanup.done, !dbg !11037

cleanup.done:                                     ; preds = %invoke.cont220, %lor.end
  %cleanup.is_active226 = load i1* %cleanup.cond, !dbg !11039
  br i1 %cleanup.is_active226, label %cleanup.action227, label %cleanup.done228, !dbg !11039

cleanup.action227:                                ; preds = %cleanup.done
  call void @_ZNSaIcED1Ev(%"class.std::allocator"* %ref.tmp204) #1, !dbg !11042
  br label %cleanup.done228, !dbg !11042

cleanup.done228:                                  ; preds = %cleanup.action227, %cleanup.done
  br i1 %lnot219, label %if.then233, label %if.end342, !dbg !11044

if.then233:                                       ; preds = %cleanup.done228
  br label %do.body234, !dbg !11047

do.body234:                                       ; preds = %if.then233
  br label %do.body235, !dbg !11050

do.body235:                                       ; preds = %do.body234
  %87 = load i8* @_ZN3ros7console13g_initializedE, align 1, !dbg !11053
  %tobool236 = trunc i8 %87 to i1, !dbg !11053
  %lnot237 = xor i1 %tobool236, true, !dbg !11053
  br i1 %lnot237, label %if.then238, label %if.end239, !dbg !11057

if.then238:                                       ; preds = %do.body235
  call void @_ZN3ros7console10initializeEv(), !dbg !11058
  br label %if.end239, !dbg !11058

lpad205:                                          ; preds = %cleanup.action, %lor.lhs.false
  %88 = landingpad { i8*, i32 } personality i8* bitcast (i32 (...)* @__gxx_personality_v0 to i8*)
          cleanup, !dbg !11061
  %89 = extractvalue { i8*, i32 } %88, 0, !dbg !11061
  store i8* %89, i8** %exn.slot, !dbg !11061
  %90 = extractvalue { i8*, i32 } %88, 1, !dbg !11061
  store i32 %90, i32* %ehselector.slot, !dbg !11061
  br label %ehcleanup229, !dbg !11061

lpad208:                                          ; preds = %invoke.cont215, %invoke.cont212, %lor.rhs, %invoke.cont206
  %91 = landingpad { i8*, i32 } personality i8* bitcast (i32 (...)* @__gxx_personality_v0 to i8*)
          cleanup, !dbg !11061
  %92 = extractvalue { i8*, i32 } %91, 0, !dbg !11061
  store i8* %92, i8** %exn.slot, !dbg !11061
  %93 = extractvalue { i8*, i32 } %91, 1, !dbg !11061
  store i32 %93, i32* %ehselector.slot, !dbg !11061
  %cleanup.is_active222 = load i1* %cleanup.cond207, !dbg !11016
  br i1 %cleanup.is_active222, label %cleanup.action223, label %cleanup.done225, !dbg !11016

cleanup.action223:                                ; preds = %lpad208
  invoke void @_ZNSsD1Ev(%"class.std::basic_string"* %ref.tmp202)
          to label %invoke.cont224 unwind label %terminate.lpad, !dbg !11062

invoke.cont224:                                   ; preds = %cleanup.action223
  br label %cleanup.done225, !dbg !11064

cleanup.done225:                                  ; preds = %invoke.cont224, %lpad208
  br label %ehcleanup229, !dbg !11066

ehcleanup229:                                     ; preds = %cleanup.done225, %lpad205
  %cleanup.is_active230 = load i1* %cleanup.cond, !dbg !11069
  br i1 %cleanup.is_active230, label %cleanup.action231, label %cleanup.done232, !dbg !11069

cleanup.action231:                                ; preds = %ehcleanup229
  call void @_ZNSaIcED1Ev(%"class.std::allocator"* %ref.tmp204) #1, !dbg !11071
  br label %cleanup.done232, !dbg !11071

cleanup.done232:                                  ; preds = %cleanup.action231, %ehcleanup229
  br label %eh.resume, !dbg !11073

if.end239:                                        ; preds = %if.then238, %do.body235
  br label %do.end240, !dbg !11076

do.end240:                                        ; preds = %if.end239
  %94 = load i8* getelementptr inbounds (%"struct.ros::console::LogLocation"* @_ZZNK3ros9Publisher7publishIN8std_msgs6Int16_ISaIvEEEEEvRKT_E33__rosconsole_define_location__loc_5, i32 0, i32 0), align 1, !dbg !11079
  %tobool241 = trunc i8 %94 to i1, !dbg !11079
  %lnot242 = xor i1 %tobool241, true, !dbg !11079
  br i1 %lnot242, label %if.then243, label %if.end254, !dbg !11082

if.then243:                                       ; preds = %do.end240
  call void @_ZNSaIcEC1Ev(%"class.std::allocator"* %ref.tmp245) #1, !dbg !11083
  invoke void @_ZNSsC1EPKcRKSaIcE(%"class.std::basic_string"* %ref.tmp244, i8* getelementptr inbounds ([20 x i8]* @.str18, i32 0, i32 0), %"class.std::allocator"* dereferenceable(1) %ref.tmp245)
          to label %invoke.cont247 unwind label %lpad246, !dbg !11083

invoke.cont247:                                   ; preds = %if.then243
  invoke void @_ZN3ros7console21initializeLogLocationEPNS0_11LogLocationERKSsNS0_6levels5LevelE(%"struct.ros::console::LogLocation"* @_ZZNK3ros9Publisher7publishIN8std_msgs6Int16_ISaIvEEEEEvRKT_E33__rosconsole_define_location__loc_5, %"class.std::basic_string"* dereferenceable(8) %ref.tmp244, i32 4)
          to label %invoke.cont249 unwind label %lpad248, !dbg !11086

invoke.cont249:                                   ; preds = %invoke.cont247
  invoke void @_ZNSsD1Ev(%"class.std::basic_string"* %ref.tmp244)
          to label %invoke.cont250 unwind label %lpad246, !dbg !11088

invoke.cont250:                                   ; preds = %invoke.cont249
  call void @_ZNSaIcED1Ev(%"class.std::allocator"* %ref.tmp245) #1, !dbg !11090
  br label %if.end254, !dbg !11090

lpad246:                                          ; preds = %invoke.cont249, %if.then243
  %95 = landingpad { i8*, i32 } personality i8* bitcast (i32 (...)* @__gxx_personality_v0 to i8*)
          cleanup, !dbg !11092
  %96 = extractvalue { i8*, i32 } %95, 0, !dbg !11092
  store i8* %96, i8** %exn.slot, !dbg !11092
  %97 = extractvalue { i8*, i32 } %95, 1, !dbg !11092
  store i32 %97, i32* %ehselector.slot, !dbg !11092
  br label %ehcleanup253, !dbg !11092

lpad248:                                          ; preds = %invoke.cont247
  %98 = landingpad { i8*, i32 } personality i8* bitcast (i32 (...)* @__gxx_personality_v0 to i8*)
          cleanup, !dbg !11092
  %99 = extractvalue { i8*, i32 } %98, 0, !dbg !11092
  store i8* %99, i8** %exn.slot, !dbg !11092
  %100 = extractvalue { i8*, i32 } %98, 1, !dbg !11092
  store i32 %100, i32* %ehselector.slot, !dbg !11092
  invoke void @_ZNSsD1Ev(%"class.std::basic_string"* %ref.tmp244)
          to label %invoke.cont252 unwind label %terminate.lpad, !dbg !11093

invoke.cont252:                                   ; preds = %lpad248
  br label %ehcleanup253, !dbg !11094

ehcleanup253:                                     ; preds = %invoke.cont252, %lpad246
  call void @_ZNSaIcED1Ev(%"class.std::allocator"* %ref.tmp245) #1, !dbg !11096
  br label %eh.resume, !dbg !11096

if.end254:                                        ; preds = %invoke.cont250, %do.end240
  %101 = load i32* getelementptr inbounds (%"struct.ros::console::LogLocation"* @_ZZNK3ros9Publisher7publishIN8std_msgs6Int16_ISaIvEEEEEvRKT_E33__rosconsole_define_location__loc_5, i32 0, i32 2), align 4, !dbg !11098
  %cmp255 = icmp ne i32 %101, 4, !dbg !11098
  br i1 %cmp255, label %if.then256, label %if.end257, !dbg !11082

if.then256:                                       ; preds = %if.end254
  call void @_ZN3ros7console19setLogLocationLevelEPNS0_11LogLocationENS0_6levels5LevelE(%"struct.ros::console::LogLocation"* @_ZZNK3ros9Publisher7publishIN8std_msgs6Int16_ISaIvEEEEEvRKT_E33__rosconsole_define_location__loc_5, i32 4), !dbg !11102
  call void @_ZN3ros7console23checkLogLocationEnabledEPNS0_11LogLocationE(%"struct.ros::console::LogLocation"* @_ZZNK3ros9Publisher7publishIN8std_msgs6Int16_ISaIvEEEEEvRKT_E33__rosconsole_define_location__loc_5), !dbg !11102
  br label %if.end257, !dbg !11102

if.end257:                                        ; preds = %if.then256, %if.end254
  call void @llvm.dbg.declare(metadata i8* %__rosconsole_define_location__enabled258, metadata !11105, metadata !10245), !dbg !11082
  %102 = load i8* getelementptr inbounds (%"struct.ros::console::LogLocation"* @_ZZNK3ros9Publisher7publishIN8std_msgs6Int16_ISaIvEEEEEvRKT_E33__rosconsole_define_location__loc_5, i32 0, i32 1), align 1, !dbg !11106
  %tobool259 = trunc i8 %102 to i1, !dbg !11106
  br i1 %tobool259, label %land.rhs260, label %land.end261, !dbg !11106

land.rhs260:                                      ; preds = %if.end257
  br label %land.end261

land.end261:                                      ; preds = %land.rhs260, %if.end257
  %103 = phi i1 [ false, %if.end257 ], [ true, %land.rhs260 ]
  %frombool262 = zext i1 %103 to i8, !dbg !11109
  store i8 %frombool262, i8* %__rosconsole_define_location__enabled258, align 1, !dbg !11109
  %104 = load i8* %__rosconsole_define_location__enabled258, align 1, !dbg !11111
  %tobool263 = trunc i8 %104 to i1, !dbg !11111
  br i1 %tobool263, label %if.then264, label %if.end265, !dbg !11082

if.then264:                                       ; preds = %land.end261
  %105 = load i8** getelementptr inbounds (%"struct.ros::console::LogLocation"* @_ZZNK3ros9Publisher7publishIN8std_msgs6Int16_ISaIvEEEEEvRKT_E33__rosconsole_define_location__loc_5, i32 0, i32 3), align 8, !dbg !11113
  %106 = load i32* getelementptr inbounds (%"struct.ros::console::LogLocation"* @_ZZNK3ros9Publisher7publishIN8std_msgs6Int16_ISaIvEEEEEvRKT_E33__rosconsole_define_location__loc_5, i32 0, i32 2), align 4, !dbg !11113
  call void (%"class.ros::console::FilterBase"*, i8*, i32, i8*, i32, i8*, i8*, ...)* @_ZN3ros7console5printEPNS0_10FilterBaseEPvNS0_6levels5LevelEPKciS7_S7_z(%"class.ros::console::FilterBase"* null, i8* %105, i32 %106, i8* getelementptr inbounds ([40 x i8]* @.str23, i32 0, i32 0), i32 115, i8* getelementptr inbounds ([92 x i8]* @__PRETTY_FUNCTION__._ZNK3ros9Publisher7publishIN8std_msgs6Int16_ISaIvEEEEEvRKT_, i32 0, i32 0), i8* getelementptr inbounds ([62 x i8]* @.str24, i32 0, i32 0), i8* getelementptr inbounds ([40 x i8]* @.str23, i32 0, i32 0), i32 115, i8* getelementptr inbounds ([112 x i8]* @.str30, i32 0, i32 0)), !dbg !11113
  br label %if.end265, !dbg !11113

if.end265:                                        ; preds = %if.then264, %land.end261
  br label %do.end266, !dbg !11116

do.end266:                                        ; preds = %if.end265
  br label %do.body267, !dbg !11119

do.body267:                                       ; preds = %do.end266
  br label %do.body268, !dbg !11121

do.body268:                                       ; preds = %do.body267
  %107 = load i8* @_ZN3ros7console13g_initializedE, align 1, !dbg !11124
  %tobool269 = trunc i8 %107 to i1, !dbg !11124
  %lnot270 = xor i1 %tobool269, true, !dbg !11124
  br i1 %lnot270, label %if.then271, label %if.end272, !dbg !11128

if.then271:                                       ; preds = %do.body268
  call void @_ZN3ros7console10initializeEv(), !dbg !11129
  br label %if.end272, !dbg !11129

if.end272:                                        ; preds = %if.then271, %do.body268
  br label %do.end273, !dbg !11132

do.end273:                                        ; preds = %if.end272
  %108 = load i8* getelementptr inbounds (%"struct.ros::console::LogLocation"* @_ZZNK3ros9Publisher7publishIN8std_msgs6Int16_ISaIvEEEEEvRKT_E33__rosconsole_define_location__loc_6, i32 0, i32 0), align 1, !dbg !11135
  %tobool274 = trunc i8 %108 to i1, !dbg !11135
  %lnot275 = xor i1 %tobool274, true, !dbg !11135
  br i1 %lnot275, label %if.then276, label %if.end287, !dbg !11138

if.then276:                                       ; preds = %do.end273
  call void @_ZNSaIcEC1Ev(%"class.std::allocator"* %ref.tmp278) #1, !dbg !11139
  invoke void @_ZNSsC1EPKcRKSaIcE(%"class.std::basic_string"* %ref.tmp277, i8* getelementptr inbounds ([20 x i8]* @.str18, i32 0, i32 0), %"class.std::allocator"* dereferenceable(1) %ref.tmp278)
          to label %invoke.cont280 unwind label %lpad279, !dbg !11139

invoke.cont280:                                   ; preds = %if.then276
  invoke void @_ZN3ros7console21initializeLogLocationEPNS0_11LogLocationERKSsNS0_6levels5LevelE(%"struct.ros::console::LogLocation"* @_ZZNK3ros9Publisher7publishIN8std_msgs6Int16_ISaIvEEEEEvRKT_E33__rosconsole_define_location__loc_6, %"class.std::basic_string"* dereferenceable(8) %ref.tmp277, i32 4)
          to label %invoke.cont282 unwind label %lpad281, !dbg !11142

invoke.cont282:                                   ; preds = %invoke.cont280
  invoke void @_ZNSsD1Ev(%"class.std::basic_string"* %ref.tmp277)
          to label %invoke.cont283 unwind label %lpad279, !dbg !11144

invoke.cont283:                                   ; preds = %invoke.cont282
  call void @_ZNSaIcED1Ev(%"class.std::allocator"* %ref.tmp278) #1, !dbg !11146
  br label %if.end287, !dbg !11146

lpad279:                                          ; preds = %invoke.cont282, %if.then276
  %109 = landingpad { i8*, i32 } personality i8* bitcast (i32 (...)* @__gxx_personality_v0 to i8*)
          cleanup, !dbg !11148
  %110 = extractvalue { i8*, i32 } %109, 0, !dbg !11148
  store i8* %110, i8** %exn.slot, !dbg !11148
  %111 = extractvalue { i8*, i32 } %109, 1, !dbg !11148
  store i32 %111, i32* %ehselector.slot, !dbg !11148
  br label %ehcleanup286, !dbg !11148

lpad281:                                          ; preds = %invoke.cont280
  %112 = landingpad { i8*, i32 } personality i8* bitcast (i32 (...)* @__gxx_personality_v0 to i8*)
          cleanup, !dbg !11148
  %113 = extractvalue { i8*, i32 } %112, 0, !dbg !11148
  store i8* %113, i8** %exn.slot, !dbg !11148
  %114 = extractvalue { i8*, i32 } %112, 1, !dbg !11148
  store i32 %114, i32* %ehselector.slot, !dbg !11148
  invoke void @_ZNSsD1Ev(%"class.std::basic_string"* %ref.tmp277)
          to label %invoke.cont285 unwind label %terminate.lpad, !dbg !11149

invoke.cont285:                                   ; preds = %lpad281
  br label %ehcleanup286, !dbg !11150

ehcleanup286:                                     ; preds = %invoke.cont285, %lpad279
  call void @_ZNSaIcED1Ev(%"class.std::allocator"* %ref.tmp278) #1, !dbg !11152
  br label %eh.resume, !dbg !11152

if.end287:                                        ; preds = %invoke.cont283, %do.end273
  %115 = load i32* getelementptr inbounds (%"struct.ros::console::LogLocation"* @_ZZNK3ros9Publisher7publishIN8std_msgs6Int16_ISaIvEEEEEvRKT_E33__rosconsole_define_location__loc_6, i32 0, i32 2), align 4, !dbg !11154
  %cmp288 = icmp ne i32 %115, 4, !dbg !11154
  br i1 %cmp288, label %if.then289, label %if.end290, !dbg !11138

if.then289:                                       ; preds = %if.end287
  call void @_ZN3ros7console19setLogLocationLevelEPNS0_11LogLocationENS0_6levels5LevelE(%"struct.ros::console::LogLocation"* @_ZZNK3ros9Publisher7publishIN8std_msgs6Int16_ISaIvEEEEEvRKT_E33__rosconsole_define_location__loc_6, i32 4), !dbg !11158
  call void @_ZN3ros7console23checkLogLocationEnabledEPNS0_11LogLocationE(%"struct.ros::console::LogLocation"* @_ZZNK3ros9Publisher7publishIN8std_msgs6Int16_ISaIvEEEEEvRKT_E33__rosconsole_define_location__loc_6), !dbg !11158
  br label %if.end290, !dbg !11158

if.end290:                                        ; preds = %if.then289, %if.end287
  call void @llvm.dbg.declare(metadata i8* %__rosconsole_define_location__enabled291, metadata !11161, metadata !10245), !dbg !11138
  %116 = load i8* getelementptr inbounds (%"struct.ros::console::LogLocation"* @_ZZNK3ros9Publisher7publishIN8std_msgs6Int16_ISaIvEEEEEvRKT_E33__rosconsole_define_location__loc_6, i32 0, i32 1), align 1, !dbg !11162
  %tobool292 = trunc i8 %116 to i1, !dbg !11162
  br i1 %tobool292, label %land.rhs293, label %land.end294, !dbg !11162

land.rhs293:                                      ; preds = %if.end290
  br label %land.end294

land.end294:                                      ; preds = %land.rhs293, %if.end290
  %117 = phi i1 [ false, %if.end290 ], [ true, %land.rhs293 ]
  %frombool295 = zext i1 %117 to i8, !dbg !11165
  store i8 %frombool295, i8* %__rosconsole_define_location__enabled291, align 1, !dbg !11165
  %118 = load i8* %__rosconsole_define_location__enabled291, align 1, !dbg !11167
  %tobool296 = trunc i8 %118 to i1, !dbg !11167
  br i1 %tobool296, label %if.then297, label %if.end307, !dbg !11138

if.then297:                                       ; preds = %land.end294
  %119 = load i8** getelementptr inbounds (%"struct.ros::console::LogLocation"* @_ZZNK3ros9Publisher7publishIN8std_msgs6Int16_ISaIvEEEEEvRKT_E33__rosconsole_define_location__loc_6, i32 0, i32 3), align 8, !dbg !11169
  %120 = load i32* getelementptr inbounds (%"struct.ros::console::LogLocation"* @_ZZNK3ros9Publisher7publishIN8std_msgs6Int16_ISaIvEEEEEvRKT_E33__rosconsole_define_location__loc_6, i32 0, i32 2), align 4, !dbg !11169
  %121 = load %"struct.std_msgs::Int16_"** %message.addr, align 8, !dbg !11169
  %call298 = call i8* @_ZN3ros14message_traits8datatypeIN8std_msgs6Int16_ISaIvEEEEEPKcRKT_(%"struct.std_msgs::Int16_"* dereferenceable(2) %121), !dbg !11169
  %122 = load %"struct.std_msgs::Int16_"** %message.addr, align 8, !dbg !11169
  %call299 = call i8* @_ZN3ros14message_traits6md5sumIN8std_msgs6Int16_ISaIvEEEEEPKcRKT_(%"struct.std_msgs::Int16_"* dereferenceable(2) %122), !dbg !11169
  %impl_300 = getelementptr inbounds %"class.ros::Publisher"* %this1, i32 0, i32 0, !dbg !11169
  %call301 = call %"class.ros::Publisher::Impl"* @_ZNK5boost10shared_ptrIN3ros9Publisher4ImplEEptEv(%"class.boost::shared_ptr.21"* %impl_300), !dbg !11169
  %datatype_ = getelementptr inbounds %"class.ros::Publisher::Impl"* %call301, i32 0, i32 2, !dbg !11169
  %call302 = call i8* @_ZNKSs5c_strEv(%"class.std::basic_string"* %datatype_), !dbg !11169
  %impl_303 = getelementptr inbounds %"class.ros::Publisher"* %this1, i32 0, i32 0, !dbg !11169
  %call304 = call %"class.ros::Publisher::Impl"* @_ZNK5boost10shared_ptrIN3ros9Publisher4ImplEEptEv(%"class.boost::shared_ptr.21"* %impl_303), !dbg !11169
  %md5sum_305 = getelementptr inbounds %"class.ros::Publisher::Impl"* %call304, i32 0, i32 1, !dbg !11169
  %call306 = call i8* @_ZNKSs5c_strEv(%"class.std::basic_string"* %md5sum_305), !dbg !11169
  call void (%"class.ros::console::FilterBase"*, i8*, i32, i8*, i32, i8*, i8*, ...)* @_ZN3ros7console5printEPNS0_10FilterBaseEPvNS0_6levels5LevelEPKciS7_S7_z(%"class.ros::console::FilterBase"* null, i8* %119, i32 %120, i8* getelementptr inbounds ([40 x i8]* @.str23, i32 0, i32 0), i32 115, i8* getelementptr inbounds ([92 x i8]* @__PRETTY_FUNCTION__._ZNK3ros9Publisher7publishIN8std_msgs6Int16_ISaIvEEEEEvRKT_, i32 0, i32 0), i8* getelementptr inbounds ([75 x i8]* @.str31, i32 0, i32 0), i8* %call298, i8* %call299, i8* %call302, i8* %call306), !dbg !11169
  br label %if.end307, !dbg !11169

if.end307:                                        ; preds = %if.then297, %land.end294
  br label %do.end308, !dbg !11172

do.end308:                                        ; preds = %if.end307
  br label %do.body309, !dbg !11175

do.body309:                                       ; preds = %do.end308
  br label %do.body310, !dbg !11177

do.body310:                                       ; preds = %do.body309
  %123 = load i8* @_ZN3ros7console13g_initializedE, align 1, !dbg !11180
  %tobool311 = trunc i8 %123 to i1, !dbg !11180
  %lnot312 = xor i1 %tobool311, true, !dbg !11180
  br i1 %lnot312, label %if.then313, label %if.end314, !dbg !11184

if.then313:                                       ; preds = %do.body310
  call void @_ZN3ros7console10initializeEv(), !dbg !11185
  br label %if.end314, !dbg !11185

if.end314:                                        ; preds = %if.then313, %do.body310
  br label %do.end315, !dbg !11188

do.end315:                                        ; preds = %if.end314
  %124 = load i8* getelementptr inbounds (%"struct.ros::console::LogLocation"* @_ZZNK3ros9Publisher7publishIN8std_msgs6Int16_ISaIvEEEEEvRKT_E33__rosconsole_define_location__loc_7, i32 0, i32 0), align 1, !dbg !11191
  %tobool316 = trunc i8 %124 to i1, !dbg !11191
  %lnot317 = xor i1 %tobool316, true, !dbg !11191
  br i1 %lnot317, label %if.then318, label %if.end329, !dbg !11194

if.then318:                                       ; preds = %do.end315
  call void @_ZNSaIcEC1Ev(%"class.std::allocator"* %ref.tmp320) #1, !dbg !11195
  invoke void @_ZNSsC1EPKcRKSaIcE(%"class.std::basic_string"* %ref.tmp319, i8* getelementptr inbounds ([20 x i8]* @.str18, i32 0, i32 0), %"class.std::allocator"* dereferenceable(1) %ref.tmp320)
          to label %invoke.cont322 unwind label %lpad321, !dbg !11195

invoke.cont322:                                   ; preds = %if.then318
  invoke void @_ZN3ros7console21initializeLogLocationEPNS0_11LogLocationERKSsNS0_6levels5LevelE(%"struct.ros::console::LogLocation"* @_ZZNK3ros9Publisher7publishIN8std_msgs6Int16_ISaIvEEEEEvRKT_E33__rosconsole_define_location__loc_7, %"class.std::basic_string"* dereferenceable(8) %ref.tmp319, i32 4)
          to label %invoke.cont324 unwind label %lpad323, !dbg !11198

invoke.cont324:                                   ; preds = %invoke.cont322
  invoke void @_ZNSsD1Ev(%"class.std::basic_string"* %ref.tmp319)
          to label %invoke.cont325 unwind label %lpad321, !dbg !11200

invoke.cont325:                                   ; preds = %invoke.cont324
  call void @_ZNSaIcED1Ev(%"class.std::allocator"* %ref.tmp320) #1, !dbg !11202
  br label %if.end329, !dbg !11202

lpad321:                                          ; preds = %invoke.cont324, %if.then318
  %125 = landingpad { i8*, i32 } personality i8* bitcast (i32 (...)* @__gxx_personality_v0 to i8*)
          cleanup, !dbg !11204
  %126 = extractvalue { i8*, i32 } %125, 0, !dbg !11204
  store i8* %126, i8** %exn.slot, !dbg !11204
  %127 = extractvalue { i8*, i32 } %125, 1, !dbg !11204
  store i32 %127, i32* %ehselector.slot, !dbg !11204
  br label %ehcleanup328, !dbg !11204

lpad323:                                          ; preds = %invoke.cont322
  %128 = landingpad { i8*, i32 } personality i8* bitcast (i32 (...)* @__gxx_personality_v0 to i8*)
          cleanup, !dbg !11204
  %129 = extractvalue { i8*, i32 } %128, 0, !dbg !11204
  store i8* %129, i8** %exn.slot, !dbg !11204
  %130 = extractvalue { i8*, i32 } %128, 1, !dbg !11204
  store i32 %130, i32* %ehselector.slot, !dbg !11204
  invoke void @_ZNSsD1Ev(%"class.std::basic_string"* %ref.tmp319)
          to label %invoke.cont327 unwind label %terminate.lpad, !dbg !11205

invoke.cont327:                                   ; preds = %lpad323
  br label %ehcleanup328, !dbg !11206

ehcleanup328:                                     ; preds = %invoke.cont327, %lpad321
  call void @_ZNSaIcED1Ev(%"class.std::allocator"* %ref.tmp320) #1, !dbg !11208
  br label %eh.resume, !dbg !11208

if.end329:                                        ; preds = %invoke.cont325, %do.end315
  %131 = load i32* getelementptr inbounds (%"struct.ros::console::LogLocation"* @_ZZNK3ros9Publisher7publishIN8std_msgs6Int16_ISaIvEEEEEvRKT_E33__rosconsole_define_location__loc_7, i32 0, i32 2), align 4, !dbg !11210
  %cmp330 = icmp ne i32 %131, 4, !dbg !11210
  br i1 %cmp330, label %if.then331, label %if.end332, !dbg !11194

if.then331:                                       ; preds = %if.end329
  call void @_ZN3ros7console19setLogLocationLevelEPNS0_11LogLocationENS0_6levels5LevelE(%"struct.ros::console::LogLocation"* @_ZZNK3ros9Publisher7publishIN8std_msgs6Int16_ISaIvEEEEEvRKT_E33__rosconsole_define_location__loc_7, i32 4), !dbg !11214
  call void @_ZN3ros7console23checkLogLocationEnabledEPNS0_11LogLocationE(%"struct.ros::console::LogLocation"* @_ZZNK3ros9Publisher7publishIN8std_msgs6Int16_ISaIvEEEEEvRKT_E33__rosconsole_define_location__loc_7), !dbg !11214
  br label %if.end332, !dbg !11214

if.end332:                                        ; preds = %if.then331, %if.end329
  call void @llvm.dbg.declare(metadata i8* %__rosconsole_define_location__enabled333, metadata !11217, metadata !10245), !dbg !11194
  %132 = load i8* getelementptr inbounds (%"struct.ros::console::LogLocation"* @_ZZNK3ros9Publisher7publishIN8std_msgs6Int16_ISaIvEEEEEvRKT_E33__rosconsole_define_location__loc_7, i32 0, i32 1), align 1, !dbg !11218
  %tobool334 = trunc i8 %132 to i1, !dbg !11218
  br i1 %tobool334, label %land.rhs335, label %land.end336, !dbg !11218

land.rhs335:                                      ; preds = %if.end332
  br label %land.end336

land.end336:                                      ; preds = %land.rhs335, %if.end332
  %133 = phi i1 [ false, %if.end332 ], [ true, %land.rhs335 ]
  %frombool337 = zext i1 %133 to i8, !dbg !11221
  store i8 %frombool337, i8* %__rosconsole_define_location__enabled333, align 1, !dbg !11221
  %134 = load i8* %__rosconsole_define_location__enabled333, align 1, !dbg !11223
  %tobool338 = trunc i8 %134 to i1, !dbg !11223
  br i1 %tobool338, label %if.then339, label %if.end340, !dbg !11194

if.then339:                                       ; preds = %land.end336
  %135 = load i8** getelementptr inbounds (%"struct.ros::console::LogLocation"* @_ZZNK3ros9Publisher7publishIN8std_msgs6Int16_ISaIvEEEEEvRKT_E33__rosconsole_define_location__loc_7, i32 0, i32 3), align 8, !dbg !11225
  %136 = load i32* getelementptr inbounds (%"struct.ros::console::LogLocation"* @_ZZNK3ros9Publisher7publishIN8std_msgs6Int16_ISaIvEEEEEvRKT_E33__rosconsole_define_location__loc_7, i32 0, i32 2), align 4, !dbg !11225
  call void (%"class.ros::console::FilterBase"*, i8*, i32, i8*, i32, i8*, i8*, ...)* @_ZN3ros7console5printEPNS0_10FilterBaseEPvNS0_6levels5LevelEPKciS7_S7_z(%"class.ros::console::FilterBase"* null, i8* %135, i32 %136, i8* getelementptr inbounds ([40 x i8]* @.str23, i32 0, i32 0), i32 115, i8* getelementptr inbounds ([92 x i8]* @__PRETTY_FUNCTION__._ZNK3ros9Publisher7publishIN8std_msgs6Int16_ISaIvEEEEEvRKT_, i32 0, i32 0), i8* getelementptr inbounds ([2 x i8]* @.str27, i32 0, i32 0)), !dbg !11225
  br label %if.end340, !dbg !11225

if.end340:                                        ; preds = %if.then339, %land.end336
  br label %do.end341, !dbg !11228

do.end341:                                        ; preds = %if.end340
  call void asm sideeffect "int $$3", "~{dirflag},~{fpsr},~{flags}"() #1, !dbg !11231, !srcloc !11233
  br label %if.end342, !dbg !11231

if.end342:                                        ; preds = %do.end341, %cleanup.done228
  br label %do.end343, !dbg !11234

do.end343:                                        ; preds = %if.end342
  call void @llvm.dbg.declare(metadata %"class.ros::SerializedMessage"* %m, metadata !11237, metadata !10245), !dbg !11238
  call void @_ZN3ros17SerializedMessageC2Ev(%"class.ros::SerializedMessage"* %m), !dbg !11238
  %137 = load %"struct.std_msgs::Int16_"** %message.addr, align 8, !dbg !11239
  %call348 = invoke %"struct.std_msgs::Int16_"* @_ZN5boost3refIKN8std_msgs6Int16_ISaIvEEEEEKNS_17reference_wrapperIT_EERS7_(%"struct.std_msgs::Int16_"* dereferenceable(2) %137)
          to label %invoke.cont347 unwind label %lpad346, !dbg !11240

invoke.cont347:                                   ; preds = %do.end343
  %coerce.dive = getelementptr %"class.boost::reference_wrapper"* %agg.tmp345, i32 0, i32 0, !dbg !11241
  store %"struct.std_msgs::Int16_"* %call348, %"struct.std_msgs::Int16_"** %coerce.dive, !dbg !11241
  %coerce.dive349 = getelementptr %"class.boost::reference_wrapper"* %agg.tmp345, i32 0, i32 0, !dbg !11243
  %138 = load %"struct.std_msgs::Int16_"** %coerce.dive349, !dbg !11243
  %call351 = invoke { void (%"class.ros::SerializedMessage"*, %"struct.std_msgs::Int16_"*)*, %"struct.std_msgs::Int16_"* } @_ZN5boost4bindIN3ros17SerializedMessageERKN8std_msgs6Int16_ISaIvEEENS_17reference_wrapperIS7_EEEENS_3_bi6bind_tIT_PFSD_T0_ENSB_9list_av_1IT1_E4typeEEESG_SI_(void (%"class.ros::SerializedMessage"*, %"struct.std_msgs::Int16_"*)* @_ZN3ros13serialization16serializeMessageIN8std_msgs6Int16_ISaIvEEEEENS_17SerializedMessageERKT_, %"struct.std_msgs::Int16_"* %138)
          to label %invoke.cont350 unwind label %lpad346, !dbg !11243

invoke.cont350:                                   ; preds = %invoke.cont347
  %139 = bitcast %"class.boost::_bi::bind_t.54"* %agg.tmp to { void (%"class.ros::SerializedMessage"*, %"struct.std_msgs::Int16_"*)*, %"struct.std_msgs::Int16_"* }*, !dbg !11244
  %140 = getelementptr { void (%"class.ros::SerializedMessage"*, %"struct.std_msgs::Int16_"*)*, %"struct.std_msgs::Int16_"* }* %139, i32 0, i32 0, !dbg !11244
  %141 = extractvalue { void (%"class.ros::SerializedMessage"*, %"struct.std_msgs::Int16_"*)*, %"struct.std_msgs::Int16_"* } %call351, 0, !dbg !11244
  store void (%"class.ros::SerializedMessage"*, %"struct.std_msgs::Int16_"*)* %141, void (%"class.ros::SerializedMessage"*, %"struct.std_msgs::Int16_"*)** %140, align 1, !dbg !11244
  %142 = getelementptr { void (%"class.ros::SerializedMessage"*, %"struct.std_msgs::Int16_"*)*, %"struct.std_msgs::Int16_"* }* %139, i32 0, i32 1, !dbg !11244
  %143 = extractvalue { void (%"class.ros::SerializedMessage"*, %"struct.std_msgs::Int16_"*)*, %"struct.std_msgs::Int16_"* } %call351, 1, !dbg !11244
  store %"struct.std_msgs::Int16_"* %143, %"struct.std_msgs::Int16_"** %142, align 1, !dbg !11244
  %144 = bitcast %"class.boost::_bi::bind_t.54"* %agg.tmp to { void (%"class.ros::SerializedMessage"*, %"struct.std_msgs::Int16_"*)*, %"struct.std_msgs::Int16_"* }*, !dbg !11244
  %145 = getelementptr { void (%"class.ros::SerializedMessage"*, %"struct.std_msgs::Int16_"*)*, %"struct.std_msgs::Int16_"* }* %144, i32 0, i32 0, !dbg !11244
  %146 = load void (%"class.ros::SerializedMessage"*, %"struct.std_msgs::Int16_"*)** %145, align 1, !dbg !11244
  %147 = getelementptr { void (%"class.ros::SerializedMessage"*, %"struct.std_msgs::Int16_"*)*, %"struct.std_msgs::Int16_"* }* %144, i32 0, i32 1, !dbg !11244
  %148 = load %"struct.std_msgs::Int16_"** %147, align 1, !dbg !11244
  invoke void @_ZN5boost8functionIFN3ros17SerializedMessageEvEEC2INS_3_bi6bind_tIS2_PFS2_RKN8std_msgs6Int16_ISaIvEEEENS6_5list1INS_17reference_wrapperISC_EEEEEEEET_NS_11enable_if_cIXsr5boost11type_traits7ice_notIXsr11is_integralISL_EE5valueEEE5valueEiE4typeE(%"class.boost::function.52"* %ref.tmp344, void (%"class.ros::SerializedMessage"*, %"struct.std_msgs::Int16_"*)* %146, %"struct.std_msgs::Int16_"* %148, i32 0)
          to label %invoke.cont352 unwind label %lpad346, !dbg !11244

invoke.cont352:                                   ; preds = %invoke.cont350
  invoke void @_ZNK3ros9Publisher7publishERKN5boost8functionIFNS_17SerializedMessageEvEEERS3_(%"class.ros::Publisher"* %this1, %"class.boost::function.52"* dereferenceable(32) %ref.tmp344, %"class.ros::SerializedMessage"* dereferenceable(56) %m)
          to label %invoke.cont354 unwind label %lpad353, !dbg !11246

invoke.cont354:                                   ; preds = %invoke.cont352
  invoke void @_ZN5boost8functionIFN3ros17SerializedMessageEvEED2Ev(%"class.boost::function.52"* %ref.tmp344)
          to label %invoke.cont355 unwind label %lpad346, !dbg !11248

invoke.cont355:                                   ; preds = %invoke.cont354
  call void @_ZN3ros17SerializedMessageD2Ev(%"class.ros::SerializedMessage"* %m), !dbg !11250
  br label %return, !dbg !11250

return:                                           ; preds = %invoke.cont355, %do.end196, %do.end87
  ret void, !dbg !11251

lpad346:                                          ; preds = %invoke.cont354, %invoke.cont350, %invoke.cont347, %do.end343
  %149 = landingpad { i8*, i32 } personality i8* bitcast (i32 (...)* @__gxx_personality_v0 to i8*)
          cleanup, !dbg !11250
  %150 = extractvalue { i8*, i32 } %149, 0, !dbg !11250
  store i8* %150, i8** %exn.slot, !dbg !11250
  %151 = extractvalue { i8*, i32 } %149, 1, !dbg !11250
  store i32 %151, i32* %ehselector.slot, !dbg !11250
  br label %ehcleanup358, !dbg !11250

lpad353:                                          ; preds = %invoke.cont352
  %152 = landingpad { i8*, i32 } personality i8* bitcast (i32 (...)* @__gxx_personality_v0 to i8*)
          cleanup, !dbg !11250
  %153 = extractvalue { i8*, i32 } %152, 0, !dbg !11250
  store i8* %153, i8** %exn.slot, !dbg !11250
  %154 = extractvalue { i8*, i32 } %152, 1, !dbg !11250
  store i32 %154, i32* %ehselector.slot, !dbg !11250
  invoke void @_ZN5boost8functionIFN3ros17SerializedMessageEvEED2Ev(%"class.boost::function.52"* %ref.tmp344)
          to label %invoke.cont357 unwind label %terminate.lpad, !dbg !11252

invoke.cont357:                                   ; preds = %lpad353
  br label %ehcleanup358, !dbg !11253

ehcleanup358:                                     ; preds = %invoke.cont357, %lpad346
  invoke void @_ZN3ros17SerializedMessageD2Ev(%"class.ros::SerializedMessage"* %m)
          to label %invoke.cont359 unwind label %terminate.lpad, !dbg !11255

invoke.cont359:                                   ; preds = %ehcleanup358
  br label %eh.resume, !dbg !11256

eh.resume:                                        ; preds = %invoke.cont359, %ehcleanup328, %ehcleanup286, %ehcleanup253, %cleanup.done232, %ehcleanup182, %ehcleanup146, %ehcleanup113, %ehcleanup73, %ehcleanup40, %ehcleanup
  %exn = load i8** %exn.slot, !dbg !11257
  %sel = load i32* %ehselector.slot, !dbg !11257
  %lpad.val = insertvalue { i8*, i32 } undef, i8* %exn, 0, !dbg !11257
  %lpad.val360 = insertvalue { i8*, i32 } %lpad.val, i32 %sel, 1, !dbg !11257
  resume { i8*, i32 } %lpad.val360, !dbg !11257

terminate.lpad:                                   ; preds = %ehcleanup358, %lpad353, %lpad323, %lpad281, %lpad248, %cleanup.action223, %lpad177, %lpad141, %lpad108, %lpad68, %lpad35, %lpad9
  %155 = landingpad { i8*, i32 } personality i8* bitcast (i32 (...)* @__gxx_personality_v0 to i8*)
          catch i8* null, !dbg !11261
  %156 = extractvalue { i8*, i32 } %155, 0, !dbg !11261
  call void @__clang_call_terminate(i8* %156) #15, !dbg !11261
  unreachable, !dbg !11261
}

; Function Attrs: uwtable
define i32 @main(i32 %argc, i8** %argv) #3 {
entry:
  %retval = alloca i32, align 4
  %argc.addr = alloca i32, align 4
  %argv.addr = alloca i8**, align 8
  %ref.tmp = alloca %"class.std::basic_string", align 8
  %ref.tmp1 = alloca %"class.std::allocator", align 1
  %exn.slot = alloca i8*
  %ehselector.slot = alloca i32
  %test = alloca %class.Test, align 8
  %cleanup.dest.slot = alloca i32
  store i32 0, i32* %retval
  store i32 %argc, i32* %argc.addr, align 4
  call void @llvm.dbg.declare(metadata i32* %argc.addr, metadata !11265, metadata !10245), !dbg !11266
  store i8** %argv, i8*** %argv.addr, align 8
  call void @llvm.dbg.declare(metadata i8*** %argv.addr, metadata !11267, metadata !10245), !dbg !11268
  %0 = load i8*** %argv.addr, align 8, !dbg !11269
  call void @_ZNSaIcEC1Ev(%"class.std::allocator"* %ref.tmp1) #1, !dbg !11270
  invoke void @_ZNSsC1EPKcRKSaIcE(%"class.std::basic_string"* %ref.tmp, i8* getelementptr inbounds ([7 x i8]* @.str13, i32 0, i32 0), %"class.std::allocator"* dereferenceable(1) %ref.tmp1)
          to label %invoke.cont unwind label %lpad, !dbg !11270

invoke.cont:                                      ; preds = %entry
  invoke void @_ZN3ros4initERiPPcRKSsj(i32* dereferenceable(4) %argc.addr, i8** %0, %"class.std::basic_string"* dereferenceable(8) %ref.tmp, i32 0)
          to label %invoke.cont3 unwind label %lpad2, !dbg !11271

invoke.cont3:                                     ; preds = %invoke.cont
  invoke void @_ZNSsD1Ev(%"class.std::basic_string"* %ref.tmp)
          to label %invoke.cont4 unwind label %lpad, !dbg !11273

invoke.cont4:                                     ; preds = %invoke.cont3
  call void @_ZNSaIcED1Ev(%"class.std::allocator"* %ref.tmp1) #1, !dbg !11275
  call void @llvm.dbg.declare(metadata %class.Test* %test, metadata !11277, metadata !10245), !dbg !11278
  call void @_ZN4TestC1Ev(%class.Test* %test), !dbg !11278
  invoke void @_ZN3ros4spinEv()
          to label %invoke.cont7 unwind label %lpad6, !dbg !11279

invoke.cont7:                                     ; preds = %invoke.cont4
  store i32 0, i32* %retval, !dbg !11280
  store i32 1, i32* %cleanup.dest.slot
  call void @_ZN4TestD2Ev(%class.Test* %test), !dbg !11281
  %1 = load i32* %retval, !dbg !11281
  ret i32 %1, !dbg !11281

lpad:                                             ; preds = %invoke.cont3, %entry
  %2 = landingpad { i8*, i32 } personality i8* bitcast (i32 (...)* @__gxx_personality_v0 to i8*)
          cleanup, !dbg !11281
  %3 = extractvalue { i8*, i32 } %2, 0, !dbg !11281
  store i8* %3, i8** %exn.slot, !dbg !11281
  %4 = extractvalue { i8*, i32 } %2, 1, !dbg !11281
  store i32 %4, i32* %ehselector.slot, !dbg !11281
  br label %ehcleanup, !dbg !11281

lpad2:                                            ; preds = %invoke.cont
  %5 = landingpad { i8*, i32 } personality i8* bitcast (i32 (...)* @__gxx_personality_v0 to i8*)
          cleanup, !dbg !11281
  %6 = extractvalue { i8*, i32 } %5, 0, !dbg !11281
  store i8* %6, i8** %exn.slot, !dbg !11281
  %7 = extractvalue { i8*, i32 } %5, 1, !dbg !11281
  store i32 %7, i32* %ehselector.slot, !dbg !11281
  invoke void @_ZNSsD1Ev(%"class.std::basic_string"* %ref.tmp)
          to label %invoke.cont5 unwind label %terminate.lpad, !dbg !11282

invoke.cont5:                                     ; preds = %lpad2
  br label %ehcleanup, !dbg !11283

ehcleanup:                                        ; preds = %invoke.cont5, %lpad
  call void @_ZNSaIcED1Ev(%"class.std::allocator"* %ref.tmp1) #1, !dbg !11285
  br label %eh.resume, !dbg !11285

lpad6:                                            ; preds = %invoke.cont4
  %8 = landingpad { i8*, i32 } personality i8* bitcast (i32 (...)* @__gxx_personality_v0 to i8*)
          cleanup, !dbg !11281
  %9 = extractvalue { i8*, i32 } %8, 0, !dbg !11281
  store i8* %9, i8** %exn.slot, !dbg !11281
  %10 = extractvalue { i8*, i32 } %8, 1, !dbg !11281
  store i32 %10, i32* %ehselector.slot, !dbg !11281
  invoke void @_ZN4TestD2Ev(%class.Test* %test)
          to label %invoke.cont9 unwind label %terminate.lpad, !dbg !11281

invoke.cont9:                                     ; preds = %lpad6
  br label %eh.resume, !dbg !11287

eh.resume:                                        ; preds = %invoke.cont9, %ehcleanup
  %exn = load i8** %exn.slot, !dbg !11288
  %sel = load i32* %ehselector.slot, !dbg !11288
  %lpad.val = insertvalue { i8*, i32 } undef, i8* %exn, 0, !dbg !11288
  %lpad.val10 = insertvalue { i8*, i32 } %lpad.val, i32 %sel, 1, !dbg !11288
  resume { i8*, i32 } %lpad.val10, !dbg !11288

terminate.lpad:                                   ; preds = %lpad6, %lpad2
  %11 = landingpad { i8*, i32 } personality i8* bitcast (i32 (...)* @__gxx_personality_v0 to i8*)
          catch i8* null, !dbg !11290
  %12 = extractvalue { i8*, i32 } %11, 0, !dbg !11290
  call void @__clang_call_terminate(i8* %12) #15, !dbg !11290
  unreachable, !dbg !11290
}

declare void @_ZN3ros4initERiPPcRKSsj(i32* dereferenceable(4), i8**, %"class.std::basic_string"* dereferenceable(8), i32) #0

declare void @_ZN3ros4spinEv() #0

; Function Attrs: inlinehint uwtable
define linkonce_odr void @_ZN4TestD2Ev(%class.Test* %this) unnamed_addr #6 comdat align 2 {
entry:
  %this.addr = alloca %class.Test*, align 8
  %exn.slot = alloca i8*
  %ehselector.slot = alloca i32
  store %class.Test* %this, %class.Test** %this.addr, align 8
  call void @llvm.dbg.declare(metadata %class.Test** %this.addr, metadata !11292, metadata !10245), !dbg !11293
  %this1 = load %class.Test** %this.addr
  %msg_pub = getelementptr inbounds %class.Test* %this1, i32 0, i32 4, !dbg !11294
  invoke void @_ZN3ros9PublisherD1Ev(%"class.ros::Publisher"* %msg_pub)
          to label %invoke.cont unwind label %lpad, !dbg !11294

invoke.cont:                                      ; preds = %entry
  %msg_sub = getelementptr inbounds %class.Test* %this1, i32 0, i32 3, !dbg !11296
  invoke void @_ZN3ros10SubscriberD1Ev(%"class.ros::Subscriber"* %msg_sub)
          to label %invoke.cont3 unwind label %lpad2, !dbg !11296

invoke.cont3:                                     ; preds = %invoke.cont
  %nh = getelementptr inbounds %class.Test* %this1, i32 0, i32 1, !dbg !11298
  invoke void @_ZN3ros10NodeHandleD1Ev(%"class.ros::NodeHandle"* %nh)
          to label %invoke.cont7 unwind label %lpad6, !dbg !11298

invoke.cont7:                                     ; preds = %invoke.cont3
  %private_nh_ = getelementptr inbounds %class.Test* %this1, i32 0, i32 0, !dbg !11300
  call void @_ZN3ros10NodeHandleD1Ev(%"class.ros::NodeHandle"* %private_nh_), !dbg !11300
  ret void, !dbg !11302

lpad:                                             ; preds = %entry
  %0 = landingpad { i8*, i32 } personality i8* bitcast (i32 (...)* @__gxx_personality_v0 to i8*)
          cleanup, !dbg !11303
  %1 = extractvalue { i8*, i32 } %0, 0, !dbg !11303
  store i8* %1, i8** %exn.slot, !dbg !11303
  %2 = extractvalue { i8*, i32 } %0, 1, !dbg !11303
  store i32 %2, i32* %ehselector.slot, !dbg !11303
  %msg_sub4 = getelementptr inbounds %class.Test* %this1, i32 0, i32 3, !dbg !11294
  invoke void @_ZN3ros10SubscriberD1Ev(%"class.ros::Subscriber"* %msg_sub4)
          to label %invoke.cont5 unwind label %terminate.lpad, !dbg !11294

lpad2:                                            ; preds = %invoke.cont
  %3 = landingpad { i8*, i32 } personality i8* bitcast (i32 (...)* @__gxx_personality_v0 to i8*)
          cleanup, !dbg !11305
  %4 = extractvalue { i8*, i32 } %3, 0, !dbg !11305
  store i8* %4, i8** %exn.slot, !dbg !11305
  %5 = extractvalue { i8*, i32 } %3, 1, !dbg !11305
  store i32 %5, i32* %ehselector.slot, !dbg !11305
  br label %ehcleanup, !dbg !11305

invoke.cont5:                                     ; preds = %lpad
  br label %ehcleanup, !dbg !11307

lpad6:                                            ; preds = %invoke.cont3
  %6 = landingpad { i8*, i32 } personality i8* bitcast (i32 (...)* @__gxx_personality_v0 to i8*)
          cleanup, !dbg !11309
  %7 = extractvalue { i8*, i32 } %6, 0, !dbg !11309
  store i8* %7, i8** %exn.slot, !dbg !11309
  %8 = extractvalue { i8*, i32 } %6, 1, !dbg !11309
  store i32 %8, i32* %ehselector.slot, !dbg !11309
  br label %ehcleanup10, !dbg !11309

ehcleanup:                                        ; preds = %invoke.cont5, %lpad2
  %nh8 = getelementptr inbounds %class.Test* %this1, i32 0, i32 1, !dbg !11311
  invoke void @_ZN3ros10NodeHandleD1Ev(%"class.ros::NodeHandle"* %nh8)
          to label %invoke.cont9 unwind label %terminate.lpad, !dbg !11311

invoke.cont9:                                     ; preds = %ehcleanup
  br label %ehcleanup10, !dbg !11314

ehcleanup10:                                      ; preds = %invoke.cont9, %lpad6
  %private_nh_11 = getelementptr inbounds %class.Test* %this1, i32 0, i32 0, !dbg !11316
  invoke void @_ZN3ros10NodeHandleD1Ev(%"class.ros::NodeHandle"* %private_nh_11)
          to label %invoke.cont12 unwind label %terminate.lpad, !dbg !11316

invoke.cont12:                                    ; preds = %ehcleanup10
  br label %eh.resume, !dbg !11319

eh.resume:                                        ; preds = %invoke.cont12
  %exn = load i8** %exn.slot, !dbg !11321
  %sel = load i32* %ehselector.slot, !dbg !11321
  %lpad.val = insertvalue { i8*, i32 } undef, i8* %exn, 0, !dbg !11321
  %lpad.val13 = insertvalue { i8*, i32 } %lpad.val, i32 %sel, 1, !dbg !11321
  resume { i8*, i32 } %lpad.val13, !dbg !11321

terminate.lpad:                                   ; preds = %ehcleanup10, %ehcleanup, %lpad
  %9 = landingpad { i8*, i32 } personality i8* bitcast (i32 (...)* @__gxx_personality_v0 to i8*)
          catch i8* null, !dbg !11323
  %10 = extractvalue { i8*, i32 } %9, 0, !dbg !11323
  call void @__clang_call_terminate(i8* %10) #15, !dbg !11323
  unreachable, !dbg !11323
}

; Function Attrs: uwtable
define linkonce_odr void @_ZNSt8_Rb_treeISsSt4pairIKSsSsESt10_Select1stIS2_ESt4lessISsESaIS2_EED2Ev(%"class.std::_Rb_tree"* %this) unnamed_addr #3 comdat align 2 {
entry:
  %this.addr = alloca %"class.std::_Rb_tree"*, align 8
  %exn.slot = alloca i8*
  %ehselector.slot = alloca i32
  store %"class.std::_Rb_tree"* %this, %"class.std::_Rb_tree"** %this.addr, align 8
  call void @llvm.dbg.declare(metadata %"class.std::_Rb_tree"** %this.addr, metadata !11327, metadata !10245), !dbg !11329
  %this1 = load %"class.std::_Rb_tree"** %this.addr
  %call = invoke %"struct.std::_Rb_tree_node"* @_ZNSt8_Rb_treeISsSt4pairIKSsSsESt10_Select1stIS2_ESt4lessISsESaIS2_EE8_M_beginEv(%"class.std::_Rb_tree"* %this1)
          to label %invoke.cont unwind label %lpad, !dbg !11330

invoke.cont:                                      ; preds = %entry
  invoke void @_ZNSt8_Rb_treeISsSt4pairIKSsSsESt10_Select1stIS2_ESt4lessISsESaIS2_EE8_M_eraseEPSt13_Rb_tree_nodeIS2_E(%"class.std::_Rb_tree"* %this1, %"struct.std::_Rb_tree_node"* %call)
          to label %invoke.cont2 unwind label %lpad, !dbg !11332

invoke.cont2:                                     ; preds = %invoke.cont
  %_M_impl = getelementptr inbounds %"class.std::_Rb_tree"* %this1, i32 0, i32 0, !dbg !11334
  call void @_ZNSt8_Rb_treeISsSt4pairIKSsSsESt10_Select1stIS2_ESt4lessISsESaIS2_EE13_Rb_tree_implIS6_Lb0EED2Ev(%"struct.std::_Rb_tree<std::basic_string<char>, std::pair<const std::basic_string<char>, std::basic_string<char> >, std::_Select1st<std::pair<const std::basic_string<char>, std::basic_string<char> > >, std::less<std::basic_string<char> >, std::allocator<std::pair<const std::basic_string<char>, std::basic_string<char> > > >::_Rb_tree_impl"* %_M_impl) #1, !dbg !11334
  ret void, !dbg !11336

lpad:                                             ; preds = %invoke.cont, %entry
  %0 = landingpad { i8*, i32 } personality i8* bitcast (i32 (...)* @__gxx_personality_v0 to i8*)
          cleanup, !dbg !11337
  %1 = extractvalue { i8*, i32 } %0, 0, !dbg !11337
  store i8* %1, i8** %exn.slot, !dbg !11337
  %2 = extractvalue { i8*, i32 } %0, 1, !dbg !11337
  store i32 %2, i32* %ehselector.slot, !dbg !11337
  %_M_impl3 = getelementptr inbounds %"class.std::_Rb_tree"* %this1, i32 0, i32 0, !dbg !11337
  call void @_ZNSt8_Rb_treeISsSt4pairIKSsSsESt10_Select1stIS2_ESt4lessISsESaIS2_EE13_Rb_tree_implIS6_Lb0EED2Ev(%"struct.std::_Rb_tree<std::basic_string<char>, std::pair<const std::basic_string<char>, std::basic_string<char> >, std::_Select1st<std::pair<const std::basic_string<char>, std::basic_string<char> > >, std::less<std::basic_string<char> >, std::allocator<std::pair<const std::basic_string<char>, std::basic_string<char> > > >::_Rb_tree_impl"* %_M_impl3) #1, !dbg !11337
  br label %eh.resume, !dbg !11337

eh.resume:                                        ; preds = %lpad
  %exn = load i8** %exn.slot, !dbg !11340
  %sel = load i32* %ehselector.slot, !dbg !11340
  %lpad.val = insertvalue { i8*, i32 } undef, i8* %exn, 0, !dbg !11340
  %lpad.val4 = insertvalue { i8*, i32 } %lpad.val, i32 %sel, 1, !dbg !11340
  resume { i8*, i32 } %lpad.val4, !dbg !11340
}

; Function Attrs: uwtable
define linkonce_odr void @_ZNSt8_Rb_treeISsSt4pairIKSsSsESt10_Select1stIS2_ESt4lessISsESaIS2_EE8_M_eraseEPSt13_Rb_tree_nodeIS2_E(%"class.std::_Rb_tree"* %this, %"struct.std::_Rb_tree_node"* %__x) #3 comdat align 2 {
entry:
  %this.addr = alloca %"class.std::_Rb_tree"*, align 8
  %__x.addr = alloca %"struct.std::_Rb_tree_node"*, align 8
  %__y = alloca %"struct.std::_Rb_tree_node"*, align 8
  store %"class.std::_Rb_tree"* %this, %"class.std::_Rb_tree"** %this.addr, align 8
  call void @llvm.dbg.declare(metadata %"class.std::_Rb_tree"** %this.addr, metadata !11342, metadata !10245), !dbg !11343
  store %"struct.std::_Rb_tree_node"* %__x, %"struct.std::_Rb_tree_node"** %__x.addr, align 8
  call void @llvm.dbg.declare(metadata %"struct.std::_Rb_tree_node"** %__x.addr, metadata !11344, metadata !10245), !dbg !11346
  %this1 = load %"class.std::_Rb_tree"** %this.addr
  br label %while.cond, !dbg !11347

while.cond:                                       ; preds = %while.body, %entry
  %0 = load %"struct.std::_Rb_tree_node"** %__x.addr, align 8, !dbg !11348
  %cmp = icmp ne %"struct.std::_Rb_tree_node"* %0, null, !dbg !11351
  br i1 %cmp, label %while.body, label %while.end, !dbg !11347

while.body:                                       ; preds = %while.cond
  %1 = load %"struct.std::_Rb_tree_node"** %__x.addr, align 8, !dbg !11352
  %2 = bitcast %"struct.std::_Rb_tree_node"* %1 to %"struct.std::_Rb_tree_node_base"*, !dbg !11352
  %call = call %"struct.std::_Rb_tree_node"* @_ZNSt8_Rb_treeISsSt4pairIKSsSsESt10_Select1stIS2_ESt4lessISsESaIS2_EE8_S_rightEPSt18_Rb_tree_node_base(%"struct.std::_Rb_tree_node_base"* %2), !dbg !11354
  call void @_ZNSt8_Rb_treeISsSt4pairIKSsSsESt10_Select1stIS2_ESt4lessISsESaIS2_EE8_M_eraseEPSt13_Rb_tree_nodeIS2_E(%"class.std::_Rb_tree"* %this1, %"struct.std::_Rb_tree_node"* %call), !dbg !11355
  call void @llvm.dbg.declare(metadata %"struct.std::_Rb_tree_node"** %__y, metadata !11356, metadata !10245), !dbg !11357
  %3 = load %"struct.std::_Rb_tree_node"** %__x.addr, align 8, !dbg !11358
  %4 = bitcast %"struct.std::_Rb_tree_node"* %3 to %"struct.std::_Rb_tree_node_base"*, !dbg !11358
  %call2 = call %"struct.std::_Rb_tree_node"* @_ZNSt8_Rb_treeISsSt4pairIKSsSsESt10_Select1stIS2_ESt4lessISsESaIS2_EE7_S_leftEPSt18_Rb_tree_node_base(%"struct.std::_Rb_tree_node_base"* %4), !dbg !11359
  store %"struct.std::_Rb_tree_node"* %call2, %"struct.std::_Rb_tree_node"** %__y, align 8, !dbg !11357
  %5 = load %"struct.std::_Rb_tree_node"** %__x.addr, align 8, !dbg !11360
  call void @_ZNSt8_Rb_treeISsSt4pairIKSsSsESt10_Select1stIS2_ESt4lessISsESaIS2_EE15_M_destroy_nodeEPSt13_Rb_tree_nodeIS2_E(%"class.std::_Rb_tree"* %this1, %"struct.std::_Rb_tree_node"* %5), !dbg !11361
  %6 = load %"struct.std::_Rb_tree_node"** %__y, align 8, !dbg !11362
  store %"struct.std::_Rb_tree_node"* %6, %"struct.std::_Rb_tree_node"** %__x.addr, align 8, !dbg !11363
  br label %while.cond, !dbg !11347

while.end:                                        ; preds = %while.cond
  ret void, !dbg !11364
}

; Function Attrs: nounwind uwtable
define linkonce_odr %"struct.std::_Rb_tree_node"* @_ZNSt8_Rb_treeISsSt4pairIKSsSsESt10_Select1stIS2_ESt4lessISsESaIS2_EE8_M_beginEv(%"class.std::_Rb_tree"* %this) #2 comdat align 2 {
entry:
  %this.addr = alloca %"class.std::_Rb_tree"*, align 8
  store %"class.std::_Rb_tree"* %this, %"class.std::_Rb_tree"** %this.addr, align 8
  call void @llvm.dbg.declare(metadata %"class.std::_Rb_tree"** %this.addr, metadata !11365, metadata !10245), !dbg !11366
  %this1 = load %"class.std::_Rb_tree"** %this.addr
  %_M_impl = getelementptr inbounds %"class.std::_Rb_tree"* %this1, i32 0, i32 0, !dbg !11367
  %_M_header = getelementptr inbounds %"struct.std::_Rb_tree<std::basic_string<char>, std::pair<const std::basic_string<char>, std::basic_string<char> >, std::_Select1st<std::pair<const std::basic_string<char>, std::basic_string<char> > >, std::less<std::basic_string<char> >, std::allocator<std::pair<const std::basic_string<char>, std::basic_string<char> > > >::_Rb_tree_impl"* %_M_impl, i32 0, i32 1, !dbg !11368
  %_M_parent = getelementptr inbounds %"struct.std::_Rb_tree_node_base"* %_M_header, i32 0, i32 1, !dbg !11369
  %0 = load %"struct.std::_Rb_tree_node_base"** %_M_parent, align 8, !dbg !11369
  %1 = bitcast %"struct.std::_Rb_tree_node_base"* %0 to %"struct.std::_Rb_tree_node"*, !dbg !11370
  ret %"struct.std::_Rb_tree_node"* %1, !dbg !11371
}

; Function Attrs: inlinehint nounwind uwtable
define linkonce_odr void @_ZNSt8_Rb_treeISsSt4pairIKSsSsESt10_Select1stIS2_ESt4lessISsESaIS2_EE13_Rb_tree_implIS6_Lb0EED2Ev(%"struct.std::_Rb_tree<std::basic_string<char>, std::pair<const std::basic_string<char>, std::basic_string<char> >, std::_Select1st<std::pair<const std::basic_string<char>, std::basic_string<char> > >, std::less<std::basic_string<char> >, std::allocator<std::pair<const std::basic_string<char>, std::basic_string<char> > > >::_Rb_tree_impl"* %this) unnamed_addr #8 comdat align 2 {
entry:
  %this.addr = alloca %"struct.std::_Rb_tree<std::basic_string<char>, std::pair<const std::basic_string<char>, std::basic_string<char> >, std::_Select1st<std::pair<const std::basic_string<char>, std::basic_string<char> > >, std::less<std::basic_string<char> >, std::allocator<std::pair<const std::basic_string<char>, std::basic_string<char> > > >::_Rb_tree_impl"*, align 8
  store %"struct.std::_Rb_tree<std::basic_string<char>, std::pair<const std::basic_string<char>, std::basic_string<char> >, std::_Select1st<std::pair<const std::basic_string<char>, std::basic_string<char> > >, std::less<std::basic_string<char> >, std::allocator<std::pair<const std::basic_string<char>, std::basic_string<char> > > >::_Rb_tree_impl"* %this, %"struct.std::_Rb_tree<std::basic_string<char>, std::pair<const std::basic_string<char>, std::basic_string<char> >, std::_Select1st<std::pair<const std::basic_string<char>, std::basic_string<char> > >, std::less<std::basic_string<char> >, std::allocator<std::pair<const std::basic_string<char>, std::basic_string<char> > > >::_Rb_tree_impl"** %this.addr, align 8
  call void @llvm.dbg.declare(metadata %"struct.std::_Rb_tree<std::basic_string<char>, std::pair<const std::basic_string<char>, std::basic_string<char> >, std::_Select1st<std::pair<const std::basic_string<char>, std::basic_string<char> > >, std::less<std::basic_string<char> >, std::allocator<std::pair<const std::basic_string<char>, std::basic_string<char> > > >::_Rb_tree_impl"** %this.addr, metadata !11372, metadata !10245), !dbg !11374
  %this1 = load %"struct.std::_Rb_tree<std::basic_string<char>, std::pair<const std::basic_string<char>, std::basic_string<char> >, std::_Select1st<std::pair<const std::basic_string<char>, std::basic_string<char> > >, std::less<std::basic_string<char> >, std::allocator<std::pair<const std::basic_string<char>, std::basic_string<char> > > >::_Rb_tree_impl"** %this.addr
  %0 = bitcast %"struct.std::_Rb_tree<std::basic_string<char>, std::pair<const std::basic_string<char>, std::basic_string<char> >, std::_Select1st<std::pair<const std::basic_string<char>, std::basic_string<char> > >, std::less<std::basic_string<char> >, std::allocator<std::pair<const std::basic_string<char>, std::basic_string<char> > > >::_Rb_tree_impl"* %this1 to %"class.std::allocator.16"*, !dbg !11375
  call void @_ZNSaISt13_Rb_tree_nodeISt4pairIKSsSsEEED2Ev(%"class.std::allocator.16"* %0) #1, !dbg !11375
  ret void, !dbg !11377
}

; Function Attrs: nounwind uwtable
define linkonce_odr %"struct.std::_Rb_tree_node"* @_ZNSt8_Rb_treeISsSt4pairIKSsSsESt10_Select1stIS2_ESt4lessISsESaIS2_EE8_S_rightEPSt18_Rb_tree_node_base(%"struct.std::_Rb_tree_node_base"* %__x) #2 comdat align 2 {
entry:
  %__x.addr = alloca %"struct.std::_Rb_tree_node_base"*, align 8
  store %"struct.std::_Rb_tree_node_base"* %__x, %"struct.std::_Rb_tree_node_base"** %__x.addr, align 8
  call void @llvm.dbg.declare(metadata %"struct.std::_Rb_tree_node_base"** %__x.addr, metadata !11378, metadata !10245), !dbg !11379
  %0 = load %"struct.std::_Rb_tree_node_base"** %__x.addr, align 8, !dbg !11380
  %_M_right = getelementptr inbounds %"struct.std::_Rb_tree_node_base"* %0, i32 0, i32 3, !dbg !11381
  %1 = load %"struct.std::_Rb_tree_node_base"** %_M_right, align 8, !dbg !11381
  %2 = bitcast %"struct.std::_Rb_tree_node_base"* %1 to %"struct.std::_Rb_tree_node"*, !dbg !11382
  ret %"struct.std::_Rb_tree_node"* %2, !dbg !11383
}

; Function Attrs: nounwind uwtable
define linkonce_odr %"struct.std::_Rb_tree_node"* @_ZNSt8_Rb_treeISsSt4pairIKSsSsESt10_Select1stIS2_ESt4lessISsESaIS2_EE7_S_leftEPSt18_Rb_tree_node_base(%"struct.std::_Rb_tree_node_base"* %__x) #2 comdat align 2 {
entry:
  %__x.addr = alloca %"struct.std::_Rb_tree_node_base"*, align 8
  store %"struct.std::_Rb_tree_node_base"* %__x, %"struct.std::_Rb_tree_node_base"** %__x.addr, align 8
  call void @llvm.dbg.declare(metadata %"struct.std::_Rb_tree_node_base"** %__x.addr, metadata !11384, metadata !10245), !dbg !11385
  %0 = load %"struct.std::_Rb_tree_node_base"** %__x.addr, align 8, !dbg !11386
  %_M_left = getelementptr inbounds %"struct.std::_Rb_tree_node_base"* %0, i32 0, i32 2, !dbg !11387
  %1 = load %"struct.std::_Rb_tree_node_base"** %_M_left, align 8, !dbg !11387
  %2 = bitcast %"struct.std::_Rb_tree_node_base"* %1 to %"struct.std::_Rb_tree_node"*, !dbg !11388
  ret %"struct.std::_Rb_tree_node"* %2, !dbg !11389
}

; Function Attrs: uwtable
define linkonce_odr void @_ZNSt8_Rb_treeISsSt4pairIKSsSsESt10_Select1stIS2_ESt4lessISsESaIS2_EE15_M_destroy_nodeEPSt13_Rb_tree_nodeIS2_E(%"class.std::_Rb_tree"* %this, %"struct.std::_Rb_tree_node"* %__p) #3 comdat align 2 {
entry:
  %this.addr = alloca %"class.std::_Rb_tree"*, align 8
  %__p.addr = alloca %"struct.std::_Rb_tree_node"*, align 8
  %temp.lvalue = alloca %"class.std::allocator.27", align 1
  %exn.slot = alloca i8*
  %ehselector.slot = alloca i32
  store %"class.std::_Rb_tree"* %this, %"class.std::_Rb_tree"** %this.addr, align 8
  call void @llvm.dbg.declare(metadata %"class.std::_Rb_tree"** %this.addr, metadata !11390, metadata !10245), !dbg !11391
  store %"struct.std::_Rb_tree_node"* %__p, %"struct.std::_Rb_tree_node"** %__p.addr, align 8
  call void @llvm.dbg.declare(metadata %"struct.std::_Rb_tree_node"** %__p.addr, metadata !11392, metadata !10245), !dbg !11393
  %this1 = load %"class.std::_Rb_tree"** %this.addr
  call void @_ZNKSt8_Rb_treeISsSt4pairIKSsSsESt10_Select1stIS2_ESt4lessISsESaIS2_EE13get_allocatorEv(%"class.std::allocator.27"* sret %temp.lvalue, %"class.std::_Rb_tree"* %this1), !dbg !11394
  %0 = bitcast %"class.std::allocator.27"* %temp.lvalue to %"class.__gnu_cxx::new_allocator.28"*, !dbg !11394
  %1 = load %"struct.std::_Rb_tree_node"** %__p.addr, align 8, !dbg !11395
  %_M_value_field = getelementptr inbounds %"struct.std::_Rb_tree_node"* %1, i32 0, i32 1, !dbg !11396
  %call = invoke %"struct.std::pair"* @_ZSt11__addressofISt4pairIKSsSsEEPT_RS3_(%"struct.std::pair"* dereferenceable(16) %_M_value_field)
          to label %invoke.cont unwind label %lpad, !dbg !11397

invoke.cont:                                      ; preds = %entry
  invoke void @_ZN9__gnu_cxx13new_allocatorISt4pairIKSsSsEE7destroyEPS3_(%"class.__gnu_cxx::new_allocator.28"* %0, %"struct.std::pair"* %call)
          to label %invoke.cont2 unwind label %lpad, !dbg !11398

invoke.cont2:                                     ; preds = %invoke.cont
  call void @_ZNSaISt4pairIKSsSsEED2Ev(%"class.std::allocator.27"* %temp.lvalue) #1, !dbg !11400
  %2 = load %"struct.std::_Rb_tree_node"** %__p.addr, align 8, !dbg !11402
  call void @_ZNSt8_Rb_treeISsSt4pairIKSsSsESt10_Select1stIS2_ESt4lessISsESaIS2_EE11_M_put_nodeEPSt13_Rb_tree_nodeIS2_E(%"class.std::_Rb_tree"* %this1, %"struct.std::_Rb_tree_node"* %2), !dbg !11403
  ret void, !dbg !11404

lpad:                                             ; preds = %invoke.cont, %entry
  %3 = landingpad { i8*, i32 } personality i8* bitcast (i32 (...)* @__gxx_personality_v0 to i8*)
          cleanup, !dbg !11404
  %4 = extractvalue { i8*, i32 } %3, 0, !dbg !11404
  store i8* %4, i8** %exn.slot, !dbg !11404
  %5 = extractvalue { i8*, i32 } %3, 1, !dbg !11404
  store i32 %5, i32* %ehselector.slot, !dbg !11404
  call void @_ZNSaISt4pairIKSsSsEED2Ev(%"class.std::allocator.27"* %temp.lvalue) #1, !dbg !11394
  br label %eh.resume, !dbg !11394

eh.resume:                                        ; preds = %lpad
  %exn = load i8** %exn.slot, !dbg !11405
  %sel = load i32* %ehselector.slot, !dbg !11405
  %lpad.val = insertvalue { i8*, i32 } undef, i8* %exn, 0, !dbg !11405
  %lpad.val3 = insertvalue { i8*, i32 } %lpad.val, i32 %sel, 1, !dbg !11405
  resume { i8*, i32 } %lpad.val3, !dbg !11405
}

; Function Attrs: uwtable
define linkonce_odr void @_ZNKSt8_Rb_treeISsSt4pairIKSsSsESt10_Select1stIS2_ESt4lessISsESaIS2_EE13get_allocatorEv(%"class.std::allocator.27"* noalias sret %agg.result, %"class.std::_Rb_tree"* %this) #3 comdat align 2 {
entry:
  %this.addr = alloca %"class.std::_Rb_tree"*, align 8
  store %"class.std::_Rb_tree"* %this, %"class.std::_Rb_tree"** %this.addr, align 8
  call void @llvm.dbg.declare(metadata %"class.std::_Rb_tree"** %this.addr, metadata !11407, metadata !10245), !dbg !11409
  %this1 = load %"class.std::_Rb_tree"** %this.addr
  %call = call dereferenceable(1) %"class.std::allocator.16"* @_ZNKSt8_Rb_treeISsSt4pairIKSsSsESt10_Select1stIS2_ESt4lessISsESaIS2_EE21_M_get_Node_allocatorEv(%"class.std::_Rb_tree"* %this1), !dbg !11410
  call void @_ZNSaISt4pairIKSsSsEEC2ISt13_Rb_tree_nodeIS1_EEERKSaIT_E(%"class.std::allocator.27"* %agg.result, %"class.std::allocator.16"* dereferenceable(1) %call) #1, !dbg !11411
  ret void, !dbg !11412
}

; Function Attrs: uwtable
define linkonce_odr void @_ZN9__gnu_cxx13new_allocatorISt4pairIKSsSsEE7destroyEPS3_(%"class.__gnu_cxx::new_allocator.28"* %this, %"struct.std::pair"* %__p) #3 comdat align 2 {
entry:
  %this.addr = alloca %"class.__gnu_cxx::new_allocator.28"*, align 8
  %__p.addr = alloca %"struct.std::pair"*, align 8
  store %"class.__gnu_cxx::new_allocator.28"* %this, %"class.__gnu_cxx::new_allocator.28"** %this.addr, align 8
  call void @llvm.dbg.declare(metadata %"class.__gnu_cxx::new_allocator.28"** %this.addr, metadata !11413, metadata !10245), !dbg !11415
  store %"struct.std::pair"* %__p, %"struct.std::pair"** %__p.addr, align 8
  call void @llvm.dbg.declare(metadata %"struct.std::pair"** %__p.addr, metadata !11416, metadata !10245), !dbg !11418
  %this1 = load %"class.__gnu_cxx::new_allocator.28"** %this.addr
  %0 = load %"struct.std::pair"** %__p.addr, align 8, !dbg !11419
  call void @_ZNSt4pairIKSsSsED2Ev(%"struct.std::pair"* %0), !dbg !11419
  ret void, !dbg !11420
}

; Function Attrs: inlinehint nounwind uwtable
define linkonce_odr %"struct.std::pair"* @_ZSt11__addressofISt4pairIKSsSsEEPT_RS3_(%"struct.std::pair"* dereferenceable(16) %__r) #8 comdat {
entry:
  %__r.addr = alloca %"struct.std::pair"*, align 8
  store %"struct.std::pair"* %__r, %"struct.std::pair"** %__r.addr, align 8
  call void @llvm.dbg.declare(metadata %"struct.std::pair"** %__r.addr, metadata !11421, metadata !10245), !dbg !11423
  %0 = load %"struct.std::pair"** %__r.addr, align 8, !dbg !11424
  %1 = bitcast %"struct.std::pair"* %0 to i8*, !dbg !11425
  %2 = bitcast i8* %1 to %"struct.std::pair"*, !dbg !11426
  ret %"struct.std::pair"* %2, !dbg !11427
}

; Function Attrs: nounwind uwtable
define linkonce_odr void @_ZNSaISt4pairIKSsSsEED2Ev(%"class.std::allocator.27"* %this) unnamed_addr #2 comdat align 2 {
entry:
  %this.addr = alloca %"class.std::allocator.27"*, align 8
  store %"class.std::allocator.27"* %this, %"class.std::allocator.27"** %this.addr, align 8
  call void @llvm.dbg.declare(metadata %"class.std::allocator.27"** %this.addr, metadata !11428, metadata !10245), !dbg !11430
  %this1 = load %"class.std::allocator.27"** %this.addr
  %0 = bitcast %"class.std::allocator.27"* %this1 to %"class.__gnu_cxx::new_allocator.28"*, !dbg !11431
  call void @_ZN9__gnu_cxx13new_allocatorISt4pairIKSsSsEED2Ev(%"class.__gnu_cxx::new_allocator.28"* %0) #1, !dbg !11431
  ret void, !dbg !11433
}

; Function Attrs: uwtable
define linkonce_odr void @_ZNSt8_Rb_treeISsSt4pairIKSsSsESt10_Select1stIS2_ESt4lessISsESaIS2_EE11_M_put_nodeEPSt13_Rb_tree_nodeIS2_E(%"class.std::_Rb_tree"* %this, %"struct.std::_Rb_tree_node"* %__p) #3 comdat align 2 {
entry:
  %this.addr = alloca %"class.std::_Rb_tree"*, align 8
  %__p.addr = alloca %"struct.std::_Rb_tree_node"*, align 8
  store %"class.std::_Rb_tree"* %this, %"class.std::_Rb_tree"** %this.addr, align 8
  call void @llvm.dbg.declare(metadata %"class.std::_Rb_tree"** %this.addr, metadata !11434, metadata !10245), !dbg !11435
  store %"struct.std::_Rb_tree_node"* %__p, %"struct.std::_Rb_tree_node"** %__p.addr, align 8
  call void @llvm.dbg.declare(metadata %"struct.std::_Rb_tree_node"** %__p.addr, metadata !11436, metadata !10245), !dbg !11437
  %this1 = load %"class.std::_Rb_tree"** %this.addr
  %_M_impl = getelementptr inbounds %"class.std::_Rb_tree"* %this1, i32 0, i32 0, !dbg !11438
  %0 = bitcast %"struct.std::_Rb_tree<std::basic_string<char>, std::pair<const std::basic_string<char>, std::basic_string<char> >, std::_Select1st<std::pair<const std::basic_string<char>, std::basic_string<char> > >, std::less<std::basic_string<char> >, std::allocator<std::pair<const std::basic_string<char>, std::basic_string<char> > > >::_Rb_tree_impl"* %_M_impl to %"class.std::allocator.16"*, !dbg !11438
  %1 = bitcast %"class.std::allocator.16"* %0 to %"class.__gnu_cxx::new_allocator.17"*, !dbg !11438
  %2 = load %"struct.std::_Rb_tree_node"** %__p.addr, align 8, !dbg !11439
  call void @_ZN9__gnu_cxx13new_allocatorISt13_Rb_tree_nodeISt4pairIKSsSsEEE10deallocateEPS5_m(%"class.__gnu_cxx::new_allocator.17"* %1, %"struct.std::_Rb_tree_node"* %2, i64 1), !dbg !11438
  ret void, !dbg !11440
}

; Function Attrs: nounwind uwtable
define linkonce_odr dereferenceable(1) %"class.std::allocator.16"* @_ZNKSt8_Rb_treeISsSt4pairIKSsSsESt10_Select1stIS2_ESt4lessISsESaIS2_EE21_M_get_Node_allocatorEv(%"class.std::_Rb_tree"* %this) #2 comdat align 2 {
entry:
  %this.addr = alloca %"class.std::_Rb_tree"*, align 8
  store %"class.std::_Rb_tree"* %this, %"class.std::_Rb_tree"** %this.addr, align 8
  call void @llvm.dbg.declare(metadata %"class.std::_Rb_tree"** %this.addr, metadata !11441, metadata !10245), !dbg !11442
  %this1 = load %"class.std::_Rb_tree"** %this.addr
  %_M_impl = getelementptr inbounds %"class.std::_Rb_tree"* %this1, i32 0, i32 0, !dbg !11443
  %0 = bitcast %"struct.std::_Rb_tree<std::basic_string<char>, std::pair<const std::basic_string<char>, std::basic_string<char> >, std::_Select1st<std::pair<const std::basic_string<char>, std::basic_string<char> > >, std::less<std::basic_string<char> >, std::allocator<std::pair<const std::basic_string<char>, std::basic_string<char> > > >::_Rb_tree_impl"* %_M_impl to %"class.std::allocator.16"*, !dbg !11444
  ret %"class.std::allocator.16"* %0, !dbg !11445
}

; Function Attrs: nounwind uwtable
define linkonce_odr void @_ZNSaISt4pairIKSsSsEEC2ISt13_Rb_tree_nodeIS1_EEERKSaIT_E(%"class.std::allocator.27"* %this, %"class.std::allocator.16"* dereferenceable(1)) unnamed_addr #2 comdat align 2 {
entry:
  %this.addr = alloca %"class.std::allocator.27"*, align 8
  %.addr = alloca %"class.std::allocator.16"*, align 8
  store %"class.std::allocator.27"* %this, %"class.std::allocator.27"** %this.addr, align 8
  call void @llvm.dbg.declare(metadata %"class.std::allocator.27"** %this.addr, metadata !11446, metadata !10245), !dbg !11447
  store %"class.std::allocator.16"* %0, %"class.std::allocator.16"** %.addr, align 8
  call void @llvm.dbg.declare(metadata %"class.std::allocator.16"** %.addr, metadata !11448, metadata !10245), !dbg !11450
  %this1 = load %"class.std::allocator.27"** %this.addr
  %1 = bitcast %"class.std::allocator.27"* %this1 to %"class.__gnu_cxx::new_allocator.28"*, !dbg !11451
  call void @_ZN9__gnu_cxx13new_allocatorISt4pairIKSsSsEEC2Ev(%"class.__gnu_cxx::new_allocator.28"* %1) #1, !dbg !11452
  ret void, !dbg !11453
}

; Function Attrs: nounwind uwtable
define linkonce_odr void @_ZN9__gnu_cxx13new_allocatorISt4pairIKSsSsEEC2Ev(%"class.__gnu_cxx::new_allocator.28"* %this) unnamed_addr #2 comdat align 2 {
entry:
  %this.addr = alloca %"class.__gnu_cxx::new_allocator.28"*, align 8
  store %"class.__gnu_cxx::new_allocator.28"* %this, %"class.__gnu_cxx::new_allocator.28"** %this.addr, align 8
  call void @llvm.dbg.declare(metadata %"class.__gnu_cxx::new_allocator.28"** %this.addr, metadata !11454, metadata !10245), !dbg !11455
  %this1 = load %"class.__gnu_cxx::new_allocator.28"** %this.addr
  ret void, !dbg !11456
}

; Function Attrs: inlinehint uwtable
define linkonce_odr void @_ZNSt4pairIKSsSsED2Ev(%"struct.std::pair"* %this) unnamed_addr #6 comdat align 2 {
entry:
  %this.addr = alloca %"struct.std::pair"*, align 8
  %exn.slot = alloca i8*
  %ehselector.slot = alloca i32
  store %"struct.std::pair"* %this, %"struct.std::pair"** %this.addr, align 8
  call void @llvm.dbg.declare(metadata %"struct.std::pair"** %this.addr, metadata !11457, metadata !10245), !dbg !11458
  %this1 = load %"struct.std::pair"** %this.addr
  %second = getelementptr inbounds %"struct.std::pair"* %this1, i32 0, i32 1, !dbg !11459
  invoke void @_ZNSsD1Ev(%"class.std::basic_string"* %second)
          to label %invoke.cont unwind label %lpad, !dbg !11459

invoke.cont:                                      ; preds = %entry
  %first = getelementptr inbounds %"struct.std::pair"* %this1, i32 0, i32 0, !dbg !11461
  call void @_ZNSsD1Ev(%"class.std::basic_string"* %first), !dbg !11461
  ret void, !dbg !11463

lpad:                                             ; preds = %entry
  %0 = landingpad { i8*, i32 } personality i8* bitcast (i32 (...)* @__gxx_personality_v0 to i8*)
          cleanup, !dbg !11464
  %1 = extractvalue { i8*, i32 } %0, 0, !dbg !11464
  store i8* %1, i8** %exn.slot, !dbg !11464
  %2 = extractvalue { i8*, i32 } %0, 1, !dbg !11464
  store i32 %2, i32* %ehselector.slot, !dbg !11464
  %first2 = getelementptr inbounds %"struct.std::pair"* %this1, i32 0, i32 0, !dbg !11459
  invoke void @_ZNSsD1Ev(%"class.std::basic_string"* %first2)
          to label %invoke.cont3 unwind label %terminate.lpad, !dbg !11459

invoke.cont3:                                     ; preds = %lpad
  br label %eh.resume, !dbg !11466

eh.resume:                                        ; preds = %invoke.cont3
  %exn = load i8** %exn.slot, !dbg !11468
  %sel = load i32* %ehselector.slot, !dbg !11468
  %lpad.val = insertvalue { i8*, i32 } undef, i8* %exn, 0, !dbg !11468
  %lpad.val4 = insertvalue { i8*, i32 } %lpad.val, i32 %sel, 1, !dbg !11468
  resume { i8*, i32 } %lpad.val4, !dbg !11468

terminate.lpad:                                   ; preds = %lpad
  %3 = landingpad { i8*, i32 } personality i8* bitcast (i32 (...)* @__gxx_personality_v0 to i8*)
          catch i8* null, !dbg !11470
  %4 = extractvalue { i8*, i32 } %3, 0, !dbg !11470
  call void @__clang_call_terminate(i8* %4) #15, !dbg !11470
  unreachable, !dbg !11470
}

; Function Attrs: nounwind uwtable
define linkonce_odr void @_ZN9__gnu_cxx13new_allocatorISt4pairIKSsSsEED2Ev(%"class.__gnu_cxx::new_allocator.28"* %this) unnamed_addr #2 comdat align 2 {
entry:
  %this.addr = alloca %"class.__gnu_cxx::new_allocator.28"*, align 8
  store %"class.__gnu_cxx::new_allocator.28"* %this, %"class.__gnu_cxx::new_allocator.28"** %this.addr, align 8
  call void @llvm.dbg.declare(metadata %"class.__gnu_cxx::new_allocator.28"** %this.addr, metadata !11472, metadata !10245), !dbg !11473
  %this1 = load %"class.__gnu_cxx::new_allocator.28"** %this.addr
  ret void, !dbg !11474
}

; Function Attrs: nounwind uwtable
define linkonce_odr void @_ZN9__gnu_cxx13new_allocatorISt13_Rb_tree_nodeISt4pairIKSsSsEEE10deallocateEPS5_m(%"class.__gnu_cxx::new_allocator.17"* %this, %"struct.std::_Rb_tree_node"* %__p, i64) #2 comdat align 2 {
entry:
  %this.addr = alloca %"class.__gnu_cxx::new_allocator.17"*, align 8
  %__p.addr = alloca %"struct.std::_Rb_tree_node"*, align 8
  %.addr = alloca i64, align 8
  store %"class.__gnu_cxx::new_allocator.17"* %this, %"class.__gnu_cxx::new_allocator.17"** %this.addr, align 8
  call void @llvm.dbg.declare(metadata %"class.__gnu_cxx::new_allocator.17"** %this.addr, metadata !11475, metadata !10245), !dbg !11477
  store %"struct.std::_Rb_tree_node"* %__p, %"struct.std::_Rb_tree_node"** %__p.addr, align 8
  call void @llvm.dbg.declare(metadata %"struct.std::_Rb_tree_node"** %__p.addr, metadata !11478, metadata !10245), !dbg !11479
  store i64 %0, i64* %.addr, align 8
  call void @llvm.dbg.declare(metadata i64* %.addr, metadata !11480, metadata !10245), !dbg !11481
  %this1 = load %"class.__gnu_cxx::new_allocator.17"** %this.addr
  %1 = load %"struct.std::_Rb_tree_node"** %__p.addr, align 8, !dbg !11482
  %2 = bitcast %"struct.std::_Rb_tree_node"* %1 to i8*, !dbg !11482
  call void @_ZdlPv(i8* %2) #1, !dbg !11483
  ret void, !dbg !11484
}

; Function Attrs: nobuiltin nounwind
declare void @_ZdlPv(i8*) #9

; Function Attrs: nounwind uwtable
define linkonce_odr void @_ZNSaISt13_Rb_tree_nodeISt4pairIKSsSsEEED2Ev(%"class.std::allocator.16"* %this) unnamed_addr #2 comdat align 2 {
entry:
  %this.addr = alloca %"class.std::allocator.16"*, align 8
  store %"class.std::allocator.16"* %this, %"class.std::allocator.16"** %this.addr, align 8
  call void @llvm.dbg.declare(metadata %"class.std::allocator.16"** %this.addr, metadata !11485, metadata !10245), !dbg !11487
  %this1 = load %"class.std::allocator.16"** %this.addr
  %0 = bitcast %"class.std::allocator.16"* %this1 to %"class.__gnu_cxx::new_allocator.17"*, !dbg !11488
  call void @_ZN9__gnu_cxx13new_allocatorISt13_Rb_tree_nodeISt4pairIKSsSsEEED2Ev(%"class.__gnu_cxx::new_allocator.17"* %0) #1, !dbg !11488
  ret void, !dbg !11490
}

; Function Attrs: nounwind uwtable
define linkonce_odr void @_ZN9__gnu_cxx13new_allocatorISt13_Rb_tree_nodeISt4pairIKSsSsEEED2Ev(%"class.__gnu_cxx::new_allocator.17"* %this) unnamed_addr #2 comdat align 2 {
entry:
  %this.addr = alloca %"class.__gnu_cxx::new_allocator.17"*, align 8
  store %"class.__gnu_cxx::new_allocator.17"* %this, %"class.__gnu_cxx::new_allocator.17"** %this.addr, align 8
  call void @llvm.dbg.declare(metadata %"class.__gnu_cxx::new_allocator.17"** %this.addr, metadata !11491, metadata !10245), !dbg !11492
  %this1 = load %"class.__gnu_cxx::new_allocator.17"** %this.addr
  ret void, !dbg !11493
}

; Function Attrs: uwtable
define linkonce_odr void @_ZN5boost10shared_ptrIN3ros10Subscriber4ImplEEC2Ev(%"class.boost::shared_ptr"* %this) unnamed_addr #3 comdat align 2 {
entry:
  %this.addr = alloca %"class.boost::shared_ptr"*, align 8
  store %"class.boost::shared_ptr"* %this, %"class.boost::shared_ptr"** %this.addr, align 8
  call void @llvm.dbg.declare(metadata %"class.boost::shared_ptr"** %this.addr, metadata !11494, metadata !10245), !dbg !11496
  %this1 = load %"class.boost::shared_ptr"** %this.addr
  %px = getelementptr inbounds %"class.boost::shared_ptr"* %this1, i32 0, i32 0, !dbg !11497
  store %"class.ros::Subscriber::Impl"* null, %"class.ros::Subscriber::Impl"** %px, align 8, !dbg !11497
  %pn = getelementptr inbounds %"class.boost::shared_ptr"* %this1, i32 0, i32 1, !dbg !11498
  call void @_ZN5boost6detail12shared_countC2Ev(%"class.boost::detail::shared_count"* %pn), !dbg !11498
  ret void, !dbg !11499
}

; Function Attrs: nounwind uwtable
define linkonce_odr void @_ZN5boost6detail12shared_countC2Ev(%"class.boost::detail::shared_count"* %this) unnamed_addr #2 comdat align 2 {
entry:
  %this.addr = alloca %"class.boost::detail::shared_count"*, align 8
  store %"class.boost::detail::shared_count"* %this, %"class.boost::detail::shared_count"** %this.addr, align 8
  call void @llvm.dbg.declare(metadata %"class.boost::detail::shared_count"** %this.addr, metadata !11500, metadata !10245), !dbg !11502
  %this1 = load %"class.boost::detail::shared_count"** %this.addr
  %pi_ = getelementptr inbounds %"class.boost::detail::shared_count"* %this1, i32 0, i32 0, !dbg !11503
  store %"class.boost::detail::sp_counted_base"* null, %"class.boost::detail::sp_counted_base"** %pi_, align 8, !dbg !11503
  ret void, !dbg !11504
}

; Function Attrs: uwtable
define linkonce_odr void @_ZN5boost10shared_ptrIN3ros9Publisher4ImplEEC2Ev(%"class.boost::shared_ptr.21"* %this) unnamed_addr #3 comdat align 2 {
entry:
  %this.addr = alloca %"class.boost::shared_ptr.21"*, align 8
  store %"class.boost::shared_ptr.21"* %this, %"class.boost::shared_ptr.21"** %this.addr, align 8
  call void @llvm.dbg.declare(metadata %"class.boost::shared_ptr.21"** %this.addr, metadata !11505, metadata !10245), !dbg !11507
  %this1 = load %"class.boost::shared_ptr.21"** %this.addr
  %px = getelementptr inbounds %"class.boost::shared_ptr.21"* %this1, i32 0, i32 0, !dbg !11508
  store %"class.ros::Publisher::Impl"* null, %"class.ros::Publisher::Impl"** %px, align 8, !dbg !11508
  %pn = getelementptr inbounds %"class.boost::shared_ptr.21"* %this1, i32 0, i32 1, !dbg !11509
  call void @_ZN5boost6detail12shared_countC2Ev(%"class.boost::detail::shared_count"* %pn), !dbg !11509
  ret void, !dbg !11510
}

; Function Attrs: uwtable
define linkonce_odr dereferenceable(16) %"class.boost::shared_ptr.21"* @_ZN5boost10shared_ptrIN3ros9Publisher4ImplEEaSERKS4_(%"class.boost::shared_ptr.21"* %this, %"class.boost::shared_ptr.21"* dereferenceable(16) %r) #3 comdat align 2 {
entry:
  %this.addr = alloca %"class.boost::shared_ptr.21"*, align 8
  %r.addr = alloca %"class.boost::shared_ptr.21"*, align 8
  %temp.lvalue = alloca %"class.boost::shared_ptr.21", align 8
  %exn.slot = alloca i8*
  %ehselector.slot = alloca i32
  store %"class.boost::shared_ptr.21"* %this, %"class.boost::shared_ptr.21"** %this.addr, align 8
  call void @llvm.dbg.declare(metadata %"class.boost::shared_ptr.21"** %this.addr, metadata !11511, metadata !10245), !dbg !11512
  store %"class.boost::shared_ptr.21"* %r, %"class.boost::shared_ptr.21"** %r.addr, align 8
  call void @llvm.dbg.declare(metadata %"class.boost::shared_ptr.21"** %r.addr, metadata !11513, metadata !10245), !dbg !11515
  %this1 = load %"class.boost::shared_ptr.21"** %this.addr
  %0 = load %"class.boost::shared_ptr.21"** %r.addr, align 8, !dbg !11516
  call void @_ZN5boost10shared_ptrIN3ros9Publisher4ImplEEC2ERKS4_(%"class.boost::shared_ptr.21"* %temp.lvalue, %"class.boost::shared_ptr.21"* dereferenceable(16) %0), !dbg !11517
  invoke void @_ZN5boost10shared_ptrIN3ros9Publisher4ImplEE4swapERS4_(%"class.boost::shared_ptr.21"* %temp.lvalue, %"class.boost::shared_ptr.21"* dereferenceable(16) %this1)
          to label %invoke.cont unwind label %lpad, !dbg !11517

invoke.cont:                                      ; preds = %entry
  call void @_ZN5boost10shared_ptrIN3ros9Publisher4ImplEED2Ev(%"class.boost::shared_ptr.21"* %temp.lvalue), !dbg !11518
  ret %"class.boost::shared_ptr.21"* %this1, !dbg !11520

lpad:                                             ; preds = %entry
  %1 = landingpad { i8*, i32 } personality i8* bitcast (i32 (...)* @__gxx_personality_v0 to i8*)
          cleanup, !dbg !11521
  %2 = extractvalue { i8*, i32 } %1, 0, !dbg !11521
  store i8* %2, i8** %exn.slot, !dbg !11521
  %3 = extractvalue { i8*, i32 } %1, 1, !dbg !11521
  store i32 %3, i32* %ehselector.slot, !dbg !11521
  invoke void @_ZN5boost10shared_ptrIN3ros9Publisher4ImplEED2Ev(%"class.boost::shared_ptr.21"* %temp.lvalue)
          to label %invoke.cont2 unwind label %terminate.lpad, !dbg !11517

invoke.cont2:                                     ; preds = %lpad
  br label %eh.resume, !dbg !11522

eh.resume:                                        ; preds = %invoke.cont2
  %exn = load i8** %exn.slot, !dbg !11524
  %sel = load i32* %ehselector.slot, !dbg !11524
  %lpad.val = insertvalue { i8*, i32 } undef, i8* %exn, 0, !dbg !11524
  %lpad.val3 = insertvalue { i8*, i32 } %lpad.val, i32 %sel, 1, !dbg !11524
  resume { i8*, i32 } %lpad.val3, !dbg !11524

terminate.lpad:                                   ; preds = %lpad
  %4 = landingpad { i8*, i32 } personality i8* bitcast (i32 (...)* @__gxx_personality_v0 to i8*)
          catch i8* null, !dbg !11526
  %5 = extractvalue { i8*, i32 } %4, 0, !dbg !11526
  call void @__clang_call_terminate(i8* %5) #15, !dbg !11526
  unreachable, !dbg !11526
}

; Function Attrs: inlinehint uwtable
define linkonce_odr void @_ZN5boost10shared_ptrIN3ros9Publisher4ImplEEC2ERKS4_(%"class.boost::shared_ptr.21"* %this, %"class.boost::shared_ptr.21"* dereferenceable(16)) unnamed_addr #6 comdat align 2 {
entry:
  %this.addr = alloca %"class.boost::shared_ptr.21"*, align 8
  %.addr = alloca %"class.boost::shared_ptr.21"*, align 8
  store %"class.boost::shared_ptr.21"* %this, %"class.boost::shared_ptr.21"** %this.addr, align 8
  call void @llvm.dbg.declare(metadata %"class.boost::shared_ptr.21"** %this.addr, metadata !11528, metadata !10245), !dbg !11529
  store %"class.boost::shared_ptr.21"* %0, %"class.boost::shared_ptr.21"** %.addr, align 8
  call void @llvm.dbg.declare(metadata %"class.boost::shared_ptr.21"** %.addr, metadata !11530, metadata !10245), !dbg !11529
  %this1 = load %"class.boost::shared_ptr.21"** %this.addr
  %px = getelementptr inbounds %"class.boost::shared_ptr.21"* %this1, i32 0, i32 0, !dbg !11531
  %1 = load %"class.boost::shared_ptr.21"** %.addr, align 8, !dbg !11531
  %px2 = getelementptr inbounds %"class.boost::shared_ptr.21"* %1, i32 0, i32 0, !dbg !11531
  %2 = load %"class.ros::Publisher::Impl"** %px2, align 8, !dbg !11531
  store %"class.ros::Publisher::Impl"* %2, %"class.ros::Publisher::Impl"** %px, align 8, !dbg !11531
  %pn = getelementptr inbounds %"class.boost::shared_ptr.21"* %this1, i32 0, i32 1, !dbg !11531
  %3 = load %"class.boost::shared_ptr.21"** %.addr, align 8, !dbg !11531
  %pn3 = getelementptr inbounds %"class.boost::shared_ptr.21"* %3, i32 0, i32 1, !dbg !11531
  call void @_ZN5boost6detail12shared_countC2ERKS1_(%"class.boost::detail::shared_count"* %pn, %"class.boost::detail::shared_count"* dereferenceable(8) %pn3), !dbg !11531
  %px4 = getelementptr inbounds %"class.boost::shared_ptr.21"* %this1, i32 0, i32 0, !dbg !11531
  %4 = load %"class.boost::shared_ptr.21"** %.addr, align 8, !dbg !11531
  %px5 = getelementptr inbounds %"class.boost::shared_ptr.21"* %4, i32 0, i32 0, !dbg !11531
  %5 = load %"class.ros::Publisher::Impl"** %px5, align 8, !dbg !11531
  store %"class.ros::Publisher::Impl"* %5, %"class.ros::Publisher::Impl"** %px4, align 8, !dbg !11531
  ret void, !dbg !11531
}

; Function Attrs: uwtable
define linkonce_odr void @_ZN5boost10shared_ptrIN3ros9Publisher4ImplEE4swapERS4_(%"class.boost::shared_ptr.21"* %this, %"class.boost::shared_ptr.21"* dereferenceable(16) %other) #3 comdat align 2 {
entry:
  %this.addr = alloca %"class.boost::shared_ptr.21"*, align 8
  %other.addr = alloca %"class.boost::shared_ptr.21"*, align 8
  store %"class.boost::shared_ptr.21"* %this, %"class.boost::shared_ptr.21"** %this.addr, align 8
  call void @llvm.dbg.declare(metadata %"class.boost::shared_ptr.21"** %this.addr, metadata !11532, metadata !10245), !dbg !11533
  store %"class.boost::shared_ptr.21"* %other, %"class.boost::shared_ptr.21"** %other.addr, align 8
  call void @llvm.dbg.declare(metadata %"class.boost::shared_ptr.21"** %other.addr, metadata !11534, metadata !10245), !dbg !11535
  %this1 = load %"class.boost::shared_ptr.21"** %this.addr
  %px = getelementptr inbounds %"class.boost::shared_ptr.21"* %this1, i32 0, i32 0, !dbg !11536
  %0 = load %"class.boost::shared_ptr.21"** %other.addr, align 8, !dbg !11537
  %px2 = getelementptr inbounds %"class.boost::shared_ptr.21"* %0, i32 0, i32 0, !dbg !11538
  call void @_ZSt4swapIPN3ros9Publisher4ImplEEvRT_S5_(%"class.ros::Publisher::Impl"** dereferenceable(8) %px, %"class.ros::Publisher::Impl"** dereferenceable(8) %px2), !dbg !11539
  %pn = getelementptr inbounds %"class.boost::shared_ptr.21"* %this1, i32 0, i32 1, !dbg !11540
  %1 = load %"class.boost::shared_ptr.21"** %other.addr, align 8, !dbg !11541
  %pn3 = getelementptr inbounds %"class.boost::shared_ptr.21"* %1, i32 0, i32 1, !dbg !11542
  call void @_ZN5boost6detail12shared_count4swapERS1_(%"class.boost::detail::shared_count"* %pn, %"class.boost::detail::shared_count"* dereferenceable(8) %pn3), !dbg !11540
  ret void, !dbg !11543
}

; Function Attrs: inlinehint uwtable
define linkonce_odr void @_ZN5boost10shared_ptrIN3ros9Publisher4ImplEED2Ev(%"class.boost::shared_ptr.21"* %this) unnamed_addr #6 comdat align 2 {
entry:
  %this.addr = alloca %"class.boost::shared_ptr.21"*, align 8
  store %"class.boost::shared_ptr.21"* %this, %"class.boost::shared_ptr.21"** %this.addr, align 8
  call void @llvm.dbg.declare(metadata %"class.boost::shared_ptr.21"** %this.addr, metadata !11544, metadata !10245), !dbg !11545
  %this1 = load %"class.boost::shared_ptr.21"** %this.addr
  %pn = getelementptr inbounds %"class.boost::shared_ptr.21"* %this1, i32 0, i32 1, !dbg !11546
  call void @_ZN5boost6detail12shared_countD2Ev(%"class.boost::detail::shared_count"* %pn), !dbg !11546
  ret void, !dbg !11548
}

; Function Attrs: uwtable
define linkonce_odr void @_ZN5boost6detail12shared_countC2ERKS1_(%"class.boost::detail::shared_count"* %this, %"class.boost::detail::shared_count"* dereferenceable(8) %r) unnamed_addr #3 comdat align 2 {
entry:
  %this.addr = alloca %"class.boost::detail::shared_count"*, align 8
  %r.addr = alloca %"class.boost::detail::shared_count"*, align 8
  store %"class.boost::detail::shared_count"* %this, %"class.boost::detail::shared_count"** %this.addr, align 8
  call void @llvm.dbg.declare(metadata %"class.boost::detail::shared_count"** %this.addr, metadata !11549, metadata !10245), !dbg !11550
  store %"class.boost::detail::shared_count"* %r, %"class.boost::detail::shared_count"** %r.addr, align 8
  call void @llvm.dbg.declare(metadata %"class.boost::detail::shared_count"** %r.addr, metadata !11551, metadata !10245), !dbg !11553
  %this1 = load %"class.boost::detail::shared_count"** %this.addr
  %pi_ = getelementptr inbounds %"class.boost::detail::shared_count"* %this1, i32 0, i32 0, !dbg !11554
  %0 = load %"class.boost::detail::shared_count"** %r.addr, align 8, !dbg !11555
  %pi_2 = getelementptr inbounds %"class.boost::detail::shared_count"* %0, i32 0, i32 0, !dbg !11556
  %1 = load %"class.boost::detail::sp_counted_base"** %pi_2, align 8, !dbg !11556
  store %"class.boost::detail::sp_counted_base"* %1, %"class.boost::detail::sp_counted_base"** %pi_, align 8, !dbg !11554
  %pi_3 = getelementptr inbounds %"class.boost::detail::shared_count"* %this1, i32 0, i32 0, !dbg !11557
  %2 = load %"class.boost::detail::sp_counted_base"** %pi_3, align 8, !dbg !11557
  %cmp = icmp ne %"class.boost::detail::sp_counted_base"* %2, null, !dbg !11560
  br i1 %cmp, label %if.then, label %if.end, !dbg !11561

if.then:                                          ; preds = %entry
  %pi_4 = getelementptr inbounds %"class.boost::detail::shared_count"* %this1, i32 0, i32 0, !dbg !11562
  %3 = load %"class.boost::detail::sp_counted_base"** %pi_4, align 8, !dbg !11562
  call void @_ZN5boost6detail15sp_counted_base12add_ref_copyEv(%"class.boost::detail::sp_counted_base"* %3), !dbg !11562
  br label %if.end, !dbg !11562

if.end:                                           ; preds = %if.then, %entry
  ret void, !dbg !11564
}

; Function Attrs: uwtable
define linkonce_odr void @_ZN5boost6detail15sp_counted_base12add_ref_copyEv(%"class.boost::detail::sp_counted_base"* %this) #3 comdat align 2 {
entry:
  %this.addr = alloca %"class.boost::detail::sp_counted_base"*, align 8
  store %"class.boost::detail::sp_counted_base"* %this, %"class.boost::detail::sp_counted_base"** %this.addr, align 8
  call void @llvm.dbg.declare(metadata %"class.boost::detail::sp_counted_base"** %this.addr, metadata !11565, metadata !10245), !dbg !11566
  %this1 = load %"class.boost::detail::sp_counted_base"** %this.addr
  %use_count_ = getelementptr inbounds %"class.boost::detail::sp_counted_base"* %this1, i32 0, i32 1, !dbg !11567
  call void @_ZN5boost6detail16atomic_incrementEPi(i32* %use_count_), !dbg !11568
  ret void, !dbg !11569
}

; Function Attrs: inlinehint nounwind uwtable
define linkonce_odr void @_ZN5boost6detail16atomic_incrementEPi(i32* %pw) #8 comdat {
entry:
  %pw.addr = alloca i32*, align 8
  store i32* %pw, i32** %pw.addr, align 8
  call void @llvm.dbg.declare(metadata i32** %pw.addr, metadata !11570, metadata !10245), !dbg !11571
  %0 = load i32** %pw.addr, align 8, !dbg !11572
  %1 = load i32** %pw.addr, align 8, !dbg !11573
  call void asm "lock\0A\09incl $0", "=*m,*m,~{cc},~{dirflag},~{fpsr},~{flags}"(i32* %0, i32* %1) #1, !dbg !11574, !srcloc !11575
  ret void, !dbg !11576
}

; Function Attrs: nounwind uwtable
define linkonce_odr void @_ZSt4swapIPN3ros9Publisher4ImplEEvRT_S5_(%"class.ros::Publisher::Impl"** dereferenceable(8) %__a, %"class.ros::Publisher::Impl"** dereferenceable(8) %__b) #2 comdat {
entry:
  %__a.addr = alloca %"class.ros::Publisher::Impl"**, align 8
  %__b.addr = alloca %"class.ros::Publisher::Impl"**, align 8
  %__tmp = alloca %"class.ros::Publisher::Impl"*, align 8
  store %"class.ros::Publisher::Impl"** %__a, %"class.ros::Publisher::Impl"*** %__a.addr, align 8
  call void @llvm.dbg.declare(metadata %"class.ros::Publisher::Impl"*** %__a.addr, metadata !11577, metadata !10245), !dbg !11580
  store %"class.ros::Publisher::Impl"** %__b, %"class.ros::Publisher::Impl"*** %__b.addr, align 8
  call void @llvm.dbg.declare(metadata %"class.ros::Publisher::Impl"*** %__b.addr, metadata !11581, metadata !10245), !dbg !11582
  call void @llvm.dbg.declare(metadata %"class.ros::Publisher::Impl"** %__tmp, metadata !11583, metadata !10245), !dbg !11584
  %0 = load %"class.ros::Publisher::Impl"*** %__a.addr, align 8, !dbg !11585
  %1 = load %"class.ros::Publisher::Impl"** %0, align 8, !dbg !11585
  store %"class.ros::Publisher::Impl"* %1, %"class.ros::Publisher::Impl"** %__tmp, align 8, !dbg !11584
  %2 = load %"class.ros::Publisher::Impl"*** %__b.addr, align 8, !dbg !11586
  %3 = load %"class.ros::Publisher::Impl"** %2, align 8, !dbg !11586
  %4 = load %"class.ros::Publisher::Impl"*** %__a.addr, align 8, !dbg !11587
  store %"class.ros::Publisher::Impl"* %3, %"class.ros::Publisher::Impl"** %4, align 8, !dbg !11588
  %5 = load %"class.ros::Publisher::Impl"** %__tmp, align 8, !dbg !11589
  %6 = load %"class.ros::Publisher::Impl"*** %__b.addr, align 8, !dbg !11590
  store %"class.ros::Publisher::Impl"* %5, %"class.ros::Publisher::Impl"** %6, align 8, !dbg !11591
  ret void, !dbg !11592
}

; Function Attrs: nounwind uwtable
define linkonce_odr void @_ZN5boost6detail12shared_count4swapERS1_(%"class.boost::detail::shared_count"* %this, %"class.boost::detail::shared_count"* dereferenceable(8) %r) #2 comdat align 2 {
entry:
  %this.addr = alloca %"class.boost::detail::shared_count"*, align 8
  %r.addr = alloca %"class.boost::detail::shared_count"*, align 8
  %tmp = alloca %"class.boost::detail::sp_counted_base"*, align 8
  store %"class.boost::detail::shared_count"* %this, %"class.boost::detail::shared_count"** %this.addr, align 8
  call void @llvm.dbg.declare(metadata %"class.boost::detail::shared_count"** %this.addr, metadata !11593, metadata !10245), !dbg !11594
  store %"class.boost::detail::shared_count"* %r, %"class.boost::detail::shared_count"** %r.addr, align 8
  call void @llvm.dbg.declare(metadata %"class.boost::detail::shared_count"** %r.addr, metadata !11595, metadata !10245), !dbg !11596
  %this1 = load %"class.boost::detail::shared_count"** %this.addr
  call void @llvm.dbg.declare(metadata %"class.boost::detail::sp_counted_base"** %tmp, metadata !11597, metadata !10245), !dbg !11598
  %0 = load %"class.boost::detail::shared_count"** %r.addr, align 8, !dbg !11599
  %pi_ = getelementptr inbounds %"class.boost::detail::shared_count"* %0, i32 0, i32 0, !dbg !11600
  %1 = load %"class.boost::detail::sp_counted_base"** %pi_, align 8, !dbg !11600
  store %"class.boost::detail::sp_counted_base"* %1, %"class.boost::detail::sp_counted_base"** %tmp, align 8, !dbg !11598
  %pi_2 = getelementptr inbounds %"class.boost::detail::shared_count"* %this1, i32 0, i32 0, !dbg !11601
  %2 = load %"class.boost::detail::sp_counted_base"** %pi_2, align 8, !dbg !11601
  %3 = load %"class.boost::detail::shared_count"** %r.addr, align 8, !dbg !11602
  %pi_3 = getelementptr inbounds %"class.boost::detail::shared_count"* %3, i32 0, i32 0, !dbg !11603
  store %"class.boost::detail::sp_counted_base"* %2, %"class.boost::detail::sp_counted_base"** %pi_3, align 8, !dbg !11604
  %4 = load %"class.boost::detail::sp_counted_base"** %tmp, align 8, !dbg !11605
  %pi_4 = getelementptr inbounds %"class.boost::detail::shared_count"* %this1, i32 0, i32 0, !dbg !11606
  store %"class.boost::detail::sp_counted_base"* %4, %"class.boost::detail::sp_counted_base"** %pi_4, align 8, !dbg !11607
  ret void, !dbg !11608
}

; Function Attrs: uwtable
define linkonce_odr void @_ZN5boost6detail12shared_countD2Ev(%"class.boost::detail::shared_count"* %this) unnamed_addr #3 comdat align 2 {
entry:
  %this.addr = alloca %"class.boost::detail::shared_count"*, align 8
  store %"class.boost::detail::shared_count"* %this, %"class.boost::detail::shared_count"** %this.addr, align 8
  call void @llvm.dbg.declare(metadata %"class.boost::detail::shared_count"** %this.addr, metadata !11609, metadata !10245), !dbg !11610
  %this1 = load %"class.boost::detail::shared_count"** %this.addr
  %pi_ = getelementptr inbounds %"class.boost::detail::shared_count"* %this1, i32 0, i32 0, !dbg !11611
  %0 = load %"class.boost::detail::sp_counted_base"** %pi_, align 8, !dbg !11611
  %cmp = icmp ne %"class.boost::detail::sp_counted_base"* %0, null, !dbg !11614
  br i1 %cmp, label %if.then, label %if.end, !dbg !11615

if.then:                                          ; preds = %entry
  %pi_2 = getelementptr inbounds %"class.boost::detail::shared_count"* %this1, i32 0, i32 0, !dbg !11616
  %1 = load %"class.boost::detail::sp_counted_base"** %pi_2, align 8, !dbg !11616
  call void @_ZN5boost6detail15sp_counted_base7releaseEv(%"class.boost::detail::sp_counted_base"* %1), !dbg !11616
  br label %if.end, !dbg !11616

if.end:                                           ; preds = %if.then, %entry
  ret void, !dbg !11618
}

; Function Attrs: uwtable
define linkonce_odr void @_ZN5boost6detail15sp_counted_base7releaseEv(%"class.boost::detail::sp_counted_base"* %this) #3 comdat align 2 {
entry:
  %this.addr = alloca %"class.boost::detail::sp_counted_base"*, align 8
  store %"class.boost::detail::sp_counted_base"* %this, %"class.boost::detail::sp_counted_base"** %this.addr, align 8
  call void @llvm.dbg.declare(metadata %"class.boost::detail::sp_counted_base"** %this.addr, metadata !11619, metadata !10245), !dbg !11620
  %this1 = load %"class.boost::detail::sp_counted_base"** %this.addr
  %use_count_ = getelementptr inbounds %"class.boost::detail::sp_counted_base"* %this1, i32 0, i32 1, !dbg !11621
  %call = call i32 @_ZN5boost6detail23atomic_exchange_and_addEPii(i32* %use_count_, i32 -1), !dbg !11623
  %cmp = icmp eq i32 %call, 1, !dbg !11624
  br i1 %cmp, label %if.then, label %if.end, !dbg !11625

if.then:                                          ; preds = %entry
  %0 = bitcast %"class.boost::detail::sp_counted_base"* %this1 to void (%"class.boost::detail::sp_counted_base"*)***, !dbg !11626
  %vtable = load void (%"class.boost::detail::sp_counted_base"*)*** %0, !dbg !11626
  %vfn = getelementptr inbounds void (%"class.boost::detail::sp_counted_base"*)** %vtable, i64 2, !dbg !11626
  %1 = load void (%"class.boost::detail::sp_counted_base"*)** %vfn, !dbg !11626
  call void %1(%"class.boost::detail::sp_counted_base"* %this1), !dbg !11626
  call void @_ZN5boost6detail15sp_counted_base12weak_releaseEv(%"class.boost::detail::sp_counted_base"* %this1), !dbg !11628
  br label %if.end, !dbg !11629

if.end:                                           ; preds = %if.then, %entry
  ret void, !dbg !11630
}

; Function Attrs: inlinehint nounwind uwtable
define linkonce_odr i32 @_ZN5boost6detail23atomic_exchange_and_addEPii(i32* %pw, i32 %dv) #8 comdat {
entry:
  %pw.addr = alloca i32*, align 8
  %dv.addr = alloca i32, align 4
  %r = alloca i32, align 4
  store i32* %pw, i32** %pw.addr, align 8
  call void @llvm.dbg.declare(metadata i32** %pw.addr, metadata !11631, metadata !10245), !dbg !11632
  store i32 %dv, i32* %dv.addr, align 4
  call void @llvm.dbg.declare(metadata i32* %dv.addr, metadata !11633, metadata !10245), !dbg !11634
  call void @llvm.dbg.declare(metadata i32* %r, metadata !11635, metadata !10245), !dbg !11636
  %0 = load i32** %pw.addr, align 8, !dbg !11637
  %1 = load i32** %pw.addr, align 8, !dbg !11638
  %2 = load i32* %dv.addr, align 4, !dbg !11639
  %3 = call i32 asm sideeffect "lock\0A\09xadd $1, $0", "=*m,=r,*m,1,~{memory},~{cc},~{dirflag},~{fpsr},~{flags}"(i32* %0, i32* %1, i32 %2) #1, !dbg !11640, !srcloc !11641
  store i32 %3, i32* %r, align 4, !dbg !11640
  %4 = load i32* %r, align 4, !dbg !11642
  ret i32 %4, !dbg !11643
}

; Function Attrs: uwtable
define linkonce_odr void @_ZN5boost6detail15sp_counted_base12weak_releaseEv(%"class.boost::detail::sp_counted_base"* %this) #3 comdat align 2 {
entry:
  %this.addr = alloca %"class.boost::detail::sp_counted_base"*, align 8
  store %"class.boost::detail::sp_counted_base"* %this, %"class.boost::detail::sp_counted_base"** %this.addr, align 8
  call void @llvm.dbg.declare(metadata %"class.boost::detail::sp_counted_base"** %this.addr, metadata !11644, metadata !10245), !dbg !11645
  %this1 = load %"class.boost::detail::sp_counted_base"** %this.addr
  %weak_count_ = getelementptr inbounds %"class.boost::detail::sp_counted_base"* %this1, i32 0, i32 2, !dbg !11646
  %call = call i32 @_ZN5boost6detail23atomic_exchange_and_addEPii(i32* %weak_count_, i32 -1), !dbg !11648
  %cmp = icmp eq i32 %call, 1, !dbg !11649
  br i1 %cmp, label %if.then, label %if.end, !dbg !11650

if.then:                                          ; preds = %entry
  %0 = bitcast %"class.boost::detail::sp_counted_base"* %this1 to void (%"class.boost::detail::sp_counted_base"*)***, !dbg !11651
  %vtable = load void (%"class.boost::detail::sp_counted_base"*)*** %0, !dbg !11651
  %vfn = getelementptr inbounds void (%"class.boost::detail::sp_counted_base"*)** %vtable, i64 3, !dbg !11651
  %1 = load void (%"class.boost::detail::sp_counted_base"*)** %vfn, !dbg !11651
  call void %1(%"class.boost::detail::sp_counted_base"* %this1), !dbg !11651
  br label %if.end, !dbg !11653

if.end:                                           ; preds = %if.then, %entry
  ret void, !dbg !11654
}

; Function Attrs: uwtable
define linkonce_odr dereferenceable(16) %"class.boost::shared_ptr"* @_ZN5boost10shared_ptrIN3ros10Subscriber4ImplEEaSERKS4_(%"class.boost::shared_ptr"* %this, %"class.boost::shared_ptr"* dereferenceable(16) %r) #3 comdat align 2 {
entry:
  %this.addr = alloca %"class.boost::shared_ptr"*, align 8
  %r.addr = alloca %"class.boost::shared_ptr"*, align 8
  %temp.lvalue = alloca %"class.boost::shared_ptr", align 8
  %exn.slot = alloca i8*
  %ehselector.slot = alloca i32
  store %"class.boost::shared_ptr"* %this, %"class.boost::shared_ptr"** %this.addr, align 8
  call void @llvm.dbg.declare(metadata %"class.boost::shared_ptr"** %this.addr, metadata !11655, metadata !10245), !dbg !11656
  store %"class.boost::shared_ptr"* %r, %"class.boost::shared_ptr"** %r.addr, align 8
  call void @llvm.dbg.declare(metadata %"class.boost::shared_ptr"** %r.addr, metadata !11657, metadata !10245), !dbg !11658
  %this1 = load %"class.boost::shared_ptr"** %this.addr
  %0 = load %"class.boost::shared_ptr"** %r.addr, align 8, !dbg !11659
  call void @_ZN5boost10shared_ptrIN3ros10Subscriber4ImplEEC2ERKS4_(%"class.boost::shared_ptr"* %temp.lvalue, %"class.boost::shared_ptr"* dereferenceable(16) %0), !dbg !11660
  invoke void @_ZN5boost10shared_ptrIN3ros10Subscriber4ImplEE4swapERS4_(%"class.boost::shared_ptr"* %temp.lvalue, %"class.boost::shared_ptr"* dereferenceable(16) %this1)
          to label %invoke.cont unwind label %lpad, !dbg !11660

invoke.cont:                                      ; preds = %entry
  call void @_ZN5boost10shared_ptrIN3ros10Subscriber4ImplEED2Ev(%"class.boost::shared_ptr"* %temp.lvalue), !dbg !11661
  ret %"class.boost::shared_ptr"* %this1, !dbg !11663

lpad:                                             ; preds = %entry
  %1 = landingpad { i8*, i32 } personality i8* bitcast (i32 (...)* @__gxx_personality_v0 to i8*)
          cleanup, !dbg !11664
  %2 = extractvalue { i8*, i32 } %1, 0, !dbg !11664
  store i8* %2, i8** %exn.slot, !dbg !11664
  %3 = extractvalue { i8*, i32 } %1, 1, !dbg !11664
  store i32 %3, i32* %ehselector.slot, !dbg !11664
  invoke void @_ZN5boost10shared_ptrIN3ros10Subscriber4ImplEED2Ev(%"class.boost::shared_ptr"* %temp.lvalue)
          to label %invoke.cont2 unwind label %terminate.lpad, !dbg !11660

invoke.cont2:                                     ; preds = %lpad
  br label %eh.resume, !dbg !11665

eh.resume:                                        ; preds = %invoke.cont2
  %exn = load i8** %exn.slot, !dbg !11667
  %sel = load i32* %ehselector.slot, !dbg !11667
  %lpad.val = insertvalue { i8*, i32 } undef, i8* %exn, 0, !dbg !11667
  %lpad.val3 = insertvalue { i8*, i32 } %lpad.val, i32 %sel, 1, !dbg !11667
  resume { i8*, i32 } %lpad.val3, !dbg !11667

terminate.lpad:                                   ; preds = %lpad
  %4 = landingpad { i8*, i32 } personality i8* bitcast (i32 (...)* @__gxx_personality_v0 to i8*)
          catch i8* null, !dbg !11669
  %5 = extractvalue { i8*, i32 } %4, 0, !dbg !11669
  call void @__clang_call_terminate(i8* %5) #15, !dbg !11669
  unreachable, !dbg !11669
}

; Function Attrs: inlinehint uwtable
define linkonce_odr void @_ZN5boost10shared_ptrIN3ros10Subscriber4ImplEEC2ERKS4_(%"class.boost::shared_ptr"* %this, %"class.boost::shared_ptr"* dereferenceable(16)) unnamed_addr #6 comdat align 2 {
entry:
  %this.addr = alloca %"class.boost::shared_ptr"*, align 8
  %.addr = alloca %"class.boost::shared_ptr"*, align 8
  store %"class.boost::shared_ptr"* %this, %"class.boost::shared_ptr"** %this.addr, align 8
  call void @llvm.dbg.declare(metadata %"class.boost::shared_ptr"** %this.addr, metadata !11671, metadata !10245), !dbg !11672
  store %"class.boost::shared_ptr"* %0, %"class.boost::shared_ptr"** %.addr, align 8
  call void @llvm.dbg.declare(metadata %"class.boost::shared_ptr"** %.addr, metadata !11673, metadata !10245), !dbg !11672
  %this1 = load %"class.boost::shared_ptr"** %this.addr
  %px = getelementptr inbounds %"class.boost::shared_ptr"* %this1, i32 0, i32 0, !dbg !11674
  %1 = load %"class.boost::shared_ptr"** %.addr, align 8, !dbg !11674
  %px2 = getelementptr inbounds %"class.boost::shared_ptr"* %1, i32 0, i32 0, !dbg !11674
  %2 = load %"class.ros::Subscriber::Impl"** %px2, align 8, !dbg !11674
  store %"class.ros::Subscriber::Impl"* %2, %"class.ros::Subscriber::Impl"** %px, align 8, !dbg !11674
  %pn = getelementptr inbounds %"class.boost::shared_ptr"* %this1, i32 0, i32 1, !dbg !11674
  %3 = load %"class.boost::shared_ptr"** %.addr, align 8, !dbg !11674
  %pn3 = getelementptr inbounds %"class.boost::shared_ptr"* %3, i32 0, i32 1, !dbg !11674
  call void @_ZN5boost6detail12shared_countC2ERKS1_(%"class.boost::detail::shared_count"* %pn, %"class.boost::detail::shared_count"* dereferenceable(8) %pn3), !dbg !11674
  %px4 = getelementptr inbounds %"class.boost::shared_ptr"* %this1, i32 0, i32 0, !dbg !11674
  %4 = load %"class.boost::shared_ptr"** %.addr, align 8, !dbg !11674
  %px5 = getelementptr inbounds %"class.boost::shared_ptr"* %4, i32 0, i32 0, !dbg !11674
  %5 = load %"class.ros::Subscriber::Impl"** %px5, align 8, !dbg !11674
  store %"class.ros::Subscriber::Impl"* %5, %"class.ros::Subscriber::Impl"** %px4, align 8, !dbg !11674
  ret void, !dbg !11674
}

; Function Attrs: uwtable
define linkonce_odr void @_ZN5boost10shared_ptrIN3ros10Subscriber4ImplEE4swapERS4_(%"class.boost::shared_ptr"* %this, %"class.boost::shared_ptr"* dereferenceable(16) %other) #3 comdat align 2 {
entry:
  %this.addr = alloca %"class.boost::shared_ptr"*, align 8
  %other.addr = alloca %"class.boost::shared_ptr"*, align 8
  store %"class.boost::shared_ptr"* %this, %"class.boost::shared_ptr"** %this.addr, align 8
  call void @llvm.dbg.declare(metadata %"class.boost::shared_ptr"** %this.addr, metadata !11675, metadata !10245), !dbg !11676
  store %"class.boost::shared_ptr"* %other, %"class.boost::shared_ptr"** %other.addr, align 8
  call void @llvm.dbg.declare(metadata %"class.boost::shared_ptr"** %other.addr, metadata !11677, metadata !10245), !dbg !11678
  %this1 = load %"class.boost::shared_ptr"** %this.addr
  %px = getelementptr inbounds %"class.boost::shared_ptr"* %this1, i32 0, i32 0, !dbg !11679
  %0 = load %"class.boost::shared_ptr"** %other.addr, align 8, !dbg !11680
  %px2 = getelementptr inbounds %"class.boost::shared_ptr"* %0, i32 0, i32 0, !dbg !11681
  call void @_ZSt4swapIPN3ros10Subscriber4ImplEEvRT_S5_(%"class.ros::Subscriber::Impl"** dereferenceable(8) %px, %"class.ros::Subscriber::Impl"** dereferenceable(8) %px2), !dbg !11682
  %pn = getelementptr inbounds %"class.boost::shared_ptr"* %this1, i32 0, i32 1, !dbg !11683
  %1 = load %"class.boost::shared_ptr"** %other.addr, align 8, !dbg !11684
  %pn3 = getelementptr inbounds %"class.boost::shared_ptr"* %1, i32 0, i32 1, !dbg !11685
  call void @_ZN5boost6detail12shared_count4swapERS1_(%"class.boost::detail::shared_count"* %pn, %"class.boost::detail::shared_count"* dereferenceable(8) %pn3), !dbg !11683
  ret void, !dbg !11686
}

; Function Attrs: inlinehint uwtable
define linkonce_odr void @_ZN5boost10shared_ptrIN3ros10Subscriber4ImplEED2Ev(%"class.boost::shared_ptr"* %this) unnamed_addr #6 comdat align 2 {
entry:
  %this.addr = alloca %"class.boost::shared_ptr"*, align 8
  store %"class.boost::shared_ptr"* %this, %"class.boost::shared_ptr"** %this.addr, align 8
  call void @llvm.dbg.declare(metadata %"class.boost::shared_ptr"** %this.addr, metadata !11687, metadata !10245), !dbg !11688
  %this1 = load %"class.boost::shared_ptr"** %this.addr
  %pn = getelementptr inbounds %"class.boost::shared_ptr"* %this1, i32 0, i32 1, !dbg !11689
  call void @_ZN5boost6detail12shared_countD2Ev(%"class.boost::detail::shared_count"* %pn), !dbg !11689
  ret void, !dbg !11691
}

; Function Attrs: nounwind uwtable
define linkonce_odr void @_ZSt4swapIPN3ros10Subscriber4ImplEEvRT_S5_(%"class.ros::Subscriber::Impl"** dereferenceable(8) %__a, %"class.ros::Subscriber::Impl"** dereferenceable(8) %__b) #2 comdat {
entry:
  %__a.addr = alloca %"class.ros::Subscriber::Impl"**, align 8
  %__b.addr = alloca %"class.ros::Subscriber::Impl"**, align 8
  %__tmp = alloca %"class.ros::Subscriber::Impl"*, align 8
  store %"class.ros::Subscriber::Impl"** %__a, %"class.ros::Subscriber::Impl"*** %__a.addr, align 8
  call void @llvm.dbg.declare(metadata %"class.ros::Subscriber::Impl"*** %__a.addr, metadata !11692, metadata !10245), !dbg !11693
  store %"class.ros::Subscriber::Impl"** %__b, %"class.ros::Subscriber::Impl"*** %__b.addr, align 8
  call void @llvm.dbg.declare(metadata %"class.ros::Subscriber::Impl"*** %__b.addr, metadata !11694, metadata !10245), !dbg !11695
  call void @llvm.dbg.declare(metadata %"class.ros::Subscriber::Impl"** %__tmp, metadata !11696, metadata !10245), !dbg !11697
  %0 = load %"class.ros::Subscriber::Impl"*** %__a.addr, align 8, !dbg !11698
  %1 = load %"class.ros::Subscriber::Impl"** %0, align 8, !dbg !11698
  store %"class.ros::Subscriber::Impl"* %1, %"class.ros::Subscriber::Impl"** %__tmp, align 8, !dbg !11697
  %2 = load %"class.ros::Subscriber::Impl"*** %__b.addr, align 8, !dbg !11699
  %3 = load %"class.ros::Subscriber::Impl"** %2, align 8, !dbg !11699
  %4 = load %"class.ros::Subscriber::Impl"*** %__a.addr, align 8, !dbg !11700
  store %"class.ros::Subscriber::Impl"* %3, %"class.ros::Subscriber::Impl"** %4, align 8, !dbg !11701
  %5 = load %"class.ros::Subscriber::Impl"** %__tmp, align 8, !dbg !11702
  %6 = load %"class.ros::Subscriber::Impl"*** %__b.addr, align 8, !dbg !11703
  store %"class.ros::Subscriber::Impl"* %5, %"class.ros::Subscriber::Impl"** %6, align 8, !dbg !11704
  ret void, !dbg !11705
}

; Function Attrs: uwtable
define linkonce_odr void @_ZNSt6vectorISsSaISsEEC2Ev(%"class.std::vector"* %this) unnamed_addr #3 comdat align 2 {
entry:
  %this.addr = alloca %"class.std::vector"*, align 8
  store %"class.std::vector"* %this, %"class.std::vector"** %this.addr, align 8
  call void @llvm.dbg.declare(metadata %"class.std::vector"** %this.addr, metadata !11706, metadata !10245), !dbg !11708
  %this1 = load %"class.std::vector"** %this.addr
  %0 = bitcast %"class.std::vector"* %this1 to %"struct.std::_Vector_base"*, !dbg !11709
  call void @_ZNSt12_Vector_baseISsSaISsEEC2Ev(%"struct.std::_Vector_base"* %0), !dbg !11710
  ret void, !dbg !11711
}

; Function Attrs: uwtable
define linkonce_odr void @_ZNSt6vectorISsSaISsEED2Ev(%"class.std::vector"* %this) unnamed_addr #3 comdat align 2 {
entry:
  %this.addr = alloca %"class.std::vector"*, align 8
  %exn.slot = alloca i8*
  %ehselector.slot = alloca i32
  store %"class.std::vector"* %this, %"class.std::vector"** %this.addr, align 8
  call void @llvm.dbg.declare(metadata %"class.std::vector"** %this.addr, metadata !11712, metadata !10245), !dbg !11713
  %this1 = load %"class.std::vector"** %this.addr
  %0 = bitcast %"class.std::vector"* %this1 to %"struct.std::_Vector_base"*, !dbg !11714
  %_M_impl = getelementptr inbounds %"struct.std::_Vector_base"* %0, i32 0, i32 0, !dbg !11716
  %_M_start = getelementptr inbounds %"struct.std::_Vector_base<std::basic_string<char>, std::allocator<std::basic_string<char> > >::_Vector_impl"* %_M_impl, i32 0, i32 0, !dbg !11717
  %1 = load %"class.std::basic_string"** %_M_start, align 8, !dbg !11717
  %2 = bitcast %"class.std::vector"* %this1 to %"struct.std::_Vector_base"*, !dbg !11718
  %_M_impl2 = getelementptr inbounds %"struct.std::_Vector_base"* %2, i32 0, i32 0, !dbg !11719
  %_M_finish = getelementptr inbounds %"struct.std::_Vector_base<std::basic_string<char>, std::allocator<std::basic_string<char> > >::_Vector_impl"* %_M_impl2, i32 0, i32 1, !dbg !11720
  %3 = load %"class.std::basic_string"** %_M_finish, align 8, !dbg !11720
  %4 = bitcast %"class.std::vector"* %this1 to %"struct.std::_Vector_base"*, !dbg !11721
  %call = invoke dereferenceable(1) %"class.std::allocator.23"* @_ZNSt12_Vector_baseISsSaISsEE19_M_get_Tp_allocatorEv(%"struct.std::_Vector_base"* %4)
          to label %invoke.cont unwind label %lpad, !dbg !11721

invoke.cont:                                      ; preds = %entry
  invoke void @_ZSt8_DestroyIPSsSsEvT_S1_RSaIT0_E(%"class.std::basic_string"* %1, %"class.std::basic_string"* %3, %"class.std::allocator.23"* dereferenceable(1) %call)
          to label %invoke.cont3 unwind label %lpad, !dbg !11722

invoke.cont3:                                     ; preds = %invoke.cont
  %5 = bitcast %"class.std::vector"* %this1 to %"struct.std::_Vector_base"*, !dbg !11723
  call void @_ZNSt12_Vector_baseISsSaISsEED2Ev(%"struct.std::_Vector_base"* %5), !dbg !11723
  ret void, !dbg !11724

lpad:                                             ; preds = %invoke.cont, %entry
  %6 = landingpad { i8*, i32 } personality i8* bitcast (i32 (...)* @__gxx_personality_v0 to i8*)
          cleanup, !dbg !11725
  %7 = extractvalue { i8*, i32 } %6, 0, !dbg !11725
  store i8* %7, i8** %exn.slot, !dbg !11725
  %8 = extractvalue { i8*, i32 } %6, 1, !dbg !11725
  store i32 %8, i32* %ehselector.slot, !dbg !11725
  %9 = bitcast %"class.std::vector"* %this1 to %"struct.std::_Vector_base"*, !dbg !11725
  invoke void @_ZNSt12_Vector_baseISsSaISsEED2Ev(%"struct.std::_Vector_base"* %9)
          to label %invoke.cont4 unwind label %terminate.lpad, !dbg !11725

invoke.cont4:                                     ; preds = %lpad
  br label %eh.resume, !dbg !11727

eh.resume:                                        ; preds = %invoke.cont4
  %exn = load i8** %exn.slot, !dbg !11729
  %sel = load i32* %ehselector.slot, !dbg !11729
  %lpad.val = insertvalue { i8*, i32 } undef, i8* %exn, 0, !dbg !11729
  %lpad.val5 = insertvalue { i8*, i32 } %lpad.val, i32 %sel, 1, !dbg !11729
  resume { i8*, i32 } %lpad.val5, !dbg !11729

terminate.lpad:                                   ; preds = %lpad
  %10 = landingpad { i8*, i32 } personality i8* bitcast (i32 (...)* @__gxx_personality_v0 to i8*)
          catch i8* null, !dbg !11731
  %11 = extractvalue { i8*, i32 } %10, 0, !dbg !11731
  call void @__clang_call_terminate(i8* %11) #15, !dbg !11731
  unreachable, !dbg !11731
}

; Function Attrs: uwtable
define linkonce_odr void @_ZNSt12_Vector_baseISsSaISsEEC2Ev(%"struct.std::_Vector_base"* %this) unnamed_addr #3 comdat align 2 {
entry:
  %this.addr = alloca %"struct.std::_Vector_base"*, align 8
  store %"struct.std::_Vector_base"* %this, %"struct.std::_Vector_base"** %this.addr, align 8
  call void @llvm.dbg.declare(metadata %"struct.std::_Vector_base"** %this.addr, metadata !11733, metadata !10245), !dbg !11735
  %this1 = load %"struct.std::_Vector_base"** %this.addr
  %_M_impl = getelementptr inbounds %"struct.std::_Vector_base"* %this1, i32 0, i32 0, !dbg !11736
  call void @_ZNSt12_Vector_baseISsSaISsEE12_Vector_implC2Ev(%"struct.std::_Vector_base<std::basic_string<char>, std::allocator<std::basic_string<char> > >::_Vector_impl"* %_M_impl), !dbg !11736
  ret void, !dbg !11737
}

; Function Attrs: nounwind uwtable
define linkonce_odr void @_ZNSt12_Vector_baseISsSaISsEE12_Vector_implC2Ev(%"struct.std::_Vector_base<std::basic_string<char>, std::allocator<std::basic_string<char> > >::_Vector_impl"* %this) unnamed_addr #2 comdat align 2 {
entry:
  %this.addr = alloca %"struct.std::_Vector_base<std::basic_string<char>, std::allocator<std::basic_string<char> > >::_Vector_impl"*, align 8
  store %"struct.std::_Vector_base<std::basic_string<char>, std::allocator<std::basic_string<char> > >::_Vector_impl"* %this, %"struct.std::_Vector_base<std::basic_string<char>, std::allocator<std::basic_string<char> > >::_Vector_impl"** %this.addr, align 8
  call void @llvm.dbg.declare(metadata %"struct.std::_Vector_base<std::basic_string<char>, std::allocator<std::basic_string<char> > >::_Vector_impl"** %this.addr, metadata !11738, metadata !10245), !dbg !11740
  %this1 = load %"struct.std::_Vector_base<std::basic_string<char>, std::allocator<std::basic_string<char> > >::_Vector_impl"** %this.addr
  %0 = bitcast %"struct.std::_Vector_base<std::basic_string<char>, std::allocator<std::basic_string<char> > >::_Vector_impl"* %this1 to %"class.std::allocator.23"*, !dbg !11741
  call void @_ZNSaISsEC2Ev(%"class.std::allocator.23"* %0) #1, !dbg !11742
  %_M_start = getelementptr inbounds %"struct.std::_Vector_base<std::basic_string<char>, std::allocator<std::basic_string<char> > >::_Vector_impl"* %this1, i32 0, i32 0, !dbg !11743
  store %"class.std::basic_string"* null, %"class.std::basic_string"** %_M_start, align 8, !dbg !11743
  %_M_finish = getelementptr inbounds %"struct.std::_Vector_base<std::basic_string<char>, std::allocator<std::basic_string<char> > >::_Vector_impl"* %this1, i32 0, i32 1, !dbg !11744
  store %"class.std::basic_string"* null, %"class.std::basic_string"** %_M_finish, align 8, !dbg !11744
  %_M_end_of_storage = getelementptr inbounds %"struct.std::_Vector_base<std::basic_string<char>, std::allocator<std::basic_string<char> > >::_Vector_impl"* %this1, i32 0, i32 2, !dbg !11745
  store %"class.std::basic_string"* null, %"class.std::basic_string"** %_M_end_of_storage, align 8, !dbg !11745
  ret void, !dbg !11746
}

; Function Attrs: nounwind uwtable
define linkonce_odr void @_ZNSaISsEC2Ev(%"class.std::allocator.23"* %this) unnamed_addr #2 comdat align 2 {
entry:
  %this.addr = alloca %"class.std::allocator.23"*, align 8
  store %"class.std::allocator.23"* %this, %"class.std::allocator.23"** %this.addr, align 8
  call void @llvm.dbg.declare(metadata %"class.std::allocator.23"** %this.addr, metadata !11747, metadata !10245), !dbg !11749
  %this1 = load %"class.std::allocator.23"** %this.addr
  %0 = bitcast %"class.std::allocator.23"* %this1 to %"class.__gnu_cxx::new_allocator.24"*, !dbg !11750
  call void @_ZN9__gnu_cxx13new_allocatorISsEC2Ev(%"class.__gnu_cxx::new_allocator.24"* %0) #1, !dbg !11751
  ret void, !dbg !11752
}

; Function Attrs: nounwind uwtable
define linkonce_odr void @_ZN9__gnu_cxx13new_allocatorISsEC2Ev(%"class.__gnu_cxx::new_allocator.24"* %this) unnamed_addr #2 comdat align 2 {
entry:
  %this.addr = alloca %"class.__gnu_cxx::new_allocator.24"*, align 8
  store %"class.__gnu_cxx::new_allocator.24"* %this, %"class.__gnu_cxx::new_allocator.24"** %this.addr, align 8
  call void @llvm.dbg.declare(metadata %"class.__gnu_cxx::new_allocator.24"** %this.addr, metadata !11753, metadata !10245), !dbg !11755
  %this1 = load %"class.__gnu_cxx::new_allocator.24"** %this.addr
  ret void, !dbg !11756
}

; Function Attrs: inlinehint uwtable
define linkonce_odr void @_ZSt8_DestroyIPSsSsEvT_S1_RSaIT0_E(%"class.std::basic_string"* %__first, %"class.std::basic_string"* %__last, %"class.std::allocator.23"* dereferenceable(1)) #6 comdat {
entry:
  %__first.addr = alloca %"class.std::basic_string"*, align 8
  %__last.addr = alloca %"class.std::basic_string"*, align 8
  %.addr = alloca %"class.std::allocator.23"*, align 8
  store %"class.std::basic_string"* %__first, %"class.std::basic_string"** %__first.addr, align 8
  call void @llvm.dbg.declare(metadata %"class.std::basic_string"** %__first.addr, metadata !11757, metadata !10245), !dbg !11759
  store %"class.std::basic_string"* %__last, %"class.std::basic_string"** %__last.addr, align 8
  call void @llvm.dbg.declare(metadata %"class.std::basic_string"** %__last.addr, metadata !11760, metadata !10245), !dbg !11761
  store %"class.std::allocator.23"* %0, %"class.std::allocator.23"** %.addr, align 8
  call void @llvm.dbg.declare(metadata %"class.std::allocator.23"** %.addr, metadata !11762, metadata !10245), !dbg !11763
  %1 = load %"class.std::basic_string"** %__first.addr, align 8, !dbg !11764
  %2 = load %"class.std::basic_string"** %__last.addr, align 8, !dbg !11765
  call void @_ZSt8_DestroyIPSsEvT_S1_(%"class.std::basic_string"* %1, %"class.std::basic_string"* %2), !dbg !11766
  ret void, !dbg !11767
}

; Function Attrs: nounwind uwtable
define linkonce_odr dereferenceable(1) %"class.std::allocator.23"* @_ZNSt12_Vector_baseISsSaISsEE19_M_get_Tp_allocatorEv(%"struct.std::_Vector_base"* %this) #2 comdat align 2 {
entry:
  %this.addr = alloca %"struct.std::_Vector_base"*, align 8
  store %"struct.std::_Vector_base"* %this, %"struct.std::_Vector_base"** %this.addr, align 8
  call void @llvm.dbg.declare(metadata %"struct.std::_Vector_base"** %this.addr, metadata !11768, metadata !10245), !dbg !11769
  %this1 = load %"struct.std::_Vector_base"** %this.addr
  %_M_impl = getelementptr inbounds %"struct.std::_Vector_base"* %this1, i32 0, i32 0, !dbg !11770
  %0 = bitcast %"struct.std::_Vector_base<std::basic_string<char>, std::allocator<std::basic_string<char> > >::_Vector_impl"* %_M_impl to %"class.std::allocator.23"*, !dbg !11771
  ret %"class.std::allocator.23"* %0, !dbg !11772
}

; Function Attrs: uwtable
define linkonce_odr void @_ZNSt12_Vector_baseISsSaISsEED2Ev(%"struct.std::_Vector_base"* %this) unnamed_addr #3 comdat align 2 {
entry:
  %this.addr = alloca %"struct.std::_Vector_base"*, align 8
  %exn.slot = alloca i8*
  %ehselector.slot = alloca i32
  store %"struct.std::_Vector_base"* %this, %"struct.std::_Vector_base"** %this.addr, align 8
  call void @llvm.dbg.declare(metadata %"struct.std::_Vector_base"** %this.addr, metadata !11773, metadata !10245), !dbg !11774
  %this1 = load %"struct.std::_Vector_base"** %this.addr
  %_M_impl = getelementptr inbounds %"struct.std::_Vector_base"* %this1, i32 0, i32 0, !dbg !11775
  %_M_start = getelementptr inbounds %"struct.std::_Vector_base<std::basic_string<char>, std::allocator<std::basic_string<char> > >::_Vector_impl"* %_M_impl, i32 0, i32 0, !dbg !11777
  %0 = load %"class.std::basic_string"** %_M_start, align 8, !dbg !11777
  %_M_impl2 = getelementptr inbounds %"struct.std::_Vector_base"* %this1, i32 0, i32 0, !dbg !11778
  %_M_end_of_storage = getelementptr inbounds %"struct.std::_Vector_base<std::basic_string<char>, std::allocator<std::basic_string<char> > >::_Vector_impl"* %_M_impl2, i32 0, i32 2, !dbg !11779
  %1 = load %"class.std::basic_string"** %_M_end_of_storage, align 8, !dbg !11779
  %_M_impl3 = getelementptr inbounds %"struct.std::_Vector_base"* %this1, i32 0, i32 0, !dbg !11780
  %_M_start4 = getelementptr inbounds %"struct.std::_Vector_base<std::basic_string<char>, std::allocator<std::basic_string<char> > >::_Vector_impl"* %_M_impl3, i32 0, i32 0, !dbg !11781
  %2 = load %"class.std::basic_string"** %_M_start4, align 8, !dbg !11781
  %sub.ptr.lhs.cast = ptrtoint %"class.std::basic_string"* %1 to i64, !dbg !11782
  %sub.ptr.rhs.cast = ptrtoint %"class.std::basic_string"* %2 to i64, !dbg !11782
  %sub.ptr.sub = sub i64 %sub.ptr.lhs.cast, %sub.ptr.rhs.cast, !dbg !11782
  %sub.ptr.div = sdiv exact i64 %sub.ptr.sub, 8, !dbg !11782
  invoke void @_ZNSt12_Vector_baseISsSaISsEE13_M_deallocateEPSsm(%"struct.std::_Vector_base"* %this1, %"class.std::basic_string"* %0, i64 %sub.ptr.div)
          to label %invoke.cont unwind label %lpad, !dbg !11783

invoke.cont:                                      ; preds = %entry
  %_M_impl5 = getelementptr inbounds %"struct.std::_Vector_base"* %this1, i32 0, i32 0, !dbg !11784
  call void @_ZNSt12_Vector_baseISsSaISsEE12_Vector_implD2Ev(%"struct.std::_Vector_base<std::basic_string<char>, std::allocator<std::basic_string<char> > >::_Vector_impl"* %_M_impl5) #1, !dbg !11784
  ret void, !dbg !11785

lpad:                                             ; preds = %entry
  %3 = landingpad { i8*, i32 } personality i8* bitcast (i32 (...)* @__gxx_personality_v0 to i8*)
          cleanup, !dbg !11784
  %4 = extractvalue { i8*, i32 } %3, 0, !dbg !11784
  store i8* %4, i8** %exn.slot, !dbg !11784
  %5 = extractvalue { i8*, i32 } %3, 1, !dbg !11784
  store i32 %5, i32* %ehselector.slot, !dbg !11784
  %_M_impl6 = getelementptr inbounds %"struct.std::_Vector_base"* %this1, i32 0, i32 0, !dbg !11784
  call void @_ZNSt12_Vector_baseISsSaISsEE12_Vector_implD2Ev(%"struct.std::_Vector_base<std::basic_string<char>, std::allocator<std::basic_string<char> > >::_Vector_impl"* %_M_impl6) #1, !dbg !11784
  br label %eh.resume, !dbg !11784

eh.resume:                                        ; preds = %lpad
  %exn = load i8** %exn.slot, !dbg !11786
  %sel = load i32* %ehselector.slot, !dbg !11786
  %lpad.val = insertvalue { i8*, i32 } undef, i8* %exn, 0, !dbg !11786
  %lpad.val7 = insertvalue { i8*, i32 } %lpad.val, i32 %sel, 1, !dbg !11786
  resume { i8*, i32 } %lpad.val7, !dbg !11786
}

; Function Attrs: inlinehint uwtable
define linkonce_odr void @_ZSt8_DestroyIPSsEvT_S1_(%"class.std::basic_string"* %__first, %"class.std::basic_string"* %__last) #6 comdat {
entry:
  %__first.addr = alloca %"class.std::basic_string"*, align 8
  %__last.addr = alloca %"class.std::basic_string"*, align 8
  store %"class.std::basic_string"* %__first, %"class.std::basic_string"** %__first.addr, align 8
  call void @llvm.dbg.declare(metadata %"class.std::basic_string"** %__first.addr, metadata !11788, metadata !10245), !dbg !11789
  store %"class.std::basic_string"* %__last, %"class.std::basic_string"** %__last.addr, align 8
  call void @llvm.dbg.declare(metadata %"class.std::basic_string"** %__last.addr, metadata !11790, metadata !10245), !dbg !11791
  %0 = load %"class.std::basic_string"** %__first.addr, align 8, !dbg !11792
  %1 = load %"class.std::basic_string"** %__last.addr, align 8, !dbg !11793
  call void @_ZNSt12_Destroy_auxILb0EE9__destroyIPSsEEvT_S3_(%"class.std::basic_string"* %0, %"class.std::basic_string"* %1), !dbg !11794
  ret void, !dbg !11795
}

; Function Attrs: uwtable
define linkonce_odr void @_ZNSt12_Destroy_auxILb0EE9__destroyIPSsEEvT_S3_(%"class.std::basic_string"* %__first, %"class.std::basic_string"* %__last) #3 comdat align 2 {
entry:
  %__first.addr = alloca %"class.std::basic_string"*, align 8
  %__last.addr = alloca %"class.std::basic_string"*, align 8
  store %"class.std::basic_string"* %__first, %"class.std::basic_string"** %__first.addr, align 8
  call void @llvm.dbg.declare(metadata %"class.std::basic_string"** %__first.addr, metadata !11796, metadata !10245), !dbg !11797
  store %"class.std::basic_string"* %__last, %"class.std::basic_string"** %__last.addr, align 8
  call void @llvm.dbg.declare(metadata %"class.std::basic_string"** %__last.addr, metadata !11798, metadata !10245), !dbg !11799
  br label %for.cond, !dbg !11800

for.cond:                                         ; preds = %for.inc, %entry
  %0 = load %"class.std::basic_string"** %__first.addr, align 8, !dbg !11801
  %1 = load %"class.std::basic_string"** %__last.addr, align 8, !dbg !11806
  %cmp = icmp ne %"class.std::basic_string"* %0, %1, !dbg !11807
  br i1 %cmp, label %for.body, label %for.end, !dbg !11808

for.body:                                         ; preds = %for.cond
  %2 = load %"class.std::basic_string"** %__first.addr, align 8, !dbg !11809
  %call = call %"class.std::basic_string"* @_ZSt11__addressofISsEPT_RS0_(%"class.std::basic_string"* dereferenceable(8) %2), !dbg !11810
  call void @_ZSt8_DestroyISsEvPT_(%"class.std::basic_string"* %call), !dbg !11811
  br label %for.inc, !dbg !11811

for.inc:                                          ; preds = %for.body
  %3 = load %"class.std::basic_string"** %__first.addr, align 8, !dbg !11812
  %incdec.ptr = getelementptr inbounds %"class.std::basic_string"* %3, i32 1, !dbg !11812
  store %"class.std::basic_string"* %incdec.ptr, %"class.std::basic_string"** %__first.addr, align 8, !dbg !11812
  br label %for.cond, !dbg !11813

for.end:                                          ; preds = %for.cond
  ret void, !dbg !11814
}

; Function Attrs: inlinehint uwtable
define linkonce_odr void @_ZSt8_DestroyISsEvPT_(%"class.std::basic_string"* %__pointer) #6 comdat {
entry:
  %__pointer.addr = alloca %"class.std::basic_string"*, align 8
  store %"class.std::basic_string"* %__pointer, %"class.std::basic_string"** %__pointer.addr, align 8
  call void @llvm.dbg.declare(metadata %"class.std::basic_string"** %__pointer.addr, metadata !11815, metadata !10245), !dbg !11816
  %0 = load %"class.std::basic_string"** %__pointer.addr, align 8, !dbg !11817
  call void @_ZNSsD1Ev(%"class.std::basic_string"* %0), !dbg !11817
  ret void, !dbg !11818
}

; Function Attrs: inlinehint nounwind uwtable
define linkonce_odr %"class.std::basic_string"* @_ZSt11__addressofISsEPT_RS0_(%"class.std::basic_string"* dereferenceable(8) %__r) #8 comdat {
entry:
  %__r.addr = alloca %"class.std::basic_string"*, align 8
  store %"class.std::basic_string"* %__r, %"class.std::basic_string"** %__r.addr, align 8
  call void @llvm.dbg.declare(metadata %"class.std::basic_string"** %__r.addr, metadata !11819, metadata !10245), !dbg !11820
  %0 = load %"class.std::basic_string"** %__r.addr, align 8, !dbg !11821
  %1 = bitcast %"class.std::basic_string"* %0 to i8*, !dbg !11822
  %2 = bitcast i8* %1 to %"class.std::basic_string"*, !dbg !11823
  ret %"class.std::basic_string"* %2, !dbg !11824
}

; Function Attrs: uwtable
define linkonce_odr void @_ZNSt12_Vector_baseISsSaISsEE13_M_deallocateEPSsm(%"struct.std::_Vector_base"* %this, %"class.std::basic_string"* %__p, i64 %__n) #3 comdat align 2 {
entry:
  %this.addr = alloca %"struct.std::_Vector_base"*, align 8
  %__p.addr = alloca %"class.std::basic_string"*, align 8
  %__n.addr = alloca i64, align 8
  store %"struct.std::_Vector_base"* %this, %"struct.std::_Vector_base"** %this.addr, align 8
  call void @llvm.dbg.declare(metadata %"struct.std::_Vector_base"** %this.addr, metadata !11825, metadata !10245), !dbg !11826
  store %"class.std::basic_string"* %__p, %"class.std::basic_string"** %__p.addr, align 8
  call void @llvm.dbg.declare(metadata %"class.std::basic_string"** %__p.addr, metadata !11827, metadata !10245), !dbg !11829
  store i64 %__n, i64* %__n.addr, align 8
  call void @llvm.dbg.declare(metadata i64* %__n.addr, metadata !11830, metadata !10245), !dbg !11831
  %this1 = load %"struct.std::_Vector_base"** %this.addr
  %0 = load %"class.std::basic_string"** %__p.addr, align 8, !dbg !11832
  %tobool = icmp ne %"class.std::basic_string"* %0, null, !dbg !11832
  br i1 %tobool, label %if.then, label %if.end, !dbg !11834

if.then:                                          ; preds = %entry
  %_M_impl = getelementptr inbounds %"struct.std::_Vector_base"* %this1, i32 0, i32 0, !dbg !11835
  %1 = bitcast %"struct.std::_Vector_base<std::basic_string<char>, std::allocator<std::basic_string<char> > >::_Vector_impl"* %_M_impl to %"class.__gnu_cxx::new_allocator.24"*, !dbg !11835
  %2 = load %"class.std::basic_string"** %__p.addr, align 8, !dbg !11836
  %3 = load i64* %__n.addr, align 8, !dbg !11837
  call void @_ZN9__gnu_cxx13new_allocatorISsE10deallocateEPSsm(%"class.__gnu_cxx::new_allocator.24"* %1, %"class.std::basic_string"* %2, i64 %3), !dbg !11835
  br label %if.end, !dbg !11835

if.end:                                           ; preds = %if.then, %entry
  ret void, !dbg !11838
}

; Function Attrs: inlinehint nounwind uwtable
define linkonce_odr void @_ZNSt12_Vector_baseISsSaISsEE12_Vector_implD2Ev(%"struct.std::_Vector_base<std::basic_string<char>, std::allocator<std::basic_string<char> > >::_Vector_impl"* %this) unnamed_addr #8 comdat align 2 {
entry:
  %this.addr = alloca %"struct.std::_Vector_base<std::basic_string<char>, std::allocator<std::basic_string<char> > >::_Vector_impl"*, align 8
  store %"struct.std::_Vector_base<std::basic_string<char>, std::allocator<std::basic_string<char> > >::_Vector_impl"* %this, %"struct.std::_Vector_base<std::basic_string<char>, std::allocator<std::basic_string<char> > >::_Vector_impl"** %this.addr, align 8
  call void @llvm.dbg.declare(metadata %"struct.std::_Vector_base<std::basic_string<char>, std::allocator<std::basic_string<char> > >::_Vector_impl"** %this.addr, metadata !11839, metadata !10245), !dbg !11840
  %this1 = load %"struct.std::_Vector_base<std::basic_string<char>, std::allocator<std::basic_string<char> > >::_Vector_impl"** %this.addr
  %0 = bitcast %"struct.std::_Vector_base<std::basic_string<char>, std::allocator<std::basic_string<char> > >::_Vector_impl"* %this1 to %"class.std::allocator.23"*, !dbg !11841
  call void @_ZNSaISsED2Ev(%"class.std::allocator.23"* %0) #1, !dbg !11841
  ret void, !dbg !11843
}

; Function Attrs: nounwind uwtable
define linkonce_odr void @_ZN9__gnu_cxx13new_allocatorISsE10deallocateEPSsm(%"class.__gnu_cxx::new_allocator.24"* %this, %"class.std::basic_string"* %__p, i64) #2 comdat align 2 {
entry:
  %this.addr = alloca %"class.__gnu_cxx::new_allocator.24"*, align 8
  %__p.addr = alloca %"class.std::basic_string"*, align 8
  %.addr = alloca i64, align 8
  store %"class.__gnu_cxx::new_allocator.24"* %this, %"class.__gnu_cxx::new_allocator.24"** %this.addr, align 8
  call void @llvm.dbg.declare(metadata %"class.__gnu_cxx::new_allocator.24"** %this.addr, metadata !11844, metadata !10245), !dbg !11845
  store %"class.std::basic_string"* %__p, %"class.std::basic_string"** %__p.addr, align 8
  call void @llvm.dbg.declare(metadata %"class.std::basic_string"** %__p.addr, metadata !11846, metadata !10245), !dbg !11847
  store i64 %0, i64* %.addr, align 8
  call void @llvm.dbg.declare(metadata i64* %.addr, metadata !11848, metadata !10245), !dbg !11849
  %this1 = load %"class.__gnu_cxx::new_allocator.24"** %this.addr
  %1 = load %"class.std::basic_string"** %__p.addr, align 8, !dbg !11850
  %2 = bitcast %"class.std::basic_string"* %1 to i8*, !dbg !11850
  call void @_ZdlPv(i8* %2) #1, !dbg !11851
  ret void, !dbg !11852
}

; Function Attrs: nounwind uwtable
define linkonce_odr void @_ZNSaISsED2Ev(%"class.std::allocator.23"* %this) unnamed_addr #2 comdat align 2 {
entry:
  %this.addr = alloca %"class.std::allocator.23"*, align 8
  store %"class.std::allocator.23"* %this, %"class.std::allocator.23"** %this.addr, align 8
  call void @llvm.dbg.declare(metadata %"class.std::allocator.23"** %this.addr, metadata !11853, metadata !10245), !dbg !11854
  %this1 = load %"class.std::allocator.23"** %this.addr
  %0 = bitcast %"class.std::allocator.23"* %this1 to %"class.__gnu_cxx::new_allocator.24"*, !dbg !11855
  call void @_ZN9__gnu_cxx13new_allocatorISsED2Ev(%"class.__gnu_cxx::new_allocator.24"* %0) #1, !dbg !11855
  ret void, !dbg !11857
}

; Function Attrs: nounwind uwtable
define linkonce_odr void @_ZN9__gnu_cxx13new_allocatorISsED2Ev(%"class.__gnu_cxx::new_allocator.24"* %this) unnamed_addr #2 comdat align 2 {
entry:
  %this.addr = alloca %"class.__gnu_cxx::new_allocator.24"*, align 8
  store %"class.__gnu_cxx::new_allocator.24"* %this, %"class.__gnu_cxx::new_allocator.24"** %this.addr, align 8
  call void @llvm.dbg.declare(metadata %"class.__gnu_cxx::new_allocator.24"** %this.addr, metadata !11858, metadata !10245), !dbg !11859
  %this1 = load %"class.__gnu_cxx::new_allocator.24"** %this.addr
  ret void, !dbg !11860
}

; Function Attrs: uwtable
define linkonce_odr void @_ZNSt8_Rb_treeISsSt4pairIKSsSsESt10_Select1stIS2_ESt4lessISsESaIS2_EEC2Ev(%"class.std::_Rb_tree"* %this) unnamed_addr #3 comdat align 2 {
entry:
  %this.addr = alloca %"class.std::_Rb_tree"*, align 8
  store %"class.std::_Rb_tree"* %this, %"class.std::_Rb_tree"** %this.addr, align 8
  call void @llvm.dbg.declare(metadata %"class.std::_Rb_tree"** %this.addr, metadata !11861, metadata !10245), !dbg !11862
  %this1 = load %"class.std::_Rb_tree"** %this.addr
  %_M_impl = getelementptr inbounds %"class.std::_Rb_tree"* %this1, i32 0, i32 0, !dbg !11863
  call void @_ZNSt8_Rb_treeISsSt4pairIKSsSsESt10_Select1stIS2_ESt4lessISsESaIS2_EE13_Rb_tree_implIS6_Lb0EEC2Ev(%"struct.std::_Rb_tree<std::basic_string<char>, std::pair<const std::basic_string<char>, std::basic_string<char> >, std::_Select1st<std::pair<const std::basic_string<char>, std::basic_string<char> > >, std::less<std::basic_string<char> >, std::allocator<std::pair<const std::basic_string<char>, std::basic_string<char> > > >::_Rb_tree_impl"* %_M_impl), !dbg !11863
  ret void, !dbg !11864
}

; Function Attrs: uwtable
define linkonce_odr void @_ZNSt8_Rb_treeISsSt4pairIKSsSsESt10_Select1stIS2_ESt4lessISsESaIS2_EE13_Rb_tree_implIS6_Lb0EEC2Ev(%"struct.std::_Rb_tree<std::basic_string<char>, std::pair<const std::basic_string<char>, std::basic_string<char> >, std::_Select1st<std::pair<const std::basic_string<char>, std::basic_string<char> > >, std::less<std::basic_string<char> >, std::allocator<std::pair<const std::basic_string<char>, std::basic_string<char> > > >::_Rb_tree_impl"* %this) unnamed_addr #3 comdat align 2 {
entry:
  %this.addr = alloca %"struct.std::_Rb_tree<std::basic_string<char>, std::pair<const std::basic_string<char>, std::basic_string<char> >, std::_Select1st<std::pair<const std::basic_string<char>, std::basic_string<char> > >, std::less<std::basic_string<char> >, std::allocator<std::pair<const std::basic_string<char>, std::basic_string<char> > > >::_Rb_tree_impl"*, align 8
  %exn.slot = alloca i8*
  %ehselector.slot = alloca i32
  store %"struct.std::_Rb_tree<std::basic_string<char>, std::pair<const std::basic_string<char>, std::basic_string<char> >, std::_Select1st<std::pair<const std::basic_string<char>, std::basic_string<char> > >, std::less<std::basic_string<char> >, std::allocator<std::pair<const std::basic_string<char>, std::basic_string<char> > > >::_Rb_tree_impl"* %this, %"struct.std::_Rb_tree<std::basic_string<char>, std::pair<const std::basic_string<char>, std::basic_string<char> >, std::_Select1st<std::pair<const std::basic_string<char>, std::basic_string<char> > >, std::less<std::basic_string<char> >, std::allocator<std::pair<const std::basic_string<char>, std::basic_string<char> > > >::_Rb_tree_impl"** %this.addr, align 8
  call void @llvm.dbg.declare(metadata %"struct.std::_Rb_tree<std::basic_string<char>, std::pair<const std::basic_string<char>, std::basic_string<char> >, std::_Select1st<std::pair<const std::basic_string<char>, std::basic_string<char> > >, std::less<std::basic_string<char> >, std::allocator<std::pair<const std::basic_string<char>, std::basic_string<char> > > >::_Rb_tree_impl"** %this.addr, metadata !11865, metadata !10245), !dbg !11866
  %this1 = load %"struct.std::_Rb_tree<std::basic_string<char>, std::pair<const std::basic_string<char>, std::basic_string<char> >, std::_Select1st<std::pair<const std::basic_string<char>, std::basic_string<char> > >, std::less<std::basic_string<char> >, std::allocator<std::pair<const std::basic_string<char>, std::basic_string<char> > > >::_Rb_tree_impl"** %this.addr
  %0 = bitcast %"struct.std::_Rb_tree<std::basic_string<char>, std::pair<const std::basic_string<char>, std::basic_string<char> >, std::_Select1st<std::pair<const std::basic_string<char>, std::basic_string<char> > >, std::less<std::basic_string<char> >, std::allocator<std::pair<const std::basic_string<char>, std::basic_string<char> > > >::_Rb_tree_impl"* %this1 to %"class.std::allocator.16"*, !dbg !11867
  call void @_ZNSaISt13_Rb_tree_nodeISt4pairIKSsSsEEEC2Ev(%"class.std::allocator.16"* %0) #1, !dbg !11868
  %_M_key_compare = getelementptr inbounds %"struct.std::_Rb_tree<std::basic_string<char>, std::pair<const std::basic_string<char>, std::basic_string<char> >, std::_Select1st<std::pair<const std::basic_string<char>, std::basic_string<char> > >, std::less<std::basic_string<char> >, std::allocator<std::pair<const std::basic_string<char>, std::basic_string<char> > > >::_Rb_tree_impl"* %this1, i32 0, i32 0, !dbg !11869
  %_M_header = getelementptr inbounds %"struct.std::_Rb_tree<std::basic_string<char>, std::pair<const std::basic_string<char>, std::basic_string<char> >, std::_Select1st<std::pair<const std::basic_string<char>, std::basic_string<char> > >, std::less<std::basic_string<char> >, std::allocator<std::pair<const std::basic_string<char>, std::basic_string<char> > > >::_Rb_tree_impl"* %this1, i32 0, i32 1, !dbg !11870
  %1 = bitcast %"struct.std::_Rb_tree_node_base"* %_M_header to i8*, !dbg !11870
  call void @llvm.memset.p0i8.i64(i8* %1, i8 0, i64 32, i32 8, i1 false), !dbg !11870
  %_M_node_count = getelementptr inbounds %"struct.std::_Rb_tree<std::basic_string<char>, std::pair<const std::basic_string<char>, std::basic_string<char> >, std::_Select1st<std::pair<const std::basic_string<char>, std::basic_string<char> > >, std::less<std::basic_string<char> >, std::allocator<std::pair<const std::basic_string<char>, std::basic_string<char> > > >::_Rb_tree_impl"* %this1, i32 0, i32 2, !dbg !11871
  store i64 0, i64* %_M_node_count, align 8, !dbg !11871
  invoke void @_ZNSt8_Rb_treeISsSt4pairIKSsSsESt10_Select1stIS2_ESt4lessISsESaIS2_EE13_Rb_tree_implIS6_Lb0EE13_M_initializeEv(%"struct.std::_Rb_tree<std::basic_string<char>, std::pair<const std::basic_string<char>, std::basic_string<char> >, std::_Select1st<std::pair<const std::basic_string<char>, std::basic_string<char> > >, std::less<std::basic_string<char> >, std::allocator<std::pair<const std::basic_string<char>, std::basic_string<char> > > >::_Rb_tree_impl"* %this1)
          to label %invoke.cont unwind label %lpad, !dbg !11872

invoke.cont:                                      ; preds = %entry
  ret void, !dbg !11874

lpad:                                             ; preds = %entry
  %2 = landingpad { i8*, i32 } personality i8* bitcast (i32 (...)* @__gxx_personality_v0 to i8*)
          cleanup, !dbg !11876
  %3 = extractvalue { i8*, i32 } %2, 0, !dbg !11876
  store i8* %3, i8** %exn.slot, !dbg !11876
  %4 = extractvalue { i8*, i32 } %2, 1, !dbg !11876
  store i32 %4, i32* %ehselector.slot, !dbg !11876
  %5 = bitcast %"struct.std::_Rb_tree<std::basic_string<char>, std::pair<const std::basic_string<char>, std::basic_string<char> >, std::_Select1st<std::pair<const std::basic_string<char>, std::basic_string<char> > >, std::less<std::basic_string<char> >, std::allocator<std::pair<const std::basic_string<char>, std::basic_string<char> > > >::_Rb_tree_impl"* %this1 to %"class.std::allocator.16"*, !dbg !11876
  call void @_ZNSaISt13_Rb_tree_nodeISt4pairIKSsSsEEED2Ev(%"class.std::allocator.16"* %5) #1, !dbg !11876
  br label %eh.resume, !dbg !11876

eh.resume:                                        ; preds = %lpad
  %exn = load i8** %exn.slot, !dbg !11878
  %sel = load i32* %ehselector.slot, !dbg !11878
  %lpad.val = insertvalue { i8*, i32 } undef, i8* %exn, 0, !dbg !11878
  %lpad.val2 = insertvalue { i8*, i32 } %lpad.val, i32 %sel, 1, !dbg !11878
  resume { i8*, i32 } %lpad.val2, !dbg !11878
}

; Function Attrs: nounwind uwtable
define linkonce_odr void @_ZNSaISt13_Rb_tree_nodeISt4pairIKSsSsEEEC2Ev(%"class.std::allocator.16"* %this) unnamed_addr #2 comdat align 2 {
entry:
  %this.addr = alloca %"class.std::allocator.16"*, align 8
  store %"class.std::allocator.16"* %this, %"class.std::allocator.16"** %this.addr, align 8
  call void @llvm.dbg.declare(metadata %"class.std::allocator.16"** %this.addr, metadata !11880, metadata !10245), !dbg !11881
  %this1 = load %"class.std::allocator.16"** %this.addr
  %0 = bitcast %"class.std::allocator.16"* %this1 to %"class.__gnu_cxx::new_allocator.17"*, !dbg !11882
  call void @_ZN9__gnu_cxx13new_allocatorISt13_Rb_tree_nodeISt4pairIKSsSsEEEC2Ev(%"class.__gnu_cxx::new_allocator.17"* %0) #1, !dbg !11883
  ret void, !dbg !11884
}

; Function Attrs: nounwind uwtable
define linkonce_odr void @_ZNSt8_Rb_treeISsSt4pairIKSsSsESt10_Select1stIS2_ESt4lessISsESaIS2_EE13_Rb_tree_implIS6_Lb0EE13_M_initializeEv(%"struct.std::_Rb_tree<std::basic_string<char>, std::pair<const std::basic_string<char>, std::basic_string<char> >, std::_Select1st<std::pair<const std::basic_string<char>, std::basic_string<char> > >, std::less<std::basic_string<char> >, std::allocator<std::pair<const std::basic_string<char>, std::basic_string<char> > > >::_Rb_tree_impl"* %this) #2 comdat align 2 {
entry:
  %this.addr = alloca %"struct.std::_Rb_tree<std::basic_string<char>, std::pair<const std::basic_string<char>, std::basic_string<char> >, std::_Select1st<std::pair<const std::basic_string<char>, std::basic_string<char> > >, std::less<std::basic_string<char> >, std::allocator<std::pair<const std::basic_string<char>, std::basic_string<char> > > >::_Rb_tree_impl"*, align 8
  store %"struct.std::_Rb_tree<std::basic_string<char>, std::pair<const std::basic_string<char>, std::basic_string<char> >, std::_Select1st<std::pair<const std::basic_string<char>, std::basic_string<char> > >, std::less<std::basic_string<char> >, std::allocator<std::pair<const std::basic_string<char>, std::basic_string<char> > > >::_Rb_tree_impl"* %this, %"struct.std::_Rb_tree<std::basic_string<char>, std::pair<const std::basic_string<char>, std::basic_string<char> >, std::_Select1st<std::pair<const std::basic_string<char>, std::basic_string<char> > >, std::less<std::basic_string<char> >, std::allocator<std::pair<const std::basic_string<char>, std::basic_string<char> > > >::_Rb_tree_impl"** %this.addr, align 8
  call void @llvm.dbg.declare(metadata %"struct.std::_Rb_tree<std::basic_string<char>, std::pair<const std::basic_string<char>, std::basic_string<char> >, std::_Select1st<std::pair<const std::basic_string<char>, std::basic_string<char> > >, std::less<std::basic_string<char> >, std::allocator<std::pair<const std::basic_string<char>, std::basic_string<char> > > >::_Rb_tree_impl"** %this.addr, metadata !11885, metadata !10245), !dbg !11886
  %this1 = load %"struct.std::_Rb_tree<std::basic_string<char>, std::pair<const std::basic_string<char>, std::basic_string<char> >, std::_Select1st<std::pair<const std::basic_string<char>, std::basic_string<char> > >, std::less<std::basic_string<char> >, std::allocator<std::pair<const std::basic_string<char>, std::basic_string<char> > > >::_Rb_tree_impl"** %this.addr
  %_M_header = getelementptr inbounds %"struct.std::_Rb_tree<std::basic_string<char>, std::pair<const std::basic_string<char>, std::basic_string<char> >, std::_Select1st<std::pair<const std::basic_string<char>, std::basic_string<char> > >, std::less<std::basic_string<char> >, std::allocator<std::pair<const std::basic_string<char>, std::basic_string<char> > > >::_Rb_tree_impl"* %this1, i32 0, i32 1, !dbg !11887
  %_M_color = getelementptr inbounds %"struct.std::_Rb_tree_node_base"* %_M_header, i32 0, i32 0, !dbg !11888
  store i32 0, i32* %_M_color, align 4, !dbg !11889
  %_M_header2 = getelementptr inbounds %"struct.std::_Rb_tree<std::basic_string<char>, std::pair<const std::basic_string<char>, std::basic_string<char> >, std::_Select1st<std::pair<const std::basic_string<char>, std::basic_string<char> > >, std::less<std::basic_string<char> >, std::allocator<std::pair<const std::basic_string<char>, std::basic_string<char> > > >::_Rb_tree_impl"* %this1, i32 0, i32 1, !dbg !11890
  %_M_parent = getelementptr inbounds %"struct.std::_Rb_tree_node_base"* %_M_header2, i32 0, i32 1, !dbg !11891
  store %"struct.std::_Rb_tree_node_base"* null, %"struct.std::_Rb_tree_node_base"** %_M_parent, align 8, !dbg !11892
  %_M_header3 = getelementptr inbounds %"struct.std::_Rb_tree<std::basic_string<char>, std::pair<const std::basic_string<char>, std::basic_string<char> >, std::_Select1st<std::pair<const std::basic_string<char>, std::basic_string<char> > >, std::less<std::basic_string<char> >, std::allocator<std::pair<const std::basic_string<char>, std::basic_string<char> > > >::_Rb_tree_impl"* %this1, i32 0, i32 1, !dbg !11893
  %_M_header4 = getelementptr inbounds %"struct.std::_Rb_tree<std::basic_string<char>, std::pair<const std::basic_string<char>, std::basic_string<char> >, std::_Select1st<std::pair<const std::basic_string<char>, std::basic_string<char> > >, std::less<std::basic_string<char> >, std::allocator<std::pair<const std::basic_string<char>, std::basic_string<char> > > >::_Rb_tree_impl"* %this1, i32 0, i32 1, !dbg !11894
  %_M_left = getelementptr inbounds %"struct.std::_Rb_tree_node_base"* %_M_header4, i32 0, i32 2, !dbg !11895
  store %"struct.std::_Rb_tree_node_base"* %_M_header3, %"struct.std::_Rb_tree_node_base"** %_M_left, align 8, !dbg !11896
  %_M_header5 = getelementptr inbounds %"struct.std::_Rb_tree<std::basic_string<char>, std::pair<const std::basic_string<char>, std::basic_string<char> >, std::_Select1st<std::pair<const std::basic_string<char>, std::basic_string<char> > >, std::less<std::basic_string<char> >, std::allocator<std::pair<const std::basic_string<char>, std::basic_string<char> > > >::_Rb_tree_impl"* %this1, i32 0, i32 1, !dbg !11897
  %_M_header6 = getelementptr inbounds %"struct.std::_Rb_tree<std::basic_string<char>, std::pair<const std::basic_string<char>, std::basic_string<char> >, std::_Select1st<std::pair<const std::basic_string<char>, std::basic_string<char> > >, std::less<std::basic_string<char> >, std::allocator<std::pair<const std::basic_string<char>, std::basic_string<char> > > >::_Rb_tree_impl"* %this1, i32 0, i32 1, !dbg !11898
  %_M_right = getelementptr inbounds %"struct.std::_Rb_tree_node_base"* %_M_header6, i32 0, i32 3, !dbg !11899
  store %"struct.std::_Rb_tree_node_base"* %_M_header5, %"struct.std::_Rb_tree_node_base"** %_M_right, align 8, !dbg !11900
  ret void, !dbg !11901
}

; Function Attrs: nounwind uwtable
define linkonce_odr void @_ZN9__gnu_cxx13new_allocatorISt13_Rb_tree_nodeISt4pairIKSsSsEEEC2Ev(%"class.__gnu_cxx::new_allocator.17"* %this) unnamed_addr #2 comdat align 2 {
entry:
  %this.addr = alloca %"class.__gnu_cxx::new_allocator.17"*, align 8
  store %"class.__gnu_cxx::new_allocator.17"* %this, %"class.__gnu_cxx::new_allocator.17"** %this.addr, align 8
  call void @llvm.dbg.declare(metadata %"class.__gnu_cxx::new_allocator.17"** %this.addr, metadata !11902, metadata !10245), !dbg !11903
  %this1 = load %"class.__gnu_cxx::new_allocator.17"** %this.addr
  ret void, !dbg !11904
}

declare zeroext i1 @_ZNK3ros10NodeHandle8hasParamERKSs(%"class.ros::NodeHandle"*, %"class.std::basic_string"* dereferenceable(8)) #0

declare zeroext i1 @_ZNK3ros10NodeHandle8getParamERKSsRi(%"class.ros::NodeHandle"*, %"class.std::basic_string"* dereferenceable(8), i32* dereferenceable(4)) #0

; Function Attrs: uwtable
define linkonce_odr void @_ZN3ros16AdvertiseOptionsC2Ev(%"struct.ros::AdvertiseOptions"* %this) unnamed_addr #3 comdat align 2 {
entry:
  %this.addr = alloca %"struct.ros::AdvertiseOptions"*, align 8
  %exn.slot = alloca i8*
  %ehselector.slot = alloca i32
  store %"struct.ros::AdvertiseOptions"* %this, %"struct.ros::AdvertiseOptions"** %this.addr, align 8
  call void @llvm.dbg.declare(metadata %"struct.ros::AdvertiseOptions"** %this.addr, metadata !11905, metadata !10245), !dbg !11907
  %this1 = load %"struct.ros::AdvertiseOptions"** %this.addr
  %topic = getelementptr inbounds %"struct.ros::AdvertiseOptions"* %this1, i32 0, i32 0, !dbg !11908
  call void @_ZNSsC1Ev(%"class.std::basic_string"* %topic), !dbg !11908
  %md5sum = getelementptr inbounds %"struct.ros::AdvertiseOptions"* %this1, i32 0, i32 3, !dbg !11908
  invoke void @_ZNSsC1Ev(%"class.std::basic_string"* %md5sum)
          to label %invoke.cont unwind label %lpad, !dbg !11908

invoke.cont:                                      ; preds = %entry
  %datatype = getelementptr inbounds %"struct.ros::AdvertiseOptions"* %this1, i32 0, i32 4, !dbg !11909
  invoke void @_ZNSsC1Ev(%"class.std::basic_string"* %datatype)
          to label %invoke.cont3 unwind label %lpad2, !dbg !11909

invoke.cont3:                                     ; preds = %invoke.cont
  %message_definition = getelementptr inbounds %"struct.ros::AdvertiseOptions"* %this1, i32 0, i32 5, !dbg !11911
  invoke void @_ZNSsC1Ev(%"class.std::basic_string"* %message_definition)
          to label %invoke.cont5 unwind label %lpad4, !dbg !11911

invoke.cont5:                                     ; preds = %invoke.cont3
  %connect_cb = getelementptr inbounds %"struct.ros::AdvertiseOptions"* %this1, i32 0, i32 6, !dbg !11913
  invoke void @_ZN5boost8functionIFvRKN3ros25SingleSubscriberPublisherEEEC2Ev(%"class.boost::function"* %connect_cb)
          to label %invoke.cont7 unwind label %lpad6, !dbg !11913

invoke.cont7:                                     ; preds = %invoke.cont5
  %disconnect_cb = getelementptr inbounds %"struct.ros::AdvertiseOptions"* %this1, i32 0, i32 7, !dbg !11915
  invoke void @_ZN5boost8functionIFvRKN3ros25SingleSubscriberPublisherEEEC2Ev(%"class.boost::function"* %disconnect_cb)
          to label %invoke.cont9 unwind label %lpad8, !dbg !11915

invoke.cont9:                                     ; preds = %invoke.cont7
  %callback_queue = getelementptr inbounds %"struct.ros::AdvertiseOptions"* %this1, i32 0, i32 8, !dbg !11917
  store %"class.ros::CallbackQueueInterface"* null, %"class.ros::CallbackQueueInterface"** %callback_queue, align 8, !dbg !11917
  %tracked_object = getelementptr inbounds %"struct.ros::AdvertiseOptions"* %this1, i32 0, i32 9, !dbg !11908
  invoke void @_ZN5boost10shared_ptrIKvEC2Ev(%"class.boost::shared_ptr.30"* %tracked_object)
          to label %invoke.cont11 unwind label %lpad10, !dbg !11908

invoke.cont11:                                    ; preds = %invoke.cont9
  %latch = getelementptr inbounds %"struct.ros::AdvertiseOptions"* %this1, i32 0, i32 10, !dbg !11918
  store i8 0, i8* %latch, align 1, !dbg !11918
  ret void, !dbg !11919

lpad:                                             ; preds = %entry
  %0 = landingpad { i8*, i32 } personality i8* bitcast (i32 (...)* @__gxx_personality_v0 to i8*)
          cleanup, !dbg !11919
  %1 = extractvalue { i8*, i32 } %0, 0, !dbg !11919
  store i8* %1, i8** %exn.slot, !dbg !11919
  %2 = extractvalue { i8*, i32 } %0, 1, !dbg !11919
  store i32 %2, i32* %ehselector.slot, !dbg !11919
  br label %ehcleanup20, !dbg !11919

lpad2:                                            ; preds = %invoke.cont
  %3 = landingpad { i8*, i32 } personality i8* bitcast (i32 (...)* @__gxx_personality_v0 to i8*)
          cleanup, !dbg !11919
  %4 = extractvalue { i8*, i32 } %3, 0, !dbg !11919
  store i8* %4, i8** %exn.slot, !dbg !11919
  %5 = extractvalue { i8*, i32 } %3, 1, !dbg !11919
  store i32 %5, i32* %ehselector.slot, !dbg !11919
  br label %ehcleanup18, !dbg !11919

lpad4:                                            ; preds = %invoke.cont3
  %6 = landingpad { i8*, i32 } personality i8* bitcast (i32 (...)* @__gxx_personality_v0 to i8*)
          cleanup, !dbg !11919
  %7 = extractvalue { i8*, i32 } %6, 0, !dbg !11919
  store i8* %7, i8** %exn.slot, !dbg !11919
  %8 = extractvalue { i8*, i32 } %6, 1, !dbg !11919
  store i32 %8, i32* %ehselector.slot, !dbg !11919
  br label %ehcleanup16, !dbg !11919

lpad6:                                            ; preds = %invoke.cont5
  %9 = landingpad { i8*, i32 } personality i8* bitcast (i32 (...)* @__gxx_personality_v0 to i8*)
          cleanup, !dbg !11919
  %10 = extractvalue { i8*, i32 } %9, 0, !dbg !11919
  store i8* %10, i8** %exn.slot, !dbg !11919
  %11 = extractvalue { i8*, i32 } %9, 1, !dbg !11919
  store i32 %11, i32* %ehselector.slot, !dbg !11919
  br label %ehcleanup14, !dbg !11919

lpad8:                                            ; preds = %invoke.cont7
  %12 = landingpad { i8*, i32 } personality i8* bitcast (i32 (...)* @__gxx_personality_v0 to i8*)
          cleanup, !dbg !11919
  %13 = extractvalue { i8*, i32 } %12, 0, !dbg !11919
  store i8* %13, i8** %exn.slot, !dbg !11919
  %14 = extractvalue { i8*, i32 } %12, 1, !dbg !11919
  store i32 %14, i32* %ehselector.slot, !dbg !11919
  br label %ehcleanup, !dbg !11919

lpad10:                                           ; preds = %invoke.cont9
  %15 = landingpad { i8*, i32 } personality i8* bitcast (i32 (...)* @__gxx_personality_v0 to i8*)
          cleanup, !dbg !11919
  %16 = extractvalue { i8*, i32 } %15, 0, !dbg !11919
  store i8* %16, i8** %exn.slot, !dbg !11919
  %17 = extractvalue { i8*, i32 } %15, 1, !dbg !11919
  store i32 %17, i32* %ehselector.slot, !dbg !11919
  invoke void @_ZN5boost8functionIFvRKN3ros25SingleSubscriberPublisherEEED2Ev(%"class.boost::function"* %disconnect_cb)
          to label %invoke.cont12 unwind label %terminate.lpad, !dbg !11920

invoke.cont12:                                    ; preds = %lpad10
  br label %ehcleanup, !dbg !11922

ehcleanup:                                        ; preds = %invoke.cont12, %lpad8
  invoke void @_ZN5boost8functionIFvRKN3ros25SingleSubscriberPublisherEEED2Ev(%"class.boost::function"* %connect_cb)
          to label %invoke.cont13 unwind label %terminate.lpad, !dbg !11924

invoke.cont13:                                    ; preds = %ehcleanup
  br label %ehcleanup14, !dbg !11927

ehcleanup14:                                      ; preds = %invoke.cont13, %lpad6
  invoke void @_ZNSsD1Ev(%"class.std::basic_string"* %message_definition)
          to label %invoke.cont15 unwind label %terminate.lpad, !dbg !11929

invoke.cont15:                                    ; preds = %ehcleanup14
  br label %ehcleanup16, !dbg !11932

ehcleanup16:                                      ; preds = %invoke.cont15, %lpad4
  invoke void @_ZNSsD1Ev(%"class.std::basic_string"* %datatype)
          to label %invoke.cont17 unwind label %terminate.lpad, !dbg !11934

invoke.cont17:                                    ; preds = %ehcleanup16
  br label %ehcleanup18, !dbg !11937

ehcleanup18:                                      ; preds = %invoke.cont17, %lpad2
  invoke void @_ZNSsD1Ev(%"class.std::basic_string"* %md5sum)
          to label %invoke.cont19 unwind label %terminate.lpad, !dbg !11939

invoke.cont19:                                    ; preds = %ehcleanup18
  br label %ehcleanup20, !dbg !11942

ehcleanup20:                                      ; preds = %invoke.cont19, %lpad
  invoke void @_ZNSsD1Ev(%"class.std::basic_string"* %topic)
          to label %invoke.cont21 unwind label %terminate.lpad, !dbg !11944

invoke.cont21:                                    ; preds = %ehcleanup20
  br label %eh.resume, !dbg !11947

eh.resume:                                        ; preds = %invoke.cont21
  %exn = load i8** %exn.slot, !dbg !11949
  %sel = load i32* %ehselector.slot, !dbg !11949
  %lpad.val = insertvalue { i8*, i32 } undef, i8* %exn, 0, !dbg !11949
  %lpad.val22 = insertvalue { i8*, i32 } %lpad.val, i32 %sel, 1, !dbg !11949
  resume { i8*, i32 } %lpad.val22, !dbg !11949

terminate.lpad:                                   ; preds = %ehcleanup20, %ehcleanup18, %ehcleanup16, %ehcleanup14, %ehcleanup, %lpad10
  %18 = landingpad { i8*, i32 } personality i8* bitcast (i32 (...)* @__gxx_personality_v0 to i8*)
          catch i8* null, !dbg !11951
  %19 = extractvalue { i8*, i32 } %18, 0, !dbg !11951
  call void @__clang_call_terminate(i8* %19) #15, !dbg !11951
  unreachable, !dbg !11951
}

; Function Attrs: uwtable
define linkonce_odr void @_ZN3ros16AdvertiseOptions4initIN8std_msgs6Int16_ISaIvEEEEEvRKSsjRKN5boost8functionIFvRKNS_25SingleSubscriberPublisherEEEESG_(%"struct.ros::AdvertiseOptions"* %this, %"class.std::basic_string"* dereferenceable(8) %_topic, i32 %_queue_size, %"class.boost::function"* dereferenceable(32) %_connect_cb, %"class.boost::function"* dereferenceable(32) %_disconnect_cb) #3 comdat align 2 {
entry:
  %this.addr = alloca %"struct.ros::AdvertiseOptions"*, align 8
  %_topic.addr = alloca %"class.std::basic_string"*, align 8
  %_queue_size.addr = alloca i32, align 4
  %_connect_cb.addr = alloca %"class.boost::function"*, align 8
  %_disconnect_cb.addr = alloca %"class.boost::function"*, align 8
  store %"struct.ros::AdvertiseOptions"* %this, %"struct.ros::AdvertiseOptions"** %this.addr, align 8
  call void @llvm.dbg.declare(metadata %"struct.ros::AdvertiseOptions"** %this.addr, metadata !11958, metadata !10245), !dbg !11959
  store %"class.std::basic_string"* %_topic, %"class.std::basic_string"** %_topic.addr, align 8
  call void @llvm.dbg.declare(metadata %"class.std::basic_string"** %_topic.addr, metadata !11960, metadata !10245), !dbg !11962
  store i32 %_queue_size, i32* %_queue_size.addr, align 4
  call void @llvm.dbg.declare(metadata i32* %_queue_size.addr, metadata !11963, metadata !10245), !dbg !11964
  store %"class.boost::function"* %_connect_cb, %"class.boost::function"** %_connect_cb.addr, align 8
  call void @llvm.dbg.declare(metadata %"class.boost::function"** %_connect_cb.addr, metadata !11965, metadata !10245), !dbg !11966
  store %"class.boost::function"* %_disconnect_cb, %"class.boost::function"** %_disconnect_cb.addr, align 8
  call void @llvm.dbg.declare(metadata %"class.boost::function"** %_disconnect_cb.addr, metadata !11967, metadata !10245), !dbg !11968
  %this1 = load %"struct.ros::AdvertiseOptions"** %this.addr
  %topic = getelementptr inbounds %"struct.ros::AdvertiseOptions"* %this1, i32 0, i32 0, !dbg !11969
  %0 = load %"class.std::basic_string"** %_topic.addr, align 8, !dbg !11970
  %call = call dereferenceable(8) %"class.std::basic_string"* @_ZNSsaSERKSs(%"class.std::basic_string"* %topic, %"class.std::basic_string"* dereferenceable(8) %0), !dbg !11971
  %1 = load i32* %_queue_size.addr, align 4, !dbg !11972
  %queue_size = getelementptr inbounds %"struct.ros::AdvertiseOptions"* %this1, i32 0, i32 1, !dbg !11973
  store i32 %1, i32* %queue_size, align 4, !dbg !11974
  %connect_cb = getelementptr inbounds %"struct.ros::AdvertiseOptions"* %this1, i32 0, i32 6, !dbg !11975
  %2 = load %"class.boost::function"** %_connect_cb.addr, align 8, !dbg !11976
  %call2 = call dereferenceable(32) %"class.boost::function"* @_ZN5boost8functionIFvRKN3ros25SingleSubscriberPublisherEEEaSERKS6_(%"class.boost::function"* %connect_cb, %"class.boost::function"* dereferenceable(32) %2), !dbg !11977
  %disconnect_cb = getelementptr inbounds %"struct.ros::AdvertiseOptions"* %this1, i32 0, i32 7, !dbg !11978
  %3 = load %"class.boost::function"** %_disconnect_cb.addr, align 8, !dbg !11979
  %call3 = call dereferenceable(32) %"class.boost::function"* @_ZN5boost8functionIFvRKN3ros25SingleSubscriberPublisherEEEaSERKS6_(%"class.boost::function"* %disconnect_cb, %"class.boost::function"* dereferenceable(32) %3), !dbg !11980
  %md5sum = getelementptr inbounds %"struct.ros::AdvertiseOptions"* %this1, i32 0, i32 3, !dbg !11981
  %call4 = call i8* @_ZN3ros14message_traits6md5sumIN8std_msgs6Int16_ISaIvEEEEEPKcv(), !dbg !11982
  %call5 = call dereferenceable(8) %"class.std::basic_string"* @_ZNSsaSEPKc(%"class.std::basic_string"* %md5sum, i8* %call4), !dbg !11983
  %datatype = getelementptr inbounds %"struct.ros::AdvertiseOptions"* %this1, i32 0, i32 4, !dbg !11984
  %call6 = call i8* @_ZN3ros14message_traits8datatypeIN8std_msgs6Int16_ISaIvEEEEEPKcv(), !dbg !11985
  %call7 = call dereferenceable(8) %"class.std::basic_string"* @_ZNSsaSEPKc(%"class.std::basic_string"* %datatype, i8* %call6), !dbg !11986
  %message_definition = getelementptr inbounds %"struct.ros::AdvertiseOptions"* %this1, i32 0, i32 5, !dbg !11987
  %call8 = call i8* @_ZN3ros14message_traits10definitionIN8std_msgs6Int16_ISaIvEEEEEPKcv(), !dbg !11988
  %call9 = call dereferenceable(8) %"class.std::basic_string"* @_ZNSsaSEPKc(%"class.std::basic_string"* %message_definition, i8* %call8), !dbg !11989
  %call10 = call zeroext i1 @_ZN3ros14message_traits9hasHeaderIN8std_msgs6Int16_ISaIvEEEEEbv(), !dbg !11990
  %has_header = getelementptr inbounds %"struct.ros::AdvertiseOptions"* %this1, i32 0, i32 11, !dbg !11991
  %frombool = zext i1 %call10 to i8, !dbg !11992
  store i8 %frombool, i8* %has_header, align 1, !dbg !11992
  ret void, !dbg !11993
}

; Function Attrs: nounwind uwtable
define linkonce_odr void @_ZN5boost8functionIFvRKN3ros25SingleSubscriberPublisherEEEC2Ev(%"class.boost::function"* %this) unnamed_addr #2 comdat align 2 {
entry:
  %this.addr = alloca %"class.boost::function"*, align 8
  store %"class.boost::function"* %this, %"class.boost::function"** %this.addr, align 8
  call void @llvm.dbg.declare(metadata %"class.boost::function"** %this.addr, metadata !11994, metadata !10245), !dbg !11996
  %this1 = load %"class.boost::function"** %this.addr
  %0 = bitcast %"class.boost::function"* %this1 to %"class.boost::function1"*, !dbg !11997
  call void @_ZN5boost9function1IvRKN3ros25SingleSubscriberPublisherEEC2Ev(%"class.boost::function1"* %0), !dbg !11998
  ret void, !dbg !11999
}

; Function Attrs: inlinehint uwtable
define linkonce_odr void @_ZN5boost8functionIFvRKN3ros25SingleSubscriberPublisherEEED2Ev(%"class.boost::function"* %this) unnamed_addr #6 comdat align 2 {
entry:
  %this.addr = alloca %"class.boost::function"*, align 8
  store %"class.boost::function"* %this, %"class.boost::function"** %this.addr, align 8
  call void @llvm.dbg.declare(metadata %"class.boost::function"** %this.addr, metadata !12000, metadata !10245), !dbg !12001
  %this1 = load %"class.boost::function"** %this.addr
  %0 = bitcast %"class.boost::function"* %this1 to %"class.boost::function1"*, !dbg !12002
  call void @_ZN5boost9function1IvRKN3ros25SingleSubscriberPublisherEED2Ev(%"class.boost::function1"* %0), !dbg !12002
  ret void, !dbg !12004
}

declare void @_ZN3ros10NodeHandle9advertiseERNS_16AdvertiseOptionsE(%"class.ros::Publisher"* sret, %"class.ros::NodeHandle"*, %"struct.ros::AdvertiseOptions"* dereferenceable(136)) #0

; Function Attrs: inlinehint uwtable
define linkonce_odr void @_ZN3ros16AdvertiseOptionsD2Ev(%"struct.ros::AdvertiseOptions"* %this) unnamed_addr #6 comdat align 2 {
entry:
  %this.addr = alloca %"struct.ros::AdvertiseOptions"*, align 8
  %exn.slot = alloca i8*
  %ehselector.slot = alloca i32
  store %"struct.ros::AdvertiseOptions"* %this, %"struct.ros::AdvertiseOptions"** %this.addr, align 8
  call void @llvm.dbg.declare(metadata %"struct.ros::AdvertiseOptions"** %this.addr, metadata !12005, metadata !10245), !dbg !12006
  %this1 = load %"struct.ros::AdvertiseOptions"** %this.addr
  %tracked_object = getelementptr inbounds %"struct.ros::AdvertiseOptions"* %this1, i32 0, i32 9, !dbg !12007
  invoke void @_ZN5boost10shared_ptrIKvED2Ev(%"class.boost::shared_ptr.30"* %tracked_object)
          to label %invoke.cont unwind label %lpad, !dbg !12007

invoke.cont:                                      ; preds = %entry
  %disconnect_cb = getelementptr inbounds %"struct.ros::AdvertiseOptions"* %this1, i32 0, i32 7, !dbg !12009
  invoke void @_ZN5boost8functionIFvRKN3ros25SingleSubscriberPublisherEEED2Ev(%"class.boost::function"* %disconnect_cb)
          to label %invoke.cont3 unwind label %lpad2, !dbg !12009

invoke.cont3:                                     ; preds = %invoke.cont
  %connect_cb = getelementptr inbounds %"struct.ros::AdvertiseOptions"* %this1, i32 0, i32 6, !dbg !12011
  invoke void @_ZN5boost8functionIFvRKN3ros25SingleSubscriberPublisherEEED2Ev(%"class.boost::function"* %connect_cb)
          to label %invoke.cont7 unwind label %lpad6, !dbg !12011

invoke.cont7:                                     ; preds = %invoke.cont3
  %message_definition = getelementptr inbounds %"struct.ros::AdvertiseOptions"* %this1, i32 0, i32 5, !dbg !12013
  invoke void @_ZNSsD1Ev(%"class.std::basic_string"* %message_definition)
          to label %invoke.cont11 unwind label %lpad10, !dbg !12013

invoke.cont11:                                    ; preds = %invoke.cont7
  %datatype = getelementptr inbounds %"struct.ros::AdvertiseOptions"* %this1, i32 0, i32 4, !dbg !12015
  invoke void @_ZNSsD1Ev(%"class.std::basic_string"* %datatype)
          to label %invoke.cont16 unwind label %lpad15, !dbg !12015

invoke.cont16:                                    ; preds = %invoke.cont11
  %md5sum = getelementptr inbounds %"struct.ros::AdvertiseOptions"* %this1, i32 0, i32 3, !dbg !12017
  invoke void @_ZNSsD1Ev(%"class.std::basic_string"* %md5sum)
          to label %invoke.cont21 unwind label %lpad20, !dbg !12017

invoke.cont21:                                    ; preds = %invoke.cont16
  %topic = getelementptr inbounds %"struct.ros::AdvertiseOptions"* %this1, i32 0, i32 0, !dbg !12019
  call void @_ZNSsD1Ev(%"class.std::basic_string"* %topic), !dbg !12019
  ret void, !dbg !12021

lpad:                                             ; preds = %entry
  %0 = landingpad { i8*, i32 } personality i8* bitcast (i32 (...)* @__gxx_personality_v0 to i8*)
          cleanup, !dbg !12022
  %1 = extractvalue { i8*, i32 } %0, 0, !dbg !12022
  store i8* %1, i8** %exn.slot, !dbg !12022
  %2 = extractvalue { i8*, i32 } %0, 1, !dbg !12022
  store i32 %2, i32* %ehselector.slot, !dbg !12022
  %disconnect_cb4 = getelementptr inbounds %"struct.ros::AdvertiseOptions"* %this1, i32 0, i32 7, !dbg !12007
  invoke void @_ZN5boost8functionIFvRKN3ros25SingleSubscriberPublisherEEED2Ev(%"class.boost::function"* %disconnect_cb4)
          to label %invoke.cont5 unwind label %terminate.lpad, !dbg !12007

lpad2:                                            ; preds = %invoke.cont
  %3 = landingpad { i8*, i32 } personality i8* bitcast (i32 (...)* @__gxx_personality_v0 to i8*)
          cleanup, !dbg !12024
  %4 = extractvalue { i8*, i32 } %3, 0, !dbg !12024
  store i8* %4, i8** %exn.slot, !dbg !12024
  %5 = extractvalue { i8*, i32 } %3, 1, !dbg !12024
  store i32 %5, i32* %ehselector.slot, !dbg !12024
  br label %ehcleanup, !dbg !12024

invoke.cont5:                                     ; preds = %lpad
  br label %ehcleanup, !dbg !12026

lpad6:                                            ; preds = %invoke.cont3
  %6 = landingpad { i8*, i32 } personality i8* bitcast (i32 (...)* @__gxx_personality_v0 to i8*)
          cleanup, !dbg !12028
  %7 = extractvalue { i8*, i32 } %6, 0, !dbg !12028
  store i8* %7, i8** %exn.slot, !dbg !12028
  %8 = extractvalue { i8*, i32 } %6, 1, !dbg !12028
  store i32 %8, i32* %ehselector.slot, !dbg !12028
  br label %ehcleanup12, !dbg !12028

ehcleanup:                                        ; preds = %invoke.cont5, %lpad2
  %connect_cb8 = getelementptr inbounds %"struct.ros::AdvertiseOptions"* %this1, i32 0, i32 6, !dbg !12030
  invoke void @_ZN5boost8functionIFvRKN3ros25SingleSubscriberPublisherEEED2Ev(%"class.boost::function"* %connect_cb8)
          to label %invoke.cont9 unwind label %terminate.lpad, !dbg !12030

invoke.cont9:                                     ; preds = %ehcleanup
  br label %ehcleanup12, !dbg !12033

lpad10:                                           ; preds = %invoke.cont7
  %9 = landingpad { i8*, i32 } personality i8* bitcast (i32 (...)* @__gxx_personality_v0 to i8*)
          cleanup, !dbg !12035
  %10 = extractvalue { i8*, i32 } %9, 0, !dbg !12035
  store i8* %10, i8** %exn.slot, !dbg !12035
  %11 = extractvalue { i8*, i32 } %9, 1, !dbg !12035
  store i32 %11, i32* %ehselector.slot, !dbg !12035
  br label %ehcleanup17, !dbg !12035

ehcleanup12:                                      ; preds = %invoke.cont9, %lpad6
  %message_definition13 = getelementptr inbounds %"struct.ros::AdvertiseOptions"* %this1, i32 0, i32 5, !dbg !12037
  invoke void @_ZNSsD1Ev(%"class.std::basic_string"* %message_definition13)
          to label %invoke.cont14 unwind label %terminate.lpad, !dbg !12037

invoke.cont14:                                    ; preds = %ehcleanup12
  br label %ehcleanup17, !dbg !12040

lpad15:                                           ; preds = %invoke.cont11
  %12 = landingpad { i8*, i32 } personality i8* bitcast (i32 (...)* @__gxx_personality_v0 to i8*)
          cleanup, !dbg !12042
  %13 = extractvalue { i8*, i32 } %12, 0, !dbg !12042
  store i8* %13, i8** %exn.slot, !dbg !12042
  %14 = extractvalue { i8*, i32 } %12, 1, !dbg !12042
  store i32 %14, i32* %ehselector.slot, !dbg !12042
  br label %ehcleanup22, !dbg !12042

ehcleanup17:                                      ; preds = %invoke.cont14, %lpad10
  %datatype18 = getelementptr inbounds %"struct.ros::AdvertiseOptions"* %this1, i32 0, i32 4, !dbg !12044
  invoke void @_ZNSsD1Ev(%"class.std::basic_string"* %datatype18)
          to label %invoke.cont19 unwind label %terminate.lpad, !dbg !12044

invoke.cont19:                                    ; preds = %ehcleanup17
  br label %ehcleanup22, !dbg !12047

lpad20:                                           ; preds = %invoke.cont16
  %15 = landingpad { i8*, i32 } personality i8* bitcast (i32 (...)* @__gxx_personality_v0 to i8*)
          cleanup, !dbg !12049
  %16 = extractvalue { i8*, i32 } %15, 0, !dbg !12049
  store i8* %16, i8** %exn.slot, !dbg !12049
  %17 = extractvalue { i8*, i32 } %15, 1, !dbg !12049
  store i32 %17, i32* %ehselector.slot, !dbg !12049
  br label %ehcleanup25, !dbg !12049

ehcleanup22:                                      ; preds = %invoke.cont19, %lpad15
  %md5sum23 = getelementptr inbounds %"struct.ros::AdvertiseOptions"* %this1, i32 0, i32 3, !dbg !12051
  invoke void @_ZNSsD1Ev(%"class.std::basic_string"* %md5sum23)
          to label %invoke.cont24 unwind label %terminate.lpad, !dbg !12051

invoke.cont24:                                    ; preds = %ehcleanup22
  br label %ehcleanup25, !dbg !12054

ehcleanup25:                                      ; preds = %invoke.cont24, %lpad20
  %topic26 = getelementptr inbounds %"struct.ros::AdvertiseOptions"* %this1, i32 0, i32 0, !dbg !12056
  invoke void @_ZNSsD1Ev(%"class.std::basic_string"* %topic26)
          to label %invoke.cont27 unwind label %terminate.lpad, !dbg !12056

invoke.cont27:                                    ; preds = %ehcleanup25
  br label %eh.resume, !dbg !12059

eh.resume:                                        ; preds = %invoke.cont27
  %exn = load i8** %exn.slot, !dbg !12061
  %sel = load i32* %ehselector.slot, !dbg !12061
  %lpad.val = insertvalue { i8*, i32 } undef, i8* %exn, 0, !dbg !12061
  %lpad.val28 = insertvalue { i8*, i32 } %lpad.val, i32 %sel, 1, !dbg !12061
  resume { i8*, i32 } %lpad.val28, !dbg !12061

terminate.lpad:                                   ; preds = %ehcleanup25, %ehcleanup22, %ehcleanup17, %ehcleanup12, %ehcleanup, %lpad
  %18 = landingpad { i8*, i32 } personality i8* bitcast (i32 (...)* @__gxx_personality_v0 to i8*)
          catch i8* null, !dbg !12063
  %19 = extractvalue { i8*, i32 } %18, 0, !dbg !12063
  call void @__clang_call_terminate(i8* %19) #15, !dbg !12063
  unreachable, !dbg !12063
}

; Function Attrs: uwtable
define linkonce_odr void @_ZN5boost10shared_ptrIKvEC2Ev(%"class.boost::shared_ptr.30"* %this) unnamed_addr #3 comdat align 2 {
entry:
  %this.addr = alloca %"class.boost::shared_ptr.30"*, align 8
  store %"class.boost::shared_ptr.30"* %this, %"class.boost::shared_ptr.30"** %this.addr, align 8
  call void @llvm.dbg.declare(metadata %"class.boost::shared_ptr.30"** %this.addr, metadata !12070, metadata !10245), !dbg !12072
  %this1 = load %"class.boost::shared_ptr.30"** %this.addr
  %px = getelementptr inbounds %"class.boost::shared_ptr.30"* %this1, i32 0, i32 0, !dbg !12073
  store i8* null, i8** %px, align 8, !dbg !12073
  %pn = getelementptr inbounds %"class.boost::shared_ptr.30"* %this1, i32 0, i32 1, !dbg !12074
  call void @_ZN5boost6detail12shared_countC2Ev(%"class.boost::detail::shared_count"* %pn), !dbg !12074
  ret void, !dbg !12075
}

declare dereferenceable(8) %"class.std::basic_string"* @_ZNSsaSERKSs(%"class.std::basic_string"*, %"class.std::basic_string"* dereferenceable(8)) #0

; Function Attrs: uwtable
define linkonce_odr dereferenceable(32) %"class.boost::function"* @_ZN5boost8functionIFvRKN3ros25SingleSubscriberPublisherEEEaSERKS6_(%"class.boost::function"* %this, %"class.boost::function"* dereferenceable(32) %f) #3 comdat align 2 {
entry:
  %this.addr = alloca %"class.boost::function"*, align 8
  %f.addr = alloca %"class.boost::function"*, align 8
  %temp.lvalue = alloca %"class.boost::function", align 8
  %exn.slot = alloca i8*
  %ehselector.slot = alloca i32
  store %"class.boost::function"* %this, %"class.boost::function"** %this.addr, align 8
  call void @llvm.dbg.declare(metadata %"class.boost::function"** %this.addr, metadata !12076, metadata !10245), !dbg !12077
  store %"class.boost::function"* %f, %"class.boost::function"** %f.addr, align 8
  call void @llvm.dbg.declare(metadata %"class.boost::function"** %f.addr, metadata !12078, metadata !10245), !dbg !12079
  %this1 = load %"class.boost::function"** %this.addr
  %0 = load %"class.boost::function"** %f.addr, align 8, !dbg !12080
  call void @_ZN5boost8functionIFvRKN3ros25SingleSubscriberPublisherEEEC2ERKS6_(%"class.boost::function"* %temp.lvalue, %"class.boost::function"* dereferenceable(32) %0), !dbg !12081
  %1 = bitcast %"class.boost::function"* %temp.lvalue to %"class.boost::function1"*, !dbg !12081
  %2 = bitcast %"class.boost::function"* %this1 to %"class.boost::function1"*, !dbg !12082
  invoke void @_ZN5boost9function1IvRKN3ros25SingleSubscriberPublisherEE4swapERS5_(%"class.boost::function1"* %1, %"class.boost::function1"* dereferenceable(32) %2)
          to label %invoke.cont unwind label %lpad, !dbg !12081

invoke.cont:                                      ; preds = %entry
  call void @_ZN5boost8functionIFvRKN3ros25SingleSubscriberPublisherEEED2Ev(%"class.boost::function"* %temp.lvalue), !dbg !12083
  ret %"class.boost::function"* %this1, !dbg !12085

lpad:                                             ; preds = %entry
  %3 = landingpad { i8*, i32 } personality i8* bitcast (i32 (...)* @__gxx_personality_v0 to i8*)
          cleanup, !dbg !12086
  %4 = extractvalue { i8*, i32 } %3, 0, !dbg !12086
  store i8* %4, i8** %exn.slot, !dbg !12086
  %5 = extractvalue { i8*, i32 } %3, 1, !dbg !12086
  store i32 %5, i32* %ehselector.slot, !dbg !12086
  invoke void @_ZN5boost8functionIFvRKN3ros25SingleSubscriberPublisherEEED2Ev(%"class.boost::function"* %temp.lvalue)
          to label %invoke.cont2 unwind label %terminate.lpad, !dbg !12081

invoke.cont2:                                     ; preds = %lpad
  br label %eh.resume, !dbg !12087

eh.resume:                                        ; preds = %invoke.cont2
  %exn = load i8** %exn.slot, !dbg !12089
  %sel = load i32* %ehselector.slot, !dbg !12089
  %lpad.val = insertvalue { i8*, i32 } undef, i8* %exn, 0, !dbg !12089
  %lpad.val3 = insertvalue { i8*, i32 } %lpad.val, i32 %sel, 1, !dbg !12089
  resume { i8*, i32 } %lpad.val3, !dbg !12089

terminate.lpad:                                   ; preds = %lpad
  %6 = landingpad { i8*, i32 } personality i8* bitcast (i32 (...)* @__gxx_personality_v0 to i8*)
          catch i8* null, !dbg !12091
  %7 = extractvalue { i8*, i32 } %6, 0, !dbg !12091
  call void @__clang_call_terminate(i8* %7) #15, !dbg !12091
  unreachable, !dbg !12091
}

declare dereferenceable(8) %"class.std::basic_string"* @_ZNSsaSEPKc(%"class.std::basic_string"*, i8*) #0

; Function Attrs: inlinehint uwtable
define linkonce_odr i8* @_ZN3ros14message_traits6md5sumIN8std_msgs6Int16_ISaIvEEEEEPKcv() #6 comdat {
entry:
  %call = call i8* @_ZN3ros14message_traits6MD5SumIN8std_msgs6Int16_ISaIvEEEE5valueEv(), !dbg !12093
  ret i8* %call, !dbg !12094
}

; Function Attrs: inlinehint uwtable
define linkonce_odr i8* @_ZN3ros14message_traits8datatypeIN8std_msgs6Int16_ISaIvEEEEEPKcv() #6 comdat {
entry:
  %call = call i8* @_ZN3ros14message_traits8DataTypeIN8std_msgs6Int16_ISaIvEEEE5valueEv(), !dbg !12095
  ret i8* %call, !dbg !12096
}

; Function Attrs: inlinehint uwtable
define linkonce_odr i8* @_ZN3ros14message_traits10definitionIN8std_msgs6Int16_ISaIvEEEEEPKcv() #6 comdat {
entry:
  %call = call i8* @_ZN3ros14message_traits10DefinitionIN8std_msgs6Int16_ISaIvEEEE5valueEv(), !dbg !12097
  ret i8* %call, !dbg !12098
}

; Function Attrs: inlinehint nounwind uwtable
define linkonce_odr zeroext i1 @_ZN3ros14message_traits9hasHeaderIN8std_msgs6Int16_ISaIvEEEEEbv() #8 comdat {
entry:
  ret i1 false, !dbg !12099
}

; Function Attrs: uwtable
define linkonce_odr void @_ZN5boost8functionIFvRKN3ros25SingleSubscriberPublisherEEEC2ERKS6_(%"class.boost::function"* %this, %"class.boost::function"* dereferenceable(32) %f) unnamed_addr #3 comdat align 2 {
entry:
  %this.addr = alloca %"class.boost::function"*, align 8
  %f.addr = alloca %"class.boost::function"*, align 8
  store %"class.boost::function"* %this, %"class.boost::function"** %this.addr, align 8
  call void @llvm.dbg.declare(metadata %"class.boost::function"** %this.addr, metadata !12100, metadata !10245), !dbg !12101
  store %"class.boost::function"* %f, %"class.boost::function"** %f.addr, align 8
  call void @llvm.dbg.declare(metadata %"class.boost::function"** %f.addr, metadata !12102, metadata !10245), !dbg !12103
  %this1 = load %"class.boost::function"** %this.addr
  %0 = bitcast %"class.boost::function"* %this1 to %"class.boost::function1"*, !dbg !12104
  %1 = load %"class.boost::function"** %f.addr, align 8, !dbg !12105
  %2 = bitcast %"class.boost::function"* %1 to %"class.boost::function1"*, !dbg !12105
  call void @_ZN5boost9function1IvRKN3ros25SingleSubscriberPublisherEEC2ERKS5_(%"class.boost::function1"* %0, %"class.boost::function1"* dereferenceable(32) %2), !dbg !12106
  ret void, !dbg !12107
}

; Function Attrs: uwtable
define linkonce_odr void @_ZN5boost9function1IvRKN3ros25SingleSubscriberPublisherEE4swapERS5_(%"class.boost::function1"* %this, %"class.boost::function1"* dereferenceable(32) %other) #3 comdat align 2 {
entry:
  %this.addr = alloca %"class.boost::function1"*, align 8
  %other.addr = alloca %"class.boost::function1"*, align 8
  %tmp = alloca %"class.boost::function1", align 8
  %exn.slot = alloca i8*
  %ehselector.slot = alloca i32
  store %"class.boost::function1"* %this, %"class.boost::function1"** %this.addr, align 8
  call void @llvm.dbg.declare(metadata %"class.boost::function1"** %this.addr, metadata !12108, metadata !10245), !dbg !12110
  store %"class.boost::function1"* %other, %"class.boost::function1"** %other.addr, align 8
  call void @llvm.dbg.declare(metadata %"class.boost::function1"** %other.addr, metadata !12111, metadata !10245), !dbg !12112
  %this1 = load %"class.boost::function1"** %this.addr
  %0 = load %"class.boost::function1"** %other.addr, align 8, !dbg !12113
  %cmp = icmp eq %"class.boost::function1"* %0, %this1, !dbg !12115
  br i1 %cmp, label %if.then, label %if.end, !dbg !12116

if.then:                                          ; preds = %entry
  br label %return, !dbg !12117

if.end:                                           ; preds = %entry
  call void @llvm.dbg.declare(metadata %"class.boost::function1"* %tmp, metadata !12118, metadata !10245), !dbg !12119
  call void @_ZN5boost9function1IvRKN3ros25SingleSubscriberPublisherEEC2Ev(%"class.boost::function1"* %tmp), !dbg !12119
  invoke void @_ZN5boost9function1IvRKN3ros25SingleSubscriberPublisherEE11move_assignERS5_(%"class.boost::function1"* %tmp, %"class.boost::function1"* dereferenceable(32) %this1)
          to label %invoke.cont unwind label %lpad, !dbg !12120

invoke.cont:                                      ; preds = %if.end
  %1 = load %"class.boost::function1"** %other.addr, align 8, !dbg !12121
  invoke void @_ZN5boost9function1IvRKN3ros25SingleSubscriberPublisherEE11move_assignERS5_(%"class.boost::function1"* %this1, %"class.boost::function1"* dereferenceable(32) %1)
          to label %invoke.cont2 unwind label %lpad, !dbg !12122

invoke.cont2:                                     ; preds = %invoke.cont
  %2 = load %"class.boost::function1"** %other.addr, align 8, !dbg !12123
  invoke void @_ZN5boost9function1IvRKN3ros25SingleSubscriberPublisherEE11move_assignERS5_(%"class.boost::function1"* %2, %"class.boost::function1"* dereferenceable(32) %tmp)
          to label %invoke.cont3 unwind label %lpad, !dbg !12123

invoke.cont3:                                     ; preds = %invoke.cont2
  call void @_ZN5boost9function1IvRKN3ros25SingleSubscriberPublisherEED2Ev(%"class.boost::function1"* %tmp), !dbg !12124
  br label %return, !dbg !12124

return:                                           ; preds = %invoke.cont3, %if.then
  ret void, !dbg !12125

lpad:                                             ; preds = %invoke.cont2, %invoke.cont, %if.end
  %3 = landingpad { i8*, i32 } personality i8* bitcast (i32 (...)* @__gxx_personality_v0 to i8*)
          cleanup, !dbg !12124
  %4 = extractvalue { i8*, i32 } %3, 0, !dbg !12124
  store i8* %4, i8** %exn.slot, !dbg !12124
  %5 = extractvalue { i8*, i32 } %3, 1, !dbg !12124
  store i32 %5, i32* %ehselector.slot, !dbg !12124
  invoke void @_ZN5boost9function1IvRKN3ros25SingleSubscriberPublisherEED2Ev(%"class.boost::function1"* %tmp)
          to label %invoke.cont4 unwind label %terminate.lpad, !dbg !12124

invoke.cont4:                                     ; preds = %lpad
  br label %eh.resume, !dbg !12127

eh.resume:                                        ; preds = %invoke.cont4
  %exn = load i8** %exn.slot, !dbg !12129
  %sel = load i32* %ehselector.slot, !dbg !12129
  %lpad.val = insertvalue { i8*, i32 } undef, i8* %exn, 0, !dbg !12129
  %lpad.val5 = insertvalue { i8*, i32 } %lpad.val, i32 %sel, 1, !dbg !12129
  resume { i8*, i32 } %lpad.val5, !dbg !12129

terminate.lpad:                                   ; preds = %lpad
  %6 = landingpad { i8*, i32 } personality i8* bitcast (i32 (...)* @__gxx_personality_v0 to i8*)
          catch i8* null, !dbg !12131
  %7 = extractvalue { i8*, i32 } %6, 0, !dbg !12131
  call void @__clang_call_terminate(i8* %7) #15, !dbg !12131
  unreachable, !dbg !12131
}

; Function Attrs: uwtable
define linkonce_odr void @_ZN5boost9function1IvRKN3ros25SingleSubscriberPublisherEEC2ERKS5_(%"class.boost::function1"* %this, %"class.boost::function1"* dereferenceable(32) %f) unnamed_addr #3 comdat align 2 {
entry:
  %this.addr = alloca %"class.boost::function1"*, align 8
  %f.addr = alloca %"class.boost::function1"*, align 8
  store %"class.boost::function1"* %this, %"class.boost::function1"** %this.addr, align 8
  call void @llvm.dbg.declare(metadata %"class.boost::function1"** %this.addr, metadata !12133, metadata !10245), !dbg !12134
  store %"class.boost::function1"* %f, %"class.boost::function1"** %f.addr, align 8
  call void @llvm.dbg.declare(metadata %"class.boost::function1"** %f.addr, metadata !12135, metadata !10245), !dbg !12136
  %this1 = load %"class.boost::function1"** %this.addr
  %0 = bitcast %"class.boost::function1"* %this1 to %"class.boost::function_base"*, !dbg !12137
  call void @_ZN5boost13function_baseC2Ev(%"class.boost::function_base"* %0), !dbg !12138
  %1 = bitcast %"class.boost::function1"* %this1 to %"struct.std::unary_function"*, !dbg !12137
  %2 = load %"class.boost::function1"** %f.addr, align 8, !dbg !12139
  call void @_ZN5boost9function1IvRKN3ros25SingleSubscriberPublisherEE13assign_to_ownERKS5_(%"class.boost::function1"* %this1, %"class.boost::function1"* dereferenceable(32) %2), !dbg !12141
  ret void, !dbg !12142
}

; Function Attrs: nounwind uwtable
define linkonce_odr void @_ZN5boost13function_baseC2Ev(%"class.boost::function_base"* %this) unnamed_addr #2 comdat align 2 {
entry:
  %this.addr = alloca %"class.boost::function_base"*, align 8
  store %"class.boost::function_base"* %this, %"class.boost::function_base"** %this.addr, align 8
  call void @llvm.dbg.declare(metadata %"class.boost::function_base"** %this.addr, metadata !12143, metadata !10245), !dbg !12145
  %this1 = load %"class.boost::function_base"** %this.addr
  %vtable = getelementptr inbounds %"class.boost::function_base"* %this1, i32 0, i32 0, !dbg !12146
  store %"struct.boost::detail::function::vtable_base"* null, %"struct.boost::detail::function::vtable_base"** %vtable, align 8, !dbg !12146
  %functor = getelementptr inbounds %"class.boost::function_base"* %this1, i32 0, i32 1, !dbg !12147
  ret void, !dbg !12148
}

; Function Attrs: uwtable
define linkonce_odr void @_ZN5boost9function1IvRKN3ros25SingleSubscriberPublisherEE13assign_to_ownERKS5_(%"class.boost::function1"* %this, %"class.boost::function1"* dereferenceable(32) %f) #3 comdat align 2 {
entry:
  %this.addr = alloca %"class.boost::function1"*, align 8
  %f.addr = alloca %"class.boost::function1"*, align 8
  store %"class.boost::function1"* %this, %"class.boost::function1"** %this.addr, align 8
  call void @llvm.dbg.declare(metadata %"class.boost::function1"** %this.addr, metadata !12149, metadata !10245), !dbg !12150
  store %"class.boost::function1"* %f, %"class.boost::function1"** %f.addr, align 8
  call void @llvm.dbg.declare(metadata %"class.boost::function1"** %f.addr, metadata !12151, metadata !10245), !dbg !12152
  %this1 = load %"class.boost::function1"** %this.addr
  %0 = load %"class.boost::function1"** %f.addr, align 8, !dbg !12153
  %1 = bitcast %"class.boost::function1"* %0 to %"class.boost::function_base"*, !dbg !12153
  %call = call zeroext i1 @_ZNK5boost13function_base5emptyEv(%"class.boost::function_base"* %1), !dbg !12153
  br i1 %call, label %if.end9, label %if.then, !dbg !12155

if.then:                                          ; preds = %entry
  %2 = load %"class.boost::function1"** %f.addr, align 8, !dbg !12156
  %3 = bitcast %"class.boost::function1"* %2 to %"class.boost::function_base"*, !dbg !12156
  %vtable = getelementptr inbounds %"class.boost::function_base"* %3, i32 0, i32 0, !dbg !12158
  %4 = load %"struct.boost::detail::function::vtable_base"** %vtable, align 8, !dbg !12158
  %5 = bitcast %"class.boost::function1"* %this1 to %"class.boost::function_base"*, !dbg !12159
  %vtable2 = getelementptr inbounds %"class.boost::function_base"* %5, i32 0, i32 0, !dbg !12160
  store %"struct.boost::detail::function::vtable_base"* %4, %"struct.boost::detail::function::vtable_base"** %vtable2, align 8, !dbg !12161
  %6 = bitcast %"class.boost::function1"* %this1 to %"class.boost::function_base"*, !dbg !12162
  %call3 = call zeroext i1 @_ZNK5boost13function_base28has_trivial_copy_and_destroyEv(%"class.boost::function_base"* %6), !dbg !12162
  br i1 %call3, label %if.then4, label %if.else, !dbg !12164

if.then4:                                         ; preds = %if.then
  %7 = bitcast %"class.boost::function1"* %this1 to %"class.boost::function_base"*, !dbg !12165
  %functor = getelementptr inbounds %"class.boost::function_base"* %7, i32 0, i32 1, !dbg !12166
  %8 = load %"class.boost::function1"** %f.addr, align 8, !dbg !12167
  %9 = bitcast %"class.boost::function1"* %8 to %"class.boost::function_base"*, !dbg !12167
  %functor5 = getelementptr inbounds %"class.boost::function_base"* %9, i32 0, i32 1, !dbg !12168
  %10 = bitcast %"union.boost::detail::function::function_buffer"* %functor to i8*, !dbg !12169
  %11 = bitcast %"union.boost::detail::function::function_buffer"* %functor5 to i8*, !dbg !12169
  call void @llvm.memcpy.p0i8.p0i8.i64(i8* %10, i8* %11, i64 24, i32 8, i1 false), !dbg !12169
  br label %if.end, !dbg !12165

if.else:                                          ; preds = %if.then
  %call6 = call %"struct.boost::detail::function::basic_vtable1"* @_ZNK5boost9function1IvRKN3ros25SingleSubscriberPublisherEE10get_vtableEv(%"class.boost::function1"* %this1), !dbg !12170
  %base = getelementptr inbounds %"struct.boost::detail::function::basic_vtable1"* %call6, i32 0, i32 0, !dbg !12171
  %manager = getelementptr inbounds %"struct.boost::detail::function::vtable_base"* %base, i32 0, i32 0, !dbg !12172
  %12 = load void (%"union.boost::detail::function::function_buffer"*, %"union.boost::detail::function::function_buffer"*, i32)** %manager, align 8, !dbg !12172
  %13 = load %"class.boost::function1"** %f.addr, align 8, !dbg !12173
  %14 = bitcast %"class.boost::function1"* %13 to %"class.boost::function_base"*, !dbg !12173
  %functor7 = getelementptr inbounds %"class.boost::function_base"* %14, i32 0, i32 1, !dbg !12174
  %15 = bitcast %"class.boost::function1"* %this1 to %"class.boost::function_base"*, !dbg !12175
  %functor8 = getelementptr inbounds %"class.boost::function_base"* %15, i32 0, i32 1, !dbg !12176
  call void %12(%"union.boost::detail::function::function_buffer"* dereferenceable(24) %functor7, %"union.boost::detail::function::function_buffer"* dereferenceable(24) %functor8, i32 0), !dbg !12170
  br label %if.end

if.end:                                           ; preds = %if.else, %if.then4
  br label %if.end9, !dbg !12177

if.end9:                                          ; preds = %if.end, %entry
  ret void, !dbg !12178
}

; Function Attrs: nounwind uwtable
define linkonce_odr zeroext i1 @_ZNK5boost13function_base5emptyEv(%"class.boost::function_base"* %this) #2 comdat align 2 {
entry:
  %this.addr = alloca %"class.boost::function_base"*, align 8
  store %"class.boost::function_base"* %this, %"class.boost::function_base"** %this.addr, align 8
  call void @llvm.dbg.declare(metadata %"class.boost::function_base"** %this.addr, metadata !12179, metadata !10245), !dbg !12180
  %this1 = load %"class.boost::function_base"** %this.addr
  %vtable = getelementptr inbounds %"class.boost::function_base"* %this1, i32 0, i32 0, !dbg !12181
  %0 = load %"struct.boost::detail::function::vtable_base"** %vtable, align 8, !dbg !12181
  %tobool = icmp ne %"struct.boost::detail::function::vtable_base"* %0, null, !dbg !12181
  %lnot = xor i1 %tobool, true, !dbg !12182
  ret i1 %lnot, !dbg !12183
}

; Function Attrs: nounwind uwtable
define linkonce_odr zeroext i1 @_ZNK5boost13function_base28has_trivial_copy_and_destroyEv(%"class.boost::function_base"* %this) #2 comdat align 2 {
entry:
  %this.addr = alloca %"class.boost::function_base"*, align 8
  store %"class.boost::function_base"* %this, %"class.boost::function_base"** %this.addr, align 8
  call void @llvm.dbg.declare(metadata %"class.boost::function_base"** %this.addr, metadata !12184, metadata !10245), !dbg !12185
  %this1 = load %"class.boost::function_base"** %this.addr
  %vtable = getelementptr inbounds %"class.boost::function_base"* %this1, i32 0, i32 0, !dbg !12186
  %0 = load %"struct.boost::detail::function::vtable_base"** %vtable, align 8, !dbg !12186
  %1 = ptrtoint %"struct.boost::detail::function::vtable_base"* %0 to i64, !dbg !12187
  %and = and i64 %1, 1, !dbg !12188
  %tobool = icmp ne i64 %and, 0, !dbg !12187
  ret i1 %tobool, !dbg !12189
}

; Function Attrs: nounwind
declare void @llvm.memcpy.p0i8.p0i8.i64(i8* nocapture, i8* nocapture readonly, i64, i32, i1) #1

; Function Attrs: nounwind uwtable
define linkonce_odr %"struct.boost::detail::function::basic_vtable1"* @_ZNK5boost9function1IvRKN3ros25SingleSubscriberPublisherEE10get_vtableEv(%"class.boost::function1"* %this) #2 comdat align 2 {
entry:
  %this.addr = alloca %"class.boost::function1"*, align 8
  store %"class.boost::function1"* %this, %"class.boost::function1"** %this.addr, align 8
  call void @llvm.dbg.declare(metadata %"class.boost::function1"** %this.addr, metadata !12190, metadata !10245), !dbg !12192
  %this1 = load %"class.boost::function1"** %this.addr
  %0 = bitcast %"class.boost::function1"* %this1 to %"class.boost::function_base"*, !dbg !12193
  %vtable = getelementptr inbounds %"class.boost::function_base"* %0, i32 0, i32 0, !dbg !12193
  %1 = load %"struct.boost::detail::function::vtable_base"** %vtable, align 8, !dbg !12193
  %2 = ptrtoint %"struct.boost::detail::function::vtable_base"* %1 to i64, !dbg !12194
  %and = and i64 %2, -2, !dbg !12195
  %3 = inttoptr i64 %and to %"struct.boost::detail::function::basic_vtable1"*, !dbg !12196
  ret %"struct.boost::detail::function::basic_vtable1"* %3, !dbg !12197
}

; Function Attrs: nounwind uwtable
define linkonce_odr void @_ZN5boost9function1IvRKN3ros25SingleSubscriberPublisherEEC2Ev(%"class.boost::function1"* %this) unnamed_addr #2 comdat align 2 {
entry:
  %this.addr = alloca %"class.boost::function1"*, align 8
  store %"class.boost::function1"* %this, %"class.boost::function1"** %this.addr, align 8
  call void @llvm.dbg.declare(metadata %"class.boost::function1"** %this.addr, metadata !12198, metadata !10245), !dbg !12199
  %this1 = load %"class.boost::function1"** %this.addr
  %0 = bitcast %"class.boost::function1"* %this1 to %"class.boost::function_base"*, !dbg !12200
  call void @_ZN5boost13function_baseC2Ev(%"class.boost::function_base"* %0), !dbg !12201
  %1 = bitcast %"class.boost::function1"* %this1 to %"struct.std::unary_function"*, !dbg !12200
  ret void, !dbg !12202
}

; Function Attrs: uwtable
define linkonce_odr void @_ZN5boost9function1IvRKN3ros25SingleSubscriberPublisherEE11move_assignERS5_(%"class.boost::function1"* %this, %"class.boost::function1"* dereferenceable(32) %f) #3 comdat align 2 {
entry:
  %this.addr = alloca %"class.boost::function1"*, align 8
  %f.addr = alloca %"class.boost::function1"*, align 8
  %exn.slot = alloca i8*
  %ehselector.slot = alloca i32
  store %"class.boost::function1"* %this, %"class.boost::function1"** %this.addr, align 8
  call void @llvm.dbg.declare(metadata %"class.boost::function1"** %this.addr, metadata !12203, metadata !10245), !dbg !12204
  store %"class.boost::function1"* %f, %"class.boost::function1"** %f.addr, align 8
  call void @llvm.dbg.declare(metadata %"class.boost::function1"** %f.addr, metadata !12205, metadata !10245), !dbg !12206
  %this1 = load %"class.boost::function1"** %this.addr
  %0 = load %"class.boost::function1"** %f.addr, align 8, !dbg !12207
  %cmp = icmp eq %"class.boost::function1"* %0, %this1, !dbg !12209
  br i1 %cmp, label %if.then, label %if.end, !dbg !12210

if.then:                                          ; preds = %entry
  br label %try.cont, !dbg !12211

if.end:                                           ; preds = %entry
  %1 = load %"class.boost::function1"** %f.addr, align 8, !dbg !12212
  %2 = bitcast %"class.boost::function1"* %1 to %"class.boost::function_base"*, !dbg !12212
  %call = invoke zeroext i1 @_ZNK5boost13function_base5emptyEv(%"class.boost::function_base"* %2)
          to label %invoke.cont unwind label %lpad, !dbg !12212

invoke.cont:                                      ; preds = %if.end
  br i1 %call, label %if.else15, label %if.then2, !dbg !12216

if.then2:                                         ; preds = %invoke.cont
  %3 = load %"class.boost::function1"** %f.addr, align 8, !dbg !12218
  %4 = bitcast %"class.boost::function1"* %3 to %"class.boost::function_base"*, !dbg !12218
  %vtable = getelementptr inbounds %"class.boost::function_base"* %4, i32 0, i32 0, !dbg !12220
  %5 = load %"struct.boost::detail::function::vtable_base"** %vtable, align 8, !dbg !12220
  %6 = bitcast %"class.boost::function1"* %this1 to %"class.boost::function_base"*, !dbg !12221
  %vtable3 = getelementptr inbounds %"class.boost::function_base"* %6, i32 0, i32 0, !dbg !12222
  store %"struct.boost::detail::function::vtable_base"* %5, %"struct.boost::detail::function::vtable_base"** %vtable3, align 8, !dbg !12223
  %7 = bitcast %"class.boost::function1"* %this1 to %"class.boost::function_base"*, !dbg !12224
  %call5 = invoke zeroext i1 @_ZNK5boost13function_base28has_trivial_copy_and_destroyEv(%"class.boost::function_base"* %7)
          to label %invoke.cont4 unwind label %lpad, !dbg !12224

invoke.cont4:                                     ; preds = %if.then2
  br i1 %call5, label %if.then6, label %if.else, !dbg !12226

if.then6:                                         ; preds = %invoke.cont4
  %8 = bitcast %"class.boost::function1"* %this1 to %"class.boost::function_base"*, !dbg !12228
  %functor = getelementptr inbounds %"class.boost::function_base"* %8, i32 0, i32 1, !dbg !12229
  %9 = load %"class.boost::function1"** %f.addr, align 8, !dbg !12230
  %10 = bitcast %"class.boost::function1"* %9 to %"class.boost::function_base"*, !dbg !12230
  %functor7 = getelementptr inbounds %"class.boost::function_base"* %10, i32 0, i32 1, !dbg !12231
  %11 = bitcast %"union.boost::detail::function::function_buffer"* %functor to i8*, !dbg !12232
  %12 = bitcast %"union.boost::detail::function::function_buffer"* %functor7 to i8*, !dbg !12232
  call void @llvm.memcpy.p0i8.p0i8.i64(i8* %11, i8* %12, i64 24, i32 8, i1 false), !dbg !12232
  br label %if.end13, !dbg !12228

lpad:                                             ; preds = %if.else15, %invoke.cont8, %if.else, %if.then2, %if.end
  %13 = landingpad { i8*, i32 } personality i8* bitcast (i32 (...)* @__gxx_personality_v0 to i8*)
          catch i8* null, !dbg !12233
  %14 = extractvalue { i8*, i32 } %13, 0, !dbg !12233
  store i8* %14, i8** %exn.slot, !dbg !12233
  %15 = extractvalue { i8*, i32 } %13, 1, !dbg !12233
  store i32 %15, i32* %ehselector.slot, !dbg !12233
  br label %catch, !dbg !12233

catch:                                            ; preds = %lpad
  %exn = load i8** %exn.slot, !dbg !12234
  %16 = call i8* @__cxa_begin_catch(i8* %exn) #1, !dbg !12234
  %17 = bitcast %"class.boost::function1"* %this1 to %"class.boost::function_base"*, !dbg !12235
  %vtable18 = getelementptr inbounds %"class.boost::function_base"* %17, i32 0, i32 0, !dbg !12235
  store %"struct.boost::detail::function::vtable_base"* null, %"struct.boost::detail::function::vtable_base"** %vtable18, align 8, !dbg !12237
  invoke void @__cxa_rethrow() #17
          to label %unreachable unwind label %lpad19, !dbg !12238

if.else:                                          ; preds = %invoke.cont4
  %call9 = invoke %"struct.boost::detail::function::basic_vtable1"* @_ZNK5boost9function1IvRKN3ros25SingleSubscriberPublisherEE10get_vtableEv(%"class.boost::function1"* %this1)
          to label %invoke.cont8 unwind label %lpad, !dbg !12239

invoke.cont8:                                     ; preds = %if.else
  %base = getelementptr inbounds %"struct.boost::detail::function::basic_vtable1"* %call9, i32 0, i32 0, !dbg !12240
  %manager = getelementptr inbounds %"struct.boost::detail::function::vtable_base"* %base, i32 0, i32 0, !dbg !12242
  %18 = load void (%"union.boost::detail::function::function_buffer"*, %"union.boost::detail::function::function_buffer"*, i32)** %manager, align 8, !dbg !12242
  %19 = load %"class.boost::function1"** %f.addr, align 8, !dbg !12243
  %20 = bitcast %"class.boost::function1"* %19 to %"class.boost::function_base"*, !dbg !12243
  %functor10 = getelementptr inbounds %"class.boost::function_base"* %20, i32 0, i32 1, !dbg !12244
  %21 = bitcast %"class.boost::function1"* %this1 to %"class.boost::function_base"*, !dbg !12245
  %functor11 = getelementptr inbounds %"class.boost::function_base"* %21, i32 0, i32 1, !dbg !12246
  invoke void %18(%"union.boost::detail::function::function_buffer"* dereferenceable(24) %functor10, %"union.boost::detail::function::function_buffer"* dereferenceable(24) %functor11, i32 1)
          to label %invoke.cont12 unwind label %lpad, !dbg !12239

invoke.cont12:                                    ; preds = %invoke.cont8
  br label %if.end13

if.end13:                                         ; preds = %invoke.cont12, %if.then6
  %22 = load %"class.boost::function1"** %f.addr, align 8, !dbg !12247
  %23 = bitcast %"class.boost::function1"* %22 to %"class.boost::function_base"*, !dbg !12247
  %vtable14 = getelementptr inbounds %"class.boost::function_base"* %23, i32 0, i32 0, !dbg !12248
  store %"struct.boost::detail::function::vtable_base"* null, %"struct.boost::detail::function::vtable_base"** %vtable14, align 8, !dbg !12249
  br label %if.end17, !dbg !12250

if.else15:                                        ; preds = %invoke.cont
  invoke void @_ZN5boost9function1IvRKN3ros25SingleSubscriberPublisherEE5clearEv(%"class.boost::function1"* %this1)
          to label %invoke.cont16 unwind label %lpad, !dbg !12251

invoke.cont16:                                    ; preds = %if.else15
  br label %if.end17

if.end17:                                         ; preds = %invoke.cont16, %if.end13
  br label %try.cont, !dbg !12234

lpad19:                                           ; preds = %catch
  %24 = landingpad { i8*, i32 } personality i8* bitcast (i32 (...)* @__gxx_personality_v0 to i8*)
          cleanup, !dbg !12253
  %25 = extractvalue { i8*, i32 } %24, 0, !dbg !12253
  store i8* %25, i8** %exn.slot, !dbg !12253
  %26 = extractvalue { i8*, i32 } %24, 1, !dbg !12253
  store i32 %26, i32* %ehselector.slot, !dbg !12253
  invoke void @__cxa_end_catch()
          to label %invoke.cont20 unwind label %terminate.lpad, !dbg !12254

invoke.cont20:                                    ; preds = %lpad19
  br label %eh.resume, !dbg !12255

try.cont:                                         ; preds = %if.then, %if.end17
  ret void, !dbg !12257

eh.resume:                                        ; preds = %invoke.cont20
  %exn21 = load i8** %exn.slot, !dbg !12258
  %sel = load i32* %ehselector.slot, !dbg !12258
  %lpad.val = insertvalue { i8*, i32 } undef, i8* %exn21, 0, !dbg !12258
  %lpad.val22 = insertvalue { i8*, i32 } %lpad.val, i32 %sel, 1, !dbg !12258
  resume { i8*, i32 } %lpad.val22, !dbg !12258

terminate.lpad:                                   ; preds = %lpad19
  %27 = landingpad { i8*, i32 } personality i8* bitcast (i32 (...)* @__gxx_personality_v0 to i8*)
          catch i8* null, !dbg !12260
  %28 = extractvalue { i8*, i32 } %27, 0, !dbg !12260
  call void @__clang_call_terminate(i8* %28) #15, !dbg !12260
  unreachable, !dbg !12260

unreachable:                                      ; preds = %catch
  unreachable
}

; Function Attrs: uwtable
define linkonce_odr void @_ZN5boost9function1IvRKN3ros25SingleSubscriberPublisherEED2Ev(%"class.boost::function1"* %this) unnamed_addr #3 comdat align 2 {
entry:
  %this.addr = alloca %"class.boost::function1"*, align 8
  store %"class.boost::function1"* %this, %"class.boost::function1"** %this.addr, align 8
  call void @llvm.dbg.declare(metadata %"class.boost::function1"** %this.addr, metadata !12262, metadata !10245), !dbg !12263
  %this1 = load %"class.boost::function1"** %this.addr
  call void @_ZN5boost9function1IvRKN3ros25SingleSubscriberPublisherEE5clearEv(%"class.boost::function1"* %this1), !dbg !12264
  ret void, !dbg !12266
}

; Function Attrs: uwtable
define linkonce_odr void @_ZN5boost9function1IvRKN3ros25SingleSubscriberPublisherEE5clearEv(%"class.boost::function1"* %this) #3 comdat align 2 {
entry:
  %this.addr = alloca %"class.boost::function1"*, align 8
  store %"class.boost::function1"* %this, %"class.boost::function1"** %this.addr, align 8
  call void @llvm.dbg.declare(metadata %"class.boost::function1"** %this.addr, metadata !12267, metadata !10245), !dbg !12268
  %this1 = load %"class.boost::function1"** %this.addr
  %0 = bitcast %"class.boost::function1"* %this1 to %"class.boost::function_base"*, !dbg !12269
  %vtable = getelementptr inbounds %"class.boost::function_base"* %0, i32 0, i32 0, !dbg !12269
  %1 = load %"struct.boost::detail::function::vtable_base"** %vtable, align 8, !dbg !12269
  %tobool = icmp ne %"struct.boost::detail::function::vtable_base"* %1, null, !dbg !12269
  br i1 %tobool, label %if.then, label %if.end5, !dbg !12271

if.then:                                          ; preds = %entry
  %2 = bitcast %"class.boost::function1"* %this1 to %"class.boost::function_base"*, !dbg !12272
  %call = call zeroext i1 @_ZNK5boost13function_base28has_trivial_copy_and_destroyEv(%"class.boost::function_base"* %2), !dbg !12272
  br i1 %call, label %if.end, label %if.then2, !dbg !12275

if.then2:                                         ; preds = %if.then
  %call3 = call %"struct.boost::detail::function::basic_vtable1"* @_ZNK5boost9function1IvRKN3ros25SingleSubscriberPublisherEE10get_vtableEv(%"class.boost::function1"* %this1), !dbg !12276
  %3 = bitcast %"class.boost::function1"* %this1 to %"class.boost::function_base"*, !dbg !12277
  %functor = getelementptr inbounds %"class.boost::function_base"* %3, i32 0, i32 1, !dbg !12278
  call void @_ZNK5boost6detail8function13basic_vtable1IvRKN3ros25SingleSubscriberPublisherEE5clearERNS1_15function_bufferE(%"struct.boost::detail::function::basic_vtable1"* %call3, %"union.boost::detail::function::function_buffer"* dereferenceable(24) %functor), !dbg !12276
  br label %if.end, !dbg !12276

if.end:                                           ; preds = %if.then2, %if.then
  %4 = bitcast %"class.boost::function1"* %this1 to %"class.boost::function_base"*, !dbg !12279
  %vtable4 = getelementptr inbounds %"class.boost::function_base"* %4, i32 0, i32 0, !dbg !12279
  store %"struct.boost::detail::function::vtable_base"* null, %"struct.boost::detail::function::vtable_base"** %vtable4, align 8, !dbg !12280
  br label %if.end5, !dbg !12281

if.end5:                                          ; preds = %if.end, %entry
  ret void, !dbg !12282
}

declare void @__cxa_rethrow()

declare void @__cxa_end_catch()

; Function Attrs: uwtable
define linkonce_odr void @_ZNK5boost6detail8function13basic_vtable1IvRKN3ros25SingleSubscriberPublisherEE5clearERNS1_15function_bufferE(%"struct.boost::detail::function::basic_vtable1"* %this, %"union.boost::detail::function::function_buffer"* dereferenceable(24) %functor) #3 comdat align 2 {
entry:
  %this.addr = alloca %"struct.boost::detail::function::basic_vtable1"*, align 8
  %functor.addr = alloca %"union.boost::detail::function::function_buffer"*, align 8
  store %"struct.boost::detail::function::basic_vtable1"* %this, %"struct.boost::detail::function::basic_vtable1"** %this.addr, align 8
  call void @llvm.dbg.declare(metadata %"struct.boost::detail::function::basic_vtable1"** %this.addr, metadata !12283, metadata !10245), !dbg !12285
  store %"union.boost::detail::function::function_buffer"* %functor, %"union.boost::detail::function::function_buffer"** %functor.addr, align 8
  call void @llvm.dbg.declare(metadata %"union.boost::detail::function::function_buffer"** %functor.addr, metadata !12286, metadata !10245), !dbg !12287
  %this1 = load %"struct.boost::detail::function::basic_vtable1"** %this.addr
  %base = getelementptr inbounds %"struct.boost::detail::function::basic_vtable1"* %this1, i32 0, i32 0, !dbg !12288
  %manager = getelementptr inbounds %"struct.boost::detail::function::vtable_base"* %base, i32 0, i32 0, !dbg !12290
  %0 = load void (%"union.boost::detail::function::function_buffer"*, %"union.boost::detail::function::function_buffer"*, i32)** %manager, align 8, !dbg !12290
  %tobool = icmp ne void (%"union.boost::detail::function::function_buffer"*, %"union.boost::detail::function::function_buffer"*, i32)* %0, null, !dbg !12288
  br i1 %tobool, label %if.then, label %if.end, !dbg !12291

if.then:                                          ; preds = %entry
  %base2 = getelementptr inbounds %"struct.boost::detail::function::basic_vtable1"* %this1, i32 0, i32 0, !dbg !12292
  %manager3 = getelementptr inbounds %"struct.boost::detail::function::vtable_base"* %base2, i32 0, i32 0, !dbg !12293
  %1 = load void (%"union.boost::detail::function::function_buffer"*, %"union.boost::detail::function::function_buffer"*, i32)** %manager3, align 8, !dbg !12293
  %2 = load %"union.boost::detail::function::function_buffer"** %functor.addr, align 8, !dbg !12294
  %3 = load %"union.boost::detail::function::function_buffer"** %functor.addr, align 8, !dbg !12295
  call void %1(%"union.boost::detail::function::function_buffer"* dereferenceable(24) %2, %"union.boost::detail::function::function_buffer"* dereferenceable(24) %3, i32 2), !dbg !12292
  br label %if.end, !dbg !12292

if.end:                                           ; preds = %if.then, %entry
  ret void, !dbg !12296
}

; Function Attrs: nounwind uwtable
define linkonce_odr i8* @_ZN3ros14message_traits6MD5SumIN8std_msgs6Int16_ISaIvEEEE5valueEv() #2 comdat align 2 {
entry:
  ret i8* getelementptr inbounds ([33 x i8]* @.str14, i32 0, i32 0), !dbg !12297
}

; Function Attrs: nounwind uwtable
define linkonce_odr i8* @_ZN3ros14message_traits8DataTypeIN8std_msgs6Int16_ISaIvEEEE5valueEv() #2 comdat align 2 {
entry:
  ret i8* getelementptr inbounds ([15 x i8]* @.str15, i32 0, i32 0), !dbg !12298
}

; Function Attrs: nounwind uwtable
define linkonce_odr i8* @_ZN3ros14message_traits10DefinitionIN8std_msgs6Int16_ISaIvEEEE5valueEv() #2 comdat align 2 {
entry:
  ret i8* getelementptr inbounds ([12 x i8]* @.str16, i32 0, i32 0), !dbg !12299
}

; Function Attrs: inlinehint uwtable
define linkonce_odr void @_ZN5boost10shared_ptrIKvED2Ev(%"class.boost::shared_ptr.30"* %this) unnamed_addr #6 comdat align 2 {
entry:
  %this.addr = alloca %"class.boost::shared_ptr.30"*, align 8
  store %"class.boost::shared_ptr.30"* %this, %"class.boost::shared_ptr.30"** %this.addr, align 8
  call void @llvm.dbg.declare(metadata %"class.boost::shared_ptr.30"** %this.addr, metadata !12300, metadata !10245), !dbg !12301
  %this1 = load %"class.boost::shared_ptr.30"** %this.addr
  %pn = getelementptr inbounds %"class.boost::shared_ptr.30"* %this1, i32 0, i32 1, !dbg !12302
  call void @_ZN5boost6detail12shared_countD2Ev(%"class.boost::detail::shared_count"* %pn), !dbg !12302
  ret void, !dbg !12304
}

; Function Attrs: uwtable
define linkonce_odr void @_ZN3ros16SubscribeOptionsC2Ev(%"struct.ros::SubscribeOptions"* %this) unnamed_addr #3 comdat align 2 {
entry:
  %this.addr = alloca %"struct.ros::SubscribeOptions"*, align 8
  %exn.slot = alloca i8*
  %ehselector.slot = alloca i32
  store %"struct.ros::SubscribeOptions"* %this, %"struct.ros::SubscribeOptions"** %this.addr, align 8
  call void @llvm.dbg.declare(metadata %"struct.ros::SubscribeOptions"** %this.addr, metadata !12305, metadata !10245), !dbg !12307
  %this1 = load %"struct.ros::SubscribeOptions"** %this.addr
  %topic = getelementptr inbounds %"struct.ros::SubscribeOptions"* %this1, i32 0, i32 0, !dbg !12308
  call void @_ZNSsC1Ev(%"class.std::basic_string"* %topic), !dbg !12308
  %queue_size = getelementptr inbounds %"struct.ros::SubscribeOptions"* %this1, i32 0, i32 1, !dbg !12309
  store i32 1, i32* %queue_size, align 4, !dbg !12309
  %md5sum = getelementptr inbounds %"struct.ros::SubscribeOptions"* %this1, i32 0, i32 2, !dbg !12308
  invoke void @_ZNSsC1Ev(%"class.std::basic_string"* %md5sum)
          to label %invoke.cont unwind label %lpad, !dbg !12308

invoke.cont:                                      ; preds = %entry
  %datatype = getelementptr inbounds %"struct.ros::SubscribeOptions"* %this1, i32 0, i32 3, !dbg !12310
  invoke void @_ZNSsC1Ev(%"class.std::basic_string"* %datatype)
          to label %invoke.cont3 unwind label %lpad2, !dbg !12310

invoke.cont3:                                     ; preds = %invoke.cont
  %helper = getelementptr inbounds %"struct.ros::SubscribeOptions"* %this1, i32 0, i32 4, !dbg !12312
  invoke void @_ZN5boost10shared_ptrIN3ros26SubscriptionCallbackHelperEEC2Ev(%"class.boost::shared_ptr.20"* %helper)
          to label %invoke.cont5 unwind label %lpad4, !dbg !12312

invoke.cont5:                                     ; preds = %invoke.cont3
  %callback_queue = getelementptr inbounds %"struct.ros::SubscribeOptions"* %this1, i32 0, i32 5, !dbg !12314
  store %"class.ros::CallbackQueueInterface"* null, %"class.ros::CallbackQueueInterface"** %callback_queue, align 8, !dbg !12314
  %allow_concurrent_callbacks = getelementptr inbounds %"struct.ros::SubscribeOptions"* %this1, i32 0, i32 6, !dbg !12315
  store i8 0, i8* %allow_concurrent_callbacks, align 1, !dbg !12315
  %tracked_object = getelementptr inbounds %"struct.ros::SubscribeOptions"* %this1, i32 0, i32 7, !dbg !12308
  invoke void @_ZN5boost10shared_ptrIKvEC2Ev(%"class.boost::shared_ptr.30"* %tracked_object)
          to label %invoke.cont7 unwind label %lpad6, !dbg !12308

invoke.cont7:                                     ; preds = %invoke.cont5
  %transport_hints = getelementptr inbounds %"struct.ros::SubscribeOptions"* %this1, i32 0, i32 8, !dbg !12316
  invoke void @_ZN3ros14TransportHintsC2Ev(%"class.ros::TransportHints"* %transport_hints)
          to label %invoke.cont9 unwind label %lpad8, !dbg !12316

invoke.cont9:                                     ; preds = %invoke.cont7
  ret void, !dbg !12318

lpad:                                             ; preds = %entry
  %0 = landingpad { i8*, i32 } personality i8* bitcast (i32 (...)* @__gxx_personality_v0 to i8*)
          cleanup, !dbg !12318
  %1 = extractvalue { i8*, i32 } %0, 0, !dbg !12318
  store i8* %1, i8** %exn.slot, !dbg !12318
  %2 = extractvalue { i8*, i32 } %0, 1, !dbg !12318
  store i32 %2, i32* %ehselector.slot, !dbg !12318
  br label %ehcleanup16, !dbg !12318

lpad2:                                            ; preds = %invoke.cont
  %3 = landingpad { i8*, i32 } personality i8* bitcast (i32 (...)* @__gxx_personality_v0 to i8*)
          cleanup, !dbg !12318
  %4 = extractvalue { i8*, i32 } %3, 0, !dbg !12318
  store i8* %4, i8** %exn.slot, !dbg !12318
  %5 = extractvalue { i8*, i32 } %3, 1, !dbg !12318
  store i32 %5, i32* %ehselector.slot, !dbg !12318
  br label %ehcleanup14, !dbg !12318

lpad4:                                            ; preds = %invoke.cont3
  %6 = landingpad { i8*, i32 } personality i8* bitcast (i32 (...)* @__gxx_personality_v0 to i8*)
          cleanup, !dbg !12318
  %7 = extractvalue { i8*, i32 } %6, 0, !dbg !12318
  store i8* %7, i8** %exn.slot, !dbg !12318
  %8 = extractvalue { i8*, i32 } %6, 1, !dbg !12318
  store i32 %8, i32* %ehselector.slot, !dbg !12318
  br label %ehcleanup12, !dbg !12318

lpad6:                                            ; preds = %invoke.cont5
  %9 = landingpad { i8*, i32 } personality i8* bitcast (i32 (...)* @__gxx_personality_v0 to i8*)
          cleanup, !dbg !12318
  %10 = extractvalue { i8*, i32 } %9, 0, !dbg !12318
  store i8* %10, i8** %exn.slot, !dbg !12318
  %11 = extractvalue { i8*, i32 } %9, 1, !dbg !12318
  store i32 %11, i32* %ehselector.slot, !dbg !12318
  br label %ehcleanup, !dbg !12318

lpad8:                                            ; preds = %invoke.cont7
  %12 = landingpad { i8*, i32 } personality i8* bitcast (i32 (...)* @__gxx_personality_v0 to i8*)
          cleanup, !dbg !12318
  %13 = extractvalue { i8*, i32 } %12, 0, !dbg !12318
  store i8* %13, i8** %exn.slot, !dbg !12318
  %14 = extractvalue { i8*, i32 } %12, 1, !dbg !12318
  store i32 %14, i32* %ehselector.slot, !dbg !12318
  invoke void @_ZN5boost10shared_ptrIKvED2Ev(%"class.boost::shared_ptr.30"* %tracked_object)
          to label %invoke.cont10 unwind label %terminate.lpad, !dbg !12319

invoke.cont10:                                    ; preds = %lpad8
  br label %ehcleanup, !dbg !12321

ehcleanup:                                        ; preds = %invoke.cont10, %lpad6
  invoke void @_ZN5boost10shared_ptrIN3ros26SubscriptionCallbackHelperEED2Ev(%"class.boost::shared_ptr.20"* %helper)
          to label %invoke.cont11 unwind label %terminate.lpad, !dbg !12323

invoke.cont11:                                    ; preds = %ehcleanup
  br label %ehcleanup12, !dbg !12326

ehcleanup12:                                      ; preds = %invoke.cont11, %lpad4
  invoke void @_ZNSsD1Ev(%"class.std::basic_string"* %datatype)
          to label %invoke.cont13 unwind label %terminate.lpad, !dbg !12328

invoke.cont13:                                    ; preds = %ehcleanup12
  br label %ehcleanup14, !dbg !12331

ehcleanup14:                                      ; preds = %invoke.cont13, %lpad2
  invoke void @_ZNSsD1Ev(%"class.std::basic_string"* %md5sum)
          to label %invoke.cont15 unwind label %terminate.lpad, !dbg !12333

invoke.cont15:                                    ; preds = %ehcleanup14
  br label %ehcleanup16, !dbg !12336

ehcleanup16:                                      ; preds = %invoke.cont15, %lpad
  invoke void @_ZNSsD1Ev(%"class.std::basic_string"* %topic)
          to label %invoke.cont17 unwind label %terminate.lpad, !dbg !12338

invoke.cont17:                                    ; preds = %ehcleanup16
  br label %eh.resume, !dbg !12341

eh.resume:                                        ; preds = %invoke.cont17
  %exn = load i8** %exn.slot, !dbg !12343
  %sel = load i32* %ehselector.slot, !dbg !12343
  %lpad.val = insertvalue { i8*, i32 } undef, i8* %exn, 0, !dbg !12343
  %lpad.val18 = insertvalue { i8*, i32 } %lpad.val, i32 %sel, 1, !dbg !12343
  resume { i8*, i32 } %lpad.val18, !dbg !12343

terminate.lpad:                                   ; preds = %ehcleanup16, %ehcleanup14, %ehcleanup12, %ehcleanup, %lpad8
  %15 = landingpad { i8*, i32 } personality i8* bitcast (i32 (...)* @__gxx_personality_v0 to i8*)
          catch i8* null, !dbg !12345
  %16 = extractvalue { i8*, i32 } %15, 0, !dbg !12345
  call void @__clang_call_terminate(i8* %16) #15, !dbg !12345
  unreachable, !dbg !12345
}

; Function Attrs: uwtable
define linkonce_odr void @_ZN3ros16SubscribeOptions4initIN8std_msgs6Int16_ISaIvEEEEEvRKSsjRKN5boost8functionIFvRKNS8_10shared_ptrIKT_EEEEERKNS9_IFNSA_ISB_EEvEEE(%"struct.ros::SubscribeOptions"* %this, %"class.std::basic_string"* dereferenceable(8) %_topic, i32 %_queue_size, %"class.boost::function.32"* dereferenceable(32) %_callback, %"class.boost::function.35"* dereferenceable(32) %factory_fn) #3 comdat align 2 {
entry:
  %this.addr = alloca %"struct.ros::SubscribeOptions"*, align 8
  %_topic.addr = alloca %"class.std::basic_string"*, align 8
  %_queue_size.addr = alloca i32, align 4
  %_callback.addr = alloca %"class.boost::function.32"*, align 8
  %factory_fn.addr = alloca %"class.boost::function.35"*, align 8
  %ref.tmp = alloca %"class.boost::shared_ptr.20", align 8
  %ref.tmp7 = alloca %"class.boost::function.36", align 8
  %agg.tmp = alloca %"class.boost::function.32", align 8
  %exn.slot = alloca i8*
  %ehselector.slot = alloca i32
  %cleanup.isactive = alloca i1
  store %"struct.ros::SubscribeOptions"* %this, %"struct.ros::SubscribeOptions"** %this.addr, align 8
  call void @llvm.dbg.declare(metadata %"struct.ros::SubscribeOptions"** %this.addr, metadata !12351, metadata !10245), !dbg !12352
  store %"class.std::basic_string"* %_topic, %"class.std::basic_string"** %_topic.addr, align 8
  call void @llvm.dbg.declare(metadata %"class.std::basic_string"** %_topic.addr, metadata !12353, metadata !10245), !dbg !12355
  store i32 %_queue_size, i32* %_queue_size.addr, align 4
  call void @llvm.dbg.declare(metadata i32* %_queue_size.addr, metadata !12356, metadata !10245), !dbg !12357
  store %"class.boost::function.32"* %_callback, %"class.boost::function.32"** %_callback.addr, align 8
  call void @llvm.dbg.declare(metadata %"class.boost::function.32"** %_callback.addr, metadata !12358, metadata !10245), !dbg !12359
  store %"class.boost::function.35"* %factory_fn, %"class.boost::function.35"** %factory_fn.addr, align 8
  call void @llvm.dbg.declare(metadata %"class.boost::function.35"** %factory_fn.addr, metadata !12360, metadata !10245), !dbg !12361
  %this1 = load %"struct.ros::SubscribeOptions"** %this.addr
  %topic = getelementptr inbounds %"struct.ros::SubscribeOptions"* %this1, i32 0, i32 0, !dbg !12362
  %0 = load %"class.std::basic_string"** %_topic.addr, align 8, !dbg !12363
  %call = call dereferenceable(8) %"class.std::basic_string"* @_ZNSsaSERKSs(%"class.std::basic_string"* %topic, %"class.std::basic_string"* dereferenceable(8) %0), !dbg !12364
  %1 = load i32* %_queue_size.addr, align 4, !dbg !12365
  %queue_size = getelementptr inbounds %"struct.ros::SubscribeOptions"* %this1, i32 0, i32 1, !dbg !12366
  store i32 %1, i32* %queue_size, align 4, !dbg !12367
  %md5sum = getelementptr inbounds %"struct.ros::SubscribeOptions"* %this1, i32 0, i32 2, !dbg !12368
  %call2 = call i8* @_ZN3ros14message_traits6md5sumIN8std_msgs6Int16_ISaIvEEEEEPKcv(), !dbg !12369
  %call3 = call dereferenceable(8) %"class.std::basic_string"* @_ZNSsaSEPKc(%"class.std::basic_string"* %md5sum, i8* %call2), !dbg !12370
  %datatype = getelementptr inbounds %"struct.ros::SubscribeOptions"* %this1, i32 0, i32 3, !dbg !12371
  %call4 = call i8* @_ZN3ros14message_traits8datatypeIN8std_msgs6Int16_ISaIvEEEEEPKcv(), !dbg !12372
  %call5 = call dereferenceable(8) %"class.std::basic_string"* @_ZNSsaSEPKc(%"class.std::basic_string"* %datatype, i8* %call4), !dbg !12373
  %helper = getelementptr inbounds %"struct.ros::SubscribeOptions"* %this1, i32 0, i32 4, !dbg !12374
  %call6 = call noalias i8* @_Znwm(i64 72) #18, !dbg !12375
  store i1 true, i1* %cleanup.isactive
  %2 = bitcast i8* %call6 to %"class.ros::SubscriptionCallbackHelperT"*, !dbg !12375
  %3 = load %"class.boost::function.32"** %_callback.addr, align 8, !dbg !12376
  invoke void @_ZN5boost8functionIFvRKNS_10shared_ptrIKN8std_msgs6Int16_ISaIvEEEEEEEC2ERKSB_(%"class.boost::function.32"* %agg.tmp, %"class.boost::function.32"* dereferenceable(32) %3)
          to label %invoke.cont unwind label %lpad, !dbg !12376

invoke.cont:                                      ; preds = %entry
  invoke void @_ZN5boost8functionIFvNS_10shared_ptrIKN8std_msgs6Int16_ISaIvEEEEEEEC2INS0_IFvRKS7_EEEEET_NS_11enable_if_cIXsr5boost11type_traits7ice_notIXsr11is_integralISF_EE5valueEEE5valueEiE4typeE(%"class.boost::function.36"* %ref.tmp7, %"class.boost::function.32"* %agg.tmp, i32 0)
          to label %invoke.cont9 unwind label %lpad8, !dbg !12377

invoke.cont9:                                     ; preds = %invoke.cont
  %4 = load %"class.boost::function.35"** %factory_fn.addr, align 8, !dbg !12379
  invoke void @_ZN3ros27SubscriptionCallbackHelperTIRKN5boost10shared_ptrIKN8std_msgs6Int16_ISaIvEEEEEvEC2ERKNS1_8functionIFvS8_EEERKNSC_IFNS2_IS6_EEvEEE(%"class.ros::SubscriptionCallbackHelperT"* %2, %"class.boost::function.36"* dereferenceable(32) %ref.tmp7, %"class.boost::function.35"* dereferenceable(32) %4)
          to label %invoke.cont11 unwind label %lpad10, !dbg !12381

invoke.cont11:                                    ; preds = %invoke.cont9
  store i1 false, i1* %cleanup.isactive, !dbg !12382
  invoke void @_ZN5boost10shared_ptrIN3ros26SubscriptionCallbackHelperEEC2INS1_27SubscriptionCallbackHelperTIRKNS0_IKN8std_msgs6Int16_ISaIvEEEEEvEEEEPT_(%"class.boost::shared_ptr.20"* %ref.tmp, %"class.ros::SubscriptionCallbackHelperT"* %2)
          to label %invoke.cont12 unwind label %lpad10, !dbg !12384

invoke.cont12:                                    ; preds = %invoke.cont11
  %call15 = invoke dereferenceable(16) %"class.boost::shared_ptr.20"* @_ZN5boost10shared_ptrIN3ros26SubscriptionCallbackHelperEEaSERKS3_(%"class.boost::shared_ptr.20"* %helper, %"class.boost::shared_ptr.20"* dereferenceable(16) %ref.tmp)
          to label %invoke.cont14 unwind label %lpad13, !dbg !12385

invoke.cont14:                                    ; preds = %invoke.cont12
  invoke void @_ZN5boost10shared_ptrIN3ros26SubscriptionCallbackHelperEED2Ev(%"class.boost::shared_ptr.20"* %ref.tmp)
          to label %invoke.cont16 unwind label %lpad10, !dbg !12387

invoke.cont16:                                    ; preds = %invoke.cont14
  invoke void @_ZN5boost8functionIFvNS_10shared_ptrIKN8std_msgs6Int16_ISaIvEEEEEEED2Ev(%"class.boost::function.36"* %ref.tmp7)
          to label %invoke.cont18 unwind label %lpad8, !dbg !12389

invoke.cont18:                                    ; preds = %invoke.cont16
  invoke void @_ZN5boost8functionIFvRKNS_10shared_ptrIKN8std_msgs6Int16_ISaIvEEEEEEED2Ev(%"class.boost::function.32"* %agg.tmp)
          to label %invoke.cont20 unwind label %lpad, !dbg !12391

invoke.cont20:                                    ; preds = %invoke.cont18
  ret void, !dbg !12393

lpad:                                             ; preds = %invoke.cont18, %entry
  %5 = landingpad { i8*, i32 } personality i8* bitcast (i32 (...)* @__gxx_personality_v0 to i8*)
          cleanup, !dbg !12393
  %6 = extractvalue { i8*, i32 } %5, 0, !dbg !12393
  store i8* %6, i8** %exn.slot, !dbg !12393
  %7 = extractvalue { i8*, i32 } %5, 1, !dbg !12393
  store i32 %7, i32* %ehselector.slot, !dbg !12393
  br label %ehcleanup23, !dbg !12393

lpad8:                                            ; preds = %invoke.cont16, %invoke.cont
  %8 = landingpad { i8*, i32 } personality i8* bitcast (i32 (...)* @__gxx_personality_v0 to i8*)
          cleanup, !dbg !12393
  %9 = extractvalue { i8*, i32 } %8, 0, !dbg !12393
  store i8* %9, i8** %exn.slot, !dbg !12393
  %10 = extractvalue { i8*, i32 } %8, 1, !dbg !12393
  store i32 %10, i32* %ehselector.slot, !dbg !12393
  br label %ehcleanup21, !dbg !12393

lpad10:                                           ; preds = %invoke.cont14, %invoke.cont11, %invoke.cont9
  %11 = landingpad { i8*, i32 } personality i8* bitcast (i32 (...)* @__gxx_personality_v0 to i8*)
          cleanup, !dbg !12393
  %12 = extractvalue { i8*, i32 } %11, 0, !dbg !12393
  store i8* %12, i8** %exn.slot, !dbg !12393
  %13 = extractvalue { i8*, i32 } %11, 1, !dbg !12393
  store i32 %13, i32* %ehselector.slot, !dbg !12393
  br label %ehcleanup, !dbg !12393

lpad13:                                           ; preds = %invoke.cont12
  %14 = landingpad { i8*, i32 } personality i8* bitcast (i32 (...)* @__gxx_personality_v0 to i8*)
          cleanup, !dbg !12393
  %15 = extractvalue { i8*, i32 } %14, 0, !dbg !12393
  store i8* %15, i8** %exn.slot, !dbg !12393
  %16 = extractvalue { i8*, i32 } %14, 1, !dbg !12393
  store i32 %16, i32* %ehselector.slot, !dbg !12393
  invoke void @_ZN5boost10shared_ptrIN3ros26SubscriptionCallbackHelperEED2Ev(%"class.boost::shared_ptr.20"* %ref.tmp)
          to label %invoke.cont17 unwind label %terminate.lpad, !dbg !12374

invoke.cont17:                                    ; preds = %lpad13
  br label %ehcleanup, !dbg !12394

ehcleanup:                                        ; preds = %invoke.cont17, %lpad10
  invoke void @_ZN5boost8functionIFvNS_10shared_ptrIKN8std_msgs6Int16_ISaIvEEEEEEED2Ev(%"class.boost::function.36"* %ref.tmp7)
          to label %invoke.cont19 unwind label %terminate.lpad, !dbg !12396

invoke.cont19:                                    ; preds = %ehcleanup
  br label %ehcleanup21, !dbg !12398

ehcleanup21:                                      ; preds = %invoke.cont19, %lpad8
  invoke void @_ZN5boost8functionIFvRKNS_10shared_ptrIKN8std_msgs6Int16_ISaIvEEEEEEED2Ev(%"class.boost::function.32"* %agg.tmp)
          to label %invoke.cont22 unwind label %terminate.lpad, !dbg !12400

invoke.cont22:                                    ; preds = %ehcleanup21
  br label %ehcleanup23, !dbg !12402

ehcleanup23:                                      ; preds = %invoke.cont22, %lpad
  %cleanup.is_active = load i1* %cleanup.isactive, !dbg !12404
  br i1 %cleanup.is_active, label %cleanup.action, label %cleanup.done, !dbg !12404

cleanup.action:                                   ; preds = %ehcleanup23
  call void @_ZdlPv(i8* %call6) #19, !dbg !12406
  br label %cleanup.done, !dbg !12406

cleanup.done:                                     ; preds = %cleanup.action, %ehcleanup23
  br label %eh.resume, !dbg !12408

eh.resume:                                        ; preds = %cleanup.done
  %exn = load i8** %exn.slot, !dbg !12411
  %sel = load i32* %ehselector.slot, !dbg !12411
  %lpad.val = insertvalue { i8*, i32 } undef, i8* %exn, 0, !dbg !12411
  %lpad.val24 = insertvalue { i8*, i32 } %lpad.val, i32 %sel, 1, !dbg !12411
  resume { i8*, i32 } %lpad.val24, !dbg !12411

terminate.lpad:                                   ; preds = %ehcleanup21, %ehcleanup, %lpad13
  %17 = landingpad { i8*, i32 } personality i8* bitcast (i32 (...)* @__gxx_personality_v0 to i8*)
          catch i8* null, !dbg !12413
  %18 = extractvalue { i8*, i32 } %17, 0, !dbg !12413
  call void @__clang_call_terminate(i8* %18) #15, !dbg !12413
  unreachable, !dbg !12413
}

; Function Attrs: uwtable
define linkonce_odr void @_ZN5boost4bindIv4TestRKNS_10shared_ptrIKN8std_msgs6Int16_ISaIvEEEEEPS1_NS_3argILi1EEEEENS_3_bi6bind_tIT_NS_4_mfi3mf1ISG_T0_T1_EENSE_9list_av_2IT2_T3_E4typeEEEMSJ_FSG_SK_ESN_SO_(%"class.boost::_bi::bind_t"* noalias sret %agg.result, i64 %f.coerce0, i64 %f.coerce1, %class.Test* %a1) #3 comdat {
entry:
  %f = alloca { i64, i64 }, align 8
  %a2 = alloca %"struct.boost::arg", align 1
  %f.addr = alloca { i64, i64 }, align 8
  %a1.addr = alloca %class.Test*, align 8
  %agg.tmp = alloca %"class.boost::_mfi::mf1", align 8
  %coerce = alloca { i64, i64 }, align 8
  %ref.tmp = alloca %"class.boost::_bi::list2", align 8
  %agg.tmp2 = alloca %"class.boost::_bi::value", align 8
  %agg.tmp3 = alloca %"struct.boost::arg", align 1
  %0 = getelementptr { i64, i64 }* %f, i32 0, i32 0
  store i64 %f.coerce0, i64* %0
  %1 = getelementptr { i64, i64 }* %f, i32 0, i32 1
  store i64 %f.coerce1, i64* %1
  %f1 = load { i64, i64 }* %f, align 8
  store { i64, i64 } %f1, { i64, i64 }* %f.addr, align 8
  call void @llvm.dbg.declare(metadata { i64, i64 }* %f.addr, metadata !12417, metadata !10245), !dbg !12419
  store %class.Test* %a1, %class.Test** %a1.addr, align 8
  call void @llvm.dbg.declare(metadata %class.Test** %a1.addr, metadata !12420, metadata !10245), !dbg !12421
  call void @llvm.dbg.declare(metadata %"struct.boost::arg"* %a2, metadata !12422, metadata !10245), !dbg !12423
  %2 = load { i64, i64 }* %f.addr, align 8, !dbg !12424
  store { i64, i64 } %2, { i64, i64 }* %coerce, align 8, !dbg !12425
  %3 = getelementptr { i64, i64 }* %coerce, i32 0, i32 0, !dbg !12425
  %4 = load i64* %3, align 1, !dbg !12425
  %5 = getelementptr { i64, i64 }* %coerce, i32 0, i32 1, !dbg !12425
  %6 = load i64* %5, align 1, !dbg !12425
  call void @_ZN5boost4_mfi3mf1Iv4TestRKNS_10shared_ptrIKN8std_msgs6Int16_ISaIvEEEEEEC2EMS2_FvSB_E(%"class.boost::_mfi::mf1"* %agg.tmp, i64 %4, i64 %6), !dbg !12425
  call void @_ZN5boost3_bi5valueIP4TestEC2ERKS3_(%"class.boost::_bi::value"* %agg.tmp2, %class.Test** dereferenceable(8) %a1.addr), !dbg !12426
  %coerce.dive = getelementptr %"class.boost::_bi::value"* %agg.tmp2, i32 0, i32 0, !dbg !12427
  %7 = load %class.Test** %coerce.dive, !dbg !12427
  call void @_ZN5boost3_bi5list2INS0_5valueIP4TestEENS_3argILi1EEEEC2ES5_S7_(%"class.boost::_bi::list2"* %ref.tmp, %class.Test* %7), !dbg !12427
  %8 = bitcast %"class.boost::_mfi::mf1"* %agg.tmp to { i64, i64 }*, !dbg !12428
  %9 = getelementptr { i64, i64 }* %8, i32 0, i32 0, !dbg !12428
  %10 = load i64* %9, align 1, !dbg !12428
  %11 = getelementptr { i64, i64 }* %8, i32 0, i32 1, !dbg !12428
  %12 = load i64* %11, align 1, !dbg !12428
  call void @_ZN5boost3_bi6bind_tIvNS_4_mfi3mf1Iv4TestRKNS_10shared_ptrIKN8std_msgs6Int16_ISaIvEEEEEEENS0_5list2INS0_5valueIPS4_EENS_3argILi1EEEEEEC2ESE_RKSL_(%"class.boost::_bi::bind_t"* %agg.result, i64 %10, i64 %12, %"class.boost::_bi::list2"* dereferenceable(8) %ref.tmp), !dbg !12428
  ret void, !dbg !12429
}

; Function Attrs: uwtable
define linkonce_odr void @_ZN5boost8functionIFvRKNS_10shared_ptrIKN8std_msgs6Int16_ISaIvEEEEEEEC2INS_3_bi6bind_tIvNS_4_mfi3mf1Iv4TestS9_EENSD_5list2INSD_5valueIPSH_EENS_3argILi1EEEEEEEEET_NS_11enable_if_cIXsr5boost11type_traits7ice_notIXsr11is_integralISR_EE5valueEEE5valueEiE4typeE(%"class.boost::function.32"* %this, %"class.boost::_bi::bind_t"* byval align 8 %f, i32) unnamed_addr #3 comdat align 2 {
entry:
  %this.addr = alloca %"class.boost::function.32"*, align 8
  %.addr = alloca i32, align 4
  %agg.tmp = alloca %"class.boost::_bi::bind_t", align 8
  store %"class.boost::function.32"* %this, %"class.boost::function.32"** %this.addr, align 8
  call void @llvm.dbg.declare(metadata %"class.boost::function.32"** %this.addr, metadata !12430, metadata !10245), !dbg !12431
  call void @llvm.dbg.declare(metadata %"class.boost::_bi::bind_t"* %f, metadata !12432, metadata !10245), !dbg !12433
  store i32 %0, i32* %.addr, align 4
  call void @llvm.dbg.declare(metadata i32* %.addr, metadata !12434, metadata !10245), !dbg !12435
  %this1 = load %"class.boost::function.32"** %this.addr
  %1 = bitcast %"class.boost::function.32"* %this1 to %"class.boost::function1.33"*, !dbg !12436
  %2 = bitcast %"class.boost::_bi::bind_t"* %agg.tmp to i8*, !dbg !12437
  %3 = bitcast %"class.boost::_bi::bind_t"* %f to i8*, !dbg !12437
  call void @llvm.memcpy.p0i8.p0i8.i64(i8* %2, i8* %3, i64 24, i32 8, i1 false), !dbg !12437
  call void @_ZN5boost9function1IvRKNS_10shared_ptrIKN8std_msgs6Int16_ISaIvEEEEEEC2INS_3_bi6bind_tIvNS_4_mfi3mf1Iv4TestS9_EENSC_5list2INSC_5valueIPSG_EENS_3argILi1EEEEEEEEET_NS_11enable_if_cIXsr5boost11type_traits7ice_notIXsr11is_integralISQ_EE5valueEEE5valueEiE4typeE(%"class.boost::function1.33"* %1, %"class.boost::_bi::bind_t"* byval align 8 %agg.tmp, i32 0), !dbg !12438
  ret void, !dbg !12439
}

; Function Attrs: uwtable
define linkonce_odr void @_ZN5boost8functionIFNS_10shared_ptrIN8std_msgs6Int16_ISaIvEEEEEvEEC2IN3ros21DefaultMessageCreatorIS5_EEEET_NS_11enable_if_cIXsr5boost11type_traits7ice_notIXsr11is_integralISD_EE5valueEEE5valueEiE4typeE(%"class.boost::function.35"* %this, i32) unnamed_addr #3 comdat align 2 {
entry:
  %f = alloca %"struct.ros::DefaultMessageCreator", align 1
  %this.addr = alloca %"class.boost::function.35"*, align 8
  %.addr = alloca i32, align 4
  %agg.tmp = alloca %"struct.ros::DefaultMessageCreator", align 1
  store %"class.boost::function.35"* %this, %"class.boost::function.35"** %this.addr, align 8
  call void @llvm.dbg.declare(metadata %"class.boost::function.35"** %this.addr, metadata !12440, metadata !10245), !dbg !12442
  call void @llvm.dbg.declare(metadata %"struct.ros::DefaultMessageCreator"* %f, metadata !12443, metadata !10245), !dbg !12444
  store i32 %0, i32* %.addr, align 4
  call void @llvm.dbg.declare(metadata i32* %.addr, metadata !12445, metadata !10245), !dbg !12446
  %this1 = load %"class.boost::function.35"** %this.addr
  %1 = bitcast %"class.boost::function.35"* %this1 to %"class.boost::function0"*, !dbg !12447
  call void @_ZN5boost9function0INS_10shared_ptrIN8std_msgs6Int16_ISaIvEEEEEEC2IN3ros21DefaultMessageCreatorIS5_EEEET_NS_11enable_if_cIXsr5boost11type_traits7ice_notIXsr11is_integralISC_EE5valueEEE5valueEiE4typeE(%"class.boost::function0"* %1, i32 0), !dbg !12448
  ret void, !dbg !12449
}

; Function Attrs: inlinehint uwtable
define linkonce_odr void @_ZN5boost8functionIFNS_10shared_ptrIN8std_msgs6Int16_ISaIvEEEEEvEED2Ev(%"class.boost::function.35"* %this) unnamed_addr #6 comdat align 2 {
entry:
  %this.addr = alloca %"class.boost::function.35"*, align 8
  store %"class.boost::function.35"* %this, %"class.boost::function.35"** %this.addr, align 8
  call void @llvm.dbg.declare(metadata %"class.boost::function.35"** %this.addr, metadata !12450, metadata !10245), !dbg !12451
  %this1 = load %"class.boost::function.35"** %this.addr
  %0 = bitcast %"class.boost::function.35"* %this1 to %"class.boost::function0"*, !dbg !12452
  call void @_ZN5boost9function0INS_10shared_ptrIN8std_msgs6Int16_ISaIvEEEEEED2Ev(%"class.boost::function0"* %0), !dbg !12452
  ret void, !dbg !12454
}

; Function Attrs: inlinehint uwtable
define linkonce_odr void @_ZN5boost8functionIFvRKNS_10shared_ptrIKN8std_msgs6Int16_ISaIvEEEEEEED2Ev(%"class.boost::function.32"* %this) unnamed_addr #6 comdat align 2 {
entry:
  %this.addr = alloca %"class.boost::function.32"*, align 8
  store %"class.boost::function.32"* %this, %"class.boost::function.32"** %this.addr, align 8
  call void @llvm.dbg.declare(metadata %"class.boost::function.32"** %this.addr, metadata !12455, metadata !10245), !dbg !12456
  %this1 = load %"class.boost::function.32"** %this.addr
  %0 = bitcast %"class.boost::function.32"* %this1 to %"class.boost::function1.33"*, !dbg !12457
  call void @_ZN5boost9function1IvRKNS_10shared_ptrIKN8std_msgs6Int16_ISaIvEEEEEED2Ev(%"class.boost::function1.33"* %0), !dbg !12457
  ret void, !dbg !12459
}

; Function Attrs: inlinehint uwtable
define linkonce_odr dereferenceable(72) %"class.ros::TransportHints"* @_ZN3ros14TransportHintsaSERKS0_(%"class.ros::TransportHints"* %this, %"class.ros::TransportHints"* dereferenceable(72)) #6 comdat align 2 {
entry:
  %this.addr = alloca %"class.ros::TransportHints"*, align 8
  %.addr = alloca %"class.ros::TransportHints"*, align 8
  store %"class.ros::TransportHints"* %this, %"class.ros::TransportHints"** %this.addr, align 8
  call void @llvm.dbg.declare(metadata %"class.ros::TransportHints"** %this.addr, metadata !12460, metadata !10245), !dbg !12461
  store %"class.ros::TransportHints"* %0, %"class.ros::TransportHints"** %.addr, align 8
  call void @llvm.dbg.declare(metadata %"class.ros::TransportHints"** %.addr, metadata !12462, metadata !10245), !dbg !12461
  %this1 = load %"class.ros::TransportHints"** %this.addr
  %transports_ = getelementptr inbounds %"class.ros::TransportHints"* %this1, i32 0, i32 0, !dbg !12463
  %1 = load %"class.ros::TransportHints"** %.addr, align 8, !dbg !12463
  %transports_2 = getelementptr inbounds %"class.ros::TransportHints"* %1, i32 0, i32 0, !dbg !12463
  %call = call dereferenceable(24) %"class.std::vector"* @_ZNSt6vectorISsSaISsEEaSERKS1_(%"class.std::vector"* %transports_, %"class.std::vector"* dereferenceable(24) %transports_2), !dbg !12463
  %options_ = getelementptr inbounds %"class.ros::TransportHints"* %this1, i32 0, i32 1, !dbg !12463
  %2 = load %"class.ros::TransportHints"** %.addr, align 8, !dbg !12463
  %options_3 = getelementptr inbounds %"class.ros::TransportHints"* %2, i32 0, i32 1, !dbg !12463
  %call4 = call dereferenceable(48) %"class.std::map"* @_ZNSt3mapISsSsSt4lessISsESaISt4pairIKSsSsEEEaSERKS6_(%"class.std::map"* %options_, %"class.std::map"* dereferenceable(48) %options_3), !dbg !12463
  ret %"class.ros::TransportHints"* %this1, !dbg !12463
}

declare void @_ZN3ros10NodeHandle9subscribeERNS_16SubscribeOptionsE(%"class.ros::Subscriber"* sret, %"class.ros::NodeHandle"*, %"struct.ros::SubscribeOptions"* dereferenceable(152)) #0

; Function Attrs: inlinehint uwtable
define linkonce_odr void @_ZN3ros16SubscribeOptionsD2Ev(%"struct.ros::SubscribeOptions"* %this) unnamed_addr #6 comdat align 2 {
entry:
  %this.addr = alloca %"struct.ros::SubscribeOptions"*, align 8
  %exn.slot = alloca i8*
  %ehselector.slot = alloca i32
  store %"struct.ros::SubscribeOptions"* %this, %"struct.ros::SubscribeOptions"** %this.addr, align 8
  call void @llvm.dbg.declare(metadata %"struct.ros::SubscribeOptions"** %this.addr, metadata !12465, metadata !10245), !dbg !12466
  %this1 = load %"struct.ros::SubscribeOptions"** %this.addr
  %transport_hints = getelementptr inbounds %"struct.ros::SubscribeOptions"* %this1, i32 0, i32 8, !dbg !12467
  invoke void @_ZN3ros14TransportHintsD2Ev(%"class.ros::TransportHints"* %transport_hints)
          to label %invoke.cont unwind label %lpad, !dbg !12467

invoke.cont:                                      ; preds = %entry
  %tracked_object = getelementptr inbounds %"struct.ros::SubscribeOptions"* %this1, i32 0, i32 7, !dbg !12469
  invoke void @_ZN5boost10shared_ptrIKvED2Ev(%"class.boost::shared_ptr.30"* %tracked_object)
          to label %invoke.cont3 unwind label %lpad2, !dbg !12469

invoke.cont3:                                     ; preds = %invoke.cont
  %helper = getelementptr inbounds %"struct.ros::SubscribeOptions"* %this1, i32 0, i32 4, !dbg !12471
  invoke void @_ZN5boost10shared_ptrIN3ros26SubscriptionCallbackHelperEED2Ev(%"class.boost::shared_ptr.20"* %helper)
          to label %invoke.cont7 unwind label %lpad6, !dbg !12471

invoke.cont7:                                     ; preds = %invoke.cont3
  %datatype = getelementptr inbounds %"struct.ros::SubscribeOptions"* %this1, i32 0, i32 3, !dbg !12473
  invoke void @_ZNSsD1Ev(%"class.std::basic_string"* %datatype)
          to label %invoke.cont11 unwind label %lpad10, !dbg !12473

invoke.cont11:                                    ; preds = %invoke.cont7
  %md5sum = getelementptr inbounds %"struct.ros::SubscribeOptions"* %this1, i32 0, i32 2, !dbg !12475
  invoke void @_ZNSsD1Ev(%"class.std::basic_string"* %md5sum)
          to label %invoke.cont16 unwind label %lpad15, !dbg !12475

invoke.cont16:                                    ; preds = %invoke.cont11
  %topic = getelementptr inbounds %"struct.ros::SubscribeOptions"* %this1, i32 0, i32 0, !dbg !12477
  call void @_ZNSsD1Ev(%"class.std::basic_string"* %topic), !dbg !12477
  ret void, !dbg !12479

lpad:                                             ; preds = %entry
  %0 = landingpad { i8*, i32 } personality i8* bitcast (i32 (...)* @__gxx_personality_v0 to i8*)
          cleanup, !dbg !12480
  %1 = extractvalue { i8*, i32 } %0, 0, !dbg !12480
  store i8* %1, i8** %exn.slot, !dbg !12480
  %2 = extractvalue { i8*, i32 } %0, 1, !dbg !12480
  store i32 %2, i32* %ehselector.slot, !dbg !12480
  %tracked_object4 = getelementptr inbounds %"struct.ros::SubscribeOptions"* %this1, i32 0, i32 7, !dbg !12467
  invoke void @_ZN5boost10shared_ptrIKvED2Ev(%"class.boost::shared_ptr.30"* %tracked_object4)
          to label %invoke.cont5 unwind label %terminate.lpad, !dbg !12467

lpad2:                                            ; preds = %invoke.cont
  %3 = landingpad { i8*, i32 } personality i8* bitcast (i32 (...)* @__gxx_personality_v0 to i8*)
          cleanup, !dbg !12482
  %4 = extractvalue { i8*, i32 } %3, 0, !dbg !12482
  store i8* %4, i8** %exn.slot, !dbg !12482
  %5 = extractvalue { i8*, i32 } %3, 1, !dbg !12482
  store i32 %5, i32* %ehselector.slot, !dbg !12482
  br label %ehcleanup, !dbg !12482

invoke.cont5:                                     ; preds = %lpad
  br label %ehcleanup, !dbg !12484

lpad6:                                            ; preds = %invoke.cont3
  %6 = landingpad { i8*, i32 } personality i8* bitcast (i32 (...)* @__gxx_personality_v0 to i8*)
          cleanup, !dbg !12486
  %7 = extractvalue { i8*, i32 } %6, 0, !dbg !12486
  store i8* %7, i8** %exn.slot, !dbg !12486
  %8 = extractvalue { i8*, i32 } %6, 1, !dbg !12486
  store i32 %8, i32* %ehselector.slot, !dbg !12486
  br label %ehcleanup12, !dbg !12486

ehcleanup:                                        ; preds = %invoke.cont5, %lpad2
  %helper8 = getelementptr inbounds %"struct.ros::SubscribeOptions"* %this1, i32 0, i32 4, !dbg !12488
  invoke void @_ZN5boost10shared_ptrIN3ros26SubscriptionCallbackHelperEED2Ev(%"class.boost::shared_ptr.20"* %helper8)
          to label %invoke.cont9 unwind label %terminate.lpad, !dbg !12488

invoke.cont9:                                     ; preds = %ehcleanup
  br label %ehcleanup12, !dbg !12491

lpad10:                                           ; preds = %invoke.cont7
  %9 = landingpad { i8*, i32 } personality i8* bitcast (i32 (...)* @__gxx_personality_v0 to i8*)
          cleanup, !dbg !12493
  %10 = extractvalue { i8*, i32 } %9, 0, !dbg !12493
  store i8* %10, i8** %exn.slot, !dbg !12493
  %11 = extractvalue { i8*, i32 } %9, 1, !dbg !12493
  store i32 %11, i32* %ehselector.slot, !dbg !12493
  br label %ehcleanup17, !dbg !12493

ehcleanup12:                                      ; preds = %invoke.cont9, %lpad6
  %datatype13 = getelementptr inbounds %"struct.ros::SubscribeOptions"* %this1, i32 0, i32 3, !dbg !12495
  invoke void @_ZNSsD1Ev(%"class.std::basic_string"* %datatype13)
          to label %invoke.cont14 unwind label %terminate.lpad, !dbg !12495

invoke.cont14:                                    ; preds = %ehcleanup12
  br label %ehcleanup17, !dbg !12498

lpad15:                                           ; preds = %invoke.cont11
  %12 = landingpad { i8*, i32 } personality i8* bitcast (i32 (...)* @__gxx_personality_v0 to i8*)
          cleanup, !dbg !12500
  %13 = extractvalue { i8*, i32 } %12, 0, !dbg !12500
  store i8* %13, i8** %exn.slot, !dbg !12500
  %14 = extractvalue { i8*, i32 } %12, 1, !dbg !12500
  store i32 %14, i32* %ehselector.slot, !dbg !12500
  br label %ehcleanup20, !dbg !12500

ehcleanup17:                                      ; preds = %invoke.cont14, %lpad10
  %md5sum18 = getelementptr inbounds %"struct.ros::SubscribeOptions"* %this1, i32 0, i32 2, !dbg !12502
  invoke void @_ZNSsD1Ev(%"class.std::basic_string"* %md5sum18)
          to label %invoke.cont19 unwind label %terminate.lpad, !dbg !12502

invoke.cont19:                                    ; preds = %ehcleanup17
  br label %ehcleanup20, !dbg !12505

ehcleanup20:                                      ; preds = %invoke.cont19, %lpad15
  %topic21 = getelementptr inbounds %"struct.ros::SubscribeOptions"* %this1, i32 0, i32 0, !dbg !12507
  invoke void @_ZNSsD1Ev(%"class.std::basic_string"* %topic21)
          to label %invoke.cont22 unwind label %terminate.lpad, !dbg !12507

invoke.cont22:                                    ; preds = %ehcleanup20
  br label %eh.resume, !dbg !12510

eh.resume:                                        ; preds = %invoke.cont22
  %exn = load i8** %exn.slot, !dbg !12512
  %sel = load i32* %ehselector.slot, !dbg !12512
  %lpad.val = insertvalue { i8*, i32 } undef, i8* %exn, 0, !dbg !12512
  %lpad.val23 = insertvalue { i8*, i32 } %lpad.val, i32 %sel, 1, !dbg !12512
  resume { i8*, i32 } %lpad.val23, !dbg !12512

terminate.lpad:                                   ; preds = %ehcleanup20, %ehcleanup17, %ehcleanup12, %ehcleanup, %lpad
  %15 = landingpad { i8*, i32 } personality i8* bitcast (i32 (...)* @__gxx_personality_v0 to i8*)
          catch i8* null, !dbg !12514
  %16 = extractvalue { i8*, i32 } %15, 0, !dbg !12514
  call void @__clang_call_terminate(i8* %16) #15, !dbg !12514
  unreachable, !dbg !12514
}

; Function Attrs: uwtable
define linkonce_odr void @_ZN5boost10shared_ptrIN3ros26SubscriptionCallbackHelperEEC2Ev(%"class.boost::shared_ptr.20"* %this) unnamed_addr #3 comdat align 2 {
entry:
  %this.addr = alloca %"class.boost::shared_ptr.20"*, align 8
  store %"class.boost::shared_ptr.20"* %this, %"class.boost::shared_ptr.20"** %this.addr, align 8
  call void @llvm.dbg.declare(metadata %"class.boost::shared_ptr.20"** %this.addr, metadata !12520, metadata !10245), !dbg !12521
  %this1 = load %"class.boost::shared_ptr.20"** %this.addr
  %px = getelementptr inbounds %"class.boost::shared_ptr.20"* %this1, i32 0, i32 0, !dbg !12522
  store %"class.ros::SubscriptionCallbackHelper"* null, %"class.ros::SubscriptionCallbackHelper"** %px, align 8, !dbg !12522
  %pn = getelementptr inbounds %"class.boost::shared_ptr.20"* %this1, i32 0, i32 1, !dbg !12523
  call void @_ZN5boost6detail12shared_countC2Ev(%"class.boost::detail::shared_count"* %pn), !dbg !12523
  ret void, !dbg !12524
}

; Function Attrs: inlinehint uwtable
define linkonce_odr void @_ZN5boost10shared_ptrIN3ros26SubscriptionCallbackHelperEED2Ev(%"class.boost::shared_ptr.20"* %this) unnamed_addr #6 comdat align 2 {
entry:
  %this.addr = alloca %"class.boost::shared_ptr.20"*, align 8
  store %"class.boost::shared_ptr.20"* %this, %"class.boost::shared_ptr.20"** %this.addr, align 8
  call void @llvm.dbg.declare(metadata %"class.boost::shared_ptr.20"** %this.addr, metadata !12525, metadata !10245), !dbg !12526
  %this1 = load %"class.boost::shared_ptr.20"** %this.addr
  %pn = getelementptr inbounds %"class.boost::shared_ptr.20"* %this1, i32 0, i32 1, !dbg !12527
  call void @_ZN5boost6detail12shared_countD2Ev(%"class.boost::detail::shared_count"* %pn), !dbg !12527
  ret void, !dbg !12529
}

; Function Attrs: uwtable
define linkonce_odr dereferenceable(16) %"class.boost::shared_ptr.20"* @_ZN5boost10shared_ptrIN3ros26SubscriptionCallbackHelperEEaSERKS3_(%"class.boost::shared_ptr.20"* %this, %"class.boost::shared_ptr.20"* dereferenceable(16) %r) #3 comdat align 2 {
entry:
  %this.addr = alloca %"class.boost::shared_ptr.20"*, align 8
  %r.addr = alloca %"class.boost::shared_ptr.20"*, align 8
  %temp.lvalue = alloca %"class.boost::shared_ptr.20", align 8
  %exn.slot = alloca i8*
  %ehselector.slot = alloca i32
  store %"class.boost::shared_ptr.20"* %this, %"class.boost::shared_ptr.20"** %this.addr, align 8
  call void @llvm.dbg.declare(metadata %"class.boost::shared_ptr.20"** %this.addr, metadata !12530, metadata !10245), !dbg !12531
  store %"class.boost::shared_ptr.20"* %r, %"class.boost::shared_ptr.20"** %r.addr, align 8
  call void @llvm.dbg.declare(metadata %"class.boost::shared_ptr.20"** %r.addr, metadata !12532, metadata !10245), !dbg !12533
  %this1 = load %"class.boost::shared_ptr.20"** %this.addr
  %0 = load %"class.boost::shared_ptr.20"** %r.addr, align 8, !dbg !12534
  call void @_ZN5boost10shared_ptrIN3ros26SubscriptionCallbackHelperEEC2ERKS3_(%"class.boost::shared_ptr.20"* %temp.lvalue, %"class.boost::shared_ptr.20"* dereferenceable(16) %0), !dbg !12535
  invoke void @_ZN5boost10shared_ptrIN3ros26SubscriptionCallbackHelperEE4swapERS3_(%"class.boost::shared_ptr.20"* %temp.lvalue, %"class.boost::shared_ptr.20"* dereferenceable(16) %this1)
          to label %invoke.cont unwind label %lpad, !dbg !12535

invoke.cont:                                      ; preds = %entry
  call void @_ZN5boost10shared_ptrIN3ros26SubscriptionCallbackHelperEED2Ev(%"class.boost::shared_ptr.20"* %temp.lvalue), !dbg !12536
  ret %"class.boost::shared_ptr.20"* %this1, !dbg !12538

lpad:                                             ; preds = %entry
  %1 = landingpad { i8*, i32 } personality i8* bitcast (i32 (...)* @__gxx_personality_v0 to i8*)
          cleanup, !dbg !12539
  %2 = extractvalue { i8*, i32 } %1, 0, !dbg !12539
  store i8* %2, i8** %exn.slot, !dbg !12539
  %3 = extractvalue { i8*, i32 } %1, 1, !dbg !12539
  store i32 %3, i32* %ehselector.slot, !dbg !12539
  invoke void @_ZN5boost10shared_ptrIN3ros26SubscriptionCallbackHelperEED2Ev(%"class.boost::shared_ptr.20"* %temp.lvalue)
          to label %invoke.cont2 unwind label %terminate.lpad, !dbg !12535

invoke.cont2:                                     ; preds = %lpad
  br label %eh.resume, !dbg !12540

eh.resume:                                        ; preds = %invoke.cont2
  %exn = load i8** %exn.slot, !dbg !12542
  %sel = load i32* %ehselector.slot, !dbg !12542
  %lpad.val = insertvalue { i8*, i32 } undef, i8* %exn, 0, !dbg !12542
  %lpad.val3 = insertvalue { i8*, i32 } %lpad.val, i32 %sel, 1, !dbg !12542
  resume { i8*, i32 } %lpad.val3, !dbg !12542

terminate.lpad:                                   ; preds = %lpad
  %4 = landingpad { i8*, i32 } personality i8* bitcast (i32 (...)* @__gxx_personality_v0 to i8*)
          catch i8* null, !dbg !12544
  %5 = extractvalue { i8*, i32 } %4, 0, !dbg !12544
  call void @__clang_call_terminate(i8* %5) #15, !dbg !12544
  unreachable, !dbg !12544
}

; Function Attrs: nobuiltin
declare noalias i8* @_Znwm(i64) #10

; Function Attrs: uwtable
define linkonce_odr void @_ZN5boost8functionIFvRKNS_10shared_ptrIKN8std_msgs6Int16_ISaIvEEEEEEEC2ERKSB_(%"class.boost::function.32"* %this, %"class.boost::function.32"* dereferenceable(32) %f) unnamed_addr #3 comdat align 2 {
entry:
  %this.addr = alloca %"class.boost::function.32"*, align 8
  %f.addr = alloca %"class.boost::function.32"*, align 8
  store %"class.boost::function.32"* %this, %"class.boost::function.32"** %this.addr, align 8
  call void @llvm.dbg.declare(metadata %"class.boost::function.32"** %this.addr, metadata !12546, metadata !10245), !dbg !12547
  store %"class.boost::function.32"* %f, %"class.boost::function.32"** %f.addr, align 8
  call void @llvm.dbg.declare(metadata %"class.boost::function.32"** %f.addr, metadata !12548, metadata !10245), !dbg !12549
  %this1 = load %"class.boost::function.32"** %this.addr
  %0 = bitcast %"class.boost::function.32"* %this1 to %"class.boost::function1.33"*, !dbg !12550
  %1 = load %"class.boost::function.32"** %f.addr, align 8, !dbg !12551
  %2 = bitcast %"class.boost::function.32"* %1 to %"class.boost::function1.33"*, !dbg !12551
  call void @_ZN5boost9function1IvRKNS_10shared_ptrIKN8std_msgs6Int16_ISaIvEEEEEEC2ERKSA_(%"class.boost::function1.33"* %0, %"class.boost::function1.33"* dereferenceable(32) %2), !dbg !12552
  ret void, !dbg !12553
}

; Function Attrs: uwtable
define linkonce_odr void @_ZN5boost8functionIFvNS_10shared_ptrIKN8std_msgs6Int16_ISaIvEEEEEEEC2INS0_IFvRKS7_EEEEET_NS_11enable_if_cIXsr5boost11type_traits7ice_notIXsr11is_integralISF_EE5valueEEE5valueEiE4typeE(%"class.boost::function.36"* %this, %"class.boost::function.32"* %f, i32) unnamed_addr #3 comdat align 2 {
entry:
  %this.addr = alloca %"class.boost::function.36"*, align 8
  %.addr = alloca i32, align 4
  %agg.tmp = alloca %"class.boost::function.32", align 8
  %exn.slot = alloca i8*
  %ehselector.slot = alloca i32
  store %"class.boost::function.36"* %this, %"class.boost::function.36"** %this.addr, align 8
  call void @llvm.dbg.declare(metadata %"class.boost::function.36"** %this.addr, metadata !12554, metadata !10245), !dbg !12556
  call void @llvm.dbg.declare(metadata %"class.boost::function.32"* %f, metadata !12557, metadata !12558), !dbg !12559
  store i32 %0, i32* %.addr, align 4
  call void @llvm.dbg.declare(metadata i32* %.addr, metadata !12560, metadata !10245), !dbg !12561
  %this1 = load %"class.boost::function.36"** %this.addr
  %1 = bitcast %"class.boost::function.36"* %this1 to %"class.boost::function1.37"*, !dbg !12562
  call void @_ZN5boost8functionIFvRKNS_10shared_ptrIKN8std_msgs6Int16_ISaIvEEEEEEEC2ERKSB_(%"class.boost::function.32"* %agg.tmp, %"class.boost::function.32"* dereferenceable(32) %f), !dbg !12563
  invoke void @_ZN5boost9function1IvNS_10shared_ptrIKN8std_msgs6Int16_ISaIvEEEEEEC2INS_8functionIFvRKS7_EEEEET_NS_11enable_if_cIXsr5boost11type_traits7ice_notIXsr11is_integralISF_EE5valueEEE5valueEiE4typeE(%"class.boost::function1.37"* %1, %"class.boost::function.32"* %agg.tmp, i32 0)
          to label %invoke.cont unwind label %lpad, !dbg !12564

invoke.cont:                                      ; preds = %entry
  call void @_ZN5boost8functionIFvRKNS_10shared_ptrIKN8std_msgs6Int16_ISaIvEEEEEEED2Ev(%"class.boost::function.32"* %agg.tmp), !dbg !12565
  ret void, !dbg !12567

lpad:                                             ; preds = %entry
  %2 = landingpad { i8*, i32 } personality i8* bitcast (i32 (...)* @__gxx_personality_v0 to i8*)
          cleanup, !dbg !12567
  %3 = extractvalue { i8*, i32 } %2, 0, !dbg !12567
  store i8* %3, i8** %exn.slot, !dbg !12567
  %4 = extractvalue { i8*, i32 } %2, 1, !dbg !12567
  store i32 %4, i32* %ehselector.slot, !dbg !12567
  invoke void @_ZN5boost8functionIFvRKNS_10shared_ptrIKN8std_msgs6Int16_ISaIvEEEEEEED2Ev(%"class.boost::function.32"* %agg.tmp)
          to label %invoke.cont2 unwind label %terminate.lpad, !dbg !12564

invoke.cont2:                                     ; preds = %lpad
  br label %eh.resume, !dbg !12568

eh.resume:                                        ; preds = %invoke.cont2
  %exn = load i8** %exn.slot, !dbg !12570
  %sel = load i32* %ehselector.slot, !dbg !12570
  %lpad.val = insertvalue { i8*, i32 } undef, i8* %exn, 0, !dbg !12570
  %lpad.val3 = insertvalue { i8*, i32 } %lpad.val, i32 %sel, 1, !dbg !12570
  resume { i8*, i32 } %lpad.val3, !dbg !12570

terminate.lpad:                                   ; preds = %lpad
  %5 = landingpad { i8*, i32 } personality i8* bitcast (i32 (...)* @__gxx_personality_v0 to i8*)
          catch i8* null, !dbg !12572
  %6 = extractvalue { i8*, i32 } %5, 0, !dbg !12572
  call void @__clang_call_terminate(i8* %6) #15, !dbg !12572
  unreachable, !dbg !12572
}

; Function Attrs: uwtable
define linkonce_odr void @_ZN3ros27SubscriptionCallbackHelperTIRKN5boost10shared_ptrIKN8std_msgs6Int16_ISaIvEEEEEvEC2ERKNS1_8functionIFvS8_EEERKNSC_IFNS2_IS6_EEvEEE(%"class.ros::SubscriptionCallbackHelperT"* %this, %"class.boost::function.36"* dereferenceable(32) %callback, %"class.boost::function.35"* dereferenceable(32) %create) unnamed_addr #3 comdat align 2 {
entry:
  %this.addr = alloca %"class.ros::SubscriptionCallbackHelperT"*, align 8
  %callback.addr = alloca %"class.boost::function.36"*, align 8
  %create.addr = alloca %"class.boost::function.35"*, align 8
  %exn.slot = alloca i8*
  %ehselector.slot = alloca i32
  store %"class.ros::SubscriptionCallbackHelperT"* %this, %"class.ros::SubscriptionCallbackHelperT"** %this.addr, align 8
  call void @llvm.dbg.declare(metadata %"class.ros::SubscriptionCallbackHelperT"** %this.addr, metadata !12574, metadata !10245), !dbg !12575
  store %"class.boost::function.36"* %callback, %"class.boost::function.36"** %callback.addr, align 8
  call void @llvm.dbg.declare(metadata %"class.boost::function.36"** %callback.addr, metadata !12576, metadata !10245), !dbg !12577
  store %"class.boost::function.35"* %create, %"class.boost::function.35"** %create.addr, align 8
  call void @llvm.dbg.declare(metadata %"class.boost::function.35"** %create.addr, metadata !12578, metadata !10245), !dbg !12579
  %this1 = load %"class.ros::SubscriptionCallbackHelperT"** %this.addr
  %0 = bitcast %"class.ros::SubscriptionCallbackHelperT"* %this1 to %"class.ros::SubscriptionCallbackHelper"*, !dbg !12580
  call void @_ZN3ros26SubscriptionCallbackHelperC2Ev(%"class.ros::SubscriptionCallbackHelper"* %0) #1, !dbg !12581
  %1 = bitcast %"class.ros::SubscriptionCallbackHelperT"* %this1 to i32 (...)***, !dbg !12580
  store i32 (...)** bitcast (i8** getelementptr inbounds ([9 x i8*]* @_ZTVN3ros27SubscriptionCallbackHelperTIRKN5boost10shared_ptrIKN8std_msgs6Int16_ISaIvEEEEEvEE, i64 0, i64 2) to i32 (...)**), i32 (...)*** %1, !dbg !12580
  %callback_ = getelementptr inbounds %"class.ros::SubscriptionCallbackHelperT"* %this1, i32 0, i32 1, !dbg !12582
  %2 = load %"class.boost::function.36"** %callback.addr, align 8, !dbg !12583
  invoke void @_ZN5boost8functionIFvNS_10shared_ptrIKN8std_msgs6Int16_ISaIvEEEEEEEC2ERKS9_(%"class.boost::function.36"* %callback_, %"class.boost::function.36"* dereferenceable(32) %2)
          to label %invoke.cont unwind label %lpad, !dbg !12582

invoke.cont:                                      ; preds = %entry
  %create_ = getelementptr inbounds %"class.ros::SubscriptionCallbackHelperT"* %this1, i32 0, i32 2, !dbg !12584
  %3 = load %"class.boost::function.35"** %create.addr, align 8, !dbg !12585
  invoke void @_ZN5boost8functionIFNS_10shared_ptrIN8std_msgs6Int16_ISaIvEEEEEvEEC2ERKS8_(%"class.boost::function.35"* %create_, %"class.boost::function.35"* dereferenceable(32) %3)
          to label %invoke.cont3 unwind label %lpad2, !dbg !12584

invoke.cont3:                                     ; preds = %invoke.cont
  ret void, !dbg !12586

lpad:                                             ; preds = %entry
  %4 = landingpad { i8*, i32 } personality i8* bitcast (i32 (...)* @__gxx_personality_v0 to i8*)
          cleanup, !dbg !12586
  %5 = extractvalue { i8*, i32 } %4, 0, !dbg !12586
  store i8* %5, i8** %exn.slot, !dbg !12586
  %6 = extractvalue { i8*, i32 } %4, 1, !dbg !12586
  store i32 %6, i32* %ehselector.slot, !dbg !12586
  br label %ehcleanup, !dbg !12586

lpad2:                                            ; preds = %invoke.cont
  %7 = landingpad { i8*, i32 } personality i8* bitcast (i32 (...)* @__gxx_personality_v0 to i8*)
          cleanup, !dbg !12586
  %8 = extractvalue { i8*, i32 } %7, 0, !dbg !12586
  store i8* %8, i8** %exn.slot, !dbg !12586
  %9 = extractvalue { i8*, i32 } %7, 1, !dbg !12586
  store i32 %9, i32* %ehselector.slot, !dbg !12586
  invoke void @_ZN5boost8functionIFvNS_10shared_ptrIKN8std_msgs6Int16_ISaIvEEEEEEED2Ev(%"class.boost::function.36"* %callback_)
          to label %invoke.cont4 unwind label %terminate.lpad, !dbg !12587

invoke.cont4:                                     ; preds = %lpad2
  br label %ehcleanup, !dbg !12589

ehcleanup:                                        ; preds = %invoke.cont4, %lpad
  %10 = bitcast %"class.ros::SubscriptionCallbackHelperT"* %this1 to %"class.ros::SubscriptionCallbackHelper"*, !dbg !12591
  invoke void @_ZN3ros26SubscriptionCallbackHelperD2Ev(%"class.ros::SubscriptionCallbackHelper"* %10)
          to label %invoke.cont5 unwind label %terminate.lpad, !dbg !12591

invoke.cont5:                                     ; preds = %ehcleanup
  br label %eh.resume, !dbg !12594

eh.resume:                                        ; preds = %invoke.cont5
  %exn = load i8** %exn.slot, !dbg !12596
  %sel = load i32* %ehselector.slot, !dbg !12596
  %lpad.val = insertvalue { i8*, i32 } undef, i8* %exn, 0, !dbg !12596
  %lpad.val6 = insertvalue { i8*, i32 } %lpad.val, i32 %sel, 1, !dbg !12596
  resume { i8*, i32 } %lpad.val6, !dbg !12596

terminate.lpad:                                   ; preds = %ehcleanup, %lpad2
  %11 = landingpad { i8*, i32 } personality i8* bitcast (i32 (...)* @__gxx_personality_v0 to i8*)
          catch i8* null, !dbg !12598
  %12 = extractvalue { i8*, i32 } %11, 0, !dbg !12598
  call void @__clang_call_terminate(i8* %12) #15, !dbg !12598
  unreachable, !dbg !12598
}

; Function Attrs: uwtable
define linkonce_odr void @_ZN5boost10shared_ptrIN3ros26SubscriptionCallbackHelperEEC2INS1_27SubscriptionCallbackHelperTIRKNS0_IKN8std_msgs6Int16_ISaIvEEEEEvEEEEPT_(%"class.boost::shared_ptr.20"* %this, %"class.ros::SubscriptionCallbackHelperT"* %p) unnamed_addr #3 comdat align 2 {
entry:
  %this.addr = alloca %"class.boost::shared_ptr.20"*, align 8
  %p.addr = alloca %"class.ros::SubscriptionCallbackHelperT"*, align 8
  %exn.slot = alloca i8*
  %ehselector.slot = alloca i32
  store %"class.boost::shared_ptr.20"* %this, %"class.boost::shared_ptr.20"** %this.addr, align 8
  call void @llvm.dbg.declare(metadata %"class.boost::shared_ptr.20"** %this.addr, metadata !12601, metadata !10245), !dbg !12602
  store %"class.ros::SubscriptionCallbackHelperT"* %p, %"class.ros::SubscriptionCallbackHelperT"** %p.addr, align 8
  call void @llvm.dbg.declare(metadata %"class.ros::SubscriptionCallbackHelperT"** %p.addr, metadata !12603, metadata !10245), !dbg !12604
  %this1 = load %"class.boost::shared_ptr.20"** %this.addr
  %px = getelementptr inbounds %"class.boost::shared_ptr.20"* %this1, i32 0, i32 0, !dbg !12605
  %0 = load %"class.ros::SubscriptionCallbackHelperT"** %p.addr, align 8, !dbg !12606
  %1 = bitcast %"class.ros::SubscriptionCallbackHelperT"* %0 to %"class.ros::SubscriptionCallbackHelper"*, !dbg !12606
  store %"class.ros::SubscriptionCallbackHelper"* %1, %"class.ros::SubscriptionCallbackHelper"** %px, align 8, !dbg !12605
  %pn = getelementptr inbounds %"class.boost::shared_ptr.20"* %this1, i32 0, i32 1, !dbg !12607
  call void @_ZN5boost6detail12shared_countC2Ev(%"class.boost::detail::shared_count"* %pn), !dbg !12607
  %2 = load %"class.ros::SubscriptionCallbackHelperT"** %p.addr, align 8, !dbg !12608
  %pn2 = getelementptr inbounds %"class.boost::shared_ptr.20"* %this1, i32 0, i32 1, !dbg !12610
  invoke void @_ZN5boost6detail20sp_pointer_constructIN3ros26SubscriptionCallbackHelperENS2_27SubscriptionCallbackHelperTIRKNS_10shared_ptrIKN8std_msgs6Int16_ISaIvEEEEEvEEEEvPNS5_IT_EEPT0_RNS0_12shared_countE(%"class.boost::shared_ptr.20"* %this1, %"class.ros::SubscriptionCallbackHelperT"* %2, %"class.boost::detail::shared_count"* dereferenceable(8) %pn2)
          to label %invoke.cont unwind label %lpad, !dbg !12611

invoke.cont:                                      ; preds = %entry
  ret void, !dbg !12612

lpad:                                             ; preds = %entry
  %3 = landingpad { i8*, i32 } personality i8* bitcast (i32 (...)* @__gxx_personality_v0 to i8*)
          cleanup, !dbg !12613
  %4 = extractvalue { i8*, i32 } %3, 0, !dbg !12613
  store i8* %4, i8** %exn.slot, !dbg !12613
  %5 = extractvalue { i8*, i32 } %3, 1, !dbg !12613
  store i32 %5, i32* %ehselector.slot, !dbg !12613
  invoke void @_ZN5boost6detail12shared_countD2Ev(%"class.boost::detail::shared_count"* %pn)
          to label %invoke.cont3 unwind label %terminate.lpad, !dbg !12613

invoke.cont3:                                     ; preds = %lpad
  br label %eh.resume, !dbg !12614

eh.resume:                                        ; preds = %invoke.cont3
  %exn = load i8** %exn.slot, !dbg !12616
  %sel = load i32* %ehselector.slot, !dbg !12616
  %lpad.val = insertvalue { i8*, i32 } undef, i8* %exn, 0, !dbg !12616
  %lpad.val4 = insertvalue { i8*, i32 } %lpad.val, i32 %sel, 1, !dbg !12616
  resume { i8*, i32 } %lpad.val4, !dbg !12616

terminate.lpad:                                   ; preds = %lpad
  %6 = landingpad { i8*, i32 } personality i8* bitcast (i32 (...)* @__gxx_personality_v0 to i8*)
          catch i8* null, !dbg !12618
  %7 = extractvalue { i8*, i32 } %6, 0, !dbg !12618
  call void @__clang_call_terminate(i8* %7) #15, !dbg !12618
  unreachable, !dbg !12618
}

; Function Attrs: inlinehint uwtable
define linkonce_odr void @_ZN5boost8functionIFvNS_10shared_ptrIKN8std_msgs6Int16_ISaIvEEEEEEED2Ev(%"class.boost::function.36"* %this) unnamed_addr #6 comdat align 2 {
entry:
  %this.addr = alloca %"class.boost::function.36"*, align 8
  store %"class.boost::function.36"* %this, %"class.boost::function.36"** %this.addr, align 8
  call void @llvm.dbg.declare(metadata %"class.boost::function.36"** %this.addr, metadata !12620, metadata !10245), !dbg !12621
  %this1 = load %"class.boost::function.36"** %this.addr
  %0 = bitcast %"class.boost::function.36"* %this1 to %"class.boost::function1.37"*, !dbg !12622
  call void @_ZN5boost9function1IvNS_10shared_ptrIKN8std_msgs6Int16_ISaIvEEEEEED2Ev(%"class.boost::function1.37"* %0), !dbg !12622
  ret void, !dbg !12624
}

; Function Attrs: inlinehint uwtable
define linkonce_odr void @_ZN5boost10shared_ptrIN3ros26SubscriptionCallbackHelperEEC2ERKS3_(%"class.boost::shared_ptr.20"* %this, %"class.boost::shared_ptr.20"* dereferenceable(16)) unnamed_addr #6 comdat align 2 {
entry:
  %this.addr = alloca %"class.boost::shared_ptr.20"*, align 8
  %.addr = alloca %"class.boost::shared_ptr.20"*, align 8
  store %"class.boost::shared_ptr.20"* %this, %"class.boost::shared_ptr.20"** %this.addr, align 8
  call void @llvm.dbg.declare(metadata %"class.boost::shared_ptr.20"** %this.addr, metadata !12625, metadata !10245), !dbg !12626
  store %"class.boost::shared_ptr.20"* %0, %"class.boost::shared_ptr.20"** %.addr, align 8
  call void @llvm.dbg.declare(metadata %"class.boost::shared_ptr.20"** %.addr, metadata !12627, metadata !10245), !dbg !12626
  %this1 = load %"class.boost::shared_ptr.20"** %this.addr
  %px = getelementptr inbounds %"class.boost::shared_ptr.20"* %this1, i32 0, i32 0, !dbg !12628
  %1 = load %"class.boost::shared_ptr.20"** %.addr, align 8, !dbg !12628
  %px2 = getelementptr inbounds %"class.boost::shared_ptr.20"* %1, i32 0, i32 0, !dbg !12628
  %2 = load %"class.ros::SubscriptionCallbackHelper"** %px2, align 8, !dbg !12628
  store %"class.ros::SubscriptionCallbackHelper"* %2, %"class.ros::SubscriptionCallbackHelper"** %px, align 8, !dbg !12628
  %pn = getelementptr inbounds %"class.boost::shared_ptr.20"* %this1, i32 0, i32 1, !dbg !12628
  %3 = load %"class.boost::shared_ptr.20"** %.addr, align 8, !dbg !12628
  %pn3 = getelementptr inbounds %"class.boost::shared_ptr.20"* %3, i32 0, i32 1, !dbg !12628
  call void @_ZN5boost6detail12shared_countC2ERKS1_(%"class.boost::detail::shared_count"* %pn, %"class.boost::detail::shared_count"* dereferenceable(8) %pn3), !dbg !12628
  %px4 = getelementptr inbounds %"class.boost::shared_ptr.20"* %this1, i32 0, i32 0, !dbg !12628
  %4 = load %"class.boost::shared_ptr.20"** %.addr, align 8, !dbg !12628
  %px5 = getelementptr inbounds %"class.boost::shared_ptr.20"* %4, i32 0, i32 0, !dbg !12628
  %5 = load %"class.ros::SubscriptionCallbackHelper"** %px5, align 8, !dbg !12628
  store %"class.ros::SubscriptionCallbackHelper"* %5, %"class.ros::SubscriptionCallbackHelper"** %px4, align 8, !dbg !12628
  ret void, !dbg !12628
}

; Function Attrs: uwtable
define linkonce_odr void @_ZN5boost10shared_ptrIN3ros26SubscriptionCallbackHelperEE4swapERS3_(%"class.boost::shared_ptr.20"* %this, %"class.boost::shared_ptr.20"* dereferenceable(16) %other) #3 comdat align 2 {
entry:
  %this.addr = alloca %"class.boost::shared_ptr.20"*, align 8
  %other.addr = alloca %"class.boost::shared_ptr.20"*, align 8
  store %"class.boost::shared_ptr.20"* %this, %"class.boost::shared_ptr.20"** %this.addr, align 8
  call void @llvm.dbg.declare(metadata %"class.boost::shared_ptr.20"** %this.addr, metadata !12629, metadata !10245), !dbg !12630
  store %"class.boost::shared_ptr.20"* %other, %"class.boost::shared_ptr.20"** %other.addr, align 8
  call void @llvm.dbg.declare(metadata %"class.boost::shared_ptr.20"** %other.addr, metadata !12631, metadata !10245), !dbg !12632
  %this1 = load %"class.boost::shared_ptr.20"** %this.addr
  %px = getelementptr inbounds %"class.boost::shared_ptr.20"* %this1, i32 0, i32 0, !dbg !12633
  %0 = load %"class.boost::shared_ptr.20"** %other.addr, align 8, !dbg !12634
  %px2 = getelementptr inbounds %"class.boost::shared_ptr.20"* %0, i32 0, i32 0, !dbg !12635
  call void @_ZSt4swapIPN3ros26SubscriptionCallbackHelperEEvRT_S4_(%"class.ros::SubscriptionCallbackHelper"** dereferenceable(8) %px, %"class.ros::SubscriptionCallbackHelper"** dereferenceable(8) %px2), !dbg !12636
  %pn = getelementptr inbounds %"class.boost::shared_ptr.20"* %this1, i32 0, i32 1, !dbg !12637
  %1 = load %"class.boost::shared_ptr.20"** %other.addr, align 8, !dbg !12638
  %pn3 = getelementptr inbounds %"class.boost::shared_ptr.20"* %1, i32 0, i32 1, !dbg !12639
  call void @_ZN5boost6detail12shared_count4swapERS1_(%"class.boost::detail::shared_count"* %pn, %"class.boost::detail::shared_count"* dereferenceable(8) %pn3), !dbg !12637
  ret void, !dbg !12640
}

; Function Attrs: nounwind uwtable
define linkonce_odr void @_ZSt4swapIPN3ros26SubscriptionCallbackHelperEEvRT_S4_(%"class.ros::SubscriptionCallbackHelper"** dereferenceable(8) %__a, %"class.ros::SubscriptionCallbackHelper"** dereferenceable(8) %__b) #2 comdat {
entry:
  %__a.addr = alloca %"class.ros::SubscriptionCallbackHelper"**, align 8
  %__b.addr = alloca %"class.ros::SubscriptionCallbackHelper"**, align 8
