; ModuleID = 'node_class.cpp'
target datalayout = "e-m:e-i64:64-f80:128-n8:16:32:64-S128"
target triple = "x86_64-unknown-linux-gnu"

%"class.std::ios_base::Init" = type { i8 }
%"struct.boost::arg" = type { i8 }
%"struct.boost::arg.0" = type { i8 }
%"struct.boost::arg.2" = type { i8 }
%"struct.boost::arg.4" = type { i8 }
%"struct.boost::arg.6" = type { i8 }
%"struct.boost::arg.8" = type { i8 }
%"struct.boost::arg.10" = type { i8 }
%"struct.boost::arg.12" = type { i8 }
%"struct.boost::arg.14" = type { i8 }
%"struct.ros::console::LogLocation" = type { i8, i8, i32, %"class.log4cxx::Logger"* }
%"class.log4cxx::Logger" = type { %"class.log4cxx::spi::AppenderAttachable", %"class.log4cxx::helpers::Pool"*, %"class.std::basic_string", %"class.log4cxx::helpers::ObjectPtrT", %"class.log4cxx::helpers::ObjectPtrT.23", %"class.log4cxx::helpers::ObjectPtrT.24", %"class.log4cxx::spi::LoggerRepository"*, %"class.log4cxx::helpers::ObjectPtrT.25", i8, %"class.log4cxx::helpers::Mutex", %"class.log4cxx::helpers::ObjectImpl.base" }
%"class.log4cxx::spi::AppenderAttachable" = type { %"class.log4cxx::helpers::Object" }
%"class.log4cxx::helpers::Object" = type { i32 (...)** }
%"class.log4cxx::helpers::Pool" = type <{ %struct.apr_pool_t*, i8, [7 x i8] }>
%struct.apr_pool_t = type opaque
%"class.std::basic_string" = type { %"struct.std::basic_string<char, std::char_traits<char>, std::allocator<char> >::_Alloc_hider" }
%"struct.std::basic_string<char, std::char_traits<char>, std::allocator<char> >::_Alloc_hider" = type { i8* }
%"class.log4cxx::helpers::ObjectPtrT" = type { %"class.log4cxx::helpers::ObjectPtrBase", %"class.log4cxx::Level"* }
%"class.log4cxx::helpers::ObjectPtrBase" = type { i32 (...)** }
%"class.log4cxx::Level" = type <{ %"class.log4cxx::helpers::ObjectImpl.base", i32, %"class.std::basic_string", i32, [4 x i8] }>
%"class.log4cxx::helpers::ObjectPtrT.23" = type { %"class.log4cxx::helpers::ObjectPtrBase", %"class.log4cxx::Logger"* }
%"class.log4cxx::helpers::ObjectPtrT.24" = type { %"class.log4cxx::helpers::ObjectPtrBase", %"class.log4cxx::helpers::ResourceBundle"* }
%"class.log4cxx::helpers::ResourceBundle" = type { %"class.log4cxx::helpers::ObjectImpl.base", %"class.log4cxx::helpers::ObjectPtrT.24" }
%"class.log4cxx::spi::LoggerRepository" = type { %"class.log4cxx::helpers::Object" }
%"class.log4cxx::helpers::ObjectPtrT.25" = type { %"class.log4cxx::helpers::ObjectPtrBase", %"class.log4cxx::helpers::AppenderAttachableImpl"* }
%"class.log4cxx::helpers::AppenderAttachableImpl" = type { %"class.log4cxx::spi::AppenderAttachable", %"class.std::vector", %"class.log4cxx::helpers::Mutex", %"class.log4cxx::helpers::ObjectImpl.base" }
%"class.std::vector" = type { %"struct.std::_Vector_base" }
%"struct.std::_Vector_base" = type { %"struct.std::_Vector_base<log4cxx::helpers::ObjectPtrT<log4cxx::Appender>, std::allocator<log4cxx::helpers::ObjectPtrT<log4cxx::Appender> > >::_Vector_impl" }
%"struct.std::_Vector_base<log4cxx::helpers::ObjectPtrT<log4cxx::Appender>, std::allocator<log4cxx::helpers::ObjectPtrT<log4cxx::Appender> > >::_Vector_impl" = type { %"class.log4cxx::helpers::ObjectPtrT.29"*, %"class.log4cxx::helpers::ObjectPtrT.29"*, %"class.log4cxx::helpers::ObjectPtrT.29"* }
%"class.log4cxx::helpers::ObjectPtrT.29" = type opaque
%"class.log4cxx::helpers::Mutex" = type { %struct.apr_thread_mutex_t* }
%struct.apr_thread_mutex_t = type opaque
%"class.log4cxx::helpers::ObjectImpl.base" = type <{ %"class.log4cxx::helpers::Object", i32 }>
%"struct.boost::detail::function::basic_vtable1.50" = type { %"struct.boost::detail::function::vtable_base", void (%"union.boost::detail::function::function_buffer"*, %"class.boost::shared_ptr.35"*)* }
%"struct.boost::detail::function::vtable_base" = type { void (%"union.boost::detail::function::function_buffer"*, %"union.boost::detail::function::function_buffer"*, i32)* }
%"union.boost::detail::function::function_buffer" = type { %"struct.boost::detail::function::function_buffer::bound_memfunc_ptr_t" }
%"struct.boost::detail::function::function_buffer::bound_memfunc_ptr_t" = type { { i64, i64 }, i8* }
%"class.boost::shared_ptr.35" = type { %"struct.std_msgs::Float64_"*, %"class.boost::detail::shared_count" }
%"struct.std_msgs::Float64_" = type { double, %"class.boost::shared_ptr.36" }
%"class.boost::shared_ptr.36" = type { %"class.std::map"*, %"class.boost::detail::shared_count" }
%"class.std::map" = type { %"class.std::_Rb_tree" }
%"class.std::_Rb_tree" = type { %"struct.std::_Rb_tree<std::basic_string<char>, std::pair<const std::basic_string<char>, std::basic_string<char> >, std::_Select1st<std::pair<const std::basic_string<char>, std::basic_string<char> > >, std::less<std::basic_string<char> >, std::allocator<std::pair<const std::basic_string<char>, std::basic_string<char> > > >::_Rb_tree_impl" }
%"struct.std::_Rb_tree<std::basic_string<char>, std::pair<const std::basic_string<char>, std::basic_string<char> >, std::_Select1st<std::pair<const std::basic_string<char>, std::basic_string<char> > >, std::less<std::basic_string<char> >, std::allocator<std::pair<const std::basic_string<char>, std::basic_string<char> > > >::_Rb_tree_impl" = type { %"struct.std::less", %"struct.std::_Rb_tree_node_base", i64 }
%"struct.std::less" = type { i8 }
%"struct.std::_Rb_tree_node_base" = type { i32, %"struct.std::_Rb_tree_node_base"*, %"struct.std::_Rb_tree_node_base"*, %"struct.std::_Rb_tree_node_base"* }
%"class.boost::detail::shared_count" = type { %"class.boost::detail::sp_counted_base"* }
%"class.boost::detail::sp_counted_base" = type { i32 (...)**, i32, i32 }
%"struct.boost::detail::function::basic_vtable1.49" = type { %"struct.boost::detail::function::vtable_base", void (%"union.boost::detail::function::function_buffer"*, %"class.boost::shared_ptr.35"*)* }
%"struct.boost::detail::function::basic_vtable0" = type { %"struct.boost::detail::function::vtable_base", void (%"class.boost::shared_ptr.54"*, %"union.boost::detail::function::function_buffer"*)* }
%"class.boost::shared_ptr.54" = type { %"struct.std_msgs::Float64_"*, %"class.boost::detail::shared_count" }
%"struct.boost::detail::function::basic_vtable0.68" = type { %"struct.boost::detail::function::vtable_base", void (%"class.ros::SerializedMessage"*, %"union.boost::detail::function::function_buffer"*)* }
%"class.ros::SerializedMessage" = type { %"class.boost::shared_array", i64, i8*, %"class.boost::shared_ptr.40", %"class.std::type_info"* }
%"class.boost::shared_array" = type { i8*, %"class.boost::detail::shared_count" }
%"class.boost::shared_ptr.40" = type { i8*, %"class.boost::detail::shared_count" }
%"class.std::type_info" = type { i32 (...)**, i8* }
%class.Test = type { %"class.ros::NodeHandle", %"class.ros::NodeHandle", i32, %"class.ros::Subscriber", %"class.ros::Publisher", %"class.ros::Publisher" }
%"class.ros::NodeHandle" = type <{ %"class.std::basic_string", %"class.std::basic_string", %"class.std::map", %"class.std::map", %"class.ros::CallbackQueueInterface"*, %"class.ros::NodeHandleBackingCollection"*, i8, [7 x i8] }>
%"class.ros::CallbackQueueInterface" = type opaque
%"class.ros::NodeHandleBackingCollection" = type opaque
%"class.ros::Subscriber" = type { %"class.boost::shared_ptr" }
%"class.boost::shared_ptr" = type { %"class.ros::Subscriber::Impl"*, %"class.boost::detail::shared_count" }
%"class.ros::Subscriber::Impl" = type <{ %"class.std::basic_string", %"class.boost::shared_ptr.19", %"class.boost::shared_ptr.20", i8, [7 x i8] }>
%"class.boost::shared_ptr.19" = type { %"class.ros::NodeHandle"*, %"class.boost::detail::shared_count" }
%"class.boost::shared_ptr.20" = type { %"class.ros::SubscriptionCallbackHelper"*, %"class.boost::detail::shared_count" }
%"class.ros::SubscriptionCallbackHelper" = type { i32 (...)** }
%"class.ros::Publisher" = type { %"class.boost::shared_ptr.21" }
%"class.boost::shared_ptr.21" = type { %"class.ros::Publisher::Impl"*, %"class.boost::detail::shared_count" }
%"class.ros::Publisher::Impl" = type <{ %"class.std::basic_string", %"class.std::basic_string", %"class.std::basic_string", %"class.boost::shared_ptr.19", %"class.boost::shared_ptr.22", i8, [7 x i8] }>
%"class.boost::shared_ptr.22" = type { %"struct.ros::SubscriberCallbacks"*, %"class.boost::detail::shared_count" }
%"struct.ros::SubscriberCallbacks" = type { %"class.boost::function", %"class.boost::function", i8, %"class.boost::weak_ptr", %"class.ros::CallbackQueueInterface"* }
%"class.boost::function" = type { %"class.boost::function1" }
%"class.boost::function1" = type { %"class.boost::function_base" }
%"class.boost::function_base" = type { %"struct.boost::detail::function::vtable_base"*, %"union.boost::detail::function::function_buffer" }
%"class.boost::weak_ptr" = type { i8*, %"class.boost::detail::weak_count" }
%"class.boost::detail::weak_count" = type { %"class.boost::detail::sp_counted_base"* }
%"class.std::allocator" = type { i8 }
%"class.ros::TransportHints" = type { %"class.std::vector.30", %"class.std::map" }
%"class.std::vector.30" = type { %"struct.std::_Vector_base.31" }
%"struct.std::_Vector_base.31" = type { %"struct.std::_Vector_base<std::basic_string<char>, std::allocator<std::basic_string<char> > >::_Vector_impl" }
%"struct.std::_Vector_base<std::basic_string<char>, std::allocator<std::basic_string<char> > >::_Vector_impl" = type { %"class.std::basic_string"*, %"class.std::basic_string"*, %"class.std::basic_string"* }
%"class.ros::console::FilterBase" = type { i32 (...)** }
%"struct.ros::AdvertiseOptions" = type <{ %"class.std::basic_string", i32, [4 x i8], %"class.std::basic_string", %"class.std::basic_string", %"class.std::basic_string", %"class.boost::function", %"class.boost::function", %"class.ros::CallbackQueueInterface"*, %"class.boost::shared_ptr.40", i8, i8, [6 x i8] }>
%"struct.ros::SubscribeOptions" = type { %"class.std::basic_string", i32, %"class.std::basic_string", %"class.std::basic_string", %"class.boost::shared_ptr.20", %"class.ros::CallbackQueueInterface"*, i8, %"class.boost::shared_ptr.40", %"class.ros::TransportHints" }
%"class.boost::function.42" = type { %"class.boost::function1.43" }
%"class.boost::function1.43" = type { %"class.boost::function_base" }
%"class.boost::_bi::bind_t" = type { %"class.boost::_mfi::mf1", %"class.boost::_bi::list2" }
%"class.boost::_mfi::mf1" = type { { i64, i64 } }
%"class.boost::_bi::list2" = type { %"struct.boost::_bi::storage2" }
%"struct.boost::_bi::storage2" = type { %"struct.boost::_bi::storage1" }
%"struct.boost::_bi::storage1" = type { %"class.boost::_bi::value" }
%"class.boost::_bi::value" = type { %class.Test* }
%"class.boost::function.45" = type { %"class.boost::function0" }
%"class.boost::function0" = type { %"class.boost::function_base" }
%"struct.ros::DefaultMessageCreator" = type { i8 }
%"struct.std_msgs::String_" = type { %"class.std::basic_string", %"class.boost::shared_ptr.36" }
%"class.std::basic_stringstream" = type { %"class.std::basic_iostream.base", %"class.std::basic_stringbuf", %"class.std::basic_ios" }
%"class.std::basic_iostream.base" = type { %"class.std::basic_istream.base", %"class.std::basic_ostream.base" }
%"class.std::basic_istream.base" = type { i32 (...)**, i64 }
%"class.std::basic_ostream.base" = type { i32 (...)** }
%"class.std::basic_stringbuf" = type { %"class.std::basic_streambuf", i32, %"class.std::basic_string" }
%"class.std::basic_streambuf" = type { i32 (...)**, i8*, i8*, i8*, i8*, i8*, i8*, %"class.std::locale" }
%"class.std::locale" = type { %"class.std::locale::_Impl"* }
%"class.std::locale::_Impl" = type { i32, %"class.std::locale::facet"**, i64, %"class.std::locale::facet"**, i8** }
%"class.std::locale::facet" = type <{ i32 (...)**, i32, [4 x i8] }>
%"class.std::basic_ios" = type { %"class.std::ios_base", %"class.std::basic_ostream"*, i8, i8, %"class.std::basic_streambuf"*, %"class.std::ctype"*, %"class.std::num_put"*, %"class.std::num_get"* }
%"class.std::ios_base" = type { i32 (...)**, i64, i64, i32, i32, i32, %"struct.std::ios_base::_Callback_list"*, %"struct.std::ios_base::_Words", [8 x %"struct.std::ios_base::_Words"], i32, %"struct.std::ios_base::_Words"*, %"class.std::locale" }
%"struct.std::ios_base::_Callback_list" = type { %"struct.std::ios_base::_Callback_list"*, void (i32, %"class.std::ios_base"*, i32)*, i32, i32 }
%"struct.std::ios_base::_Words" = type { i8*, i64 }
%"class.std::basic_ostream" = type { i32 (...)**, %"class.std::basic_ios" }
%"class.std::ctype" = type <{ %"class.std::locale::facet.base", [4 x i8], %struct.__locale_struct*, i8, [7 x i8], i32*, i32*, i16*, i8, [256 x i8], [256 x i8], i8, [6 x i8] }>
%"class.std::locale::facet.base" = type <{ i32 (...)**, i32 }>
%struct.__locale_struct = type { [13 x %struct.__locale_data*], i16*, i32*, i32*, [13 x i8*] }
%struct.__locale_data = type opaque
%"class.std::num_put" = type { %"class.std::locale::facet.base", [4 x i8] }
%"class.std::num_get" = type { %"class.std::locale::facet.base", [4 x i8] }
%"class.boost::function.61" = type { %"class.boost::function0.62" }
%"class.boost::function0.62" = type { %"class.boost::function_base" }
%"class.boost::_bi::bind_t.63" = type { void (%"class.ros::SerializedMessage"*, %"struct.std_msgs::String_"*)*, %"class.boost::_bi::list1.64" }
%"class.boost::_bi::list1.64" = type { %"struct.boost::_bi::storage1.65" }
%"struct.boost::_bi::storage1.65" = type { %"class.boost::reference_wrapper" }
%"class.boost::reference_wrapper" = type { %"struct.std_msgs::String_"* }
%"struct.std::_Rb_tree_node" = type { %"struct.std::_Rb_tree_node_base", %"struct.std::pair" }
%"struct.std::pair" = type { %"class.std::basic_string", %"class.std::basic_string" }
%"class.std::allocator.16" = type { i8 }
%"class.std::allocator.37" = type { i8 }
%"class.__gnu_cxx::new_allocator.38" = type { i8 }
%"class.__gnu_cxx::new_allocator.17" = type { i8 }
%"class.std::allocator.32" = type { i8 }
%"class.__gnu_cxx::new_allocator.33" = type { i8 }
%"struct.std::unary_function" = type { i8 }
%"struct.boost::detail::function::basic_vtable1" = type { %"struct.boost::detail::function::vtable_base", void (%"union.boost::detail::function::function_buffer"*, %"class.ros::SingleSubscriberPublisher"*)* }
%"class.ros::SingleSubscriberPublisher" = type { %"class.boost::shared_ptr.41" }
%"class.boost::shared_ptr.41" = type { %"class.ros::SubscriberLink"*, %"class.boost::detail::shared_count" }
%"class.ros::SubscriberLink" = type opaque
%"class.boost::function.46" = type { %"class.boost::function1.47" }
%"class.boost::function1.47" = type { %"class.boost::function_base" }
%"class.ros::SubscriptionCallbackHelperT" = type { %"class.ros::SubscriptionCallbackHelper", %"class.boost::function.46", %"class.boost::function.45" }
%"struct.std::unary_function.44" = type { i8 }
%"struct.std::unary_function.48" = type { i8 }
%"struct.boost::detail::function::function_obj_tag" = type { i8 }
%"struct.boost::detail::function::function_buffer::type_t" = type { %"class.std::type_info"*, i8, i8 }
%"struct.mpl_::bool_" = type { i8 }
%"class.boost::bad_function_call" = type { %"class.std::runtime_error" }
%"class.std::runtime_error" = type { %"class.std::exception", %"class.std::basic_string" }
%"class.std::exception" = type { i32 (...)** }
%"struct.boost::exception_detail::error_info_injector" = type <{ %"class.boost::bad_function_call", %"class.boost::exception.base", [4 x i8] }>
%"class.boost::exception.base" = type <{ i32 (...)**, %"class.boost::exception_detail::refcount_ptr", i8*, i8*, i32 }>
%"class.boost::exception_detail::refcount_ptr" = type { %"struct.boost::exception_detail::error_info_container"* }
%"struct.boost::exception_detail::error_info_container" = type { i32 (...)** }
%"class.boost::exception_detail::clone_impl" = type { %"struct.boost::exception_detail::error_info_injector.base", %"class.boost::exception_detail::clone_base" }
%"struct.boost::exception_detail::error_info_injector.base" = type <{ %"class.boost::bad_function_call", %"class.boost::exception.base" }>
%"class.boost::exception_detail::clone_base" = type { i32 (...)** }
%"class.boost::exception" = type <{ i32 (...)**, %"class.boost::exception_detail::refcount_ptr", i8*, i8*, i32, [4 x i8] }>
%"struct.boost::detail::addr_impl_ref" = type { %"class.boost::function.42"* }
%"struct.ros::SubscriptionCallbackHelperDeserializeParams" = type { i8*, i32, %"class.boost::shared_ptr.36" }
%"struct.ros::serialization::PreDeserializeParams" = type { %"class.boost::shared_ptr.54", %"class.boost::shared_ptr.36" }
%"struct.ros::serialization::IStream" = type { %"struct.ros::serialization::Stream" }
%"struct.ros::serialization::Stream" = type { i8*, i8* }
%"struct.boost::detail::sp_empty" = type { i8 }
%"struct.ros::SubscriptionCallbackHelperCallParams" = type { %"class.ros::MessageEvent" }
%"class.ros::MessageEvent" = type { %"class.boost::shared_ptr.40", %"class.boost::shared_ptr.51", %"class.boost::shared_ptr.36", %"class.ros::Time", i8, %"class.boost::function.52" }
%"class.boost::shared_ptr.51" = type { i8*, %"class.boost::detail::shared_count" }
%"class.ros::Time" = type { %"class.ros::TimeBase" }
%"class.ros::TimeBase" = type { i32, i32 }
%"class.boost::function.52" = type { %"class.boost::function0.53" }
%"class.boost::function0.53" = type { %"class.boost::function_base" }
%"class.ros::MessageEvent.55" = type { %"class.boost::shared_ptr.35", %"class.boost::shared_ptr.54", %"class.boost::shared_ptr.36", %"class.ros::Time", i8, %"class.boost::function.45" }
%"struct.boost::detail::const_cast_tag" = type { i8 }
%"struct.boost::detail::static_cast_tag" = type { i8 }
%"class.boost::detail::sp_counted_impl_p" = type { %"class.boost::detail::sp_counted_base", %"class.ros::SubscriptionCallbackHelperT"* }
%"struct.mpl_::bool_.56" = type { i8 }
%"class.boost::_bi::list1" = type { %"struct.boost::_bi::storage1.57" }
%"struct.boost::_bi::storage1.57" = type { %"class.boost::shared_ptr.35"* }
%"class.boost::_bi::type" = type { i8 }
%"struct.boost::detail::addr_impl_ref.58" = type { %"class.boost::_bi::bind_t"* }
%"class.boost::detail::sp_ms_deleter" = type { i8, [7 x i8], %"union.boost::detail::sp_aligned_storage<24, 8>::type" }
%"union.boost::detail::sp_aligned_storage<24, 8>::type" = type { [24 x i8] }
%"class.boost::detail::sp_counted_impl_pd" = type { %"class.boost::detail::sp_counted_base", %"struct.std_msgs::Float64_"*, %"class.boost::detail::sp_ms_deleter" }
%"struct.boost::detail::addr_impl_ref.59" = type { %"struct.ros::DefaultMessageCreator"* }
%"class.__gnu_cxx::__normal_iterator" = type { %"class.std::basic_string"* }
%"class.__gnu_cxx::__normal_iterator.60" = type { %"class.std::basic_string"* }
%"struct.ros::serialization::OStream" = type { %"struct.ros::serialization::Stream" }
%"struct.boost::checked_array_deleter" = type { i8 }
%"class.boost::detail::sp_counted_impl_pd.66" = type <{ %"class.boost::detail::sp_counted_base", i8*, %"struct.boost::checked_array_deleter", [7 x i8] }>
%"struct.ros::serialization::LStream" = type { i32 }
%"struct.boost::detail::addr_impl_ref.67" = type { %"struct.std_msgs::String_"* }
%"class.boost::_bi::list0" = type { i8 }
%"class.boost::_bi::type.69" = type { i8 }
%"struct.boost::detail::addr_impl_ref.70" = type { %"class.boost::_bi::bind_t.63"* }

$_ZN5boost3argILi1EEC2Ev = comdat any

$_ZN5boost3argILi2EEC2Ev = comdat any

$_ZN5boost3argILi3EEC2Ev = comdat any

$_ZN5boost3argILi4EEC2Ev = comdat any

$_ZN5boost3argILi5EEC2Ev = comdat any

$_ZN5boost3argILi6EEC2Ev = comdat any

$_ZN5boost3argILi7EEC2Ev = comdat any

$_ZN5boost3argILi8EEC2Ev = comdat any

$_ZN5boost3argILi9EEC2Ev = comdat any

$_ZNSt3mapISsSsSt4lessISsESaISt4pairIKSsSsEEEC2Ev = comdat any

$_ZNSt3mapISsSsSt4lessISsESaISt4pairIKSsSsEEED2Ev = comdat any

$__clang_call_terminate = comdat any

$_ZN3ros10SubscriberC2Ev = comdat any

$_ZN3ros9PublisherC2Ev = comdat any

$_ZNK3ros10NodeHandle5paramIiEEvRKSsRT_RKS4_ = comdat any

$_ZN3ros9PublisheraSERKS0_ = comdat any

$_ZN3ros10NodeHandle9advertiseIN8std_msgs7String_ISaIvEEEEENS_9PublisherERKSsjb = comdat any

$_ZN3ros10SubscriberaSERKS0_ = comdat any

$_ZN3ros10NodeHandle9subscribeIN8std_msgs8Float64_ISaIvEEE4TestEENS_10SubscriberERKSsjMT0_FvRKN5boost10shared_ptrIKT_EEEPSA_RKNS_14TransportHintsE = comdat any

$_ZN3ros14TransportHintsC2Ev = comdat any

$_ZN3ros14TransportHintsD2Ev = comdat any

$_ZNK5boost10shared_ptrIKN8std_msgs8Float64_ISaIvEEEEptEv = comdat any

$_ZN8std_msgs7String_ISaIvEEC2Ev = comdat any

$_ZStorSt13_Ios_OpenmodeS_ = comdat any

$_ZN5boostlsIcSt11char_traitsIcEKN8std_msgs8Float64_ISaIvEEEEERSt13basic_ostreamIT_T0_ESC_RKNS_10shared_ptrIT1_EE = comdat any

$_ZNK3ros9Publisher7publishIN8std_msgs7String_ISaIvEEEEEvRKT_ = comdat any

$_ZN8std_msgs7String_ISaIvEED2Ev = comdat any

$_ZN4TestD2Ev = comdat any

$_ZNSt8_Rb_treeISsSt4pairIKSsSsESt10_Select1stIS2_ESt4lessISsESaIS2_EED2Ev = comdat any

$_ZNSt8_Rb_treeISsSt4pairIKSsSsESt10_Select1stIS2_ESt4lessISsESaIS2_EE8_M_eraseEPSt13_Rb_tree_nodeIS2_E = comdat any

$_ZNSt8_Rb_treeISsSt4pairIKSsSsESt10_Select1stIS2_ESt4lessISsESaIS2_EE8_M_beginEv = comdat any

$_ZNSt8_Rb_treeISsSt4pairIKSsSsESt10_Select1stIS2_ESt4lessISsESaIS2_EE13_Rb_tree_implIS6_Lb0EED2Ev = comdat any

$_ZNSt8_Rb_treeISsSt4pairIKSsSsESt10_Select1stIS2_ESt4lessISsESaIS2_EE8_S_rightEPSt18_Rb_tree_node_base = comdat any

$_ZNSt8_Rb_treeISsSt4pairIKSsSsESt10_Select1stIS2_ESt4lessISsESaIS2_EE7_S_leftEPSt18_Rb_tree_node_base = comdat any

$_ZNSt8_Rb_treeISsSt4pairIKSsSsESt10_Select1stIS2_ESt4lessISsESaIS2_EE15_M_destroy_nodeEPSt13_Rb_tree_nodeIS2_E = comdat any

$_ZNKSt8_Rb_treeISsSt4pairIKSsSsESt10_Select1stIS2_ESt4lessISsESaIS2_EE13get_allocatorEv = comdat any

$_ZN9__gnu_cxx13new_allocatorISt4pairIKSsSsEE7destroyEPS3_ = comdat any

$_ZSt11__addressofISt4pairIKSsSsEEPT_RS3_ = comdat any

$_ZNSaISt4pairIKSsSsEED2Ev = comdat any

$_ZNSt8_Rb_treeISsSt4pairIKSsSsESt10_Select1stIS2_ESt4lessISsESaIS2_EE11_M_put_nodeEPSt13_Rb_tree_nodeIS2_E = comdat any

$_ZNKSt8_Rb_treeISsSt4pairIKSsSsESt10_Select1stIS2_ESt4lessISsESaIS2_EE21_M_get_Node_allocatorEv = comdat any

$_ZNSaISt4pairIKSsSsEEC2ISt13_Rb_tree_nodeIS1_EEERKSaIT_E = comdat any

$_ZN9__gnu_cxx13new_allocatorISt4pairIKSsSsEEC2Ev = comdat any

$_ZNSt4pairIKSsSsED2Ev = comdat any

$_ZN9__gnu_cxx13new_allocatorISt4pairIKSsSsEED2Ev = comdat any

$_ZN9__gnu_cxx13new_allocatorISt13_Rb_tree_nodeISt4pairIKSsSsEEE10deallocateEPS5_m = comdat any

$_ZNSaISt13_Rb_tree_nodeISt4pairIKSsSsEEED2Ev = comdat any

$_ZN9__gnu_cxx13new_allocatorISt13_Rb_tree_nodeISt4pairIKSsSsEEED2Ev = comdat any

$_ZN5boost10shared_ptrIN3ros10Subscriber4ImplEEC2Ev = comdat any

$_ZN5boost6detail12shared_countC2Ev = comdat any

$_ZN5boost10shared_ptrIN3ros9Publisher4ImplEEC2Ev = comdat any

$_ZN5boost10shared_ptrIN3ros9Publisher4ImplEEaSERKS4_ = comdat any

$_ZN5boost10shared_ptrIN3ros9Publisher4ImplEEC2ERKS4_ = comdat any

$_ZN5boost10shared_ptrIN3ros9Publisher4ImplEE4swapERS4_ = comdat any

$_ZN5boost10shared_ptrIN3ros9Publisher4ImplEED2Ev = comdat any

$_ZN5boost6detail12shared_countC2ERKS1_ = comdat any

$_ZN5boost6detail15sp_counted_base12add_ref_copyEv = comdat any

$_ZN5boost6detail16atomic_incrementEPi = comdat any

$_ZSt4swapIPN3ros9Publisher4ImplEEvRT_S5_ = comdat any

$_ZN5boost6detail12shared_count4swapERS1_ = comdat any

$_ZN5boost6detail12shared_countD2Ev = comdat any

$_ZN5boost6detail15sp_counted_base7releaseEv = comdat any

$_ZN5boost6detail23atomic_exchange_and_addEPii = comdat any

$_ZN5boost6detail15sp_counted_base12weak_releaseEv = comdat any

$_ZN5boost10shared_ptrIN3ros10Subscriber4ImplEEaSERKS4_ = comdat any

$_ZN5boost10shared_ptrIN3ros10Subscriber4ImplEEC2ERKS4_ = comdat any

$_ZN5boost10shared_ptrIN3ros10Subscriber4ImplEE4swapERS4_ = comdat any

$_ZN5boost10shared_ptrIN3ros10Subscriber4ImplEED2Ev = comdat any

$_ZSt4swapIPN3ros10Subscriber4ImplEEvRT_S5_ = comdat any

$_ZNSt6vectorISsSaISsEEC2Ev = comdat any

$_ZNSt6vectorISsSaISsEED2Ev = comdat any

$_ZNSt12_Vector_baseISsSaISsEEC2Ev = comdat any

$_ZNSt12_Vector_baseISsSaISsEE12_Vector_implC2Ev = comdat any

$_ZNSaISsEC2Ev = comdat any

$_ZN9__gnu_cxx13new_allocatorISsEC2Ev = comdat any

$_ZSt8_DestroyIPSsSsEvT_S1_RSaIT0_E = comdat any

$_ZNSt12_Vector_baseISsSaISsEE19_M_get_Tp_allocatorEv = comdat any

$_ZNSt12_Vector_baseISsSaISsEED2Ev = comdat any

$_ZSt8_DestroyIPSsEvT_S1_ = comdat any

$_ZNSt12_Destroy_auxILb0EE9__destroyIPSsEEvT_S3_ = comdat any

$_ZSt8_DestroyISsEvPT_ = comdat any

$_ZSt11__addressofISsEPT_RS0_ = comdat any

$_ZNSt12_Vector_baseISsSaISsEE13_M_deallocateEPSsm = comdat any

$_ZNSt12_Vector_baseISsSaISsEE12_Vector_implD2Ev = comdat any

$_ZN9__gnu_cxx13new_allocatorISsE10deallocateEPSsm = comdat any

$_ZNSaISsED2Ev = comdat any

$_ZN9__gnu_cxx13new_allocatorISsED2Ev = comdat any

$_ZN5boost10shared_ptrISt3mapISsSsSt4lessISsESaISt4pairIKSsSsEEEED2Ev = comdat any

$_ZNSt8_Rb_treeISsSt4pairIKSsSsESt10_Select1stIS2_ESt4lessISsESaIS2_EEC2Ev = comdat any

$_ZNSt8_Rb_treeISsSt4pairIKSsSsESt10_Select1stIS2_ESt4lessISsESaIS2_EE13_Rb_tree_implIS6_Lb0EEC2Ev = comdat any

$_ZNSaISt13_Rb_tree_nodeISt4pairIKSsSsEEEC2Ev = comdat any

$_ZNSt8_Rb_treeISsSt4pairIKSsSsESt10_Select1stIS2_ESt4lessISsESaIS2_EE13_Rb_tree_implIS6_Lb0EE13_M_initializeEv = comdat any

$_ZN9__gnu_cxx13new_allocatorISt13_Rb_tree_nodeISt4pairIKSsSsEEEC2Ev = comdat any

$_ZN3ros16AdvertiseOptionsC2Ev = comdat any

$_ZN3ros16AdvertiseOptions4initIN8std_msgs7String_ISaIvEEEEEvRKSsjRKN5boost8functionIFvRKNS_25SingleSubscriberPublisherEEEESG_ = comdat any

$_ZN5boost8functionIFvRKN3ros25SingleSubscriberPublisherEEEC2Ev = comdat any

$_ZN5boost8functionIFvRKN3ros25SingleSubscriberPublisherEEED2Ev = comdat any

$_ZN3ros16AdvertiseOptionsD2Ev = comdat any

$_ZN5boost10shared_ptrIKvEC2Ev = comdat any

$_ZN5boost8functionIFvRKN3ros25SingleSubscriberPublisherEEEaSERKS6_ = comdat any

$_ZN3ros14message_traits6md5sumIN8std_msgs7String_ISaIvEEEEEPKcv = comdat any

$_ZN3ros14message_traits8datatypeIN8std_msgs7String_ISaIvEEEEEPKcv = comdat any

$_ZN3ros14message_traits10definitionIN8std_msgs7String_ISaIvEEEEEPKcv = comdat any

$_ZN3ros14message_traits9hasHeaderIN8std_msgs7String_ISaIvEEEEEbv = comdat any

$_ZN5boost8functionIFvRKN3ros25SingleSubscriberPublisherEEEC2ERKS6_ = comdat any

$_ZN5boost9function1IvRKN3ros25SingleSubscriberPublisherEE4swapERS5_ = comdat any

$_ZN5boost9function1IvRKN3ros25SingleSubscriberPublisherEEC2ERKS5_ = comdat any

$_ZN5boost13function_baseC2Ev = comdat any

$_ZN5boost9function1IvRKN3ros25SingleSubscriberPublisherEE13assign_to_ownERKS5_ = comdat any

$_ZNK5boost13function_base5emptyEv = comdat any

$_ZNK5boost13function_base28has_trivial_copy_and_destroyEv = comdat any

$_ZNK5boost9function1IvRKN3ros25SingleSubscriberPublisherEE10get_vtableEv = comdat any

$_ZN5boost9function1IvRKN3ros25SingleSubscriberPublisherEEC2Ev = comdat any

$_ZN5boost9function1IvRKN3ros25SingleSubscriberPublisherEE11move_assignERS5_ = comdat any

$_ZN5boost9function1IvRKN3ros25SingleSubscriberPublisherEED2Ev = comdat any

$_ZN5boost9function1IvRKN3ros25SingleSubscriberPublisherEE5clearEv = comdat any

$_ZN5boost6detail8function13basic_vtable1IvRKN3ros25SingleSubscriberPublisherEE5clearERNS1_15function_bufferE = comdat any

$_ZN3ros14message_traits6MD5SumIN8std_msgs7String_ISaIvEEEE5valueEv = comdat any

$_ZN3ros14message_traits8DataTypeIN8std_msgs7String_ISaIvEEEE5valueEv = comdat any

$_ZN3ros14message_traits10DefinitionIN8std_msgs7String_ISaIvEEEE5valueEv = comdat any

$_ZN5boost10shared_ptrIKvED2Ev = comdat any

$_ZN3ros16SubscribeOptionsC2Ev = comdat any

$_ZN3ros16SubscribeOptions4initIN8std_msgs8Float64_ISaIvEEEEEvRKSsjRKN5boost8functionIFvRKNS8_10shared_ptrIKT_EEEEERKNS9_IFNSA_ISB_EEvEEE = comdat any

$_ZN5boost4bindIv4TestRKNS_10shared_ptrIKN8std_msgs8Float64_ISaIvEEEEEPS1_NS_3argILi1EEEEENS_3_bi6bind_tIT_NS_4_mfi3mf1ISG_T0_T1_EENSE_9list_av_2IT2_T3_E4typeEEEMSJ_FSG_SK_ESN_SO_ = comdat any

$_ZN5boost8functionIFvRKNS_10shared_ptrIKN8std_msgs8Float64_ISaIvEEEEEEEC2INS_3_bi6bind_tIvNS_4_mfi3mf1Iv4TestS9_EENSD_5list2INSD_5valueIPSH_EENS_3argILi1EEEEEEEEET_NS_11enable_if_cIXsr5boost11type_traits7ice_notIXsr11is_integralISR_EE5valueEEE5valueEiE4typeE = comdat any

$_ZN5boost8functionIFNS_10shared_ptrIN8std_msgs8Float64_ISaIvEEEEEvEEC2IN3ros21DefaultMessageCreatorIS5_EEEET_NS_11enable_if_cIXsr5boost11type_traits7ice_notIXsr11is_integralISD_EE5valueEEE5valueEiE4typeE = comdat any

$_ZN5boost8functionIFNS_10shared_ptrIN8std_msgs8Float64_ISaIvEEEEEvEED2Ev = comdat any

$_ZN5boost8functionIFvRKNS_10shared_ptrIKN8std_msgs8Float64_ISaIvEEEEEEED2Ev = comdat any

$_ZN3ros14TransportHintsaSERKS0_ = comdat any

$_ZN3ros16SubscribeOptionsD2Ev = comdat any

$_ZN5boost10shared_ptrIN3ros26SubscriptionCallbackHelperEEC2Ev = comdat any

$_ZN5boost10shared_ptrIN3ros26SubscriptionCallbackHelperEED2Ev = comdat any

$_ZN3ros14message_traits6md5sumIN8std_msgs8Float64_ISaIvEEEEEPKcv = comdat any

$_ZN3ros14message_traits8datatypeIN8std_msgs8Float64_ISaIvEEEEEPKcv = comdat any

$_ZN5boost10shared_ptrIN3ros26SubscriptionCallbackHelperEEaSERKS3_ = comdat any

$_ZN5boost8functionIFvRKNS_10shared_ptrIKN8std_msgs8Float64_ISaIvEEEEEEEC2ERKSB_ = comdat any

$_ZN5boost8functionIFvNS_10shared_ptrIKN8std_msgs8Float64_ISaIvEEEEEEEC2INS0_IFvRKS7_EEEEET_NS_11enable_if_cIXsr5boost11type_traits7ice_notIXsr11is_integralISF_EE5valueEEE5valueEiE4typeE = comdat any

$_ZN3ros27SubscriptionCallbackHelperTIRKN5boost10shared_ptrIKN8std_msgs8Float64_ISaIvEEEEEvEC2ERKNS1_8functionIFvS8_EEERKNSC_IFNS2_IS6_EEvEEE = comdat any

$_ZN5boost10shared_ptrIN3ros26SubscriptionCallbackHelperEEC2INS1_27SubscriptionCallbackHelperTIRKNS0_IKN8std_msgs8Float64_ISaIvEEEEEvEEEEPT_ = comdat any

$_ZN5boost8functionIFvNS_10shared_ptrIKN8std_msgs8Float64_ISaIvEEEEEEED2Ev = comdat any

$_ZN3ros14message_traits6MD5SumIN8std_msgs8Float64_ISaIvEEEE5valueEv = comdat any

$_ZN3ros14message_traits8DataTypeIN8std_msgs8Float64_ISaIvEEEE5valueEv = comdat any

$_ZN5boost10shared_ptrIN3ros26SubscriptionCallbackHelperEEC2ERKS3_ = comdat any

$_ZN5boost10shared_ptrIN3ros26SubscriptionCallbackHelperEE4swapERS3_ = comdat any

$_ZSt4swapIPN3ros26SubscriptionCallbackHelperEEvRT_S4_ = comdat any

$_ZN5boost9function1IvRKNS_10shared_ptrIKN8std_msgs8Float64_ISaIvEEEEEEC2ERKSA_ = comdat any

$_ZN5boost9function1IvRKNS_10shared_ptrIKN8std_msgs8Float64_ISaIvEEEEEE13assign_to_ownERKSA_ = comdat any

$_ZNK5boost9function1IvRKNS_10shared_ptrIKN8std_msgs8Float64_ISaIvEEEEEE10get_vtableEv = comdat any

$_ZN5boost9function1IvNS_10shared_ptrIKN8std_msgs8Float64_ISaIvEEEEEEC2INS_8functionIFvRKS7_EEEEET_NS_11enable_if_cIXsr5boost11type_traits7ice_notIXsr11is_integralISF_EE5valueEEE5valueEiE4typeE = comdat any

$_ZN5boost9function1IvNS_10shared_ptrIKN8std_msgs8Float64_ISaIvEEEEEE9assign_toINS_8functionIFvRKS7_EEEEEvT_ = comdat any

$_ZN5boost6detail8function15functor_managerINS_8functionIFvRKNS_10shared_ptrIKN8std_msgs8Float64_ISaIvEEEEEEEEE6manageERKNS1_15function_bufferERSG_NS1_30functor_manager_operation_typeE = comdat any

$_ZN5boost6detail8function26void_function_obj_invoker1INS_8functionIFvRKNS_10shared_ptrIKN8std_msgs8Float64_ISaIvEEEEEEEEvSA_E6invokeERNS1_15function_bufferESA_ = comdat any

$_ZN5boost6detail8function13basic_vtable1IvNS_10shared_ptrIKN8std_msgs8Float64_ISaIvEEEEEE9assign_toINS_8functionIFvRKS9_EEEEEbT_RNS1_15function_bufferE = comdat any

$_ZN5boost6detail8function15functor_managerINS_8functionIFvRKNS_10shared_ptrIKN8std_msgs8Float64_ISaIvEEEEEEEEE7managerERKNS1_15function_bufferERSG_NS1_30functor_manager_operation_typeENS1_16function_obj_tagE = comdat any

$_ZN5boost6detail8function15functor_managerINS_8functionIFvRKNS_10shared_ptrIKN8std_msgs8Float64_ISaIvEEEEEEEEE7managerERKNS1_15function_bufferERSG_NS1_30functor_manager_operation_typeEN4mpl_5bool_ILb0EEE = comdat any

$_ZNKSt9type_info4nameEv = comdat any

$_ZNK5boost9function1IvRKNS_10shared_ptrIKN8std_msgs8Float64_ISaIvEEEEEEclES9_ = comdat any

$_ZN5boost15throw_exceptionINS_17bad_function_callEEEvRKT_ = comdat any

$_ZN5boost17bad_function_callC2Ev = comdat any

$_ZN5boost17bad_function_callD2Ev = comdat any

$_ZN5boost36throw_exception_assert_compatibilityERKSt9exception = comdat any

$_ZN5boost24enable_current_exceptionINS_16exception_detail19error_info_injectorINS_17bad_function_callEEEEENS1_10clone_implIT_EERKS6_ = comdat any

$_ZN5boost17enable_error_infoINS_17bad_function_callEEENS_16exception_detail29enable_error_info_return_typeIT_E4typeERKS4_ = comdat any

$_ZN5boost16exception_detail10clone_implINS0_19error_info_injectorINS_17bad_function_callEEEED2Ev = comdat any

$_ZN5boost16exception_detail19error_info_injectorINS_17bad_function_callEED2Ev = comdat any

$_ZN5boost16exception_detail10clone_implINS0_19error_info_injectorINS_17bad_function_callEEEEC2ERKS4_ = comdat any

$_ZN5boost16exception_detail19error_info_injectorINS_17bad_function_callEEC2ERKS3_ = comdat any

$_ZN5boost16exception_detail10clone_baseC2Ev = comdat any

$_ZN5boost16exception_detail20copy_boost_exceptionEPNS_9exceptionEPKS1_ = comdat any

$_ZN5boost16exception_detail10clone_implINS0_19error_info_injectorINS_17bad_function_callEEEED0Ev = comdat any

$_ZNK5boost16exception_detail10clone_implINS0_19error_info_injectorINS_17bad_function_callEEEE5cloneEv = comdat any

$_ZNK5boost16exception_detail10clone_implINS0_19error_info_injectorINS_17bad_function_callEEEE7rethrowEv = comdat any

$_ZThn16_N5boost16exception_detail10clone_implINS0_19error_info_injectorINS_17bad_function_callEEEED1Ev = comdat any

$_ZThn16_N5boost16exception_detail10clone_implINS0_19error_info_injectorINS_17bad_function_callEEEED0Ev = comdat any

$_ZThn56_NK5boost16exception_detail10clone_implINS0_19error_info_injectorINS_17bad_function_callEEEE5cloneEv = comdat any

$_ZThn56_NK5boost16exception_detail10clone_implINS0_19error_info_injectorINS_17bad_function_callEEEE7rethrowEv = comdat any

$_ZThn56_N5boost16exception_detail10clone_implINS0_19error_info_injectorINS_17bad_function_callEEEED1Ev = comdat any

$_ZThn56_N5boost16exception_detail10clone_implINS0_19error_info_injectorINS_17bad_function_callEEEED0Ev = comdat any

$_ZN5boost17bad_function_callC2ERKS0_ = comdat any

$_ZN5boost9exceptionC2ERKS0_ = comdat any

$_ZN5boost16exception_detail19error_info_injectorINS_17bad_function_callEED0Ev = comdat any

$_ZThn16_N5boost16exception_detail19error_info_injectorINS_17bad_function_callEED1Ev = comdat any

$_ZThn16_N5boost16exception_detail19error_info_injectorINS_17bad_function_callEED0Ev = comdat any

$_ZNSt13runtime_errorC2ERKS_ = comdat any

$_ZN5boost17bad_function_callD0Ev = comdat any

$_ZNSt9exceptionC2ERKS_ = comdat any

$_ZN5boost16exception_detail12refcount_ptrINS0_20error_info_containerEEC2ERKS3_ = comdat any

$_ZN5boost16exception_detail12refcount_ptrINS0_20error_info_containerEE7add_refEv = comdat any

$_ZN5boost16exception_detail10clone_baseD2Ev = comdat any

$_ZN5boost16exception_detail10clone_baseD0Ev = comdat any

$_ZN5boost16exception_detail12refcount_ptrINS0_20error_info_containerEEC2Ev = comdat any

$_ZNK5boost16exception_detail12refcount_ptrINS0_20error_info_containerEE3getEv = comdat any

$_ZN5boost16exception_detail12refcount_ptrINS0_20error_info_containerEEaSERKS3_ = comdat any

$_ZN5boost16exception_detail12refcount_ptrINS0_20error_info_containerEED2Ev = comdat any

$_ZN5boost16exception_detail12refcount_ptrINS0_20error_info_containerEE5adoptEPS2_ = comdat any

$_ZN5boost16exception_detail12refcount_ptrINS0_20error_info_containerEE7releaseEv = comdat any

$_ZN5boost9exceptionD2Ev = comdat any

$_ZN5boost16exception_detail10clone_implINS0_19error_info_injectorINS_17bad_function_callEEEEC2ERKS5_ = comdat any

$_ZN5boost16exception_detail10clone_baseC2ERKS1_ = comdat any

$_ZN5boost16exception_detail19error_info_injectorINS_17bad_function_callEEC2ERKS2_ = comdat any

$_ZN5boost9exceptionC2Ev = comdat any

$_ZN5boost6detail8function13basic_vtable1IvNS_10shared_ptrIKN8std_msgs8Float64_ISaIvEEEEEE9assign_toINS_8functionIFvRKS9_EEEEEbT_RNS1_15function_bufferENS1_16function_obj_tagE = comdat any

$_ZN5boost6detail8function16has_empty_targetEPKNS_13function_baseE = comdat any

$_ZN5boost9addressofINS_8functionIFvRKNS_10shared_ptrIKN8std_msgs8Float64_ISaIvEEEEEEEEEEPT_RSD_ = comdat any

$_ZN5boost6detail8function13basic_vtable1IvNS_10shared_ptrIKN8std_msgs8Float64_ISaIvEEEEEE14assign_functorINS_8functionIFvRKS9_EEEEEvT_RNS1_15function_bufferEN4mpl_5bool_ILb0EEE = comdat any

$_ZN5boost6detail14addressof_implINS_8functionIFvRKNS_10shared_ptrIKN8std_msgs8Float64_ISaIvEEEEEEEEE1fERSD_l = comdat any

$_ZN5boost6detail13addr_impl_refINS_8functionIFvRKNS_10shared_ptrIKN8std_msgs8Float64_ISaIvEEEEEEEEEC2ERSD_ = comdat any

$_ZNK5boost6detail13addr_impl_refINS_8functionIFvRKNS_10shared_ptrIKN8std_msgs8Float64_ISaIvEEEEEEEEEcvRSD_Ev = comdat any

$_ZN3ros26SubscriptionCallbackHelperC2Ev = comdat any

$_ZN5boost8functionIFvNS_10shared_ptrIKN8std_msgs8Float64_ISaIvEEEEEEEC2ERKS9_ = comdat any

$_ZN5boost8functionIFNS_10shared_ptrIN8std_msgs8Float64_ISaIvEEEEEvEEC2ERKS8_ = comdat any

$_ZN3ros27SubscriptionCallbackHelperTIRKN5boost10shared_ptrIKN8std_msgs8Float64_ISaIvEEEEEvED2Ev = comdat any

$_ZN3ros27SubscriptionCallbackHelperTIRKN5boost10shared_ptrIKN8std_msgs8Float64_ISaIvEEEEEvED0Ev = comdat any

$_ZN3ros27SubscriptionCallbackHelperTIRKN5boost10shared_ptrIKN8std_msgs8Float64_ISaIvEEEEEvE11deserializeERKNS_43SubscriptionCallbackHelperDeserializeParamsE = comdat any

$_ZN3ros27SubscriptionCallbackHelperTIRKN5boost10shared_ptrIKN8std_msgs8Float64_ISaIvEEEEEvE4callERNS_36SubscriptionCallbackHelperCallParamsE = comdat any

$_ZN3ros27SubscriptionCallbackHelperTIRKN5boost10shared_ptrIKN8std_msgs8Float64_ISaIvEEEEEvE11getTypeInfoEv = comdat any

$_ZN3ros27SubscriptionCallbackHelperTIRKN5boost10shared_ptrIKN8std_msgs8Float64_ISaIvEEEEEvE7isConstEv = comdat any

$_ZN3ros26SubscriptionCallbackHelperD2Ev = comdat any

$_ZN3ros26SubscriptionCallbackHelperD0Ev = comdat any

$_ZN5boost9function1IvNS_10shared_ptrIKN8std_msgs8Float64_ISaIvEEEEEEC2ERKS8_ = comdat any

$_ZN5boost9function1IvNS_10shared_ptrIKN8std_msgs8Float64_ISaIvEEEEEE13assign_to_ownERKS8_ = comdat any

$_ZNK5boost9function1IvNS_10shared_ptrIKN8std_msgs8Float64_ISaIvEEEEEE10get_vtableEv = comdat any

$_ZN5boost9function0INS_10shared_ptrIN8std_msgs8Float64_ISaIvEEEEEEC2ERKS7_ = comdat any

$_ZN5boost9function0INS_10shared_ptrIN8std_msgs8Float64_ISaIvEEEEEE13assign_to_ownERKS7_ = comdat any

$_ZNK5boost9function0INS_10shared_ptrIN8std_msgs8Float64_ISaIvEEEEEE10get_vtableEv = comdat any

$_ZNK5boost9function0INS_10shared_ptrIN8std_msgs8Float64_ISaIvEEEEEEclEv = comdat any

$_ZNK5boost10shared_ptrIN8std_msgs8Float64_ISaIvEEEEntEv = comdat any

$_ZN3ros34assignSubscriptionConnectionHeaderIN8std_msgs8Float64_ISaIvEEEEEvPT_RKN5boost10shared_ptrISt3mapISsSsSt4lessISsESaISt4pairIKSsSsEEEEEPNS7_9enable_ifINS_14message_traits9IsMessageIS5_EEvE4typeE = comdat any

$_ZNK5boost10shared_ptrIN8std_msgs8Float64_ISaIvEEEE3getEv = comdat any

$_ZN3ros13serialization20PreDeserializeParamsIN8std_msgs8Float64_ISaIvEEEEC2Ev = comdat any

$_ZN5boost10shared_ptrIN8std_msgs8Float64_ISaIvEEEEaSERKS5_ = comdat any

$_ZN5boost10shared_ptrISt3mapISsSsSt4lessISsESaISt4pairIKSsSsEEEEaSERKS9_ = comdat any

$_ZN3ros13serialization14PreDeserializeIN8std_msgs8Float64_ISaIvEEEE6notifyERKNS0_20PreDeserializeParamsIS5_EE = comdat any

$_ZN3ros13serialization7IStreamC2EPhj = comdat any

$_ZN3ros13serialization11deserializeIN8std_msgs8Float64_ISaIvEEENS0_7IStreamEEEvRT0_RT_ = comdat any

$_ZNK5boost10shared_ptrIN8std_msgs8Float64_ISaIvEEEEdeEv = comdat any

$_ZN5boost10shared_ptrIKvEC2IN8std_msgs8Float64_ISaIvEEEEERKNS0_IT_EENS_6detail24sp_enable_if_convertibleIS8_S1_E4typeE = comdat any

$_ZN3ros13serialization20PreDeserializeParamsIN8std_msgs8Float64_ISaIvEEEED2Ev = comdat any

$_ZN5boost10shared_ptrIN8std_msgs8Float64_ISaIvEEEED2Ev = comdat any

$_ZN5boost10shared_ptrIN8std_msgs8Float64_ISaIvEEEEC2Ev = comdat any

$_ZN5boost10shared_ptrISt3mapISsSsSt4lessISsESaISt4pairIKSsSsEEEEC2Ev = comdat any

$_ZN5boost10shared_ptrIN8std_msgs8Float64_ISaIvEEEEC2ERKS5_ = comdat any

$_ZN5boost10shared_ptrIN8std_msgs8Float64_ISaIvEEEE4swapERS5_ = comdat any

$_ZSt4swapIPN8std_msgs8Float64_ISaIvEEEEvRT_S6_ = comdat any

$_ZN5boost10shared_ptrISt3mapISsSsSt4lessISsESaISt4pairIKSsSsEEEEC2ERKS9_ = comdat any

$_ZN5boost10shared_ptrISt3mapISsSsSt4lessISsESaISt4pairIKSsSsEEEE4swapERS9_ = comdat any

$_ZSt4swapIPSt3mapISsSsSt4lessISsESaISt4pairIKSsSsEEEEvRT_SA_ = comdat any

$_ZN3ros13serialization6StreamC2EPhj = comdat any

$_ZN3ros13serialization10SerializerIN8std_msgs8Float64_ISaIvEEEE4readINS0_7IStreamES5_EEvRT_RT0_ = comdat any

$_ZN3ros13serialization10SerializerIN8std_msgs8Float64_ISaIvEEEE8allInOneINS0_7IStreamERS5_EEvRT_T0_ = comdat any

$_ZN3ros13serialization7IStream4nextIdEEvRT_ = comdat any

$_ZN3ros13serialization11deserializeIdNS0_7IStreamEEEvRT0_RT_ = comdat any

$_ZN3ros13serialization10SerializerIdE4readINS0_7IStreamEEEvRT_Rd = comdat any

$_ZN3ros13serialization6Stream7advanceEj = comdat any

$_ZN3ros12MessageEventIKN8std_msgs8Float64_ISaIvEEEEC2ERKNS0_IKvEERKN5boost8functionIFNSB_10shared_ptrIS4_EEvEEE = comdat any

$_ZNK5boost9function1IvNS_10shared_ptrIKN8std_msgs8Float64_ISaIvEEEEEEclES7_ = comdat any

$_ZN3ros16ParameterAdapterIRKN5boost10shared_ptrIKN8std_msgs8Float64_ISaIvEEEEEE12getParameterERKNS_12MessageEventIS7_EE = comdat any

$_ZN5boost10shared_ptrIKN8std_msgs8Float64_ISaIvEEEED2Ev = comdat any

$_ZN3ros12MessageEventIKN8std_msgs8Float64_ISaIvEEEED2Ev = comdat any

$_ZN5boost10shared_ptrIKN8std_msgs8Float64_ISaIvEEEEC2Ev = comdat any

$_ZN3ros4TimeC2Ev = comdat any

$_ZN5boost8functionIFNS_10shared_ptrIN8std_msgs8Float64_ISaIvEEEEEvEEC2Ev = comdat any

$_ZN3ros12MessageEventIKN8std_msgs8Float64_ISaIvEEEE4initERKN5boost10shared_ptrIS5_EERKNS8_ISt3mapISsSsSt4lessISsESaISt4pairIKSsSsEEEEENS_4TimeEbRKNS7_8functionIFNS8_IS4_EEvEEE = comdat any

$_ZN5boost18const_pointer_castIN8std_msgs8Float64_ISaIvEEEKS4_EENS_10shared_ptrIT_EERKNS6_IT0_EE = comdat any

$_ZN5boost19static_pointer_castIKN8std_msgs8Float64_ISaIvEEEKvEENS_10shared_ptrIT_EERKNS7_IT0_EE = comdat any

$_ZNK3ros12MessageEventIKvE10getMessageEv = comdat any

$_ZN5boost10shared_ptrIKN8std_msgs8Float64_ISaIvEEEEC2IS4_EERKNS0_IT_EENS_6detail24sp_enable_if_convertibleIS8_S5_E4typeE = comdat any

$_ZNK3ros12MessageEventIKvE22getConnectionHeaderPtrEv = comdat any

$_ZNK3ros12MessageEventIKvE14getReceiptTimeEv = comdat any

$_ZNK3ros12MessageEventIKvE16nonConstWillCopyEv = comdat any

$_ZN3ros4TimeD2Ev = comdat any

$_ZN3ros8TimeBaseINS_4TimeENS_8DurationEEC2Ev = comdat any

$_ZN5boost10shared_ptrIKN8std_msgs8Float64_ISaIvEEEEaSERKS6_ = comdat any

$_ZN5boost8functionIFNS_10shared_ptrIN8std_msgs8Float64_ISaIvEEEEEvEEaSERKS8_ = comdat any

$_ZN5boost10shared_ptrIKN8std_msgs8Float64_ISaIvEEEEC2ERKS6_ = comdat any

$_ZN5boost10shared_ptrIKN8std_msgs8Float64_ISaIvEEEE4swapERS6_ = comdat any

$_ZSt4swapIPKN8std_msgs8Float64_ISaIvEEEEvRT_S7_ = comdat any

$_ZN5boost9function0INS_10shared_ptrIN8std_msgs8Float64_ISaIvEEEEEE4swapERS7_ = comdat any

$_ZN5boost9function0INS_10shared_ptrIN8std_msgs8Float64_ISaIvEEEEEEC2Ev = comdat any

$_ZN5boost9function0INS_10shared_ptrIN8std_msgs8Float64_ISaIvEEEEEE11move_assignERS7_ = comdat any

$_ZN5boost9function0INS_10shared_ptrIN8std_msgs8Float64_ISaIvEEEEEED2Ev = comdat any

$_ZN5boost9function0INS_10shared_ptrIN8std_msgs8Float64_ISaIvEEEEEE5clearEv = comdat any

$_ZN5boost6detail8function13basic_vtable0INS_10shared_ptrIN8std_msgs8Float64_ISaIvEEEEEE5clearERNS1_15function_bufferE = comdat any

$_ZN5boost10shared_ptrIN8std_msgs8Float64_ISaIvEEEEC2IKS4_EERKNS0_IT_EENS_6detail14const_cast_tagE = comdat any

$_ZN5boost10shared_ptrIKN8std_msgs8Float64_ISaIvEEEEC2IKvEERKNS0_IT_EENS_6detail15static_cast_tagE = comdat any

$_ZNK3ros12MessageEventIKvE22copyMessageIfNecessaryIS1_EEN5boost9enable_ifINS4_7is_voidIT_EENS4_10shared_ptrIS1_EEE4typeEv = comdat any

$_ZN5boost18const_pointer_castIvKvEENS_10shared_ptrIT_EERKNS2_IT0_EE = comdat any

$_ZN5boost10shared_ptrIKvEC2IvEERKNS0_IT_EENS_6detail24sp_enable_if_convertibleIS4_S1_E4typeE = comdat any

$_ZN5boost10shared_ptrIvED2Ev = comdat any

$_ZN5boost10shared_ptrIvEC2IKvEERKNS0_IT_EENS_6detail14const_cast_tagE = comdat any

$_ZN3ros8TimeBaseINS_4TimeENS_8DurationEED2Ev = comdat any

$_ZNK3ros12MessageEventIKN8std_msgs8Float64_ISaIvEEEE10getMessageEv = comdat any

$_ZNK3ros12MessageEventIKN8std_msgs8Float64_ISaIvEEEE22copyMessageIfNecessaryIS5_EEN5boost10disable_ifINS8_7is_voidIT_EENS8_10shared_ptrIS5_EEE4typeEv = comdat any

$_ZN5boost6detail12shared_countC2IN3ros27SubscriptionCallbackHelperTIRKNS_10shared_ptrIKN8std_msgs8Float64_ISaIvEEEEEvEEEEPT_ = comdat any

$_ZN5boost6detail26sp_enable_shared_from_thisEz = comdat any

$_ZN5boost6detail17sp_counted_impl_pIN3ros27SubscriptionCallbackHelperTIRKNS_10shared_ptrIKN8std_msgs8Float64_ISaIvEEEEEvEEEC2EPSD_ = comdat any

$_ZN5boost14checked_deleteIN3ros27SubscriptionCallbackHelperTIRKNS_10shared_ptrIKN8std_msgs8Float64_ISaIvEEEEEvEEEEvPT_ = comdat any

$_ZN5boost6detail15sp_counted_baseC2Ev = comdat any

$_ZN5boost6detail17sp_counted_impl_pIN3ros27SubscriptionCallbackHelperTIRKNS_10shared_ptrIKN8std_msgs8Float64_ISaIvEEEEEvEEED2Ev = comdat any

$_ZN5boost6detail17sp_counted_impl_pIN3ros27SubscriptionCallbackHelperTIRKNS_10shared_ptrIKN8std_msgs8Float64_ISaIvEEEEEvEEED0Ev = comdat any

$_ZN5boost6detail17sp_counted_impl_pIN3ros27SubscriptionCallbackHelperTIRKNS_10shared_ptrIKN8std_msgs8Float64_ISaIvEEEEEvEEE7disposeEv = comdat any

$_ZN5boost6detail15sp_counted_base7destroyEv = comdat any

$_ZN5boost6detail17sp_counted_impl_pIN3ros27SubscriptionCallbackHelperTIRKNS_10shared_ptrIKN8std_msgs8Float64_ISaIvEEEEEvEEE11get_deleterERKSt9type_info = comdat any

$_ZN5boost6detail15sp_counted_baseD2Ev = comdat any

$_ZN5boost6detail15sp_counted_baseD0Ev = comdat any

$_ZN5boost9function1IvNS_10shared_ptrIKN8std_msgs8Float64_ISaIvEEEEEED2Ev = comdat any

$_ZN5boost9function1IvNS_10shared_ptrIKN8std_msgs8Float64_ISaIvEEEEEE5clearEv = comdat any

$_ZN5boost6detail8function13basic_vtable1IvNS_10shared_ptrIKN8std_msgs8Float64_ISaIvEEEEEE5clearERNS1_15function_bufferE = comdat any

$_ZN5boost4_mfi3mf1Iv4TestRKNS_10shared_ptrIKN8std_msgs8Float64_ISaIvEEEEEEC2EMS2_FvSB_E = comdat any

$_ZN5boost3_bi5valueIP4TestEC2ERKS3_ = comdat any

$_ZN5boost3_bi5list2INS0_5valueIP4TestEENS_3argILi1EEEEC2ES5_S7_ = comdat any

$_ZN5boost3_bi6bind_tIvNS_4_mfi3mf1Iv4TestRKNS_10shared_ptrIKN8std_msgs8Float64_ISaIvEEEEEEENS0_5list2INS0_5valueIPS4_EENS_3argILi1EEEEEEC2ESE_RKSL_ = comdat any

$_ZN5boost3_bi8storage2INS0_5valueIP4TestEENS_3argILi1EEEEC2ES5_S7_ = comdat any

$_ZN5boost3_bi8storage1INS0_5valueIP4TestEEEC2ES5_ = comdat any

$_ZN5boost9function1IvRKNS_10shared_ptrIKN8std_msgs8Float64_ISaIvEEEEEEC2INS_3_bi6bind_tIvNS_4_mfi3mf1Iv4TestS9_EENSC_5list2INSC_5valueIPSG_EENS_3argILi1EEEEEEEEET_NS_11enable_if_cIXsr5boost11type_traits7ice_notIXsr11is_integralISQ_EE5valueEEE5valueEiE4typeE = comdat any

$_ZN5boost9function1IvRKNS_10shared_ptrIKN8std_msgs8Float64_ISaIvEEEEEE9assign_toINS_3_bi6bind_tIvNS_4_mfi3mf1Iv4TestS9_EENSC_5list2INSC_5valueIPSG_EENS_3argILi1EEEEEEEEEvT_ = comdat any

$_ZN5boost6detail8function15functor_managerINS_3_bi6bind_tIvNS_4_mfi3mf1Iv4TestRKNS_10shared_ptrIKN8std_msgs8Float64_ISaIvEEEEEEENS3_5list2INS3_5valueIPS7_EENS_3argILi1EEEEEEEE6manageERKNS1_15function_bufferERSR_NS1_30functor_manager_operation_typeE = comdat any

$_ZN5boost6detail8function26void_function_obj_invoker1INS_3_bi6bind_tIvNS_4_mfi3mf1Iv4TestRKNS_10shared_ptrIKN8std_msgs8Float64_ISaIvEEEEEEENS3_5list2INS3_5valueIPS7_EENS_3argILi1EEEEEEEvSG_E6invokeERNS1_15function_bufferESG_ = comdat any

$_ZN5boost6detail8function13basic_vtable1IvRKNS_10shared_ptrIKN8std_msgs8Float64_ISaIvEEEEEE9assign_toINS_3_bi6bind_tIvNS_4_mfi3mf1Iv4TestSB_EENSE_5list2INSE_5valueIPSI_EENS_3argILi1EEEEEEEEEbT_RNS1_15function_bufferE = comdat any

$_ZN5boost6detail8function15functor_managerINS_3_bi6bind_tIvNS_4_mfi3mf1Iv4TestRKNS_10shared_ptrIKN8std_msgs8Float64_ISaIvEEEEEEENS3_5list2INS3_5valueIPS7_EENS_3argILi1EEEEEEEE7managerERKNS1_15function_bufferERSR_NS1_30functor_manager_operation_typeENS1_16function_obj_tagE = comdat any

$_ZN5boost6detail8function15functor_managerINS_3_bi6bind_tIvNS_4_mfi3mf1Iv4TestRKNS_10shared_ptrIKN8std_msgs8Float64_ISaIvEEEEEEENS3_5list2INS3_5valueIPS7_EENS_3argILi1EEEEEEEE7managerERKNS1_15function_bufferERSR_NS1_30functor_manager_operation_typeEN4mpl_5bool_ILb1EEE = comdat any

$_ZN5boost6detail8function22functor_manager_commonINS_3_bi6bind_tIvNS_4_mfi3mf1Iv4TestRKNS_10shared_ptrIKN8std_msgs8Float64_ISaIvEEEEEEENS3_5list2INS3_5valueIPS7_EENS_3argILi1EEEEEEEE12manage_smallERKNS1_15function_bufferERSR_NS1_30functor_manager_operation_typeE = comdat any

$_ZN5boost3_bi6bind_tIvNS_4_mfi3mf1Iv4TestRKNS_10shared_ptrIKN8std_msgs8Float64_ISaIvEEEEEEENS0_5list2INS0_5valueIPS4_EENS_3argILi1EEEEEEclISB_EEvRKT_ = comdat any

$_ZN5boost3_bi5list1IRKNS_10shared_ptrIKN8std_msgs8Float64_ISaIvEEEEEEC2ESA_ = comdat any

$_ZN5boost3_bi5list2INS0_5valueIP4TestEENS_3argILi1EEEEclINS_4_mfi3mf1IvS3_RKNS_10shared_ptrIKN8std_msgs8Float64_ISaIvEEEEEEENS0_5list1ISK_EEEEvNS0_4typeIvEERT_RT0_i = comdat any

$_ZN5boost3_bi8storage1IRKNS_10shared_ptrIKN8std_msgs8Float64_ISaIvEEEEEEC2ESA_ = comdat any

$_ZN5boost3_bi9unwrapperINS_4_mfi3mf1Iv4TestRKNS_10shared_ptrIKN8std_msgs8Float64_ISaIvEEEEEEEE6unwrapERSE_l = comdat any

$_ZNK5boost4_mfi3mf1Iv4TestRKNS_10shared_ptrIKN8std_msgs8Float64_ISaIvEEEEEEclEPS2_SB_ = comdat any

$_ZNK5boost3_bi5list1IRKNS_10shared_ptrIKN8std_msgs8Float64_ISaIvEEEEEEixIP4TestEERT_RNS0_5valueISF_EE = comdat any

$_ZNK5boost3_bi5list1IRKNS_10shared_ptrIKN8std_msgs8Float64_ISaIvEEEEEEixEPFNS_3argILi1EEEvE = comdat any

$_ZN5boost3_bi8storage2INS0_5valueIP4TestEENS_3argILi1EEEE3a2_Ev = comdat any

$_ZN5boost3_bi5valueIP4TestE3getEv = comdat any

$_ZN5boost6detail8function13basic_vtable1IvRKNS_10shared_ptrIKN8std_msgs8Float64_ISaIvEEEEEE9assign_toINS_3_bi6bind_tIvNS_4_mfi3mf1Iv4TestSB_EENSE_5list2INSE_5valueIPSI_EENS_3argILi1EEEEEEEEEbT_RNS1_15function_bufferENS1_16function_obj_tagE = comdat any

$_ZN5boost6detail8function16has_empty_targetEz = comdat any

$_ZN5boost9addressofINS_3_bi6bind_tIvNS_4_mfi3mf1Iv4TestRKNS_10shared_ptrIKN8std_msgs8Float64_ISaIvEEEEEEENS1_5list2INS1_5valueIPS5_EENS_3argILi1EEEEEEEEEPT_RSO_ = comdat any

$_ZN5boost6detail8function13basic_vtable1IvRKNS_10shared_ptrIKN8std_msgs8Float64_ISaIvEEEEEE14assign_functorINS_3_bi6bind_tIvNS_4_mfi3mf1Iv4TestSB_EENSE_5list2INSE_5valueIPSI_EENS_3argILi1EEEEEEEEEvT_RNS1_15function_bufferEN4mpl_5bool_ILb1EEE = comdat any

$_ZN5boost6detail14addressof_implINS_3_bi6bind_tIvNS_4_mfi3mf1Iv4TestRKNS_10shared_ptrIKN8std_msgs8Float64_ISaIvEEEEEEENS2_5list2INS2_5valueIPS6_EENS_3argILi1EEEEEEEE1fERSO_l = comdat any

$_ZN5boost6detail13addr_impl_refINS_3_bi6bind_tIvNS_4_mfi3mf1Iv4TestRKNS_10shared_ptrIKN8std_msgs8Float64_ISaIvEEEEEEENS2_5list2INS2_5valueIPS6_EENS_3argILi1EEEEEEEEC2ERSO_ = comdat any

$_ZNK5boost6detail13addr_impl_refINS_3_bi6bind_tIvNS_4_mfi3mf1Iv4TestRKNS_10shared_ptrIKN8std_msgs8Float64_ISaIvEEEEEEENS2_5list2INS2_5valueIPS6_EENS_3argILi1EEEEEEEEcvRSO_Ev = comdat any

$_ZN5boost9function0INS_10shared_ptrIN8std_msgs8Float64_ISaIvEEEEEEC2IN3ros21DefaultMessageCreatorIS5_EEEET_NS_11enable_if_cIXsr5boost11type_traits7ice_notIXsr11is_integralISC_EE5valueEEE5valueEiE4typeE = comdat any

$_ZN5boost9function0INS_10shared_ptrIN8std_msgs8Float64_ISaIvEEEEEE9assign_toIN3ros21DefaultMessageCreatorIS5_EEEEvT_ = comdat any

$_ZN5boost6detail8function15functor_managerIN3ros21DefaultMessageCreatorIN8std_msgs8Float64_ISaIvEEEEEE6manageERKNS1_15function_bufferERSB_NS1_30functor_manager_operation_typeE = comdat any

$_ZN5boost6detail8function21function_obj_invoker0IN3ros21DefaultMessageCreatorIN8std_msgs8Float64_ISaIvEEEEENS_10shared_ptrIS8_EEE6invokeERNS1_15function_bufferE = comdat any

$_ZN5boost6detail8function13basic_vtable0INS_10shared_ptrIN8std_msgs8Float64_ISaIvEEEEEE9assign_toIN3ros21DefaultMessageCreatorIS7_EEEEbT_RNS1_15function_bufferE = comdat any

$_ZN5boost6detail8function15functor_managerIN3ros21DefaultMessageCreatorIN8std_msgs8Float64_ISaIvEEEEEE7managerERKNS1_15function_bufferERSB_NS1_30functor_manager_operation_typeENS1_16function_obj_tagE = comdat any

$_ZN5boost6detail8function15functor_managerIN3ros21DefaultMessageCreatorIN8std_msgs8Float64_ISaIvEEEEEE7managerERKNS1_15function_bufferERSB_NS1_30functor_manager_operation_typeEN4mpl_5bool_ILb1EEE = comdat any

$_ZN5boost6detail8function22functor_manager_commonIN3ros21DefaultMessageCreatorIN8std_msgs8Float64_ISaIvEEEEEE12manage_smallERKNS1_15function_bufferERSB_NS1_30functor_manager_operation_typeE = comdat any

$_ZN3ros21DefaultMessageCreatorIN8std_msgs8Float64_ISaIvEEEEclEv = comdat any

$_ZN5boost11make_sharedIN8std_msgs8Float64_ISaIvEEEEENS_10shared_ptrIT_EEv = comdat any

$_ZN5boost6detail13sp_ms_deleterIN8std_msgs8Float64_ISaIvEEEEC2Ev = comdat any

$_ZN5boost10shared_ptrIN8std_msgs8Float64_ISaIvEEEEC2IS4_NS_6detail13sp_ms_deleterIS4_EEEEPT_T0_ = comdat any

$_ZN5boost6detail13sp_ms_deleterIN8std_msgs8Float64_ISaIvEEEED2Ev = comdat any

$_ZN5boost11get_deleterINS_6detail13sp_ms_deleterIN8std_msgs8Float64_ISaIvEEEEES6_EEPT_RKNS_10shared_ptrIT0_EE = comdat any

$_ZN5boost6detail13sp_ms_deleterIN8std_msgs8Float64_ISaIvEEEE7addressEv = comdat any

$_ZN8std_msgs8Float64_ISaIvEEC2Ev = comdat any

$_ZN5boost6detail13sp_ms_deleterIN8std_msgs8Float64_ISaIvEEEE15set_initializedEv = comdat any

$_ZN5boost10shared_ptrIN8std_msgs8Float64_ISaIvEEEEC2IS4_EERKNS0_IT_EEPS4_ = comdat any

$_ZN5boost6detail13sp_ms_deleterIN8std_msgs8Float64_ISaIvEEEEC2ERKS6_ = comdat any

$_ZN5boost6detail12shared_countC2IPN8std_msgs8Float64_ISaIvEEENS0_13sp_ms_deleterIS6_EEEET_T0_ = comdat any

$_ZN5boost6detail18sp_counted_impl_pdIPN8std_msgs8Float64_ISaIvEEENS0_13sp_ms_deleterIS5_EEEC2ES6_S8_ = comdat any

$_ZN5boost6detail13sp_ms_deleterIN8std_msgs8Float64_ISaIvEEEEclEPS5_ = comdat any

$_ZN5boost6detail18sp_counted_impl_pdIPN8std_msgs8Float64_ISaIvEEENS0_13sp_ms_deleterIS5_EEED2Ev = comdat any

$_ZN5boost6detail18sp_counted_impl_pdIPN8std_msgs8Float64_ISaIvEEENS0_13sp_ms_deleterIS5_EEED0Ev = comdat any

$_ZN5boost6detail18sp_counted_impl_pdIPN8std_msgs8Float64_ISaIvEEENS0_13sp_ms_deleterIS5_EEE7disposeEv = comdat any

$_ZN5boost6detail18sp_counted_impl_pdIPN8std_msgs8Float64_ISaIvEEENS0_13sp_ms_deleterIS5_EEE11get_deleterERKSt9type_info = comdat any

$_ZNKSt9type_infoeqERKS_ = comdat any

$_ZN5boost6detail13sp_ms_deleterIN8std_msgs8Float64_ISaIvEEEE7destroyEv = comdat any

$_ZN8std_msgs8Float64_ISaIvEED2Ev = comdat any

$_ZNK5boost10shared_ptrIN8std_msgs8Float64_ISaIvEEEE21_internal_get_deleterERKSt9type_info = comdat any

$_ZNK5boost6detail12shared_count11get_deleterERKSt9type_info = comdat any

$_ZN5boost6detail8function13basic_vtable0INS_10shared_ptrIN8std_msgs8Float64_ISaIvEEEEEE9assign_toIN3ros21DefaultMessageCreatorIS7_EEEEbT_RNS1_15function_bufferENS1_16function_obj_tagE = comdat any

$_ZN5boost9addressofIN3ros21DefaultMessageCreatorIN8std_msgs8Float64_ISaIvEEEEEEEPT_RS8_ = comdat any

$_ZN5boost6detail8function13basic_vtable0INS_10shared_ptrIN8std_msgs8Float64_ISaIvEEEEEE14assign_functorIN3ros21DefaultMessageCreatorIS7_EEEEvT_RNS1_15function_bufferEN4mpl_5bool_ILb1EEE = comdat any

$_ZN5boost6detail14addressof_implIN3ros21DefaultMessageCreatorIN8std_msgs8Float64_ISaIvEEEEEE1fERS8_l = comdat any

$_ZN5boost6detail13addr_impl_refIN3ros21DefaultMessageCreatorIN8std_msgs8Float64_ISaIvEEEEEEC2ERS8_ = comdat any

$_ZNK5boost6detail13addr_impl_refIN3ros21DefaultMessageCreatorIN8std_msgs8Float64_ISaIvEEEEEEcvRS8_Ev = comdat any

$_ZN5boost9function1IvRKNS_10shared_ptrIKN8std_msgs8Float64_ISaIvEEEEEED2Ev = comdat any

$_ZN5boost9function1IvRKNS_10shared_ptrIKN8std_msgs8Float64_ISaIvEEEEEE5clearEv = comdat any

$_ZN5boost6detail8function13basic_vtable1IvRKNS_10shared_ptrIKN8std_msgs8Float64_ISaIvEEEEEE5clearERNS1_15function_bufferE = comdat any

$_ZNSt6vectorISsSaISsEEaSERKS1_ = comdat any

$_ZNSt3mapISsSsSt4lessISsESaISt4pairIKSsSsEEEaSERKS6_ = comdat any

$_ZNKSt6vectorISsSaISsEE4sizeEv = comdat any

$_ZNKSt6vectorISsSaISsEE8capacityEv = comdat any

$_ZNSt6vectorISsSaISsEE20_M_allocate_and_copyIN9__gnu_cxx17__normal_iteratorIPKSsS1_EEEEPSsmT_S9_ = comdat any

$_ZNKSt6vectorISsSaISsEE5beginEv = comdat any

$_ZNKSt6vectorISsSaISsEE3endEv = comdat any

$_ZSt8_DestroyIN9__gnu_cxx17__normal_iteratorIPSsSt6vectorISsSaISsEEEESsEvT_S7_RSaIT0_E = comdat any

$_ZSt4copyIN9__gnu_cxx17__normal_iteratorIPKSsSt6vectorISsSaISsEEEENS1_IPSsS6_EEET0_T_SB_SA_ = comdat any

$_ZNSt6vectorISsSaISsEE5beginEv = comdat any

$_ZNSt6vectorISsSaISsEE3endEv = comdat any

$_ZSt4copyIPSsS0_ET0_T_S2_S1_ = comdat any

$_ZSt22__uninitialized_copy_aIPSsS0_SsET0_T_S2_S1_RSaIT1_E = comdat any

$_ZNSt12_Vector_baseISsSaISsEE11_M_allocateEm = comdat any

$_ZSt22__uninitialized_copy_aIN9__gnu_cxx17__normal_iteratorIPKSsSt6vectorISsSaISsEEEEPSsSsET0_T_SA_S9_RSaIT1_E = comdat any

$_ZN9__gnu_cxx13new_allocatorISsE8allocateEmPKv = comdat any

$_ZNK9__gnu_cxx13new_allocatorISsE8max_sizeEv = comdat any

$_ZSt18uninitialized_copyIN9__gnu_cxx17__normal_iteratorIPKSsSt6vectorISsSaISsEEEEPSsET0_T_SA_S9_ = comdat any

$_ZNSt20__uninitialized_copyILb0EE13__uninit_copyIN9__gnu_cxx17__normal_iteratorIPKSsSt6vectorISsSaISsEEEEPSsEET0_T_SC_SB_ = comdat any

$_ZN9__gnu_cxxneIPKSsSt6vectorISsSaISsEEEEbRKNS_17__normal_iteratorIT_T0_EESB_ = comdat any

$_ZSt10_ConstructISsSsEvPT_RKT0_ = comdat any

$_ZNK9__gnu_cxx17__normal_iteratorIPKSsSt6vectorISsSaISsEEEdeEv = comdat any

$_ZN9__gnu_cxx17__normal_iteratorIPKSsSt6vectorISsSaISsEEEppEv = comdat any

$_ZNK9__gnu_cxx17__normal_iteratorIPKSsSt6vectorISsSaISsEEE4baseEv = comdat any

$_ZN9__gnu_cxx17__normal_iteratorIPKSsSt6vectorISsSaISsEEEC2ERKS2_ = comdat any

$_ZSt8_DestroyIN9__gnu_cxx17__normal_iteratorIPSsSt6vectorISsSaISsEEEEEvT_S7_ = comdat any

$_ZNSt12_Destroy_auxILb0EE9__destroyIN9__gnu_cxx17__normal_iteratorIPSsSt6vectorISsSaISsEEEEEEvT_S9_ = comdat any

$_ZN9__gnu_cxxneIPSsSt6vectorISsSaISsEEEEbRKNS_17__normal_iteratorIT_T0_EESA_ = comdat any

$_ZNK9__gnu_cxx17__normal_iteratorIPSsSt6vectorISsSaISsEEEdeEv = comdat any

$_ZN9__gnu_cxx17__normal_iteratorIPSsSt6vectorISsSaISsEEEppEv = comdat any

$_ZNK9__gnu_cxx17__normal_iteratorIPSsSt6vectorISsSaISsEEE4baseEv = comdat any

$_ZSt14__copy_move_a2ILb0EN9__gnu_cxx17__normal_iteratorIPKSsSt6vectorISsSaISsEEEENS1_IPSsS6_EEET1_T0_SB_SA_ = comdat any

$_ZSt12__miter_baseIN9__gnu_cxx17__normal_iteratorIPKSsSt6vectorISsSaISsEEEEENSt11_Miter_baseIT_E13iterator_typeES9_ = comdat any

$_ZSt13__copy_move_aILb0EPKSsPSsET1_T0_S4_S3_ = comdat any

$_ZSt12__niter_baseIN9__gnu_cxx17__normal_iteratorIPKSsSt6vectorISsSaISsEEEEENSt11_Niter_baseIT_E13iterator_typeES9_ = comdat any

$_ZSt12__niter_baseIN9__gnu_cxx17__normal_iteratorIPSsSt6vectorISsSaISsEEEEENSt11_Niter_baseIT_E13iterator_typeES8_ = comdat any

$_ZN9__gnu_cxx17__normal_iteratorIPSsSt6vectorISsSaISsEEEC2ERKS1_ = comdat any

$_ZNSt11__copy_moveILb0ELb0ESt26random_access_iterator_tagE8__copy_mIPKSsPSsEET0_T_S7_S6_ = comdat any

$_ZNSt10_Iter_baseIN9__gnu_cxx17__normal_iteratorIPKSsSt6vectorISsSaISsEEEELb1EE7_S_baseES7_ = comdat any

$_ZNSt10_Iter_baseIN9__gnu_cxx17__normal_iteratorIPSsSt6vectorISsSaISsEEEELb1EE7_S_baseES6_ = comdat any

$_ZNSt10_Iter_baseIN9__gnu_cxx17__normal_iteratorIPKSsSt6vectorISsSaISsEEEELb0EE7_S_baseES7_ = comdat any

$_ZSt14__copy_move_a2ILb0EPSsS0_ET1_T0_S2_S1_ = comdat any

$_ZSt12__miter_baseIPSsENSt11_Miter_baseIT_E13iterator_typeES2_ = comdat any

$_ZSt13__copy_move_aILb0EPSsS0_ET1_T0_S2_S1_ = comdat any

$_ZSt12__niter_baseIPSsENSt11_Niter_baseIT_E13iterator_typeES2_ = comdat any

$_ZNSt11__copy_moveILb0ELb0ESt26random_access_iterator_tagE8__copy_mIPSsS3_EET0_T_S5_S4_ = comdat any

$_ZNSt10_Iter_baseIPSsLb0EE7_S_baseES0_ = comdat any

$_ZSt18uninitialized_copyIPSsS0_ET0_T_S2_S1_ = comdat any

$_ZNSt20__uninitialized_copyILb0EE13__uninit_copyIPSsS2_EET0_T_S4_S3_ = comdat any

$_ZNSt8_Rb_treeISsSt4pairIKSsSsESt10_Select1stIS2_ESt4lessISsESaIS2_EEaSERKS8_ = comdat any

$_ZNSt8_Rb_treeISsSt4pairIKSsSsESt10_Select1stIS2_ESt4lessISsESaIS2_EE5clearEv = comdat any

$_ZNKSt8_Rb_treeISsSt4pairIKSsSsESt10_Select1stIS2_ESt4lessISsESaIS2_EE7_M_rootEv = comdat any

$_ZNSt8_Rb_treeISsSt4pairIKSsSsESt10_Select1stIS2_ESt4lessISsESaIS2_EE7_M_copyEPKSt13_Rb_tree_nodeIS2_EPSA_ = comdat any

$_ZNKSt8_Rb_treeISsSt4pairIKSsSsESt10_Select1stIS2_ESt4lessISsESaIS2_EE8_M_beginEv = comdat any

$_ZNSt8_Rb_treeISsSt4pairIKSsSsESt10_Select1stIS2_ESt4lessISsESaIS2_EE6_M_endEv = comdat any

$_ZNSt8_Rb_treeISsSt4pairIKSsSsESt10_Select1stIS2_ESt4lessISsESaIS2_EE7_M_rootEv = comdat any

$_ZNSt8_Rb_treeISsSt4pairIKSsSsESt10_Select1stIS2_ESt4lessISsESaIS2_EE10_S_minimumEPSt18_Rb_tree_node_base = comdat any

$_ZNSt8_Rb_treeISsSt4pairIKSsSsESt10_Select1stIS2_ESt4lessISsESaIS2_EE11_M_leftmostEv = comdat any

$_ZNSt8_Rb_treeISsSt4pairIKSsSsESt10_Select1stIS2_ESt4lessISsESaIS2_EE10_S_maximumEPSt18_Rb_tree_node_base = comdat any

$_ZNSt8_Rb_treeISsSt4pairIKSsSsESt10_Select1stIS2_ESt4lessISsESaIS2_EE12_M_rightmostEv = comdat any

$_ZNSt8_Rb_treeISsSt4pairIKSsSsESt10_Select1stIS2_ESt4lessISsESaIS2_EE13_M_clone_nodeEPKSt13_Rb_tree_nodeIS2_E = comdat any

$_ZNSt8_Rb_treeISsSt4pairIKSsSsESt10_Select1stIS2_ESt4lessISsESaIS2_EE8_S_rightEPKSt18_Rb_tree_node_base = comdat any

$_ZNSt8_Rb_treeISsSt4pairIKSsSsESt10_Select1stIS2_ESt4lessISsESaIS2_EE7_S_leftEPKSt18_Rb_tree_node_base = comdat any

$_ZNSt8_Rb_treeISsSt4pairIKSsSsESt10_Select1stIS2_ESt4lessISsESaIS2_EE14_M_create_nodeERKS2_ = comdat any

$_ZNSt8_Rb_treeISsSt4pairIKSsSsESt10_Select1stIS2_ESt4lessISsESaIS2_EE11_M_get_nodeEv = comdat any

$_ZN9__gnu_cxx13new_allocatorISt4pairIKSsSsEE9constructEPS3_RKS3_ = comdat any

$_ZN9__gnu_cxx13new_allocatorISt13_Rb_tree_nodeISt4pairIKSsSsEEE8allocateEmPKv = comdat any

$_ZNK9__gnu_cxx13new_allocatorISt13_Rb_tree_nodeISt4pairIKSsSsEEE8max_sizeEv = comdat any

$_ZNSt4pairIKSsSsEC2ERKS1_ = comdat any

$_ZNSt18_Rb_tree_node_base10_S_minimumEPS_ = comdat any

$_ZNSt18_Rb_tree_node_base10_S_maximumEPS_ = comdat any

$_ZNK5boost10shared_ptrIKN8std_msgs8Float64_ISaIvEEEE3getEv = comdat any

$_ZNK5boost10shared_ptrIN3ros9Publisher4ImplEEntEv = comdat any

$_ZNK5boost10shared_ptrIN3ros9Publisher4ImplEEptEv = comdat any

$_ZSteqIcSt11char_traitsIcESaIcEEbRKSbIT_T0_T1_EPKS3_ = comdat any

$_ZN3ros14message_traits6md5sumIN8std_msgs7String_ISaIvEEEEEPKcRKT_ = comdat any

$_ZN3ros14message_traits8datatypeIN8std_msgs7String_ISaIvEEEEEPKcRKT_ = comdat any

$_ZN3ros17SerializedMessageC2Ev = comdat any

$_ZN5boost4bindIN3ros17SerializedMessageERKN8std_msgs7String_ISaIvEEENS_17reference_wrapperIS7_EEEENS_3_bi6bind_tIT_PFSD_T0_ENSB_9list_av_1IT1_E4typeEEESG_SI_ = comdat any

$_ZN3ros13serialization16serializeMessageIN8std_msgs7String_ISaIvEEEEENS_17SerializedMessageERKT_ = comdat any

$_ZN5boost3refIKN8std_msgs7String_ISaIvEEEEEKNS_17reference_wrapperIT_EERS7_ = comdat any

$_ZN5boost8functionIFN3ros17SerializedMessageEvEEC2INS_3_bi6bind_tIS2_PFS2_RKN8std_msgs7String_ISaIvEEEENS6_5list1INS_17reference_wrapperISC_EEEEEEEET_NS_11enable_if_cIXsr5boost11type_traits7ice_notIXsr11is_integralISL_EE5valueEEE5valueEiE4typeE = comdat any

$_ZN5boost8functionIFN3ros17SerializedMessageEvEED2Ev = comdat any

$_ZN3ros17SerializedMessageD2Ev = comdat any

$_ZN3ros14message_traits6MD5SumIN8std_msgs7String_ISaIvEEEE5valueERKS5_ = comdat any

$_ZN3ros14message_traits8DataTypeIN8std_msgs7String_ISaIvEEEE5valueERKS5_ = comdat any

$_ZN5boost12shared_arrayIhEC2EPh = comdat any

$_ZN5boost12shared_arrayIhED2Ev = comdat any

$_ZN5boost6detail12shared_countC2IPhNS_21checked_array_deleterIhEEEET_T0_ = comdat any

$_ZN5boost6detail18sp_counted_impl_pdIPhNS_21checked_array_deleterIhEEEC2ES2_S4_ = comdat any

$_ZNK5boost21checked_array_deleterIhEclEPh = comdat any

$_ZN5boost6detail18sp_counted_impl_pdIPhNS_21checked_array_deleterIhEEED2Ev = comdat any

$_ZN5boost6detail18sp_counted_impl_pdIPhNS_21checked_array_deleterIhEEED0Ev = comdat any

$_ZN5boost6detail18sp_counted_impl_pdIPhNS_21checked_array_deleterIhEEE7disposeEv = comdat any

$_ZN5boost6detail18sp_counted_impl_pdIPhNS_21checked_array_deleterIhEEE11get_deleterERKSt9type_info = comdat any

$_ZN5boost20checked_array_deleteIhEEvPT_ = comdat any

$_ZN5boost3_bi5list1INS_17reference_wrapperIKN8std_msgs7String_ISaIvEEEEEEC2ES8_ = comdat any

$_ZN5boost3_bi6bind_tIN3ros17SerializedMessageEPFS3_RKN8std_msgs7String_ISaIvEEEENS0_5list1INS_17reference_wrapperIS8_EEEEEC2ESB_RKSF_ = comdat any

$_ZN5boost3_bi8storage1INS_17reference_wrapperIKN8std_msgs7String_ISaIvEEEEEEC2ES8_ = comdat any

$_ZN3ros13serialization19serializationLengthIN8std_msgs7String_ISaIvEEEEEjRKT_ = comdat any

$_ZN5boost12shared_arrayIhE5resetEPh = comdat any

$_ZNK5boost12shared_arrayIhE3getEv = comdat any

$_ZN3ros13serialization7OStreamC2EPhj = comdat any

$_ZN3ros13serialization9serializeIjNS0_7OStreamEEEvRT0_RKT_ = comdat any

$_ZN3ros13serialization6Stream7getDataEv = comdat any

$_ZN3ros13serialization9serializeIN8std_msgs7String_ISaIvEEENS0_7OStreamEEEvRT0_RKT_ = comdat any

$_ZN3ros13serialization10SerializerIN8std_msgs7String_ISaIvEEEE16serializedLengthIS5_EEjRKT_ = comdat any

$_ZN3ros13serialization7LStreamC2Ev = comdat any

$_ZN3ros13serialization10SerializerIN8std_msgs7String_ISaIvEEEE8allInOneINS0_7LStreamERKS5_EEvRT_T0_ = comdat any

$_ZN3ros13serialization7LStream9getLengthEv = comdat any

$_ZN3ros13serialization7LStream4nextISsEEvRKT_ = comdat any

$_ZN3ros13serialization19serializationLengthISsEEjRKT_ = comdat any

$_ZN3ros13serialization10SerializerISsE16serializedLengthERKSs = comdat any

$_ZN5boost12shared_arrayIhE4swapERS1_ = comdat any

$_ZSt4swapIPhEvRT_S2_ = comdat any

$_ZN3ros13serialization10SerializerIjE5writeINS0_7OStreamEEEvRT_j = comdat any

$_ZN3ros13serialization10SerializerIN8std_msgs7String_ISaIvEEEE5writeINS0_7OStreamES5_EEvRT_RKT0_ = comdat any

$_ZN3ros13serialization10SerializerIN8std_msgs7String_ISaIvEEEE8allInOneINS0_7OStreamERKS5_EEvRT_T0_ = comdat any

$_ZN3ros13serialization7OStream4nextISsEEvRKT_ = comdat any

$_ZN3ros13serialization9serializeISsNS0_7OStreamEEEvRT0_RKT_ = comdat any

$_ZN3ros13serialization10SerializerISsE5writeINS0_7OStreamEEEvRT_RKSs = comdat any

$_ZN3ros13serialization7OStream4nextIjEEvRKT_ = comdat any

$_ZN5boost17reference_wrapperIKN8std_msgs7String_ISaIvEEEEC2ERS5_ = comdat any

$_ZN5boost9addressofIKN8std_msgs7String_ISaIvEEEEEPT_RS6_ = comdat any

$_ZN5boost6detail14addressof_implIKN8std_msgs7String_ISaIvEEEE1fERS6_l = comdat any

$_ZN5boost6detail13addr_impl_refIKN8std_msgs7String_ISaIvEEEEC2ERS6_ = comdat any

$_ZNK5boost6detail13addr_impl_refIKN8std_msgs7String_ISaIvEEEEcvRS6_Ev = comdat any

$_ZN5boost9function0IN3ros17SerializedMessageEEC2INS_3_bi6bind_tIS2_PFS2_RKN8std_msgs7String_ISaIvEEEENS5_5list1INS_17reference_wrapperISB_EEEEEEEET_NS_11enable_if_cIXsr5boost11type_traits7ice_notIXsr11is_integralISK_EE5valueEEE5valueEiE4typeE = comdat any

$_ZN5boost9function0IN3ros17SerializedMessageEE9assign_toINS_3_bi6bind_tIS2_PFS2_RKN8std_msgs7String_ISaIvEEEENS5_5list1INS_17reference_wrapperISB_EEEEEEEEvT_ = comdat any

$_ZN5boost6detail8function15functor_managerINS_3_bi6bind_tIN3ros17SerializedMessageEPFS6_RKN8std_msgs7String_ISaIvEEEENS3_5list1INS_17reference_wrapperISB_EEEEEEE6manageERKNS1_15function_bufferERSL_NS1_30functor_manager_operation_typeE = comdat any

$_ZN5boost6detail8function21function_obj_invoker0INS_3_bi6bind_tIN3ros17SerializedMessageEPFS6_RKN8std_msgs7String_ISaIvEEEENS3_5list1INS_17reference_wrapperISB_EEEEEES6_E6invokeERNS1_15function_bufferE = comdat any

$_ZN5boost6detail8function13basic_vtable0IN3ros17SerializedMessageEE9assign_toINS_3_bi6bind_tIS4_PFS4_RKN8std_msgs7String_ISaIvEEEENS7_5list1INS_17reference_wrapperISD_EEEEEEEEbT_RNS1_15function_bufferE = comdat any

$_ZN5boost6detail8function15functor_managerINS_3_bi6bind_tIN3ros17SerializedMessageEPFS6_RKN8std_msgs7String_ISaIvEEEENS3_5list1INS_17reference_wrapperISB_EEEEEEE7managerERKNS1_15function_bufferERSL_NS1_30functor_manager_operation_typeENS1_16function_obj_tagE = comdat any

$_ZN5boost6detail8function15functor_managerINS_3_bi6bind_tIN3ros17SerializedMessageEPFS6_RKN8std_msgs7String_ISaIvEEEENS3_5list1INS_17reference_wrapperISB_EEEEEEE7managerERKNS1_15function_bufferERSL_NS1_30functor_manager_operation_typeEN4mpl_5bool_ILb1EEE = comdat any

$_ZN5boost6detail8function22functor_manager_commonINS_3_bi6bind_tIN3ros17SerializedMessageEPFS6_RKN8std_msgs7String_ISaIvEEEENS3_5list1INS_17reference_wrapperISB_EEEEEEE12manage_smallERKNS1_15function_bufferERSL_NS1_30functor_manager_operation_typeE = comdat any

$_ZN5boost3_bi6bind_tIN3ros17SerializedMessageEPFS3_RKN8std_msgs7String_ISaIvEEEENS0_5list1INS_17reference_wrapperIS8_EEEEEclEv = comdat any

$_ZN5boost3_bi5list0C2Ev = comdat any

$_ZN5boost3_bi5list1INS_17reference_wrapperIKN8std_msgs7String_ISaIvEEEEEEclIN3ros17SerializedMessageEPFSC_RS7_ENS0_5list0EEET_NS0_4typeISH_EERT0_RT1_l = comdat any

$_ZN5boost3_bi9unwrapperIPFN3ros17SerializedMessageERKN8std_msgs7String_ISaIvEEEEE6unwrapERSB_l = comdat any

$_ZNK5boost3_bi5list0ixIKN8std_msgs7String_ISaIvEEEEERT_RKNS_17reference_wrapperIS8_EE = comdat any

$_ZNK5boost17reference_wrapperIKN8std_msgs7String_ISaIvEEEE3getEv = comdat any

$_ZN5boost6detail8function13basic_vtable0IN3ros17SerializedMessageEE9assign_toINS_3_bi6bind_tIS4_PFS4_RKN8std_msgs7String_ISaIvEEEENS7_5list1INS_17reference_wrapperISD_EEEEEEEEbT_RNS1_15function_bufferENS1_16function_obj_tagE = comdat any

$_ZN5boost9addressofINS_3_bi6bind_tIN3ros17SerializedMessageEPFS4_RKN8std_msgs7String_ISaIvEEEENS1_5list1INS_17reference_wrapperIS9_EEEEEEEEPT_RSI_ = comdat any

$_ZN5boost6detail8function13basic_vtable0IN3ros17SerializedMessageEE14assign_functorINS_3_bi6bind_tIS4_PFS4_RKN8std_msgs7String_ISaIvEEEENS7_5list1INS_17reference_wrapperISD_EEEEEEEEvT_RNS1_15function_bufferEN4mpl_5bool_ILb1EEE = comdat any

$_ZN5boost6detail14addressof_implINS_3_bi6bind_tIN3ros17SerializedMessageEPFS5_RKN8std_msgs7String_ISaIvEEEENS2_5list1INS_17reference_wrapperISA_EEEEEEE1fERSI_l = comdat any

$_ZN5boost6detail13addr_impl_refINS_3_bi6bind_tIN3ros17SerializedMessageEPFS5_RKN8std_msgs7String_ISaIvEEEENS2_5list1INS_17reference_wrapperISA_EEEEEEEC2ERSI_ = comdat any

$_ZNK5boost6detail13addr_impl_refINS_3_bi6bind_tIN3ros17SerializedMessageEPFS5_RKN8std_msgs7String_ISaIvEEEENS2_5list1INS_17reference_wrapperISA_EEEEEEEcvRSI_Ev = comdat any

$_ZN5boost9function0IN3ros17SerializedMessageEED2Ev = comdat any

$_ZN5boost9function0IN3ros17SerializedMessageEE5clearEv = comdat any

$_ZNK5boost9function0IN3ros17SerializedMessageEE10get_vtableEv = comdat any

$_ZN5boost6detail8function13basic_vtable0IN3ros17SerializedMessageEE5clearERNS1_15function_bufferE = comdat any

$_ZZN5boost9function1IvNS_10shared_ptrIKN8std_msgs8Float64_ISaIvEEEEEE9assign_toINS_8functionIFvRKS7_EEEEEvT_E13stored_vtable = comdat any

$_ZTSN5boost8functionIFvRKNS_10shared_ptrIKN8std_msgs8Float64_ISaIvEEEEEEEE = comdat any

$_ZTSN5boost9function1IvRKNS_10shared_ptrIKN8std_msgs8Float64_ISaIvEEEEEEE = comdat any

$_ZTSN5boost13function_baseE = comdat any

$_ZTIN5boost13function_baseE = comdat any

$_ZTSSt14unary_functionIRKN5boost10shared_ptrIKN8std_msgs8Float64_ISaIvEEEEEvE = comdat any

$_ZTISt14unary_functionIRKN5boost10shared_ptrIKN8std_msgs8Float64_ISaIvEEEEEvE = comdat any

$_ZTIN5boost9function1IvRKNS_10shared_ptrIKN8std_msgs8Float64_ISaIvEEEEEEE = comdat any

$_ZTIN5boost8functionIFvRKNS_10shared_ptrIKN8std_msgs8Float64_ISaIvEEEEEEEE = comdat any

$_ZTSN5boost16exception_detail10clone_implINS0_19error_info_injectorINS_17bad_function_callEEEEE = comdat any

$_ZTSN5boost16exception_detail19error_info_injectorINS_17bad_function_callEEE = comdat any

$_ZTSN5boost17bad_function_callE = comdat any

$_ZTIN5boost17bad_function_callE = comdat any

$_ZTSN5boost9exceptionE = comdat any

$_ZTIN5boost9exceptionE = comdat any

$_ZTIN5boost16exception_detail19error_info_injectorINS_17bad_function_callEEE = comdat any

$_ZTSN5boost16exception_detail10clone_baseE = comdat any

$_ZTIN5boost16exception_detail10clone_baseE = comdat any

$_ZTIN5boost16exception_detail10clone_implINS0_19error_info_injectorINS_17bad_function_callEEEEE = comdat any

$_ZTVN5boost16exception_detail10clone_implINS0_19error_info_injectorINS_17bad_function_callEEEEE = comdat any

$_ZTVN5boost16exception_detail19error_info_injectorINS_17bad_function_callEEE = comdat any

$_ZTVN5boost17bad_function_callE = comdat any

$_ZTVN5boost9exceptionE = comdat any

$_ZTVN5boost16exception_detail10clone_baseE = comdat any

$_ZTVN3ros27SubscriptionCallbackHelperTIRKN5boost10shared_ptrIKN8std_msgs8Float64_ISaIvEEEEEvEE = comdat any

$_ZTSN3ros27SubscriptionCallbackHelperTIRKN5boost10shared_ptrIKN8std_msgs8Float64_ISaIvEEEEEvEE = comdat any

$_ZTSN3ros26SubscriptionCallbackHelperE = comdat any

$_ZTIN3ros26SubscriptionCallbackHelperE = comdat any

$_ZTIN3ros27SubscriptionCallbackHelperTIRKN5boost10shared_ptrIKN8std_msgs8Float64_ISaIvEEEEEvEE = comdat any

$_ZTVN3ros26SubscriptionCallbackHelperE = comdat any

$_ZZN3ros27SubscriptionCallbackHelperTIRKN5boost10shared_ptrIKN8std_msgs8Float64_ISaIvEEEEEvE11deserializeERKNS_43SubscriptionCallbackHelperDeserializeParamsEE3loc = comdat any

$_ZTSN8std_msgs8Float64_ISaIvEEE = comdat any

$_ZTIN8std_msgs8Float64_ISaIvEEE = comdat any

$_ZTVN5boost6detail17sp_counted_impl_pIN3ros27SubscriptionCallbackHelperTIRKNS_10shared_ptrIKN8std_msgs8Float64_ISaIvEEEEEvEEEE = comdat any

$_ZTSN5boost6detail17sp_counted_impl_pIN3ros27SubscriptionCallbackHelperTIRKNS_10shared_ptrIKN8std_msgs8Float64_ISaIvEEEEEvEEEE = comdat any

$_ZTSN5boost6detail15sp_counted_baseE = comdat any

$_ZTIN5boost6detail15sp_counted_baseE = comdat any

$_ZTIN5boost6detail17sp_counted_impl_pIN3ros27SubscriptionCallbackHelperTIRKNS_10shared_ptrIKN8std_msgs8Float64_ISaIvEEEEEvEEEE = comdat any

$_ZTVN5boost6detail15sp_counted_baseE = comdat any

$_ZZN5boost9function1IvRKNS_10shared_ptrIKN8std_msgs8Float64_ISaIvEEEEEE9assign_toINS_3_bi6bind_tIvNS_4_mfi3mf1Iv4TestS9_EENSC_5list2INSC_5valueIPSG_EENS_3argILi1EEEEEEEEEvT_E13stored_vtable = comdat any

$_ZTSN5boost3_bi6bind_tIvNS_4_mfi3mf1Iv4TestRKNS_10shared_ptrIKN8std_msgs8Float64_ISaIvEEEEEEENS0_5list2INS0_5valueIPS4_EENS_3argILi1EEEEEEE = comdat any

$_ZTIN5boost3_bi6bind_tIvNS_4_mfi3mf1Iv4TestRKNS_10shared_ptrIKN8std_msgs8Float64_ISaIvEEEEEEENS0_5list2INS0_5valueIPS4_EENS_3argILi1EEEEEEE = comdat any

$_ZZN5boost9function0INS_10shared_ptrIN8std_msgs8Float64_ISaIvEEEEEE9assign_toIN3ros21DefaultMessageCreatorIS5_EEEEvT_E13stored_vtable = comdat any

$_ZTSN3ros21DefaultMessageCreatorIN8std_msgs8Float64_ISaIvEEEEE = comdat any

$_ZTIN3ros21DefaultMessageCreatorIN8std_msgs8Float64_ISaIvEEEEE = comdat any

$_ZTVN5boost6detail18sp_counted_impl_pdIPN8std_msgs8Float64_ISaIvEEENS0_13sp_ms_deleterIS5_EEEE = comdat any

$_ZTSN5boost6detail18sp_counted_impl_pdIPN8std_msgs8Float64_ISaIvEEENS0_13sp_ms_deleterIS5_EEEE = comdat any

$_ZTIN5boost6detail18sp_counted_impl_pdIPN8std_msgs8Float64_ISaIvEEENS0_13sp_ms_deleterIS5_EEEE = comdat any

$_ZTSN5boost6detail13sp_ms_deleterIN8std_msgs8Float64_ISaIvEEEEE = comdat any

$_ZTIN5boost6detail13sp_ms_deleterIN8std_msgs8Float64_ISaIvEEEEE = comdat any

$_ZZNK3ros9Publisher7publishIN8std_msgs7String_ISaIvEEEEEvRKT_E3loc = comdat any

$_ZZNK3ros9Publisher7publishIN8std_msgs7String_ISaIvEEEEEvRKT_E3loc_0 = comdat any

$_ZZNK3ros9Publisher7publishIN8std_msgs7String_ISaIvEEEEEvRKT_E3loc_1 = comdat any

$_ZZNK3ros9Publisher7publishIN8std_msgs7String_ISaIvEEEEEvRKT_E3loc_2 = comdat any

$_ZZNK3ros9Publisher7publishIN8std_msgs7String_ISaIvEEEEEvRKT_E3loc_3 = comdat any

$_ZZNK3ros9Publisher7publishIN8std_msgs7String_ISaIvEEEEEvRKT_E3loc_4 = comdat any

$_ZZNK3ros9Publisher7publishIN8std_msgs7String_ISaIvEEEEEvRKT_E3loc_5 = comdat any

$_ZZNK3ros9Publisher7publishIN8std_msgs7String_ISaIvEEEEEvRKT_E3loc_6 = comdat any

$_ZZNK3ros9Publisher7publishIN8std_msgs7String_ISaIvEEEEEvRKT_E3loc_7 = comdat any

$_ZTVN5boost6detail18sp_counted_impl_pdIPhNS_21checked_array_deleterIhEEEE = comdat any

$_ZTSN5boost6detail18sp_counted_impl_pdIPhNS_21checked_array_deleterIhEEEE = comdat any

$_ZTIN5boost6detail18sp_counted_impl_pdIPhNS_21checked_array_deleterIhEEEE = comdat any

$_ZTSN5boost21checked_array_deleterIhEE = comdat any

$_ZTIN5boost21checked_array_deleterIhEE = comdat any

$_ZZN5boost9function0IN3ros17SerializedMessageEE9assign_toINS_3_bi6bind_tIS2_PFS2_RKN8std_msgs7String_ISaIvEEEENS5_5list1INS_17reference_wrapperISB_EEEEEEEEvT_E13stored_vtable = comdat any

$_ZTSN5boost3_bi6bind_tIN3ros17SerializedMessageEPFS3_RKN8std_msgs7String_ISaIvEEEENS0_5list1INS_17reference_wrapperIS8_EEEEEE = comdat any

$_ZTIN5boost3_bi6bind_tIN3ros17SerializedMessageEPFS3_RKN8std_msgs7String_ISaIvEEEENS0_5list1INS_17reference_wrapperIS8_EEEEEE = comdat any

@_ZStL8__ioinit = internal global %"class.std::ios_base::Init" zeroinitializer, align 1
@__dso_handle = external global i8
@_ZN12_GLOBAL__N_12_1E = internal global %"struct.boost::arg" zeroinitializer, align 1
@_ZN12_GLOBAL__N_12_2E = internal global %"struct.boost::arg.0" zeroinitializer, align 1
@_ZN12_GLOBAL__N_12_3E = internal global %"struct.boost::arg.2" zeroinitializer, align 1
@_ZN12_GLOBAL__N_12_4E = internal global %"struct.boost::arg.4" zeroinitializer, align 1
@_ZN12_GLOBAL__N_12_5E = internal global %"struct.boost::arg.6" zeroinitializer, align 1
@_ZN12_GLOBAL__N_12_6E = internal global %"struct.boost::arg.8" zeroinitializer, align 1
@_ZN12_GLOBAL__N_12_7E = internal global %"struct.boost::arg.10" zeroinitializer, align 1
@_ZN12_GLOBAL__N_12_8E = internal global %"struct.boost::arg.12" zeroinitializer, align 1
@_ZN12_GLOBAL__N_12_9E = internal global %"struct.boost::arg.14" zeroinitializer, align 1
@.str = private unnamed_addr constant [2 x i8] c"~\00", align 1
@.str10 = private unnamed_addr constant [11 x i8] c"thresh_val\00", align 1
@_ZN3ros7console13g_initializedE = external global i8
@_ZZN4TestC1EvE3loc = internal global %"struct.ros::console::LogLocation" { i8 0, i8 0, i32 5, %"class.log4cxx::Logger"* null }, align 8
@.str11 = private unnamed_addr constant [20 x i8] c"ros.unknown_package\00", align 1
@.str12 = private unnamed_addr constant [15 x i8] c"node_class.cpp\00", align 1
@__PRETTY_FUNCTION__._ZN4TestC2Ev = private unnamed_addr constant [13 x i8] c"Test::Test()\00", align 1
@.str13 = private unnamed_addr constant [15 x i8] c"Kalman started\00", align 1
@.str14 = private unnamed_addr constant [15 x i8] c"i_like_turtles\00", align 1
@.str15 = private unnamed_addr constant [10 x i8] c"caar_name\00", align 1
@.str16 = private unnamed_addr constant [13 x i8] c"give_me_info\00", align 1
@.str17 = private unnamed_addr constant [13 x i8] c"hello world \00", align 1
@.str18 = private unnamed_addr constant [6 x i8] c"cargs\00", align 1
@.str19 = private unnamed_addr constant [7 x i8] c"Kalman\00", align 1
@.str20 = private unnamed_addr constant [33 x i8] c"992ce8a1687cec8c8bd883ec73ca41d1\00", align 1
@.str21 = private unnamed_addr constant [16 x i8] c"std_msgs/String\00", align 1
@.str22 = private unnamed_addr constant [13 x i8] c"string data\0A\00", align 1
@.str23 = private unnamed_addr constant [33 x i8] c"fdb28210bfa9d7c91146260178d9a584\00", align 1
@.str24 = private unnamed_addr constant [17 x i8] c"std_msgs/Float64\00", align 1
@_ZZN5boost9function1IvNS_10shared_ptrIKN8std_msgs8Float64_ISaIvEEEEEE9assign_toINS_8functionIFvRKS7_EEEEEvT_E13stored_vtable = linkonce_odr global %"struct.boost::detail::function::basic_vtable1.50" { %"struct.boost::detail::function::vtable_base" { void (%"union.boost::detail::function::function_buffer"*, %"union.boost::detail::function::function_buffer"*, i32)* @_ZN5boost6detail8function15functor_managerINS_8functionIFvRKNS_10shared_ptrIKN8std_msgs8Float64_ISaIvEEEEEEEEE6manageERKNS1_15function_bufferERSG_NS1_30functor_manager_operation_typeE }, void (%"union.boost::detail::function::function_buffer"*, %"class.boost::shared_ptr.35"*)* @_ZN5boost6detail8function26void_function_obj_invoker1INS_8functionIFvRKNS_10shared_ptrIKN8std_msgs8Float64_ISaIvEEEEEEEEvSA_E6invokeERNS1_15function_bufferESA_ }, comdat, align 8
@_ZTVN10__cxxabiv120__si_class_type_infoE = external global i8*
@_ZTSN5boost8functionIFvRKNS_10shared_ptrIKN8std_msgs8Float64_ISaIvEEEEEEEE = linkonce_odr constant [71 x i8] c"N5boost8functionIFvRKNS_10shared_ptrIKN8std_msgs8Float64_ISaIvEEEEEEEE\00", comdat
@_ZTVN10__cxxabiv121__vmi_class_type_infoE = external global i8*
@_ZTSN5boost9function1IvRKNS_10shared_ptrIKN8std_msgs8Float64_ISaIvEEEEEEE = linkonce_odr constant [70 x i8] c"N5boost9function1IvRKNS_10shared_ptrIKN8std_msgs8Float64_ISaIvEEEEEEE\00", comdat
@_ZTVN10__cxxabiv117__class_type_infoE = external global i8*
@_ZTSN5boost13function_baseE = linkonce_odr constant [24 x i8] c"N5boost13function_baseE\00", comdat
@_ZTIN5boost13function_baseE = linkonce_odr constant { i8*, i8* } { i8* bitcast (i8** getelementptr inbounds (i8** @_ZTVN10__cxxabiv117__class_type_infoE, i64 2) to i8*), i8* getelementptr inbounds ([24 x i8]* @_ZTSN5boost13function_baseE, i32 0, i32 0) }, comdat
@_ZTSSt14unary_functionIRKN5boost10shared_ptrIKN8std_msgs8Float64_ISaIvEEEEEvE = linkonce_odr constant [74 x i8] c"St14unary_functionIRKN5boost10shared_ptrIKN8std_msgs8Float64_ISaIvEEEEEvE\00", comdat
@_ZTISt14unary_functionIRKN5boost10shared_ptrIKN8std_msgs8Float64_ISaIvEEEEEvE = linkonce_odr constant { i8*, i8* } { i8* bitcast (i8** getelementptr inbounds (i8** @_ZTVN10__cxxabiv117__class_type_infoE, i64 2) to i8*), i8* getelementptr inbounds ([74 x i8]* @_ZTSSt14unary_functionIRKN5boost10shared_ptrIKN8std_msgs8Float64_ISaIvEEEEEvE, i32 0, i32 0) }, comdat
@_ZTIN5boost9function1IvRKNS_10shared_ptrIKN8std_msgs8Float64_ISaIvEEEEEEE = linkonce_odr constant { i8*, i8*, i32, i32, i8*, i64, i8*, i64 } { i8* bitcast (i8** getelementptr inbounds (i8** @_ZTVN10__cxxabiv121__vmi_class_type_infoE, i64 2) to i8*), i8* getelementptr inbounds ([70 x i8]* @_ZTSN5boost9function1IvRKNS_10shared_ptrIKN8std_msgs8Float64_ISaIvEEEEEEE, i32 0, i32 0), i32 0, i32 2, i8* bitcast ({ i8*, i8* }* @_ZTIN5boost13function_baseE to i8*), i64 2, i8* bitcast ({ i8*, i8* }* @_ZTISt14unary_functionIRKN5boost10shared_ptrIKN8std_msgs8Float64_ISaIvEEEEEvE to i8*), i64 2 }, comdat
@_ZTIN5boost8functionIFvRKNS_10shared_ptrIKN8std_msgs8Float64_ISaIvEEEEEEEE = linkonce_odr constant { i8*, i8*, i8* } { i8* bitcast (i8** getelementptr inbounds (i8** @_ZTVN10__cxxabiv120__si_class_type_infoE, i64 2) to i8*), i8* getelementptr inbounds ([71 x i8]* @_ZTSN5boost8functionIFvRKNS_10shared_ptrIKN8std_msgs8Float64_ISaIvEEEEEEEE, i32 0, i32 0), i8* bitcast ({ i8*, i8*, i32, i32, i8*, i64, i8*, i64 }* @_ZTIN5boost9function1IvRKNS_10shared_ptrIKN8std_msgs8Float64_ISaIvEEEEEEE to i8*) }, comdat
@_ZTSN5boost16exception_detail10clone_implINS0_19error_info_injectorINS_17bad_function_callEEEEE = linkonce_odr constant [92 x i8] c"N5boost16exception_detail10clone_implINS0_19error_info_injectorINS_17bad_function_callEEEEE\00", comdat
@_ZTSN5boost16exception_detail19error_info_injectorINS_17bad_function_callEEE = linkonce_odr constant [73 x i8] c"N5boost16exception_detail19error_info_injectorINS_17bad_function_callEEE\00", comdat
@_ZTSN5boost17bad_function_callE = linkonce_odr constant [28 x i8] c"N5boost17bad_function_callE\00", comdat
@_ZTISt13runtime_error = external constant i8*
@_ZTIN5boost17bad_function_callE = linkonce_odr constant { i8*, i8*, i8* } { i8* bitcast (i8** getelementptr inbounds (i8** @_ZTVN10__cxxabiv120__si_class_type_infoE, i64 2) to i8*), i8* getelementptr inbounds ([28 x i8]* @_ZTSN5boost17bad_function_callE, i32 0, i32 0), i8* bitcast (i8** @_ZTISt13runtime_error to i8*) }, comdat
@_ZTSN5boost9exceptionE = linkonce_odr constant [19 x i8] c"N5boost9exceptionE\00", comdat
@_ZTIN5boost9exceptionE = linkonce_odr constant { i8*, i8* } { i8* bitcast (i8** getelementptr inbounds (i8** @_ZTVN10__cxxabiv117__class_type_infoE, i64 2) to i8*), i8* getelementptr inbounds ([19 x i8]* @_ZTSN5boost9exceptionE, i32 0, i32 0) }, comdat
@_ZTIN5boost16exception_detail19error_info_injectorINS_17bad_function_callEEE = linkonce_odr constant { i8*, i8*, i32, i32, i8*, i64, i8*, i64 } { i8* bitcast (i8** getelementptr inbounds (i8** @_ZTVN10__cxxabiv121__vmi_class_type_infoE, i64 2) to i8*), i8* getelementptr inbounds ([73 x i8]* @_ZTSN5boost16exception_detail19error_info_injectorINS_17bad_function_callEEE, i32 0, i32 0), i32 0, i32 2, i8* bitcast ({ i8*, i8*, i8* }* @_ZTIN5boost17bad_function_callE to i8*), i64 2, i8* bitcast ({ i8*, i8* }* @_ZTIN5boost9exceptionE to i8*), i64 4098 }, comdat
@_ZTSN5boost16exception_detail10clone_baseE = linkonce_odr constant [39 x i8] c"N5boost16exception_detail10clone_baseE\00", comdat
@_ZTIN5boost16exception_detail10clone_baseE = linkonce_odr constant { i8*, i8* } { i8* bitcast (i8** getelementptr inbounds (i8** @_ZTVN10__cxxabiv117__class_type_infoE, i64 2) to i8*), i8* getelementptr inbounds ([39 x i8]* @_ZTSN5boost16exception_detail10clone_baseE, i32 0, i32 0) }, comdat
@_ZTIN5boost16exception_detail10clone_implINS0_19error_info_injectorINS_17bad_function_callEEEEE = linkonce_odr constant { i8*, i8*, i32, i32, i8*, i64, i8*, i64 } { i8* bitcast (i8** getelementptr inbounds (i8** @_ZTVN10__cxxabiv121__vmi_class_type_infoE, i64 2) to i8*), i8* getelementptr inbounds ([92 x i8]* @_ZTSN5boost16exception_detail10clone_implINS0_19error_info_injectorINS_17bad_function_callEEEEE, i32 0, i32 0), i32 0, i32 2, i8* bitcast ({ i8*, i8*, i32, i32, i8*, i64, i8*, i64 }* @_ZTIN5boost16exception_detail19error_info_injectorINS_17bad_function_callEEE to i8*), i64 2, i8* bitcast ({ i8*, i8* }* @_ZTIN5boost16exception_detail10clone_baseE to i8*), i64 14338 }, comdat
@_ZTVN5boost16exception_detail10clone_implINS0_19error_info_injectorINS_17bad_function_callEEEEE = linkonce_odr unnamed_addr constant [17 x i8*] [i8* null, i8* bitcast ({ i8*, i8*, i32, i32, i8*, i64, i8*, i64 }* @_ZTIN5boost16exception_detail10clone_implINS0_19error_info_injectorINS_17bad_function_callEEEEE to i8*), i8* bitcast (void (%"class.boost::exception_detail::clone_impl"*)* @_ZN5boost16exception_detail10clone_implINS0_19error_info_injectorINS_17bad_function_callEEEED2Ev to i8*), i8* bitcast (void (%"class.boost::exception_detail::clone_impl"*)* @_ZN5boost16exception_detail10clone_implINS0_19error_info_injectorINS_17bad_function_callEEEED0Ev to i8*), i8* bitcast (i8* (%"class.std::runtime_error"*)* @_ZNKSt13runtime_error4whatEv to i8*), i8* bitcast (%"class.boost::exception_detail::clone_base"* (%"class.boost::exception_detail::clone_impl"*)* @_ZNK5boost16exception_detail10clone_implINS0_19error_info_injectorINS_17bad_function_callEEEE5cloneEv to i8*), i8* bitcast (void (%"class.boost::exception_detail::clone_impl"*)* @_ZNK5boost16exception_detail10clone_implINS0_19error_info_injectorINS_17bad_function_callEEEE7rethrowEv to i8*), i8* inttoptr (i64 -16 to i8*), i8* bitcast ({ i8*, i8*, i32, i32, i8*, i64, i8*, i64 }* @_ZTIN5boost16exception_detail10clone_implINS0_19error_info_injectorINS_17bad_function_callEEEEE to i8*), i8* bitcast (void (%"class.boost::exception_detail::clone_impl"*)* @_ZThn16_N5boost16exception_detail10clone_implINS0_19error_info_injectorINS_17bad_function_callEEEED1Ev to i8*), i8* bitcast (void (%"class.boost::exception_detail::clone_impl"*)* @_ZThn16_N5boost16exception_detail10clone_implINS0_19error_info_injectorINS_17bad_function_callEEEED0Ev to i8*), i8* inttoptr (i64 -56 to i8*), i8* bitcast ({ i8*, i8*, i32, i32, i8*, i64, i8*, i64 }* @_ZTIN5boost16exception_detail10clone_implINS0_19error_info_injectorINS_17bad_function_callEEEEE to i8*), i8* bitcast (%"class.boost::exception_detail::clone_base"* (%"class.boost::exception_detail::clone_impl"*)* @_ZThn56_NK5boost16exception_detail10clone_implINS0_19error_info_injectorINS_17bad_function_callEEEE5cloneEv to i8*), i8* bitcast (void (%"class.boost::exception_detail::clone_impl"*)* @_ZThn56_NK5boost16exception_detail10clone_implINS0_19error_info_injectorINS_17bad_function_callEEEE7rethrowEv to i8*), i8* bitcast (void (%"class.boost::exception_detail::clone_impl"*)* @_ZThn56_N5boost16exception_detail10clone_implINS0_19error_info_injectorINS_17bad_function_callEEEED1Ev to i8*), i8* bitcast (void (%"class.boost::exception_detail::clone_impl"*)* @_ZThn56_N5boost16exception_detail10clone_implINS0_19error_info_injectorINS_17bad_function_callEEEED0Ev to i8*)], comdat, align 8
@_ZTVN5boost16exception_detail19error_info_injectorINS_17bad_function_callEEE = linkonce_odr unnamed_addr constant [9 x i8*] [i8* null, i8* bitcast ({ i8*, i8*, i32, i32, i8*, i64, i8*, i64 }* @_ZTIN5boost16exception_detail19error_info_injectorINS_17bad_function_callEEE to i8*), i8* bitcast (void (%"struct.boost::exception_detail::error_info_injector"*)* @_ZN5boost16exception_detail19error_info_injectorINS_17bad_function_callEED2Ev to i8*), i8* bitcast (void (%"struct.boost::exception_detail::error_info_injector"*)* @_ZN5boost16exception_detail19error_info_injectorINS_17bad_function_callEED0Ev to i8*), i8* bitcast (i8* (%"class.std::runtime_error"*)* @_ZNKSt13runtime_error4whatEv to i8*), i8* inttoptr (i64 -16 to i8*), i8* bitcast ({ i8*, i8*, i32, i32, i8*, i64, i8*, i64 }* @_ZTIN5boost16exception_detail19error_info_injectorINS_17bad_function_callEEE to i8*), i8* bitcast (void (%"struct.boost::exception_detail::error_info_injector"*)* @_ZThn16_N5boost16exception_detail19error_info_injectorINS_17bad_function_callEED1Ev to i8*), i8* bitcast (void (%"struct.boost::exception_detail::error_info_injector"*)* @_ZThn16_N5boost16exception_detail19error_info_injectorINS_17bad_function_callEED0Ev to i8*)], comdat, align 8
@_ZTVN5boost17bad_function_callE = linkonce_odr unnamed_addr constant [5 x i8*] [i8* null, i8* bitcast ({ i8*, i8*, i8* }* @_ZTIN5boost17bad_function_callE to i8*), i8* bitcast (void (%"class.boost::bad_function_call"*)* @_ZN5boost17bad_function_callD2Ev to i8*), i8* bitcast (void (%"class.boost::bad_function_call"*)* @_ZN5boost17bad_function_callD0Ev to i8*), i8* bitcast (i8* (%"class.std::runtime_error"*)* @_ZNKSt13runtime_error4whatEv to i8*)], comdat, align 8
@_ZTVSt13runtime_error = external unnamed_addr constant [5 x i8*]
@_ZTVSt9exception = external unnamed_addr constant [5 x i8*]
@_ZTVN5boost9exceptionE = linkonce_odr unnamed_addr constant [4 x i8*] [i8* null, i8* bitcast ({ i8*, i8* }* @_ZTIN5boost9exceptionE to i8*), i8* bitcast (void ()* @__cxa_pure_virtual to i8*), i8* bitcast (void ()* @__cxa_pure_virtual to i8*)], comdat, align 8
@_ZTVN5boost16exception_detail10clone_baseE = linkonce_odr unnamed_addr constant [6 x i8*] [i8* null, i8* bitcast ({ i8*, i8* }* @_ZTIN5boost16exception_detail10clone_baseE to i8*), i8* bitcast (void ()* @__cxa_pure_virtual to i8*), i8* bitcast (void ()* @__cxa_pure_virtual to i8*), i8* bitcast (void (%"class.boost::exception_detail::clone_base"*)* @_ZN5boost16exception_detail10clone_baseD2Ev to i8*), i8* bitcast (void (%"class.boost::exception_detail::clone_base"*)* @_ZN5boost16exception_detail10clone_baseD0Ev to i8*)], comdat, align 8
@.str25 = private unnamed_addr constant [30 x i8] c"call to empty boost::function\00", align 1
@_ZTVN3ros27SubscriptionCallbackHelperTIRKN5boost10shared_ptrIKN8std_msgs8Float64_ISaIvEEEEEvEE = linkonce_odr unnamed_addr constant [8 x i8*] [i8* null, i8* bitcast ({ i8*, i8*, i8* }* @_ZTIN3ros27SubscriptionCallbackHelperTIRKN5boost10shared_ptrIKN8std_msgs8Float64_ISaIvEEEEEvEE to i8*), i8* bitcast (void (%"class.ros::SubscriptionCallbackHelperT"*)* @_ZN3ros27SubscriptionCallbackHelperTIRKN5boost10shared_ptrIKN8std_msgs8Float64_ISaIvEEEEEvED2Ev to i8*), i8* bitcast (void (%"class.ros::SubscriptionCallbackHelperT"*)* @_ZN3ros27SubscriptionCallbackHelperTIRKN5boost10shared_ptrIKN8std_msgs8Float64_ISaIvEEEEEvED0Ev to i8*), i8* bitcast (void (%"class.boost::shared_ptr.40"*, %"class.ros::SubscriptionCallbackHelperT"*, %"struct.ros::SubscriptionCallbackHelperDeserializeParams"*)* @_ZN3ros27SubscriptionCallbackHelperTIRKN5boost10shared_ptrIKN8std_msgs8Float64_ISaIvEEEEEvE11deserializeERKNS_43SubscriptionCallbackHelperDeserializeParamsE to i8*), i8* bitcast (void (%"class.ros::SubscriptionCallbackHelperT"*, %"struct.ros::SubscriptionCallbackHelperCallParams"*)* @_ZN3ros27SubscriptionCallbackHelperTIRKN5boost10shared_ptrIKN8std_msgs8Float64_ISaIvEEEEEvE4callERNS_36SubscriptionCallbackHelperCallParamsE to i8*), i8* bitcast (%"class.std::type_info"* (%"class.ros::SubscriptionCallbackHelperT"*)* @_ZN3ros27SubscriptionCallbackHelperTIRKN5boost10shared_ptrIKN8std_msgs8Float64_ISaIvEEEEEvE11getTypeInfoEv to i8*), i8* bitcast (i1 (%"class.ros::SubscriptionCallbackHelperT"*)* @_ZN3ros27SubscriptionCallbackHelperTIRKN5boost10shared_ptrIKN8std_msgs8Float64_ISaIvEEEEEvE7isConstEv to i8*)], comdat, align 8
@_ZTSN3ros27SubscriptionCallbackHelperTIRKN5boost10shared_ptrIKN8std_msgs8Float64_ISaIvEEEEEvEE = linkonce_odr constant [91 x i8] c"N3ros27SubscriptionCallbackHelperTIRKN5boost10shared_ptrIKN8std_msgs8Float64_ISaIvEEEEEvEE\00", comdat
@_ZTSN3ros26SubscriptionCallbackHelperE = linkonce_odr constant [35 x i8] c"N3ros26SubscriptionCallbackHelperE\00", comdat
@_ZTIN3ros26SubscriptionCallbackHelperE = linkonce_odr constant { i8*, i8* } { i8* bitcast (i8** getelementptr inbounds (i8** @_ZTVN10__cxxabiv117__class_type_infoE, i64 2) to i8*), i8* getelementptr inbounds ([35 x i8]* @_ZTSN3ros26SubscriptionCallbackHelperE, i32 0, i32 0) }, comdat
@_ZTIN3ros27SubscriptionCallbackHelperTIRKN5boost10shared_ptrIKN8std_msgs8Float64_ISaIvEEEEEvEE = linkonce_odr constant { i8*, i8*, i8* } { i8* bitcast (i8** getelementptr inbounds (i8** @_ZTVN10__cxxabiv120__si_class_type_infoE, i64 2) to i8*), i8* getelementptr inbounds ([91 x i8]* @_ZTSN3ros27SubscriptionCallbackHelperTIRKN5boost10shared_ptrIKN8std_msgs8Float64_ISaIvEEEEEvEE, i32 0, i32 0), i8* bitcast ({ i8*, i8* }* @_ZTIN3ros26SubscriptionCallbackHelperE to i8*) }, comdat
@_ZTVN3ros26SubscriptionCallbackHelperE = linkonce_odr unnamed_addr constant [8 x i8*] [i8* null, i8* bitcast ({ i8*, i8* }* @_ZTIN3ros26SubscriptionCallbackHelperE to i8*), i8* bitcast (void (%"class.ros::SubscriptionCallbackHelper"*)* @_ZN3ros26SubscriptionCallbackHelperD2Ev to i8*), i8* bitcast (void (%"class.ros::SubscriptionCallbackHelper"*)* @_ZN3ros26SubscriptionCallbackHelperD0Ev to i8*), i8* bitcast (void ()* @__cxa_pure_virtual to i8*), i8* bitcast (void ()* @__cxa_pure_virtual to i8*), i8* bitcast (void ()* @__cxa_pure_virtual to i8*), i8* bitcast (void ()* @__cxa_pure_virtual to i8*)], comdat, align 8
@_ZZN3ros27SubscriptionCallbackHelperTIRKN5boost10shared_ptrIKN8std_msgs8Float64_ISaIvEEEEEvE11deserializeERKNS_43SubscriptionCallbackHelperDeserializeParamsEE3loc = linkonce_odr global %"struct.ros::console::LogLocation" { i8 0, i8 0, i32 5, %"class.log4cxx::Logger"* null }, comdat, align 8
@.str26 = private unnamed_addr constant [59 x i8] c"/opt/ros/groovy/include/ros/subscription_callback_helper.h\00", align 1
@__PRETTY_FUNCTION__._ZN3ros27SubscriptionCallbackHelperTIRKN5boost10shared_ptrIKN8std_msgs8Float64_ISaIvEEEEEvE11deserializeERKNS_43SubscriptionCallbackHelperDeserializeParamsE = private unnamed_addr constant [306 x i8] c"virtual VoidConstPtr ros::SubscriptionCallbackHelperT<const boost::shared_ptr<const std_msgs::Float64_<std::allocator<void> > > &, void>::deserialize(const ros::SubscriptionCallbackHelperDeserializeParams &) [P = const boost::shared_ptr<const std_msgs::Float64_<std::allocator<void> > > &, Enabled = void]\00", align 1
@.str27 = private unnamed_addr constant [43 x i8] c"Allocation failed for message of type [%s]\00", align 1
@.str28 = private unnamed_addr constant [8 x i8] c"px != 0\00", align 1
@.str29 = private unnamed_addr constant [44 x i8] c"/usr/include/boost/smart_ptr/shared_ptr.hpp\00", align 1
@__PRETTY_FUNCTION__._ZNK5boost10shared_ptrIN8std_msgs8Float64_ISaIvEEEEdeEv = private unnamed_addr constant [139 x i8] c"reference boost::shared_ptr<std_msgs::Float64_<std::allocator<void> > >::operator*() const [Y = std_msgs::Float64_<std::allocator<void> >]\00", align 1
@_ZTSN8std_msgs8Float64_ISaIvEEE = linkonce_odr constant [28 x i8] c"N8std_msgs8Float64_ISaIvEEE\00", comdat
@_ZTIN8std_msgs8Float64_ISaIvEEE = linkonce_odr constant { i8*, i8* } { i8* bitcast (i8** getelementptr inbounds (i8** @_ZTVN10__cxxabiv117__class_type_infoE, i64 2) to i8*), i8* getelementptr inbounds ([28 x i8]* @_ZTSN8std_msgs8Float64_ISaIvEEE, i32 0, i32 0) }, comdat
@_ZTVN5boost6detail17sp_counted_impl_pIN3ros27SubscriptionCallbackHelperTIRKNS_10shared_ptrIKN8std_msgs8Float64_ISaIvEEEEEvEEEE = linkonce_odr unnamed_addr constant [7 x i8*] [i8* null, i8* bitcast ({ i8*, i8*, i8* }* @_ZTIN5boost6detail17sp_counted_impl_pIN3ros27SubscriptionCallbackHelperTIRKNS_10shared_ptrIKN8std_msgs8Float64_ISaIvEEEEEvEEEE to i8*), i8* bitcast (void (%"class.boost::detail::sp_counted_impl_p"*)* @_ZN5boost6detail17sp_counted_impl_pIN3ros27SubscriptionCallbackHelperTIRKNS_10shared_ptrIKN8std_msgs8Float64_ISaIvEEEEEvEEED2Ev to i8*), i8* bitcast (void (%"class.boost::detail::sp_counted_impl_p"*)* @_ZN5boost6detail17sp_counted_impl_pIN3ros27SubscriptionCallbackHelperTIRKNS_10shared_ptrIKN8std_msgs8Float64_ISaIvEEEEEvEEED0Ev to i8*), i8* bitcast (void (%"class.boost::detail::sp_counted_impl_p"*)* @_ZN5boost6detail17sp_counted_impl_pIN3ros27SubscriptionCallbackHelperTIRKNS_10shared_ptrIKN8std_msgs8Float64_ISaIvEEEEEvEEE7disposeEv to i8*), i8* bitcast (void (%"class.boost::detail::sp_counted_base"*)* @_ZN5boost6detail15sp_counted_base7destroyEv to i8*), i8* bitcast (i8* (%"class.boost::detail::sp_counted_impl_p"*, %"class.std::type_info"*)* @_ZN5boost6detail17sp_counted_impl_pIN3ros27SubscriptionCallbackHelperTIRKNS_10shared_ptrIKN8std_msgs8Float64_ISaIvEEEEEvEEE11get_deleterERKSt9type_info to i8*)], comdat, align 8
@_ZTSN5boost6detail17sp_counted_impl_pIN3ros27SubscriptionCallbackHelperTIRKNS_10shared_ptrIKN8std_msgs8Float64_ISaIvEEEEEvEEEE = linkonce_odr constant [123 x i8] c"N5boost6detail17sp_counted_impl_pIN3ros27SubscriptionCallbackHelperTIRKNS_10shared_ptrIKN8std_msgs8Float64_ISaIvEEEEEvEEEE\00", comdat
@_ZTSN5boost6detail15sp_counted_baseE = linkonce_odr constant [33 x i8] c"N5boost6detail15sp_counted_baseE\00", comdat
@_ZTIN5boost6detail15sp_counted_baseE = linkonce_odr constant { i8*, i8* } { i8* bitcast (i8** getelementptr inbounds (i8** @_ZTVN10__cxxabiv117__class_type_infoE, i64 2) to i8*), i8* getelementptr inbounds ([33 x i8]* @_ZTSN5boost6detail15sp_counted_baseE, i32 0, i32 0) }, comdat
@_ZTIN5boost6detail17sp_counted_impl_pIN3ros27SubscriptionCallbackHelperTIRKNS_10shared_ptrIKN8std_msgs8Float64_ISaIvEEEEEvEEEE = linkonce_odr constant { i8*, i8*, i8* } { i8* bitcast (i8** getelementptr inbounds (i8** @_ZTVN10__cxxabiv120__si_class_type_infoE, i64 2) to i8*), i8* getelementptr inbounds ([123 x i8]* @_ZTSN5boost6detail17sp_counted_impl_pIN3ros27SubscriptionCallbackHelperTIRKNS_10shared_ptrIKN8std_msgs8Float64_ISaIvEEEEEvEEEE, i32 0, i32 0), i8* bitcast ({ i8*, i8* }* @_ZTIN5boost6detail15sp_counted_baseE to i8*) }, comdat
@_ZTVN5boost6detail15sp_counted_baseE = linkonce_odr unnamed_addr constant [7 x i8*] [i8* null, i8* bitcast ({ i8*, i8* }* @_ZTIN5boost6detail15sp_counted_baseE to i8*), i8* bitcast (void (%"class.boost::detail::sp_counted_base"*)* @_ZN5boost6detail15sp_counted_baseD2Ev to i8*), i8* bitcast (void (%"class.boost::detail::sp_counted_base"*)* @_ZN5boost6detail15sp_counted_baseD0Ev to i8*), i8* bitcast (void ()* @__cxa_pure_virtual to i8*), i8* bitcast (void (%"class.boost::detail::sp_counted_base"*)* @_ZN5boost6detail15sp_counted_base7destroyEv to i8*), i8* bitcast (void ()* @__cxa_pure_virtual to i8*)], comdat, align 8
@_ZZN5boost9function1IvRKNS_10shared_ptrIKN8std_msgs8Float64_ISaIvEEEEEE9assign_toINS_3_bi6bind_tIvNS_4_mfi3mf1Iv4TestS9_EENSC_5list2INSC_5valueIPSG_EENS_3argILi1EEEEEEEEEvT_E13stored_vtable = linkonce_odr global %"struct.boost::detail::function::basic_vtable1.49" { %"struct.boost::detail::function::vtable_base" { void (%"union.boost::detail::function::function_buffer"*, %"union.boost::detail::function::function_buffer"*, i32)* @_ZN5boost6detail8function15functor_managerINS_3_bi6bind_tIvNS_4_mfi3mf1Iv4TestRKNS_10shared_ptrIKN8std_msgs8Float64_ISaIvEEEEEEENS3_5list2INS3_5valueIPS7_EENS_3argILi1EEEEEEEE6manageERKNS1_15function_bufferERSR_NS1_30functor_manager_operation_typeE }, void (%"union.boost::detail::function::function_buffer"*, %"class.boost::shared_ptr.35"*)* @_ZN5boost6detail8function26void_function_obj_invoker1INS_3_bi6bind_tIvNS_4_mfi3mf1Iv4TestRKNS_10shared_ptrIKN8std_msgs8Float64_ISaIvEEEEEEENS3_5list2INS3_5valueIPS7_EENS_3argILi1EEEEEEEvSG_E6invokeERNS1_15function_bufferESG_ }, comdat, align 8
@_ZTSN5boost3_bi6bind_tIvNS_4_mfi3mf1Iv4TestRKNS_10shared_ptrIKN8std_msgs8Float64_ISaIvEEEEEEENS0_5list2INS0_5valueIPS4_EENS_3argILi1EEEEEEE = linkonce_odr constant [136 x i8] c"N5boost3_bi6bind_tIvNS_4_mfi3mf1Iv4TestRKNS_10shared_ptrIKN8std_msgs8Float64_ISaIvEEEEEEENS0_5list2INS0_5valueIPS4_EENS_3argILi1EEEEEEE\00", comdat
@_ZTIN5boost3_bi6bind_tIvNS_4_mfi3mf1Iv4TestRKNS_10shared_ptrIKN8std_msgs8Float64_ISaIvEEEEEEENS0_5list2INS0_5valueIPS4_EENS_3argILi1EEEEEEE = linkonce_odr constant { i8*, i8* } { i8* bitcast (i8** getelementptr inbounds (i8** @_ZTVN10__cxxabiv117__class_type_infoE, i64 2) to i8*), i8* getelementptr inbounds ([136 x i8]* @_ZTSN5boost3_bi6bind_tIvNS_4_mfi3mf1Iv4TestRKNS_10shared_ptrIKN8std_msgs8Float64_ISaIvEEEEEEENS0_5list2INS0_5valueIPS4_EENS_3argILi1EEEEEEE, i32 0, i32 0) }, comdat
@_ZZN5boost9function0INS_10shared_ptrIN8std_msgs8Float64_ISaIvEEEEEE9assign_toIN3ros21DefaultMessageCreatorIS5_EEEEvT_E13stored_vtable = linkonce_odr global %"struct.boost::detail::function::basic_vtable0" { %"struct.boost::detail::function::vtable_base" { void (%"union.boost::detail::function::function_buffer"*, %"union.boost::detail::function::function_buffer"*, i32)* @_ZN5boost6detail8function15functor_managerIN3ros21DefaultMessageCreatorIN8std_msgs8Float64_ISaIvEEEEEE6manageERKNS1_15function_bufferERSB_NS1_30functor_manager_operation_typeE }, void (%"class.boost::shared_ptr.54"*, %"union.boost::detail::function::function_buffer"*)* @_ZN5boost6detail8function21function_obj_invoker0IN3ros21DefaultMessageCreatorIN8std_msgs8Float64_ISaIvEEEEENS_10shared_ptrIS8_EEE6invokeERNS1_15function_bufferE }, comdat, align 8
@_ZTSN3ros21DefaultMessageCreatorIN8std_msgs8Float64_ISaIvEEEEE = linkonce_odr constant [59 x i8] c"N3ros21DefaultMessageCreatorIN8std_msgs8Float64_ISaIvEEEEE\00", comdat
@_ZTIN3ros21DefaultMessageCreatorIN8std_msgs8Float64_ISaIvEEEEE = linkonce_odr constant { i8*, i8* } { i8* bitcast (i8** getelementptr inbounds (i8** @_ZTVN10__cxxabiv117__class_type_infoE, i64 2) to i8*), i8* getelementptr inbounds ([59 x i8]* @_ZTSN3ros21DefaultMessageCreatorIN8std_msgs8Float64_ISaIvEEEEE, i32 0, i32 0) }, comdat
@_ZTVN5boost6detail18sp_counted_impl_pdIPN8std_msgs8Float64_ISaIvEEENS0_13sp_ms_deleterIS5_EEEE = linkonce_odr unnamed_addr constant [7 x i8*] [i8* null, i8* bitcast ({ i8*, i8*, i8* }* @_ZTIN5boost6detail18sp_counted_impl_pdIPN8std_msgs8Float64_ISaIvEEENS0_13sp_ms_deleterIS5_EEEE to i8*), i8* bitcast (void (%"class.boost::detail::sp_counted_impl_pd"*)* @_ZN5boost6detail18sp_counted_impl_pdIPN8std_msgs8Float64_ISaIvEEENS0_13sp_ms_deleterIS5_EEED2Ev to i8*), i8* bitcast (void (%"class.boost::detail::sp_counted_impl_pd"*)* @_ZN5boost6detail18sp_counted_impl_pdIPN8std_msgs8Float64_ISaIvEEENS0_13sp_ms_deleterIS5_EEED0Ev to i8*), i8* bitcast (void (%"class.boost::detail::sp_counted_impl_pd"*)* @_ZN5boost6detail18sp_counted_impl_pdIPN8std_msgs8Float64_ISaIvEEENS0_13sp_ms_deleterIS5_EEE7disposeEv to i8*), i8* bitcast (void (%"class.boost::detail::sp_counted_base"*)* @_ZN5boost6detail15sp_counted_base7destroyEv to i8*), i8* bitcast (i8* (%"class.boost::detail::sp_counted_impl_pd"*, %"class.std::type_info"*)* @_ZN5boost6detail18sp_counted_impl_pdIPN8std_msgs8Float64_ISaIvEEENS0_13sp_ms_deleterIS5_EEE11get_deleterERKSt9type_info to i8*)], comdat, align 8
@_ZTSN5boost6detail18sp_counted_impl_pdIPN8std_msgs8Float64_ISaIvEEENS0_13sp_ms_deleterIS5_EEEE = linkonce_odr constant [91 x i8] c"N5boost6detail18sp_counted_impl_pdIPN8std_msgs8Float64_ISaIvEEENS0_13sp_ms_deleterIS5_EEEE\00", comdat
@_ZTIN5boost6detail18sp_counted_impl_pdIPN8std_msgs8Float64_ISaIvEEENS0_13sp_ms_deleterIS5_EEEE = linkonce_odr constant { i8*, i8*, i8* } { i8* bitcast (i8** getelementptr inbounds (i8** @_ZTVN10__cxxabiv120__si_class_type_infoE, i64 2) to i8*), i8* getelementptr inbounds ([91 x i8]* @_ZTSN5boost6detail18sp_counted_impl_pdIPN8std_msgs8Float64_ISaIvEEENS0_13sp_ms_deleterIS5_EEEE, i32 0, i32 0), i8* bitcast ({ i8*, i8* }* @_ZTIN5boost6detail15sp_counted_baseE to i8*) }, comdat
@_ZTSN5boost6detail13sp_ms_deleterIN8std_msgs8Float64_ISaIvEEEEE = linkonce_odr constant [60 x i8] c"N5boost6detail13sp_ms_deleterIN8std_msgs8Float64_ISaIvEEEEE\00", comdat
@_ZTIN5boost6detail13sp_ms_deleterIN8std_msgs8Float64_ISaIvEEEEE = linkonce_odr constant { i8*, i8* } { i8* bitcast (i8** getelementptr inbounds (i8** @_ZTVN10__cxxabiv117__class_type_infoE, i64 2) to i8*), i8* getelementptr inbounds ([60 x i8]* @_ZTSN5boost6detail13sp_ms_deleterIN8std_msgs8Float64_ISaIvEEEEE, i32 0, i32 0) }, comdat
@__PRETTY_FUNCTION__._ZNK5boost10shared_ptrIKN8std_msgs8Float64_ISaIvEEEEptEv = private unnamed_addr constant [145 x i8] c"T *boost::shared_ptr<const std_msgs::Float64_<std::allocator<void> > >::operator->() const [Y = const std_msgs::Float64_<std::allocator<void> >]\00", align 1
@_ZZNK3ros9Publisher7publishIN8std_msgs7String_ISaIvEEEEEvRKT_E3loc = linkonce_odr global %"struct.ros::console::LogLocation" { i8 0, i8 0, i32 5, %"class.log4cxx::Logger"* null }, comdat, align 8
@.str30 = private unnamed_addr constant [40 x i8] c"/opt/ros/groovy/include/ros/publisher.h\00", align 1
@__PRETTY_FUNCTION__._ZNK3ros9Publisher7publishIN8std_msgs7String_ISaIvEEEEEvRKT_ = private unnamed_addr constant [93 x i8] c"void ros::Publisher::publish(const M &) const [M = std_msgs::String_<std::allocator<void> >]\00", align 1
@.str31 = private unnamed_addr constant [62 x i8] c"ASSERTION FAILED\0A\09file = %s\0A\09line = %d\0A\09cond = %s\0A\09message = \00", align 1
@.str32 = private unnamed_addr constant [6 x i8] c"false\00", align 1
@_ZZNK3ros9Publisher7publishIN8std_msgs7String_ISaIvEEEEEvRKT_E3loc_0 = linkonce_odr global %"struct.ros::console::LogLocation" { i8 0, i8 0, i32 5, %"class.log4cxx::Logger"* null }, comdat, align 8
@.str33 = private unnamed_addr constant [42 x i8] c"Call to publish() on an invalid Publisher\00", align 1
@_ZZNK3ros9Publisher7publishIN8std_msgs7String_ISaIvEEEEEvRKT_E3loc_1 = linkonce_odr global %"struct.ros::console::LogLocation" { i8 0, i8 0, i32 5, %"class.log4cxx::Logger"* null }, comdat, align 8
@.str34 = private unnamed_addr constant [2 x i8] c"\0A\00", align 1
@_ZZNK3ros9Publisher7publishIN8std_msgs7String_ISaIvEEEEEvRKT_E3loc_2 = linkonce_odr global %"struct.ros::console::LogLocation" { i8 0, i8 0, i32 5, %"class.log4cxx::Logger"* null }, comdat, align 8
@_ZZNK3ros9Publisher7publishIN8std_msgs7String_ISaIvEEEEEvRKT_E3loc_3 = linkonce_odr global %"struct.ros::console::LogLocation" { i8 0, i8 0, i32 5, %"class.log4cxx::Logger"* null }, comdat, align 8
@.str35 = private unnamed_addr constant [55 x i8] c"Call to publish() on an invalid Publisher (topic [%s])\00", align 1
@_ZZNK3ros9Publisher7publishIN8std_msgs7String_ISaIvEEEEEvRKT_E3loc_4 = linkonce_odr global %"struct.ros::console::LogLocation" { i8 0, i8 0, i32 5, %"class.log4cxx::Logger"* null }, comdat, align 8
@.str36 = private unnamed_addr constant [2 x i8] c"*\00", align 1
@_ZZNK3ros9Publisher7publishIN8std_msgs7String_ISaIvEEEEEvRKT_E3loc_5 = linkonce_odr global %"struct.ros::console::LogLocation" { i8 0, i8 0, i32 5, %"class.log4cxx::Logger"* null }, comdat, align 8
@.str37 = private unnamed_addr constant [112 x i8] c"impl_->md5sum_ == \22*\22 || std::string(mt::md5sum<M>(message)) == \22*\22 || impl_->md5sum_ == mt::md5sum<M>(message)\00", align 1
@_ZZNK3ros9Publisher7publishIN8std_msgs7String_ISaIvEEEEEvRKT_E3loc_6 = linkonce_odr global %"struct.ros::console::LogLocation" { i8 0, i8 0, i32 5, %"class.log4cxx::Logger"* null }, comdat, align 8
@.str38 = private unnamed_addr constant [75 x i8] c"Trying to publish message of type [%s/%s] on a publisher with type [%s/%s]\00", align 1
@_ZZNK3ros9Publisher7publishIN8std_msgs7String_ISaIvEEEEEvRKT_E3loc_7 = linkonce_odr global %"struct.ros::console::LogLocation" { i8 0, i8 0, i32 5, %"class.log4cxx::Logger"* null }, comdat, align 8
@__PRETTY_FUNCTION__._ZNK5boost10shared_ptrIN3ros9Publisher4ImplEEptEv = private unnamed_addr constant [90 x i8] c"T *boost::shared_ptr<ros::Publisher::Impl>::operator->() const [Y = ros::Publisher::Impl]\00", align 1
@_ZTVN5boost6detail18sp_counted_impl_pdIPhNS_21checked_array_deleterIhEEEE = linkonce_odr unnamed_addr constant [7 x i8*] [i8* null, i8* bitcast ({ i8*, i8*, i8* }* @_ZTIN5boost6detail18sp_counted_impl_pdIPhNS_21checked_array_deleterIhEEEE to i8*), i8* bitcast (void (%"class.boost::detail::sp_counted_impl_pd.66"*)* @_ZN5boost6detail18sp_counted_impl_pdIPhNS_21checked_array_deleterIhEEED2Ev to i8*), i8* bitcast (void (%"class.boost::detail::sp_counted_impl_pd.66"*)* @_ZN5boost6detail18sp_counted_impl_pdIPhNS_21checked_array_deleterIhEEED0Ev to i8*), i8* bitcast (void (%"class.boost::detail::sp_counted_impl_pd.66"*)* @_ZN5boost6detail18sp_counted_impl_pdIPhNS_21checked_array_deleterIhEEE7disposeEv to i8*), i8* bitcast (void (%"class.boost::detail::sp_counted_base"*)* @_ZN5boost6detail15sp_counted_base7destroyEv to i8*), i8* bitcast (i8* (%"class.boost::detail::sp_counted_impl_pd.66"*, %"class.std::type_info"*)* @_ZN5boost6detail18sp_counted_impl_pdIPhNS_21checked_array_deleterIhEEE11get_deleterERKSt9type_info to i8*)], comdat, align 8
@_ZTSN5boost6detail18sp_counted_impl_pdIPhNS_21checked_array_deleterIhEEEE = linkonce_odr constant [70 x i8] c"N5boost6detail18sp_counted_impl_pdIPhNS_21checked_array_deleterIhEEEE\00", comdat
@_ZTIN5boost6detail18sp_counted_impl_pdIPhNS_21checked_array_deleterIhEEEE = linkonce_odr constant { i8*, i8*, i8* } { i8* bitcast (i8** getelementptr inbounds (i8** @_ZTVN10__cxxabiv120__si_class_type_infoE, i64 2) to i8*), i8* getelementptr inbounds ([70 x i8]* @_ZTSN5boost6detail18sp_counted_impl_pdIPhNS_21checked_array_deleterIhEEEE, i32 0, i32 0), i8* bitcast ({ i8*, i8* }* @_ZTIN5boost6detail15sp_counted_baseE to i8*) }, comdat
@_ZTSN5boost21checked_array_deleterIhEE = linkonce_odr constant [35 x i8] c"N5boost21checked_array_deleterIhEE\00", comdat
@_ZTIN5boost21checked_array_deleterIhEE = linkonce_odr constant { i8*, i8* } { i8* bitcast (i8** getelementptr inbounds (i8** @_ZTVN10__cxxabiv117__class_type_infoE, i64 2) to i8*), i8* getelementptr inbounds ([35 x i8]* @_ZTSN5boost21checked_array_deleterIhEE, i32 0, i32 0) }, comdat
@.str39 = private unnamed_addr constant [18 x i8] c"p == 0 || p != px\00", align 1
@.str40 = private unnamed_addr constant [46 x i8] c"/usr/include/boost/smart_ptr/shared_array.hpp\00", align 1
@__PRETTY_FUNCTION__._ZN5boost12shared_arrayIhE5resetEPh = private unnamed_addr constant [72 x i8] c"void boost::shared_array<unsigned char>::reset(T *) [T = unsigned char]\00", align 1
@_ZZN5boost9function0IN3ros17SerializedMessageEE9assign_toINS_3_bi6bind_tIS2_PFS2_RKN8std_msgs7String_ISaIvEEEENS5_5list1INS_17reference_wrapperISB_EEEEEEEEvT_E13stored_vtable = linkonce_odr global %"struct.boost::detail::function::basic_vtable0.68" { %"struct.boost::detail::function::vtable_base" { void (%"union.boost::detail::function::function_buffer"*, %"union.boost::detail::function::function_buffer"*, i32)* @_ZN5boost6detail8function15functor_managerINS_3_bi6bind_tIN3ros17SerializedMessageEPFS6_RKN8std_msgs7String_ISaIvEEEENS3_5list1INS_17reference_wrapperISB_EEEEEEE6manageERKNS1_15function_bufferERSL_NS1_30functor_manager_operation_typeE }, void (%"class.ros::SerializedMessage"*, %"union.boost::detail::function::function_buffer"*)* @_ZN5boost6detail8function21function_obj_invoker0INS_3_bi6bind_tIN3ros17SerializedMessageEPFS6_RKN8std_msgs7String_ISaIvEEEENS3_5list1INS_17reference_wrapperISB_EEEEEES6_E6invokeERNS1_15function_bufferE }, comdat, align 8
@_ZTSN5boost3_bi6bind_tIN3ros17SerializedMessageEPFS3_RKN8std_msgs7String_ISaIvEEEENS0_5list1INS_17reference_wrapperIS8_EEEEEE = linkonce_odr constant [122 x i8] c"N5boost3_bi6bind_tIN3ros17SerializedMessageEPFS3_RKN8std_msgs7String_ISaIvEEEENS0_5list1INS_17reference_wrapperIS8_EEEEEE\00", comdat
@_ZTIN5boost3_bi6bind_tIN3ros17SerializedMessageEPFS3_RKN8std_msgs7String_ISaIvEEEENS0_5list1INS_17reference_wrapperIS8_EEEEEE = linkonce_odr constant { i8*, i8* } { i8* bitcast (i8** getelementptr inbounds (i8** @_ZTVN10__cxxabiv117__class_type_infoE, i64 2) to i8*), i8* getelementptr inbounds ([122 x i8]* @_ZTSN5boost3_bi6bind_tIN3ros17SerializedMessageEPFS3_RKN8std_msgs7String_ISaIvEEEENS0_5list1INS_17reference_wrapperIS8_EEEEEE, i32 0, i32 0) }, comdat
@llvm.global_ctors = appending global [1 x { i32, void ()*, i8* }] [{ i32, void ()*, i8* } { i32 65535, void ()* @_GLOBAL__sub_I_node_class.cpp, i8* null }]

@_ZN4TestC1Ev = alias void (%class.Test*)* @_ZN4TestC2Ev

define internal void @__cxx_global_var_init() section ".text.startup" {
entry:
  call void @_ZNSt8ios_base4InitC1Ev(%"class.std::ios_base::Init"* @_ZStL8__ioinit), !dbg !9986
  %0 = call i32 @__cxa_atexit(void (i8*)* bitcast (void (%"class.std::ios_base::Init"*)* @_ZNSt8ios_base4InitD1Ev to void (i8*)*), i8* getelementptr inbounds (%"class.std::ios_base::Init"* @_ZStL8__ioinit, i32 0, i32 0), i8* @__dso_handle) #1, !dbg !9986
  ret void, !dbg !9986
}

declare void @_ZNSt8ios_base4InitC1Ev(%"class.std::ios_base::Init"*) #0

declare void @_ZNSt8ios_base4InitD1Ev(%"class.std::ios_base::Init"*) #0

; Function Attrs: nounwind
declare i32 @__cxa_atexit(void (i8*)*, i8*, i8*) #1

define internal void @__cxx_global_var_init1() section ".text.startup" {
entry:
  call void @_ZN5boost3argILi1EEC2Ev(%"struct.boost::arg"* @_ZN12_GLOBAL__N_12_1E), !dbg !9987
  ret void, !dbg !9987
}

; Function Attrs: nounwind uwtable
define linkonce_odr void @_ZN5boost3argILi1EEC2Ev(%"struct.boost::arg"* %this) unnamed_addr #2 comdat align 2 {
entry:
  %this.addr = alloca %"struct.boost::arg"*, align 8
  store %"struct.boost::arg"* %this, %"struct.boost::arg"** %this.addr, align 8
  call void @llvm.dbg.declare(metadata %"struct.boost::arg"** %this.addr, metadata !9988, metadata !9990), !dbg !9991
  %this1 = load %"struct.boost::arg"** %this.addr
  ret void, !dbg !9992
}

define internal void @__cxx_global_var_init2() section ".text.startup" {
entry:
  call void @_ZN5boost3argILi2EEC2Ev(%"struct.boost::arg.0"* @_ZN12_GLOBAL__N_12_2E), !dbg !9993
  ret void, !dbg !9993
}

; Function Attrs: nounwind uwtable
define linkonce_odr void @_ZN5boost3argILi2EEC2Ev(%"struct.boost::arg.0"* %this) unnamed_addr #2 comdat align 2 {
entry:
  %this.addr = alloca %"struct.boost::arg.0"*, align 8
  store %"struct.boost::arg.0"* %this, %"struct.boost::arg.0"** %this.addr, align 8
  call void @llvm.dbg.declare(metadata %"struct.boost::arg.0"** %this.addr, metadata !9994, metadata !9990), !dbg !9996
  %this1 = load %"struct.boost::arg.0"** %this.addr
  ret void, !dbg !9997
}

define internal void @__cxx_global_var_init3() section ".text.startup" {
entry:
  call void @_ZN5boost3argILi3EEC2Ev(%"struct.boost::arg.2"* @_ZN12_GLOBAL__N_12_3E), !dbg !9998
  ret void, !dbg !9998
}

; Function Attrs: nounwind uwtable
define linkonce_odr void @_ZN5boost3argILi3EEC2Ev(%"struct.boost::arg.2"* %this) unnamed_addr #2 comdat align 2 {
entry:
  %this.addr = alloca %"struct.boost::arg.2"*, align 8
  store %"struct.boost::arg.2"* %this, %"struct.boost::arg.2"** %this.addr, align 8
  call void @llvm.dbg.declare(metadata %"struct.boost::arg.2"** %this.addr, metadata !9999, metadata !9990), !dbg !10001
  %this1 = load %"struct.boost::arg.2"** %this.addr
  ret void, !dbg !10002
}

define internal void @__cxx_global_var_init4() section ".text.startup" {
entry:
  call void @_ZN5boost3argILi4EEC2Ev(%"struct.boost::arg.4"* @_ZN12_GLOBAL__N_12_4E), !dbg !10003
  ret void, !dbg !10003
}

; Function Attrs: nounwind uwtable
define linkonce_odr void @_ZN5boost3argILi4EEC2Ev(%"struct.boost::arg.4"* %this) unnamed_addr #2 comdat align 2 {
entry:
  %this.addr = alloca %"struct.boost::arg.4"*, align 8
  store %"struct.boost::arg.4"* %this, %"struct.boost::arg.4"** %this.addr, align 8
  call void @llvm.dbg.declare(metadata %"struct.boost::arg.4"** %this.addr, metadata !10004, metadata !9990), !dbg !10006
  %this1 = load %"struct.boost::arg.4"** %this.addr
  ret void, !dbg !10007
}

define internal void @__cxx_global_var_init5() section ".text.startup" {
entry:
  call void @_ZN5boost3argILi5EEC2Ev(%"struct.boost::arg.6"* @_ZN12_GLOBAL__N_12_5E), !dbg !10008
  ret void, !dbg !10008
}

; Function Attrs: nounwind uwtable
define linkonce_odr void @_ZN5boost3argILi5EEC2Ev(%"struct.boost::arg.6"* %this) unnamed_addr #2 comdat align 2 {
entry:
  %this.addr = alloca %"struct.boost::arg.6"*, align 8
  store %"struct.boost::arg.6"* %this, %"struct.boost::arg.6"** %this.addr, align 8
  call void @llvm.dbg.declare(metadata %"struct.boost::arg.6"** %this.addr, metadata !10009, metadata !9990), !dbg !10011
  %this1 = load %"struct.boost::arg.6"** %this.addr
  ret void, !dbg !10012
}

define internal void @__cxx_global_var_init6() section ".text.startup" {
entry:
  call void @_ZN5boost3argILi6EEC2Ev(%"struct.boost::arg.8"* @_ZN12_GLOBAL__N_12_6E), !dbg !10013
  ret void, !dbg !10013
}

; Function Attrs: nounwind uwtable
define linkonce_odr void @_ZN5boost3argILi6EEC2Ev(%"struct.boost::arg.8"* %this) unnamed_addr #2 comdat align 2 {
entry:
  %this.addr = alloca %"struct.boost::arg.8"*, align 8
  store %"struct.boost::arg.8"* %this, %"struct.boost::arg.8"** %this.addr, align 8
  call void @llvm.dbg.declare(metadata %"struct.boost::arg.8"** %this.addr, metadata !10014, metadata !9990), !dbg !10016
  %this1 = load %"struct.boost::arg.8"** %this.addr
  ret void, !dbg !10017
}

define internal void @__cxx_global_var_init7() section ".text.startup" {
entry:
  call void @_ZN5boost3argILi7EEC2Ev(%"struct.boost::arg.10"* @_ZN12_GLOBAL__N_12_7E), !dbg !10018
  ret void, !dbg !10018
}

; Function Attrs: nounwind uwtable
define linkonce_odr void @_ZN5boost3argILi7EEC2Ev(%"struct.boost::arg.10"* %this) unnamed_addr #2 comdat align 2 {
entry:
  %this.addr = alloca %"struct.boost::arg.10"*, align 8
  store %"struct.boost::arg.10"* %this, %"struct.boost::arg.10"** %this.addr, align 8
  call void @llvm.dbg.declare(metadata %"struct.boost::arg.10"** %this.addr, metadata !10019, metadata !9990), !dbg !10021
  %this1 = load %"struct.boost::arg.10"** %this.addr
  ret void, !dbg !10022
}

define internal void @__cxx_global_var_init8() section ".text.startup" {
entry:
  call void @_ZN5boost3argILi8EEC2Ev(%"struct.boost::arg.12"* @_ZN12_GLOBAL__N_12_8E), !dbg !10023
  ret void, !dbg !10023
}

; Function Attrs: nounwind uwtable
define linkonce_odr void @_ZN5boost3argILi8EEC2Ev(%"struct.boost::arg.12"* %this) unnamed_addr #2 comdat align 2 {
entry:
  %this.addr = alloca %"struct.boost::arg.12"*, align 8
  store %"struct.boost::arg.12"* %this, %"struct.boost::arg.12"** %this.addr, align 8
  call void @llvm.dbg.declare(metadata %"struct.boost::arg.12"** %this.addr, metadata !10024, metadata !9990), !dbg !10026
  %this1 = load %"struct.boost::arg.12"** %this.addr
  ret void, !dbg !10027
}

define internal void @__cxx_global_var_init9() section ".text.startup" {
entry:
  call void @_ZN5boost3argILi9EEC2Ev(%"struct.boost::arg.14"* @_ZN12_GLOBAL__N_12_9E), !dbg !10028
  ret void, !dbg !10028
}

; Function Attrs: nounwind uwtable
define linkonce_odr void @_ZN5boost3argILi9EEC2Ev(%"struct.boost::arg.14"* %this) unnamed_addr #2 comdat align 2 {
entry:
  %this.addr = alloca %"struct.boost::arg.14"*, align 8
  store %"struct.boost::arg.14"* %this, %"struct.boost::arg.14"** %this.addr, align 8
  call void @llvm.dbg.declare(metadata %"struct.boost::arg.14"** %this.addr, metadata !10029, metadata !9990), !dbg !10031
  %this1 = load %"struct.boost::arg.14"** %this.addr
  ret void, !dbg !10032
}

; Function Attrs: uwtable
define void @_ZN4TestC2Ev(%class.Test* %this) unnamed_addr #3 align 2 {
entry:
  %this.addr = alloca %class.Test*, align 8
  %ref.tmp = alloca %"class.std::basic_string", align 8
  %ref.tmp2 = alloca %"class.std::allocator", align 1
  %exn.slot = alloca i8*
  %ehselector.slot = alloca i32
  %ref.tmp3 = alloca %"class.std::map", align 8
  %ref.tmp13 = alloca %"class.std::basic_string", align 8
  %ref.tmp16 = alloca %"class.std::map", align 8
  %ref.tmp34 = alloca %"class.std::basic_string", align 8
  %ref.tmp35 = alloca %"class.std::allocator", align 1
  %ref.tmp38 = alloca i32, align 4
  %ref.tmp51 = alloca %"class.std::basic_string", align 8
  %ref.tmp52 = alloca %"class.std::allocator", align 1
  %enabled = alloca i8, align 1
  %ref.tmp74 = alloca %"class.ros::Publisher", align 8
  %ref.tmp76 = alloca %"class.std::basic_string", align 8
  %ref.tmp77 = alloca %"class.std::allocator", align 1
  %ref.tmp92 = alloca %"class.ros::Publisher", align 8
  %ref.tmp94 = alloca %"class.std::basic_string", align 8
  %ref.tmp95 = alloca %"class.std::allocator", align 1
  %ref.tmp111 = alloca %"class.ros::Subscriber", align 8
  %ref.tmp113 = alloca %"class.std::basic_string", align 8
  %ref.tmp114 = alloca %"class.std::allocator", align 1
  %ref.tmp117 = alloca %"class.ros::TransportHints", align 8
  %coerce = alloca { i64, i64 }, align 8
  store %class.Test* %this, %class.Test** %this.addr, align 8
  call void @llvm.dbg.declare(metadata %class.Test** %this.addr, metadata !10033, metadata !9990), !dbg !10034
  %this1 = load %class.Test** %this.addr
  %private_nh_ = getelementptr inbounds %class.Test* %this1, i32 0, i32 0, !dbg !10035
  call void @_ZNSaIcEC1Ev(%"class.std::allocator"* %ref.tmp2) #1, !dbg !10036
  invoke void @_ZNSsC1EPKcRKSaIcE(%"class.std::basic_string"* %ref.tmp, i8* getelementptr inbounds ([2 x i8]* @.str, i32 0, i32 0), %"class.std::allocator"* dereferenceable(1) %ref.tmp2)
          to label %invoke.cont unwind label %lpad, !dbg !10036

invoke.cont:                                      ; preds = %entry
  invoke void @_ZNSt3mapISsSsSt4lessISsESaISt4pairIKSsSsEEEC2Ev(%"class.std::map"* %ref.tmp3)
          to label %invoke.cont5 unwind label %lpad4, !dbg !10037

invoke.cont5:                                     ; preds = %invoke.cont
  invoke void @_ZN3ros10NodeHandleC1ERKSsRKSt3mapISsSsSt4lessISsESaISt4pairIS1_SsEEE(%"class.ros::NodeHandle"* %private_nh_, %"class.std::basic_string"* dereferenceable(8) %ref.tmp, %"class.std::map"* dereferenceable(48) %ref.tmp3)
          to label %invoke.cont7 unwind label %lpad6, !dbg !10039

invoke.cont7:                                     ; preds = %invoke.cont5
  invoke void @_ZNSt3mapISsSsSt4lessISsESaISt4pairIKSsSsEEED2Ev(%"class.std::map"* %ref.tmp3)
          to label %invoke.cont8 unwind label %lpad4, !dbg !10041

invoke.cont8:                                     ; preds = %invoke.cont7
  invoke void @_ZNSsD1Ev(%"class.std::basic_string"* %ref.tmp)
          to label %invoke.cont10 unwind label %lpad, !dbg !10043

invoke.cont10:                                    ; preds = %invoke.cont8
  call void @_ZNSaIcED1Ev(%"class.std::allocator"* %ref.tmp2) #1, !dbg !10045
  %nh = getelementptr inbounds %class.Test* %this1, i32 0, i32 1, !dbg !10047
  invoke void @_ZNSsC1Ev(%"class.std::basic_string"* %ref.tmp13)
          to label %invoke.cont15 unwind label %lpad14, !dbg !10047

invoke.cont15:                                    ; preds = %invoke.cont10
  invoke void @_ZNSt3mapISsSsSt4lessISsESaISt4pairIKSsSsEEEC2Ev(%"class.std::map"* %ref.tmp16)
          to label %invoke.cont18 unwind label %lpad17, !dbg !10048

invoke.cont18:                                    ; preds = %invoke.cont15
  invoke void @_ZN3ros10NodeHandleC1ERKSsRKSt3mapISsSsSt4lessISsESaISt4pairIS1_SsEEE(%"class.ros::NodeHandle"* %nh, %"class.std::basic_string"* dereferenceable(8) %ref.tmp13, %"class.std::map"* dereferenceable(48) %ref.tmp16)
          to label %invoke.cont20 unwind label %lpad19, !dbg !10050

invoke.cont20:                                    ; preds = %invoke.cont18
  invoke void @_ZNSt3mapISsSsSt4lessISsESaISt4pairIKSsSsEEED2Ev(%"class.std::map"* %ref.tmp16)
          to label %invoke.cont21 unwind label %lpad17, !dbg !10052

invoke.cont21:                                    ; preds = %invoke.cont20
  invoke void @_ZNSsD1Ev(%"class.std::basic_string"* %ref.tmp13)
          to label %invoke.cont24 unwind label %lpad14, !dbg !10054

invoke.cont24:                                    ; preds = %invoke.cont21
  %msg_sub = getelementptr inbounds %class.Test* %this1, i32 0, i32 3, !dbg !10056
  invoke void @_ZN3ros10SubscriberC2Ev(%"class.ros::Subscriber"* %msg_sub)
          to label %invoke.cont28 unwind label %lpad27, !dbg !10056

invoke.cont28:                                    ; preds = %invoke.cont24
  %msg_pub = getelementptr inbounds %class.Test* %this1, i32 0, i32 4, !dbg !10058
  invoke void @_ZN3ros9PublisherC2Ev(%"class.ros::Publisher"* %msg_pub)
          to label %invoke.cont30 unwind label %lpad29, !dbg !10058

invoke.cont30:                                    ; preds = %invoke.cont28
  %other_pub = getelementptr inbounds %class.Test* %this1, i32 0, i32 5, !dbg !10060
  invoke void @_ZN3ros9PublisherC2Ev(%"class.ros::Publisher"* %other_pub)
          to label %invoke.cont32 unwind label %lpad31, !dbg !10060

invoke.cont32:                                    ; preds = %invoke.cont30
  %private_nh_33 = getelementptr inbounds %class.Test* %this1, i32 0, i32 0, !dbg !10062
  call void @_ZNSaIcEC1Ev(%"class.std::allocator"* %ref.tmp35) #1, !dbg !10064
  invoke void @_ZNSsC1EPKcRKSaIcE(%"class.std::basic_string"* %ref.tmp34, i8* getelementptr inbounds ([11 x i8]* @.str10, i32 0, i32 0), %"class.std::allocator"* dereferenceable(1) %ref.tmp35)
          to label %invoke.cont37 unwind label %lpad36, !dbg !10064

invoke.cont37:                                    ; preds = %invoke.cont32
  %_threshold = getelementptr inbounds %class.Test* %this1, i32 0, i32 2, !dbg !10065
  store i32 42, i32* %ref.tmp38, !dbg !10067
  invoke void @_ZNK3ros10NodeHandle5paramIiEEvRKSsRT_RKS4_(%"class.ros::NodeHandle"* %private_nh_33, %"class.std::basic_string"* dereferenceable(8) %ref.tmp34, i32* dereferenceable(4) %_threshold, i32* dereferenceable(4) %ref.tmp38)
          to label %invoke.cont40 unwind label %lpad39, !dbg !10062

invoke.cont40:                                    ; preds = %invoke.cont37
  invoke void @_ZNSsD1Ev(%"class.std::basic_string"* %ref.tmp34)
          to label %invoke.cont41 unwind label %lpad36, !dbg !10068

invoke.cont41:                                    ; preds = %invoke.cont40
  call void @_ZNSaIcED1Ev(%"class.std::allocator"* %ref.tmp35) #1, !dbg !10070
  br label %do.body, !dbg !10072

do.body:                                          ; preds = %invoke.cont41
  br label %do.body45, !dbg !10073

do.body45:                                        ; preds = %do.body
  %0 = load i8* @_ZN3ros7console13g_initializedE, align 1, !dbg !10076
  %tobool = trunc i8 %0 to i1, !dbg !10076
  %lnot = xor i1 %tobool, true, !dbg !10076
  br i1 %lnot, label %if.then, label %if.end, !dbg !10080

if.then:                                          ; preds = %do.body45
  invoke void @_ZN3ros7console10initializeEv()
          to label %invoke.cont47 unwind label %lpad46, !dbg !10081

invoke.cont47:                                    ; preds = %if.then
  br label %if.end, !dbg !10084

lpad:                                             ; preds = %invoke.cont8, %entry
  %1 = landingpad { i8*, i32 } personality i8* bitcast (i32 (...)* @__gxx_personality_v0 to i8*)
          cleanup, !dbg !10086
  %2 = extractvalue { i8*, i32 } %1, 0, !dbg !10086
  store i8* %2, i8** %exn.slot, !dbg !10086
  %3 = extractvalue { i8*, i32 } %1, 1, !dbg !10086
  store i32 %3, i32* %ehselector.slot, !dbg !10086
  br label %ehcleanup12, !dbg !10086

lpad4:                                            ; preds = %invoke.cont7, %invoke.cont
  %4 = landingpad { i8*, i32 } personality i8* bitcast (i32 (...)* @__gxx_personality_v0 to i8*)
          cleanup, !dbg !10087
  %5 = extractvalue { i8*, i32 } %4, 0, !dbg !10087
  store i8* %5, i8** %exn.slot, !dbg !10087
  %6 = extractvalue { i8*, i32 } %4, 1, !dbg !10087
  store i32 %6, i32* %ehselector.slot, !dbg !10087
  br label %ehcleanup, !dbg !10087

lpad6:                                            ; preds = %invoke.cont5
  %7 = landingpad { i8*, i32 } personality i8* bitcast (i32 (...)* @__gxx_personality_v0 to i8*)
          cleanup, !dbg !10086
  %8 = extractvalue { i8*, i32 } %7, 0, !dbg !10086
  store i8* %8, i8** %exn.slot, !dbg !10086
  %9 = extractvalue { i8*, i32 } %7, 1, !dbg !10086
  store i32 %9, i32* %ehselector.slot, !dbg !10086
  invoke void @_ZNSt3mapISsSsSt4lessISsESaISt4pairIKSsSsEEED2Ev(%"class.std::map"* %ref.tmp3)
          to label %invoke.cont9 unwind label %terminate.lpad, !dbg !10035

invoke.cont9:                                     ; preds = %lpad6
  br label %ehcleanup, !dbg !10090

ehcleanup:                                        ; preds = %invoke.cont9, %lpad4
  invoke void @_ZNSsD1Ev(%"class.std::basic_string"* %ref.tmp)
          to label %invoke.cont11 unwind label %terminate.lpad, !dbg !10092

invoke.cont11:                                    ; preds = %ehcleanup
  br label %ehcleanup12, !dbg !10095

ehcleanup12:                                      ; preds = %invoke.cont11, %lpad
  call void @_ZNSaIcED1Ev(%"class.std::allocator"* %ref.tmp2) #1, !dbg !10097
  br label %eh.resume, !dbg !10097

lpad14:                                           ; preds = %invoke.cont21, %invoke.cont10
  %10 = landingpad { i8*, i32 } personality i8* bitcast (i32 (...)* @__gxx_personality_v0 to i8*)
          cleanup, !dbg !10099
  %11 = extractvalue { i8*, i32 } %10, 0, !dbg !10099
  store i8* %11, i8** %exn.slot, !dbg !10099
  %12 = extractvalue { i8*, i32 } %10, 1, !dbg !10099
  store i32 %12, i32* %ehselector.slot, !dbg !10099
  br label %ehcleanup143, !dbg !10099

lpad17:                                           ; preds = %invoke.cont20, %invoke.cont15
  %13 = landingpad { i8*, i32 } personality i8* bitcast (i32 (...)* @__gxx_personality_v0 to i8*)
          cleanup, !dbg !10102
  %14 = extractvalue { i8*, i32 } %13, 0, !dbg !10102
  store i8* %14, i8** %exn.slot, !dbg !10102
  %15 = extractvalue { i8*, i32 } %13, 1, !dbg !10102
  store i32 %15, i32* %ehselector.slot, !dbg !10102
  br label %ehcleanup25, !dbg !10102

lpad19:                                           ; preds = %invoke.cont18
  %16 = landingpad { i8*, i32 } personality i8* bitcast (i32 (...)* @__gxx_personality_v0 to i8*)
          cleanup, !dbg !10086
  %17 = extractvalue { i8*, i32 } %16, 0, !dbg !10086
  store i8* %17, i8** %exn.slot, !dbg !10086
  %18 = extractvalue { i8*, i32 } %16, 1, !dbg !10086
  store i32 %18, i32* %ehselector.slot, !dbg !10086
  invoke void @_ZNSt3mapISsSsSt4lessISsESaISt4pairIKSsSsEEED2Ev(%"class.std::map"* %ref.tmp16)
          to label %invoke.cont23 unwind label %terminate.lpad, !dbg !10047

invoke.cont23:                                    ; preds = %lpad19
  br label %ehcleanup25, !dbg !10105

ehcleanup25:                                      ; preds = %invoke.cont23, %lpad17
  invoke void @_ZNSsD1Ev(%"class.std::basic_string"* %ref.tmp13)
          to label %invoke.cont26 unwind label %terminate.lpad, !dbg !10107

invoke.cont26:                                    ; preds = %ehcleanup25
  br label %ehcleanup143, !dbg !10110

lpad27:                                           ; preds = %invoke.cont24
  %19 = landingpad { i8*, i32 } personality i8* bitcast (i32 (...)* @__gxx_personality_v0 to i8*)
          cleanup, !dbg !10086
  %20 = extractvalue { i8*, i32 } %19, 0, !dbg !10086
  store i8* %20, i8** %exn.slot, !dbg !10086
  %21 = extractvalue { i8*, i32 } %19, 1, !dbg !10086
  store i32 %21, i32* %ehselector.slot, !dbg !10086
  br label %ehcleanup141, !dbg !10086

lpad29:                                           ; preds = %invoke.cont28
  %22 = landingpad { i8*, i32 } personality i8* bitcast (i32 (...)* @__gxx_personality_v0 to i8*)
          cleanup, !dbg !10086
  %23 = extractvalue { i8*, i32 } %22, 0, !dbg !10086
  store i8* %23, i8** %exn.slot, !dbg !10086
  %24 = extractvalue { i8*, i32 } %22, 1, !dbg !10086
  store i32 %24, i32* %ehselector.slot, !dbg !10086
  br label %ehcleanup139, !dbg !10086

lpad31:                                           ; preds = %invoke.cont30
  %25 = landingpad { i8*, i32 } personality i8* bitcast (i32 (...)* @__gxx_personality_v0 to i8*)
          cleanup, !dbg !10086
  %26 = extractvalue { i8*, i32 } %25, 0, !dbg !10086
  store i8* %26, i8** %exn.slot, !dbg !10086
  %27 = extractvalue { i8*, i32 } %25, 1, !dbg !10086
  store i32 %27, i32* %ehselector.slot, !dbg !10086
  br label %ehcleanup137, !dbg !10086

lpad36:                                           ; preds = %invoke.cont40, %invoke.cont32
  %28 = landingpad { i8*, i32 } personality i8* bitcast (i32 (...)* @__gxx_personality_v0 to i8*)
          cleanup, !dbg !10112
  %29 = extractvalue { i8*, i32 } %28, 0, !dbg !10112
  store i8* %29, i8** %exn.slot, !dbg !10112
  %30 = extractvalue { i8*, i32 } %28, 1, !dbg !10112
  store i32 %30, i32* %ehselector.slot, !dbg !10112
  br label %ehcleanup44, !dbg !10112

lpad39:                                           ; preds = %invoke.cont37
  %31 = landingpad { i8*, i32 } personality i8* bitcast (i32 (...)* @__gxx_personality_v0 to i8*)
          cleanup, !dbg !10112
  %32 = extractvalue { i8*, i32 } %31, 0, !dbg !10112
  store i8* %32, i8** %exn.slot, !dbg !10112
  %33 = extractvalue { i8*, i32 } %31, 1, !dbg !10112
  store i32 %33, i32* %ehselector.slot, !dbg !10112
  invoke void @_ZNSsD1Ev(%"class.std::basic_string"* %ref.tmp34)
          to label %invoke.cont43 unwind label %terminate.lpad, !dbg !10062

invoke.cont43:                                    ; preds = %lpad39
  br label %ehcleanup44, !dbg !10113

ehcleanup44:                                      ; preds = %invoke.cont43, %lpad36
  call void @_ZNSaIcED1Ev(%"class.std::allocator"* %ref.tmp35) #1, !dbg !10115
  br label %ehcleanup135, !dbg !10115

lpad46:                                           ; preds = %if.then68, %invoke.cont63, %if.then62, %if.then
  %34 = landingpad { i8*, i32 } personality i8* bitcast (i32 (...)* @__gxx_personality_v0 to i8*)
          cleanup, !dbg !10117
  %35 = extractvalue { i8*, i32 } %34, 0, !dbg !10117
  store i8* %35, i8** %exn.slot, !dbg !10117
  %36 = extractvalue { i8*, i32 } %34, 1, !dbg !10117
  store i32 %36, i32* %ehselector.slot, !dbg !10117
  br label %ehcleanup135, !dbg !10117

if.end:                                           ; preds = %invoke.cont47, %do.body45
  br label %do.cond, !dbg !10118

do.cond:                                          ; preds = %if.end
  br label %do.end, !dbg !10121

do.end:                                           ; preds = %do.cond
  %37 = load i8* getelementptr inbounds (%"struct.ros::console::LogLocation"* @_ZZN4TestC1EvE3loc, i32 0, i32 0), align 1, !dbg !10123
  %tobool48 = trunc i8 %37 to i1, !dbg !10123
  %lnot49 = xor i1 %tobool48, true, !dbg !10123
  br i1 %lnot49, label %if.then50, label %if.end61, !dbg !10126

if.then50:                                        ; preds = %do.end
  call void @_ZNSaIcEC1Ev(%"class.std::allocator"* %ref.tmp52) #1, !dbg !10127
  invoke void @_ZNSsC1EPKcRKSaIcE(%"class.std::basic_string"* %ref.tmp51, i8* getelementptr inbounds ([20 x i8]* @.str11, i32 0, i32 0), %"class.std::allocator"* dereferenceable(1) %ref.tmp52)
          to label %invoke.cont54 unwind label %lpad53, !dbg !10127

invoke.cont54:                                    ; preds = %if.then50
  invoke void @_ZN3ros7console21initializeLogLocationEPNS0_11LogLocationERKSsNS0_6levels5LevelE(%"struct.ros::console::LogLocation"* @_ZZN4TestC1EvE3loc, %"class.std::basic_string"* dereferenceable(8) %ref.tmp51, i32 1)
          to label %invoke.cont56 unwind label %lpad55, !dbg !10130

invoke.cont56:                                    ; preds = %invoke.cont54
  invoke void @_ZNSsD1Ev(%"class.std::basic_string"* %ref.tmp51)
          to label %invoke.cont57 unwind label %lpad53, !dbg !10132

invoke.cont57:                                    ; preds = %invoke.cont56
  call void @_ZNSaIcED1Ev(%"class.std::allocator"* %ref.tmp52) #1, !dbg !10134
  br label %if.end61, !dbg !10134

lpad53:                                           ; preds = %invoke.cont56, %if.then50
  %38 = landingpad { i8*, i32 } personality i8* bitcast (i32 (...)* @__gxx_personality_v0 to i8*)
          cleanup, !dbg !10136
  %39 = extractvalue { i8*, i32 } %38, 0, !dbg !10136
  store i8* %39, i8** %exn.slot, !dbg !10136
  %40 = extractvalue { i8*, i32 } %38, 1, !dbg !10136
  store i32 %40, i32* %ehselector.slot, !dbg !10136
  br label %ehcleanup60, !dbg !10136

lpad55:                                           ; preds = %invoke.cont54
  %41 = landingpad { i8*, i32 } personality i8* bitcast (i32 (...)* @__gxx_personality_v0 to i8*)
          cleanup, !dbg !10136
  %42 = extractvalue { i8*, i32 } %41, 0, !dbg !10136
  store i8* %42, i8** %exn.slot, !dbg !10136
  %43 = extractvalue { i8*, i32 } %41, 1, !dbg !10136
  store i32 %43, i32* %ehselector.slot, !dbg !10136
  invoke void @_ZNSsD1Ev(%"class.std::basic_string"* %ref.tmp51)
          to label %invoke.cont59 unwind label %terminate.lpad, !dbg !10137

invoke.cont59:                                    ; preds = %lpad55
  br label %ehcleanup60, !dbg !10138

ehcleanup60:                                      ; preds = %invoke.cont59, %lpad53
  call void @_ZNSaIcED1Ev(%"class.std::allocator"* %ref.tmp52) #1, !dbg !10140
  br label %ehcleanup135, !dbg !10140

if.end61:                                         ; preds = %invoke.cont57, %do.end
  %44 = load i32* getelementptr inbounds (%"struct.ros::console::LogLocation"* @_ZZN4TestC1EvE3loc, i32 0, i32 2), align 4, !dbg !10142
  %cmp = icmp ne i32 %44, 1, !dbg !10142
  br i1 %cmp, label %if.then62, label %if.end65, !dbg !10126

if.then62:                                        ; preds = %if.end61
  invoke void @_ZN3ros7console19setLogLocationLevelEPNS0_11LogLocationENS0_6levels5LevelE(%"struct.ros::console::LogLocation"* @_ZZN4TestC1EvE3loc, i32 1)
          to label %invoke.cont63 unwind label %lpad46, !dbg !10146

invoke.cont63:                                    ; preds = %if.then62
  invoke void @_ZN3ros7console23checkLogLocationEnabledEPNS0_11LogLocationE(%"struct.ros::console::LogLocation"* @_ZZN4TestC1EvE3loc)
          to label %invoke.cont64 unwind label %lpad46, !dbg !10149

invoke.cont64:                                    ; preds = %invoke.cont63
  br label %if.end65, !dbg !10151

if.end65:                                         ; preds = %invoke.cont64, %if.end61
  call void @llvm.dbg.declare(metadata i8* %enabled, metadata !10153, metadata !9990), !dbg !10126
  %45 = load i8* getelementptr inbounds (%"struct.ros::console::LogLocation"* @_ZZN4TestC1EvE3loc, i32 0, i32 1), align 1, !dbg !10154
  %tobool66 = trunc i8 %45 to i1, !dbg !10154
  br i1 %tobool66, label %land.rhs, label %land.end, !dbg !10154

land.rhs:                                         ; preds = %if.end65
  br label %land.end

land.end:                                         ; preds = %land.rhs, %if.end65
  %46 = phi i1 [ false, %if.end65 ], [ true, %land.rhs ]
  %frombool = zext i1 %46 to i8, !dbg !10157
  store i8 %frombool, i8* %enabled, align 1, !dbg !10157
  %47 = load i8* %enabled, align 1, !dbg !10159
  %tobool67 = trunc i8 %47 to i1, !dbg !10159
  br i1 %tobool67, label %if.then68, label %if.end70, !dbg !10126

if.then68:                                        ; preds = %land.end
  %48 = load %"class.log4cxx::Logger"** getelementptr inbounds (%"struct.ros::console::LogLocation"* @_ZZN4TestC1EvE3loc, i32 0, i32 3), align 8, !dbg !10161
  %49 = load i32* getelementptr inbounds (%"struct.ros::console::LogLocation"* @_ZZN4TestC1EvE3loc, i32 0, i32 2), align 4, !dbg !10161
  invoke void (%"class.ros::console::FilterBase"*, %"class.log4cxx::Logger"*, i32, i8*, i32, i8*, i8*, ...)* @_ZN3ros7console5printEPNS0_10FilterBaseEPN7log4cxx6LoggerENS0_6levels5LevelEPKciS9_S9_z(%"class.ros::console::FilterBase"* null, %"class.log4cxx::Logger"* %48, i32 %49, i8* getelementptr inbounds ([15 x i8]* @.str12, i32 0, i32 0), i32 32, i8* getelementptr inbounds ([13 x i8]* @__PRETTY_FUNCTION__._ZN4TestC2Ev, i32 0, i32 0), i8* getelementptr inbounds ([15 x i8]* @.str13, i32 0, i32 0))
          to label %invoke.cont69 unwind label %lpad46, !dbg !10161

invoke.cont69:                                    ; preds = %if.then68
  br label %if.end70, !dbg !10164

if.end70:                                         ; preds = %invoke.cont69, %land.end
  br label %do.cond71, !dbg !10166

do.cond71:                                        ; preds = %if.end70
  br label %do.end72, !dbg !10169

do.end72:                                         ; preds = %do.cond71
  %msg_pub73 = getelementptr inbounds %class.Test* %this1, i32 0, i32 4, !dbg !10171
  %nh75 = getelementptr inbounds %class.Test* %this1, i32 0, i32 1, !dbg !10172
  call void @_ZNSaIcEC1Ev(%"class.std::allocator"* %ref.tmp77) #1, !dbg !10173
  invoke void @_ZNSsC1EPKcRKSaIcE(%"class.std::basic_string"* %ref.tmp76, i8* getelementptr inbounds ([15 x i8]* @.str14, i32 0, i32 0), %"class.std::allocator"* dereferenceable(1) %ref.tmp77)
          to label %invoke.cont79 unwind label %lpad78, !dbg !10173

invoke.cont79:                                    ; preds = %do.end72
  invoke void @_ZN3ros10NodeHandle9advertiseIN8std_msgs7String_ISaIvEEEEENS_9PublisherERKSsjb(%"class.ros::Publisher"* sret %ref.tmp74, %"class.ros::NodeHandle"* %nh75, %"class.std::basic_string"* dereferenceable(8) %ref.tmp76, i32 2, i1 zeroext false)
          to label %invoke.cont81 unwind label %lpad80, !dbg !10174

invoke.cont81:                                    ; preds = %invoke.cont79
  %call = invoke dereferenceable(16) %"class.ros::Publisher"* @_ZN3ros9PublisheraSERKS0_(%"class.ros::Publisher"* %msg_pub73, %"class.ros::Publisher"* dereferenceable(16) %ref.tmp74)
          to label %invoke.cont83 unwind label %lpad82, !dbg !10175

invoke.cont83:                                    ; preds = %invoke.cont81
  invoke void @_ZN3ros9PublisherD1Ev(%"class.ros::Publisher"* %ref.tmp74)
          to label %invoke.cont84 unwind label %lpad80, !dbg !10176

invoke.cont84:                                    ; preds = %invoke.cont83
  invoke void @_ZNSsD1Ev(%"class.std::basic_string"* %ref.tmp76)
          to label %invoke.cont87 unwind label %lpad78, !dbg !10177

invoke.cont87:                                    ; preds = %invoke.cont84
  call void @_ZNSaIcED1Ev(%"class.std::allocator"* %ref.tmp77) #1, !dbg !10178
  %other_pub91 = getelementptr inbounds %class.Test* %this1, i32 0, i32 5, !dbg !10179
  %nh93 = getelementptr inbounds %class.Test* %this1, i32 0, i32 1, !dbg !10180
  call void @_ZNSaIcEC1Ev(%"class.std::allocator"* %ref.tmp95) #1, !dbg !10181
  invoke void @_ZNSsC1EPKcRKSaIcE(%"class.std::basic_string"* %ref.tmp94, i8* getelementptr inbounds ([10 x i8]* @.str15, i32 0, i32 0), %"class.std::allocator"* dereferenceable(1) %ref.tmp95)
          to label %invoke.cont97 unwind label %lpad96, !dbg !10181

invoke.cont97:                                    ; preds = %invoke.cont87
  invoke void @_ZN3ros10NodeHandle9advertiseIN8std_msgs7String_ISaIvEEEEENS_9PublisherERKSsjb(%"class.ros::Publisher"* sret %ref.tmp92, %"class.ros::NodeHandle"* %nh93, %"class.std::basic_string"* dereferenceable(8) %ref.tmp94, i32 2, i1 zeroext false)
          to label %invoke.cont99 unwind label %lpad98, !dbg !10182

invoke.cont99:                                    ; preds = %invoke.cont97
  %call102 = invoke dereferenceable(16) %"class.ros::Publisher"* @_ZN3ros9PublisheraSERKS0_(%"class.ros::Publisher"* %other_pub91, %"class.ros::Publisher"* dereferenceable(16) %ref.tmp92)
          to label %invoke.cont101 unwind label %lpad100, !dbg !10183

invoke.cont101:                                   ; preds = %invoke.cont99
  invoke void @_ZN3ros9PublisherD1Ev(%"class.ros::Publisher"* %ref.tmp92)
          to label %invoke.cont103 unwind label %lpad98, !dbg !10184

invoke.cont103:                                   ; preds = %invoke.cont101
  invoke void @_ZNSsD1Ev(%"class.std::basic_string"* %ref.tmp94)
          to label %invoke.cont106 unwind label %lpad96, !dbg !10185

invoke.cont106:                                   ; preds = %invoke.cont103
  call void @_ZNSaIcED1Ev(%"class.std::allocator"* %ref.tmp95) #1, !dbg !10186
  %msg_sub110 = getelementptr inbounds %class.Test* %this1, i32 0, i32 3, !dbg !10187
  %nh112 = getelementptr inbounds %class.Test* %this1, i32 0, i32 1, !dbg !10188
  call void @_ZNSaIcEC1Ev(%"class.std::allocator"* %ref.tmp114) #1, !dbg !10189
  invoke void @_ZNSsC1EPKcRKSaIcE(%"class.std::basic_string"* %ref.tmp113, i8* getelementptr inbounds ([13 x i8]* @.str16, i32 0, i32 0), %"class.std::allocator"* dereferenceable(1) %ref.tmp114)
          to label %invoke.cont116 unwind label %lpad115, !dbg !10189

invoke.cont116:                                   ; preds = %invoke.cont106
  %50 = bitcast %"class.ros::TransportHints"* %ref.tmp117 to i8*, !dbg !10190
  call void @llvm.memset.p0i8.i64(i8* %50, i8 0, i64 72, i32 8, i1 false), !dbg !10190
  invoke void @_ZN3ros14TransportHintsC2Ev(%"class.ros::TransportHints"* %ref.tmp117)
          to label %invoke.cont119 unwind label %lpad118, !dbg !10190

invoke.cont119:                                   ; preds = %invoke.cont116
  store { i64, i64 } { i64 ptrtoint (void (%class.Test*, %"class.boost::shared_ptr.35"*)* @_ZN4Test14callbackSimpleERKN5boost10shared_ptrIKN8std_msgs8Float64_ISaIvEEEEE to i64), i64 0 }, { i64, i64 }* %coerce, align 8, !dbg !10191
  %51 = getelementptr { i64, i64 }* %coerce, i32 0, i32 0, !dbg !10191
  %52 = load i64* %51, align 1, !dbg !10191
  %53 = getelementptr { i64, i64 }* %coerce, i32 0, i32 1, !dbg !10191
  %54 = load i64* %53, align 1, !dbg !10191
  invoke void @_ZN3ros10NodeHandle9subscribeIN8std_msgs8Float64_ISaIvEEE4TestEENS_10SubscriberERKSsjMT0_FvRKN5boost10shared_ptrIKT_EEEPSA_RKNS_14TransportHintsE(%"class.ros::Subscriber"* sret %ref.tmp111, %"class.ros::NodeHandle"* %nh112, %"class.std::basic_string"* dereferenceable(8) %ref.tmp113, i32 1, i64 %52, i64 %54, %class.Test* %this1, %"class.ros::TransportHints"* dereferenceable(72) %ref.tmp117)
          to label %invoke.cont121 unwind label %lpad120, !dbg !10191

invoke.cont121:                                   ; preds = %invoke.cont119
  %call124 = invoke dereferenceable(16) %"class.ros::Subscriber"* @_ZN3ros10SubscriberaSERKS0_(%"class.ros::Subscriber"* %msg_sub110, %"class.ros::Subscriber"* dereferenceable(16) %ref.tmp111)
          to label %invoke.cont123 unwind label %lpad122, !dbg !10192

invoke.cont123:                                   ; preds = %invoke.cont121
  invoke void @_ZN3ros10SubscriberD1Ev(%"class.ros::Subscriber"* %ref.tmp111)
          to label %invoke.cont125 unwind label %lpad120, !dbg !10193

invoke.cont125:                                   ; preds = %invoke.cont123
  invoke void @_ZN3ros14TransportHintsD2Ev(%"class.ros::TransportHints"* %ref.tmp117)
          to label %invoke.cont128 unwind label %lpad118, !dbg !10194

invoke.cont128:                                   ; preds = %invoke.cont125
  invoke void @_ZNSsD1Ev(%"class.std::basic_string"* %ref.tmp113)
          to label %invoke.cont131 unwind label %lpad115, !dbg !10196

invoke.cont131:                                   ; preds = %invoke.cont128
  call void @_ZNSaIcED1Ev(%"class.std::allocator"* %ref.tmp114) #1, !dbg !10198
  ret void, !dbg !10086

lpad78:                                           ; preds = %invoke.cont84, %do.end72
  %55 = landingpad { i8*, i32 } personality i8* bitcast (i32 (...)* @__gxx_personality_v0 to i8*)
          cleanup, !dbg !10112
  %56 = extractvalue { i8*, i32 } %55, 0, !dbg !10112
  store i8* %56, i8** %exn.slot, !dbg !10112
  %57 = extractvalue { i8*, i32 } %55, 1, !dbg !10112
  store i32 %57, i32* %ehselector.slot, !dbg !10112
  br label %ehcleanup90, !dbg !10112

lpad80:                                           ; preds = %invoke.cont83, %invoke.cont79
  %58 = landingpad { i8*, i32 } personality i8* bitcast (i32 (...)* @__gxx_personality_v0 to i8*)
          cleanup, !dbg !10112
  %59 = extractvalue { i8*, i32 } %58, 0, !dbg !10112
  store i8* %59, i8** %exn.slot, !dbg !10112
  %60 = extractvalue { i8*, i32 } %58, 1, !dbg !10112
  store i32 %60, i32* %ehselector.slot, !dbg !10112
  br label %ehcleanup88, !dbg !10112

lpad82:                                           ; preds = %invoke.cont81
  %61 = landingpad { i8*, i32 } personality i8* bitcast (i32 (...)* @__gxx_personality_v0 to i8*)
          cleanup, !dbg !10112
  %62 = extractvalue { i8*, i32 } %61, 0, !dbg !10112
  store i8* %62, i8** %exn.slot, !dbg !10112
  %63 = extractvalue { i8*, i32 } %61, 1, !dbg !10112
  store i32 %63, i32* %ehselector.slot, !dbg !10112
  invoke void @_ZN3ros9PublisherD1Ev(%"class.ros::Publisher"* %ref.tmp74)
          to label %invoke.cont86 unwind label %terminate.lpad, !dbg !10171

invoke.cont86:                                    ; preds = %lpad82
  br label %ehcleanup88, !dbg !10200

ehcleanup88:                                      ; preds = %invoke.cont86, %lpad80
  invoke void @_ZNSsD1Ev(%"class.std::basic_string"* %ref.tmp76)
          to label %invoke.cont89 unwind label %terminate.lpad, !dbg !10201

invoke.cont89:                                    ; preds = %ehcleanup88
  br label %ehcleanup90, !dbg !10202

ehcleanup90:                                      ; preds = %invoke.cont89, %lpad78
  call void @_ZNSaIcED1Ev(%"class.std::allocator"* %ref.tmp77) #1, !dbg !10204
  br label %ehcleanup135, !dbg !10204

lpad96:                                           ; preds = %invoke.cont103, %invoke.cont87
  %64 = landingpad { i8*, i32 } personality i8* bitcast (i32 (...)* @__gxx_personality_v0 to i8*)
          cleanup, !dbg !10112
  %65 = extractvalue { i8*, i32 } %64, 0, !dbg !10112
  store i8* %65, i8** %exn.slot, !dbg !10112
  %66 = extractvalue { i8*, i32 } %64, 1, !dbg !10112
  store i32 %66, i32* %ehselector.slot, !dbg !10112
  br label %ehcleanup109, !dbg !10112

lpad98:                                           ; preds = %invoke.cont101, %invoke.cont97
  %67 = landingpad { i8*, i32 } personality i8* bitcast (i32 (...)* @__gxx_personality_v0 to i8*)
          cleanup, !dbg !10112
  %68 = extractvalue { i8*, i32 } %67, 0, !dbg !10112
  store i8* %68, i8** %exn.slot, !dbg !10112
  %69 = extractvalue { i8*, i32 } %67, 1, !dbg !10112
  store i32 %69, i32* %ehselector.slot, !dbg !10112
  br label %ehcleanup107, !dbg !10112

lpad100:                                          ; preds = %invoke.cont99
  %70 = landingpad { i8*, i32 } personality i8* bitcast (i32 (...)* @__gxx_personality_v0 to i8*)
          cleanup, !dbg !10112
  %71 = extractvalue { i8*, i32 } %70, 0, !dbg !10112
  store i8* %71, i8** %exn.slot, !dbg !10112
  %72 = extractvalue { i8*, i32 } %70, 1, !dbg !10112
  store i32 %72, i32* %ehselector.slot, !dbg !10112
  invoke void @_ZN3ros9PublisherD1Ev(%"class.ros::Publisher"* %ref.tmp92)
          to label %invoke.cont105 unwind label %terminate.lpad, !dbg !10179

invoke.cont105:                                   ; preds = %lpad100
  br label %ehcleanup107, !dbg !10205

ehcleanup107:                                     ; preds = %invoke.cont105, %lpad98
  invoke void @_ZNSsD1Ev(%"class.std::basic_string"* %ref.tmp94)
          to label %invoke.cont108 unwind label %terminate.lpad, !dbg !10206

invoke.cont108:                                   ; preds = %ehcleanup107
  br label %ehcleanup109, !dbg !10207

ehcleanup109:                                     ; preds = %invoke.cont108, %lpad96
  call void @_ZNSaIcED1Ev(%"class.std::allocator"* %ref.tmp95) #1, !dbg !10208
  br label %ehcleanup135, !dbg !10208

lpad115:                                          ; preds = %invoke.cont128, %invoke.cont106
  %73 = landingpad { i8*, i32 } personality i8* bitcast (i32 (...)* @__gxx_personality_v0 to i8*)
          cleanup, !dbg !10112
  %74 = extractvalue { i8*, i32 } %73, 0, !dbg !10112
  store i8* %74, i8** %exn.slot, !dbg !10112
  %75 = extractvalue { i8*, i32 } %73, 1, !dbg !10112
  store i32 %75, i32* %ehselector.slot, !dbg !10112
  br label %ehcleanup134, !dbg !10112

lpad118:                                          ; preds = %invoke.cont125, %invoke.cont116
  %76 = landingpad { i8*, i32 } personality i8* bitcast (i32 (...)* @__gxx_personality_v0 to i8*)
          cleanup, !dbg !10209
  %77 = extractvalue { i8*, i32 } %76, 0, !dbg !10209
  store i8* %77, i8** %exn.slot, !dbg !10209
  %78 = extractvalue { i8*, i32 } %76, 1, !dbg !10209
  store i32 %78, i32* %ehselector.slot, !dbg !10209
  br label %ehcleanup132, !dbg !10209

lpad120:                                          ; preds = %invoke.cont123, %invoke.cont119
  %79 = landingpad { i8*, i32 } personality i8* bitcast (i32 (...)* @__gxx_personality_v0 to i8*)
          cleanup, !dbg !10112
  %80 = extractvalue { i8*, i32 } %79, 0, !dbg !10112
  store i8* %80, i8** %exn.slot, !dbg !10112
  %81 = extractvalue { i8*, i32 } %79, 1, !dbg !10112
  store i32 %81, i32* %ehselector.slot, !dbg !10112
  br label %ehcleanup129, !dbg !10112

lpad122:                                          ; preds = %invoke.cont121
  %82 = landingpad { i8*, i32 } personality i8* bitcast (i32 (...)* @__gxx_personality_v0 to i8*)
          cleanup, !dbg !10112
  %83 = extractvalue { i8*, i32 } %82, 0, !dbg !10112
  store i8* %83, i8** %exn.slot, !dbg !10112
  %84 = extractvalue { i8*, i32 } %82, 1, !dbg !10112
  store i32 %84, i32* %ehselector.slot, !dbg !10112
  invoke void @_ZN3ros10SubscriberD1Ev(%"class.ros::Subscriber"* %ref.tmp111)
          to label %invoke.cont127 unwind label %terminate.lpad, !dbg !10187

invoke.cont127:                                   ; preds = %lpad122
  br label %ehcleanup129, !dbg !10211

ehcleanup129:                                     ; preds = %invoke.cont127, %lpad120
  invoke void @_ZN3ros14TransportHintsD2Ev(%"class.ros::TransportHints"* %ref.tmp117)
          to label %invoke.cont130 unwind label %terminate.lpad, !dbg !10213

invoke.cont130:                                   ; preds = %ehcleanup129
  br label %ehcleanup132, !dbg !10215

ehcleanup132:                                     ; preds = %invoke.cont130, %lpad118
  invoke void @_ZNSsD1Ev(%"class.std::basic_string"* %ref.tmp113)
          to label %invoke.cont133 unwind label %terminate.lpad, !dbg !10217

invoke.cont133:                                   ; preds = %ehcleanup132
  br label %ehcleanup134, !dbg !10220

ehcleanup134:                                     ; preds = %invoke.cont133, %lpad115
  call void @_ZNSaIcED1Ev(%"class.std::allocator"* %ref.tmp114) #1, !dbg !10222
  br label %ehcleanup135, !dbg !10222

ehcleanup135:                                     ; preds = %ehcleanup134, %ehcleanup109, %ehcleanup90, %ehcleanup60, %lpad46, %ehcleanup44
  invoke void @_ZN3ros9PublisherD1Ev(%"class.ros::Publisher"* %other_pub)
          to label %invoke.cont136 unwind label %terminate.lpad, !dbg !10224

invoke.cont136:                                   ; preds = %ehcleanup135
  br label %ehcleanup137, !dbg !10225

ehcleanup137:                                     ; preds = %invoke.cont136, %lpad31
  invoke void @_ZN3ros9PublisherD1Ev(%"class.ros::Publisher"* %msg_pub)
          to label %invoke.cont138 unwind label %terminate.lpad, !dbg !10226

invoke.cont138:                                   ; preds = %ehcleanup137
  br label %ehcleanup139, !dbg !10228

ehcleanup139:                                     ; preds = %invoke.cont138, %lpad29
  invoke void @_ZN3ros10SubscriberD1Ev(%"class.ros::Subscriber"* %msg_sub)
          to label %invoke.cont140 unwind label %terminate.lpad, !dbg !10229

invoke.cont140:                                   ; preds = %ehcleanup139
  br label %ehcleanup141, !dbg !10231

ehcleanup141:                                     ; preds = %invoke.cont140, %lpad27
  invoke void @_ZN3ros10NodeHandleD1Ev(%"class.ros::NodeHandle"* %nh)
          to label %invoke.cont142 unwind label %terminate.lpad, !dbg !10232

invoke.cont142:                                   ; preds = %ehcleanup141
  br label %ehcleanup143, !dbg !10234

ehcleanup143:                                     ; preds = %invoke.cont142, %invoke.cont26, %lpad14
  invoke void @_ZN3ros10NodeHandleD1Ev(%"class.ros::NodeHandle"* %private_nh_)
          to label %invoke.cont144 unwind label %terminate.lpad, !dbg !10235

invoke.cont144:                                   ; preds = %ehcleanup143
  br label %eh.resume, !dbg !10236

eh.resume:                                        ; preds = %invoke.cont144, %ehcleanup12
  %exn = load i8** %exn.slot, !dbg !10237
  %sel = load i32* %ehselector.slot, !dbg !10237
  %lpad.val = insertvalue { i8*, i32 } undef, i8* %exn, 0, !dbg !10237
  %lpad.val145 = insertvalue { i8*, i32 } %lpad.val, i32 %sel, 1, !dbg !10237
  resume { i8*, i32 } %lpad.val145, !dbg !10237

terminate.lpad:                                   ; preds = %ehcleanup143, %ehcleanup141, %ehcleanup139, %ehcleanup137, %ehcleanup135, %ehcleanup132, %ehcleanup129, %lpad122, %ehcleanup107, %lpad100, %ehcleanup88, %lpad82, %lpad55, %lpad39, %ehcleanup25, %lpad19, %ehcleanup, %lpad6
  %85 = landingpad { i8*, i32 } personality i8* bitcast (i32 (...)* @__gxx_personality_v0 to i8*)
          catch i8* null, !dbg !10239
  %86 = extractvalue { i8*, i32 } %85, 0, !dbg !10239
  call void @__clang_call_terminate(i8* %86) #15, !dbg !10239
  unreachable, !dbg !10239
}

; Function Attrs: nounwind readnone
declare void @llvm.dbg.declare(metadata, metadata, metadata) #4

; Function Attrs: nounwind
declare void @_ZNSaIcEC1Ev(%"class.std::allocator"*) #5

declare void @_ZNSsC1EPKcRKSaIcE(%"class.std::basic_string"*, i8*, %"class.std::allocator"* dereferenceable(1)) #0

declare i32 @__gxx_personality_v0(...)

; Function Attrs: uwtable
define linkonce_odr void @_ZNSt3mapISsSsSt4lessISsESaISt4pairIKSsSsEEEC2Ev(%"class.std::map"* %this) unnamed_addr #3 comdat align 2 {
entry:
  %this.addr = alloca %"class.std::map"*, align 8
  store %"class.std::map"* %this, %"class.std::map"** %this.addr, align 8
  call void @llvm.dbg.declare(metadata %"class.std::map"** %this.addr, metadata !10244, metadata !9990), !dbg !10245
  %this1 = load %"class.std::map"** %this.addr
  %_M_t = getelementptr inbounds %"class.std::map"* %this1, i32 0, i32 0, !dbg !10246
  call void @_ZNSt8_Rb_treeISsSt4pairIKSsSsESt10_Select1stIS2_ESt4lessISsESaIS2_EEC2Ev(%"class.std::_Rb_tree"* %_M_t), !dbg !10246
  ret void, !dbg !10247
}

declare void @_ZN3ros10NodeHandleC1ERKSsRKSt3mapISsSsSt4lessISsESaISt4pairIS1_SsEEE(%"class.ros::NodeHandle"*, %"class.std::basic_string"* dereferenceable(8), %"class.std::map"* dereferenceable(48)) #0

; Function Attrs: inlinehint uwtable
define linkonce_odr void @_ZNSt3mapISsSsSt4lessISsESaISt4pairIKSsSsEEED2Ev(%"class.std::map"* %this) unnamed_addr #6 comdat align 2 {
entry:
  %this.addr = alloca %"class.std::map"*, align 8
  store %"class.std::map"* %this, %"class.std::map"** %this.addr, align 8
  call void @llvm.dbg.declare(metadata %"class.std::map"** %this.addr, metadata !10248, metadata !9990), !dbg !10249
  %this1 = load %"class.std::map"** %this.addr
  %_M_t = getelementptr inbounds %"class.std::map"* %this1, i32 0, i32 0, !dbg !10250
  call void @_ZNSt8_Rb_treeISsSt4pairIKSsSsESt10_Select1stIS2_ESt4lessISsESaIS2_EED2Ev(%"class.std::_Rb_tree"* %_M_t), !dbg !10250
  ret void, !dbg !10252
}

; Function Attrs: noinline noreturn nounwind
define linkonce_odr hidden void @__clang_call_terminate(i8*) #7 comdat {
  %2 = call i8* @__cxa_begin_catch(i8* %0) #1
  call void @_ZSt9terminatev() #15
  unreachable
}

declare i8* @__cxa_begin_catch(i8*)

declare void @_ZSt9terminatev()

declare void @_ZNSsD1Ev(%"class.std::basic_string"*) #0

; Function Attrs: nounwind
declare void @_ZNSaIcED1Ev(%"class.std::allocator"*) #5

declare void @_ZNSsC1Ev(%"class.std::basic_string"*) #0

; Function Attrs: uwtable
define linkonce_odr void @_ZN3ros10SubscriberC2Ev(%"class.ros::Subscriber"* %this) unnamed_addr #3 comdat align 2 {
entry:
  %this.addr = alloca %"class.ros::Subscriber"*, align 8
  store %"class.ros::Subscriber"* %this, %"class.ros::Subscriber"** %this.addr, align 8
  call void @llvm.dbg.declare(metadata %"class.ros::Subscriber"** %this.addr, metadata !10253, metadata !9990), !dbg !10255
  %this1 = load %"class.ros::Subscriber"** %this.addr
  %impl_ = getelementptr inbounds %"class.ros::Subscriber"* %this1, i32 0, i32 0, !dbg !10256
  call void @_ZN5boost10shared_ptrIN3ros10Subscriber4ImplEEC2Ev(%"class.boost::shared_ptr"* %impl_), !dbg !10256
  ret void, !dbg !10257
}

; Function Attrs: uwtable
define linkonce_odr void @_ZN3ros9PublisherC2Ev(%"class.ros::Publisher"* %this) unnamed_addr #3 comdat align 2 {
entry:
  %this.addr = alloca %"class.ros::Publisher"*, align 8
  store %"class.ros::Publisher"* %this, %"class.ros::Publisher"** %this.addr, align 8
  call void @llvm.dbg.declare(metadata %"class.ros::Publisher"** %this.addr, metadata !10258, metadata !9990), !dbg !10260
  %this1 = load %"class.ros::Publisher"** %this.addr
  %impl_ = getelementptr inbounds %"class.ros::Publisher"* %this1, i32 0, i32 0, !dbg !10261
  call void @_ZN5boost10shared_ptrIN3ros9Publisher4ImplEEC2Ev(%"class.boost::shared_ptr.21"* %impl_), !dbg !10261
  ret void, !dbg !10262
}

; Function Attrs: uwtable
define linkonce_odr void @_ZNK3ros10NodeHandle5paramIiEEvRKSsRT_RKS4_(%"class.ros::NodeHandle"* %this, %"class.std::basic_string"* dereferenceable(8) %param_name, i32* dereferenceable(4) %param_val, i32* dereferenceable(4) %default_val) #3 comdat align 2 {
entry:
  %this.addr = alloca %"class.ros::NodeHandle"*, align 8
  %param_name.addr = alloca %"class.std::basic_string"*, align 8
  %param_val.addr = alloca i32*, align 8
  %default_val.addr = alloca i32*, align 8
  store %"class.ros::NodeHandle"* %this, %"class.ros::NodeHandle"** %this.addr, align 8
  call void @llvm.dbg.declare(metadata %"class.ros::NodeHandle"** %this.addr, metadata !10263, metadata !9990), !dbg !10265
  store %"class.std::basic_string"* %param_name, %"class.std::basic_string"** %param_name.addr, align 8
  call void @llvm.dbg.declare(metadata %"class.std::basic_string"** %param_name.addr, metadata !10266, metadata !9990), !dbg !10268
  store i32* %param_val, i32** %param_val.addr, align 8
  call void @llvm.dbg.declare(metadata i32** %param_val.addr, metadata !10269, metadata !9990), !dbg !10270
  store i32* %default_val, i32** %default_val.addr, align 8
  call void @llvm.dbg.declare(metadata i32** %default_val.addr, metadata !10271, metadata !9990), !dbg !10272
  %this1 = load %"class.ros::NodeHandle"** %this.addr
  %0 = load %"class.std::basic_string"** %param_name.addr, align 8, !dbg !10273
  %call = call zeroext i1 @_ZNK3ros10NodeHandle8hasParamERKSs(%"class.ros::NodeHandle"* %this1, %"class.std::basic_string"* dereferenceable(8) %0), !dbg !10275
  br i1 %call, label %if.then, label %if.end4, !dbg !10276

if.then:                                          ; preds = %entry
  %1 = load %"class.std::basic_string"** %param_name.addr, align 8, !dbg !10277
  %2 = load i32** %param_val.addr, align 8, !dbg !10280
  %call2 = call zeroext i1 @_ZNK3ros10NodeHandle8getParamERKSsRi(%"class.ros::NodeHandle"* %this1, %"class.std::basic_string"* dereferenceable(8) %1, i32* dereferenceable(4) %2), !dbg !10281
  br i1 %call2, label %if.then3, label %if.end, !dbg !10282

if.then3:                                         ; preds = %if.then
  br label %return, !dbg !10283

if.end:                                           ; preds = %if.then
  br label %if.end4, !dbg !10285

if.end4:                                          ; preds = %if.end, %entry
  %3 = load i32** %default_val.addr, align 8, !dbg !10286
  %4 = load i32* %3, align 4, !dbg !10286
  %5 = load i32** %param_val.addr, align 8, !dbg !10287
  store i32 %4, i32* %5, align 4, !dbg !10288
  br label %return, !dbg !10289

return:                                           ; preds = %if.end4, %if.then3
  ret void, !dbg !10290
}

declare void @_ZN3ros7console10initializeEv() #0

declare void @_ZN3ros7console21initializeLogLocationEPNS0_11LogLocationERKSsNS0_6levels5LevelE(%"struct.ros::console::LogLocation"*, %"class.std::basic_string"* dereferenceable(8), i32) #0

declare void @_ZN3ros7console19setLogLocationLevelEPNS0_11LogLocationENS0_6levels5LevelE(%"struct.ros::console::LogLocation"*, i32) #0

declare void @_ZN3ros7console23checkLogLocationEnabledEPNS0_11LogLocationE(%"struct.ros::console::LogLocation"*) #0

declare void @_ZN3ros7console5printEPNS0_10FilterBaseEPN7log4cxx6LoggerENS0_6levels5LevelEPKciS9_S9_z(%"class.ros::console::FilterBase"*, %"class.log4cxx::Logger"*, i32, i8*, i32, i8*, i8*, ...) #0

; Function Attrs: inlinehint uwtable
define linkonce_odr dereferenceable(16) %"class.ros::Publisher"* @_ZN3ros9PublisheraSERKS0_(%"class.ros::Publisher"* %this, %"class.ros::Publisher"* dereferenceable(16)) #6 comdat align 2 {
entry:
  %this.addr = alloca %"class.ros::Publisher"*, align 8
  %.addr = alloca %"class.ros::Publisher"*, align 8
  store %"class.ros::Publisher"* %this, %"class.ros::Publisher"** %this.addr, align 8
  call void @llvm.dbg.declare(metadata %"class.ros::Publisher"** %this.addr, metadata !10292, metadata !9990), !dbg !10293
  store %"class.ros::Publisher"* %0, %"class.ros::Publisher"** %.addr, align 8
  call void @llvm.dbg.declare(metadata %"class.ros::Publisher"** %.addr, metadata !10294, metadata !9990), !dbg !10293
  %this1 = load %"class.ros::Publisher"** %this.addr
  %impl_ = getelementptr inbounds %"class.ros::Publisher"* %this1, i32 0, i32 0, !dbg !10295
  %1 = load %"class.ros::Publisher"** %.addr, align 8, !dbg !10295
  %impl_2 = getelementptr inbounds %"class.ros::Publisher"* %1, i32 0, i32 0, !dbg !10295
  %call = call dereferenceable(16) %"class.boost::shared_ptr.21"* @_ZN5boost10shared_ptrIN3ros9Publisher4ImplEEaSERKS4_(%"class.boost::shared_ptr.21"* %impl_, %"class.boost::shared_ptr.21"* dereferenceable(16) %impl_2), !dbg !10295
  ret %"class.ros::Publisher"* %this1, !dbg !10295
}

; Function Attrs: uwtable
define linkonce_odr void @_ZN3ros10NodeHandle9advertiseIN8std_msgs7String_ISaIvEEEEENS_9PublisherERKSsjb(%"class.ros::Publisher"* noalias sret %agg.result, %"class.ros::NodeHandle"* %this, %"class.std::basic_string"* dereferenceable(8) %topic, i32 %queue_size, i1 zeroext %latch) #3 comdat align 2 {
entry:
  %this.addr = alloca %"class.ros::NodeHandle"*, align 8
  %topic.addr = alloca %"class.std::basic_string"*, align 8
  %queue_size.addr = alloca i32, align 4
  %latch.addr = alloca i8, align 1
  %ops = alloca %"struct.ros::AdvertiseOptions", align 8
  %ref.tmp = alloca %"class.boost::function", align 8
  %exn.slot = alloca i8*
  %ehselector.slot = alloca i32
  %ref.tmp2 = alloca %"class.boost::function", align 8
  %cleanup.dest.slot = alloca i32
  store %"class.ros::NodeHandle"* %this, %"class.ros::NodeHandle"** %this.addr, align 8
  call void @llvm.dbg.declare(metadata %"class.ros::NodeHandle"** %this.addr, metadata !10297, metadata !9990), !dbg !10298
  store %"class.std::basic_string"* %topic, %"class.std::basic_string"** %topic.addr, align 8
  call void @llvm.dbg.declare(metadata %"class.std::basic_string"** %topic.addr, metadata !10299, metadata !9990), !dbg !10300
  store i32 %queue_size, i32* %queue_size.addr, align 4
  call void @llvm.dbg.declare(metadata i32* %queue_size.addr, metadata !10301, metadata !9990), !dbg !10302
  %frombool = zext i1 %latch to i8
  store i8 %frombool, i8* %latch.addr, align 1
  call void @llvm.dbg.declare(metadata i8* %latch.addr, metadata !10303, metadata !9990), !dbg !10304
  %this1 = load %"class.ros::NodeHandle"** %this.addr
  call void @llvm.dbg.declare(metadata %"struct.ros::AdvertiseOptions"* %ops, metadata !10305, metadata !9990), !dbg !10306
  call void @_ZN3ros16AdvertiseOptionsC2Ev(%"struct.ros::AdvertiseOptions"* %ops), !dbg !10306
  %0 = load %"class.std::basic_string"** %topic.addr, align 8, !dbg !10307
  %1 = load i32* %queue_size.addr, align 4, !dbg !10308
  invoke void @_ZN5boost8functionIFvRKN3ros25SingleSubscriberPublisherEEEC2Ev(%"class.boost::function"* %ref.tmp)
          to label %invoke.cont unwind label %lpad, !dbg !10309

invoke.cont:                                      ; preds = %entry
  invoke void @_ZN5boost8functionIFvRKN3ros25SingleSubscriberPublisherEEEC2Ev(%"class.boost::function"* %ref.tmp2)
          to label %invoke.cont4 unwind label %lpad3, !dbg !10310

invoke.cont4:                                     ; preds = %invoke.cont
  invoke void @_ZN3ros16AdvertiseOptions4initIN8std_msgs7String_ISaIvEEEEEvRKSsjRKN5boost8functionIFvRKNS_25SingleSubscriberPublisherEEEESG_(%"struct.ros::AdvertiseOptions"* %ops, %"class.std::basic_string"* dereferenceable(8) %0, i32 %1, %"class.boost::function"* dereferenceable(32) %ref.tmp, %"class.boost::function"* dereferenceable(32) %ref.tmp2)
          to label %invoke.cont6 unwind label %lpad5, !dbg !10312

invoke.cont6:                                     ; preds = %invoke.cont4
  invoke void @_ZN5boost8functionIFvRKN3ros25SingleSubscriberPublisherEEED2Ev(%"class.boost::function"* %ref.tmp2)
          to label %invoke.cont7 unwind label %lpad3, !dbg !10314

invoke.cont7:                                     ; preds = %invoke.cont6
  invoke void @_ZN5boost8functionIFvRKN3ros25SingleSubscriberPublisherEEED2Ev(%"class.boost::function"* %ref.tmp)
          to label %invoke.cont9 unwind label %lpad, !dbg !10316

invoke.cont9:                                     ; preds = %invoke.cont7
  %2 = load i8* %latch.addr, align 1, !dbg !10318
  %tobool = trunc i8 %2 to i1, !dbg !10318
  %latch11 = getelementptr inbounds %"struct.ros::AdvertiseOptions"* %ops, i32 0, i32 10, !dbg !10319
  %frombool12 = zext i1 %tobool to i8, !dbg !10320
  store i8 %frombool12, i8* %latch11, align 1, !dbg !10320
  invoke void @_ZN3ros10NodeHandle9advertiseERNS_16AdvertiseOptionsE(%"class.ros::Publisher"* sret %agg.result, %"class.ros::NodeHandle"* %this1, %"struct.ros::AdvertiseOptions"* dereferenceable(136) %ops)
          to label %invoke.cont13 unwind label %lpad, !dbg !10321

invoke.cont13:                                    ; preds = %invoke.cont9
  store i32 1, i32* %cleanup.dest.slot
  call void @_ZN3ros16AdvertiseOptionsD2Ev(%"struct.ros::AdvertiseOptions"* %ops), !dbg !10322
  ret void, !dbg !10322

lpad:                                             ; preds = %invoke.cont9, %invoke.cont7, %entry
  %3 = landingpad { i8*, i32 } personality i8* bitcast (i32 (...)* @__gxx_personality_v0 to i8*)
          cleanup, !dbg !10323
  %4 = extractvalue { i8*, i32 } %3, 0, !dbg !10323
  store i8* %4, i8** %exn.slot, !dbg !10323
  %5 = extractvalue { i8*, i32 } %3, 1, !dbg !10323
  store i32 %5, i32* %ehselector.slot, !dbg !10323
  br label %ehcleanup14, !dbg !10323

lpad3:                                            ; preds = %invoke.cont6, %invoke.cont
  %6 = landingpad { i8*, i32 } personality i8* bitcast (i32 (...)* @__gxx_personality_v0 to i8*)
          cleanup, !dbg !10326
  %7 = extractvalue { i8*, i32 } %6, 0, !dbg !10326
  store i8* %7, i8** %exn.slot, !dbg !10326
  %8 = extractvalue { i8*, i32 } %6, 1, !dbg !10326
  store i32 %8, i32* %ehselector.slot, !dbg !10326
  br label %ehcleanup, !dbg !10326

lpad5:                                            ; preds = %invoke.cont4
  %9 = landingpad { i8*, i32 } personality i8* bitcast (i32 (...)* @__gxx_personality_v0 to i8*)
          cleanup, !dbg !10322
  %10 = extractvalue { i8*, i32 } %9, 0, !dbg !10322
  store i8* %10, i8** %exn.slot, !dbg !10322
  %11 = extractvalue { i8*, i32 } %9, 1, !dbg !10322
  store i32 %11, i32* %ehselector.slot, !dbg !10322
  invoke void @_ZN5boost8functionIFvRKN3ros25SingleSubscriberPublisherEEED2Ev(%"class.boost::function"* %ref.tmp2)
          to label %invoke.cont8 unwind label %terminate.lpad, !dbg !10309

invoke.cont8:                                     ; preds = %lpad5
  br label %ehcleanup, !dbg !10329

ehcleanup:                                        ; preds = %invoke.cont8, %lpad3
  invoke void @_ZN5boost8functionIFvRKN3ros25SingleSubscriberPublisherEEED2Ev(%"class.boost::function"* %ref.tmp)
          to label %invoke.cont10 unwind label %terminate.lpad, !dbg !10331

invoke.cont10:                                    ; preds = %ehcleanup
  br label %ehcleanup14, !dbg !10334

ehcleanup14:                                      ; preds = %invoke.cont10, %lpad
  invoke void @_ZN3ros16AdvertiseOptionsD2Ev(%"struct.ros::AdvertiseOptions"* %ops)
          to label %invoke.cont15 unwind label %terminate.lpad, !dbg !10322

invoke.cont15:                                    ; preds = %ehcleanup14
  br label %eh.resume, !dbg !10336

eh.resume:                                        ; preds = %invoke.cont15
  %exn = load i8** %exn.slot, !dbg !10337
  %sel = load i32* %ehselector.slot, !dbg !10337
  %lpad.val = insertvalue { i8*, i32 } undef, i8* %exn, 0, !dbg !10337
  %lpad.val16 = insertvalue { i8*, i32 } %lpad.val, i32 %sel, 1, !dbg !10337
  resume { i8*, i32 } %lpad.val16, !dbg !10337

terminate.lpad:                                   ; preds = %ehcleanup14, %ehcleanup, %lpad5
  %12 = landingpad { i8*, i32 } personality i8* bitcast (i32 (...)* @__gxx_personality_v0 to i8*)
          catch i8* null, !dbg !10338
  %13 = extractvalue { i8*, i32 } %12, 0, !dbg !10338
  call void @__clang_call_terminate(i8* %13) #15, !dbg !10338
  unreachable, !dbg !10338
}

declare void @_ZN3ros9PublisherD1Ev(%"class.ros::Publisher"*) #0

; Function Attrs: inlinehint uwtable
define linkonce_odr dereferenceable(16) %"class.ros::Subscriber"* @_ZN3ros10SubscriberaSERKS0_(%"class.ros::Subscriber"* %this, %"class.ros::Subscriber"* dereferenceable(16)) #6 comdat align 2 {
entry:
  %this.addr = alloca %"class.ros::Subscriber"*, align 8
  %.addr = alloca %"class.ros::Subscriber"*, align 8
  store %"class.ros::Subscriber"* %this, %"class.ros::Subscriber"** %this.addr, align 8
  call void @llvm.dbg.declare(metadata %"class.ros::Subscriber"** %this.addr, metadata !10341, metadata !9990), !dbg !10342
  store %"class.ros::Subscriber"* %0, %"class.ros::Subscriber"** %.addr, align 8
  call void @llvm.dbg.declare(metadata %"class.ros::Subscriber"** %.addr, metadata !10343, metadata !9990), !dbg !10342
  %this1 = load %"class.ros::Subscriber"** %this.addr
  %impl_ = getelementptr inbounds %"class.ros::Subscriber"* %this1, i32 0, i32 0, !dbg !10344
  %1 = load %"class.ros::Subscriber"** %.addr, align 8, !dbg !10344
  %impl_2 = getelementptr inbounds %"class.ros::Subscriber"* %1, i32 0, i32 0, !dbg !10344
  %call = call dereferenceable(16) %"class.boost::shared_ptr"* @_ZN5boost10shared_ptrIN3ros10Subscriber4ImplEEaSERKS4_(%"class.boost::shared_ptr"* %impl_, %"class.boost::shared_ptr"* dereferenceable(16) %impl_2), !dbg !10344
  ret %"class.ros::Subscriber"* %this1, !dbg !10344
}

; Function Attrs: uwtable
define linkonce_odr void @_ZN3ros10NodeHandle9subscribeIN8std_msgs8Float64_ISaIvEEE4TestEENS_10SubscriberERKSsjMT0_FvRKN5boost10shared_ptrIKT_EEEPSA_RKNS_14TransportHintsE(%"class.ros::Subscriber"* noalias sret %agg.result, %"class.ros::NodeHandle"* %this, %"class.std::basic_string"* dereferenceable(8) %topic, i32 %queue_size, i64 %fp.coerce0, i64 %fp.coerce1, %class.Test* %obj, %"class.ros::TransportHints"* dereferenceable(72) %transport_hints) #3 comdat align 2 {
entry:
  %fp = alloca { i64, i64 }, align 8
  %this.addr = alloca %"class.ros::NodeHandle"*, align 8
  %topic.addr = alloca %"class.std::basic_string"*, align 8
  %queue_size.addr = alloca i32, align 4
  %fp.addr = alloca { i64, i64 }, align 8
  %obj.addr = alloca %class.Test*, align 8
  %transport_hints.addr = alloca %"class.ros::TransportHints"*, align 8
  %ops = alloca %"struct.ros::SubscribeOptions", align 8
  %ref.tmp = alloca %"class.boost::function.42", align 8
  %agg.tmp = alloca %"class.boost::_bi::bind_t", align 8
  %agg.tmp3 = alloca %"struct.boost::arg", align 1
  %coerce = alloca { i64, i64 }, align 8
  %exn.slot = alloca i8*
  %ehselector.slot = alloca i32
  %ref.tmp5 = alloca %"class.boost::function.45", align 8
  %agg.tmp6 = alloca %"struct.ros::DefaultMessageCreator", align 1
  %cleanup.dest.slot = alloca i32
  %0 = getelementptr { i64, i64 }* %fp, i32 0, i32 0
  store i64 %fp.coerce0, i64* %0
  %1 = getelementptr { i64, i64 }* %fp, i32 0, i32 1
  store i64 %fp.coerce1, i64* %1
  %fp1 = load { i64, i64 }* %fp, align 8
  store %"class.ros::NodeHandle"* %this, %"class.ros::NodeHandle"** %this.addr, align 8
  call void @llvm.dbg.declare(metadata %"class.ros::NodeHandle"** %this.addr, metadata !10346, metadata !9990), !dbg !10347
  store %"class.std::basic_string"* %topic, %"class.std::basic_string"** %topic.addr, align 8
  call void @llvm.dbg.declare(metadata %"class.std::basic_string"** %topic.addr, metadata !10348, metadata !9990), !dbg !10349
  store i32 %queue_size, i32* %queue_size.addr, align 4
  call void @llvm.dbg.declare(metadata i32* %queue_size.addr, metadata !10350, metadata !9990), !dbg !10351
  store { i64, i64 } %fp1, { i64, i64 }* %fp.addr, align 8
  call void @llvm.dbg.declare(metadata { i64, i64 }* %fp.addr, metadata !10352, metadata !9990), !dbg !10353
  store %class.Test* %obj, %class.Test** %obj.addr, align 8
  call void @llvm.dbg.declare(metadata %class.Test** %obj.addr, metadata !10354, metadata !9990), !dbg !10355
  store %"class.ros::TransportHints"* %transport_hints, %"class.ros::TransportHints"** %transport_hints.addr, align 8
  call void @llvm.dbg.declare(metadata %"class.ros::TransportHints"** %transport_hints.addr, metadata !10356, metadata !9990), !dbg !10357
  %this2 = load %"class.ros::NodeHandle"** %this.addr
  call void @llvm.dbg.declare(metadata %"struct.ros::SubscribeOptions"* %ops, metadata !10358, metadata !9990), !dbg !10359
  call void @_ZN3ros16SubscribeOptionsC2Ev(%"struct.ros::SubscribeOptions"* %ops), !dbg !10359
  %2 = load %"class.std::basic_string"** %topic.addr, align 8, !dbg !10360
  %3 = load i32* %queue_size.addr, align 4, !dbg !10361
  %4 = load { i64, i64 }* %fp.addr, align 8, !dbg !10362
  %5 = load %class.Test** %obj.addr, align 8, !dbg !10363
  store { i64, i64 } %4, { i64, i64 }* %coerce, align 8, !dbg !10364
  %6 = getelementptr { i64, i64 }* %coerce, i32 0, i32 0, !dbg !10364
  %7 = load i64* %6, align 1, !dbg !10364
  %8 = getelementptr { i64, i64 }* %coerce, i32 0, i32 1, !dbg !10364
  %9 = load i64* %8, align 1, !dbg !10364
  invoke void @_ZN5boost4bindIv4TestRKNS_10shared_ptrIKN8std_msgs8Float64_ISaIvEEEEEPS1_NS_3argILi1EEEEENS_3_bi6bind_tIT_NS_4_mfi3mf1ISG_T0_T1_EENSE_9list_av_2IT2_T3_E4typeEEEMSJ_FSG_SK_ESN_SO_(%"class.boost::_bi::bind_t"* sret %agg.tmp, i64 %7, i64 %9, %class.Test* %5)
          to label %invoke.cont unwind label %lpad, !dbg !10364

invoke.cont:                                      ; preds = %entry
  invoke void @_ZN5boost8functionIFvRKNS_10shared_ptrIKN8std_msgs8Float64_ISaIvEEEEEEEC2INS_3_bi6bind_tIvNS_4_mfi3mf1Iv4TestS9_EENSD_5list2INSD_5valueIPSH_EENS_3argILi1EEEEEEEEET_NS_11enable_if_cIXsr5boost11type_traits7ice_notIXsr11is_integralISR_EE5valueEEE5valueEiE4typeE(%"class.boost::function.42"* %ref.tmp, %"class.boost::_bi::bind_t"* byval align 8 %agg.tmp, i32 0)
          to label %invoke.cont4 unwind label %lpad, !dbg !10365

invoke.cont4:                                     ; preds = %invoke.cont
  invoke void @_ZN5boost8functionIFNS_10shared_ptrIN8std_msgs8Float64_ISaIvEEEEEvEEC2IN3ros21DefaultMessageCreatorIS5_EEEET_NS_11enable_if_cIXsr5boost11type_traits7ice_notIXsr11is_integralISD_EE5valueEEE5valueEiE4typeE(%"class.boost::function.45"* %ref.tmp5, i32 0)
          to label %invoke.cont8 unwind label %lpad7, !dbg !10367

invoke.cont8:                                     ; preds = %invoke.cont4
  invoke void @_ZN3ros16SubscribeOptions4initIN8std_msgs8Float64_ISaIvEEEEEvRKSsjRKN5boost8functionIFvRKNS8_10shared_ptrIKT_EEEEERKNS9_IFNSA_ISB_EEvEEE(%"struct.ros::SubscribeOptions"* %ops, %"class.std::basic_string"* dereferenceable(8) %2, i32 %3, %"class.boost::function.42"* dereferenceable(32) %ref.tmp, %"class.boost::function.45"* dereferenceable(32) %ref.tmp5)
          to label %invoke.cont10 unwind label %lpad9, !dbg !10369

invoke.cont10:                                    ; preds = %invoke.cont8
  invoke void @_ZN5boost8functionIFNS_10shared_ptrIN8std_msgs8Float64_ISaIvEEEEEvEED2Ev(%"class.boost::function.45"* %ref.tmp5)
          to label %invoke.cont11 unwind label %lpad7, !dbg !10371

invoke.cont11:                                    ; preds = %invoke.cont10
  invoke void @_ZN5boost8functionIFvRKNS_10shared_ptrIKN8std_msgs8Float64_ISaIvEEEEEEED2Ev(%"class.boost::function.42"* %ref.tmp)
          to label %invoke.cont13 unwind label %lpad, !dbg !10373

invoke.cont13:                                    ; preds = %invoke.cont11
  %transport_hints15 = getelementptr inbounds %"struct.ros::SubscribeOptions"* %ops, i32 0, i32 8, !dbg !10375
  %10 = load %"class.ros::TransportHints"** %transport_hints.addr, align 8, !dbg !10376
  %call = invoke dereferenceable(72) %"class.ros::TransportHints"* @_ZN3ros14TransportHintsaSERKS0_(%"class.ros::TransportHints"* %transport_hints15, %"class.ros::TransportHints"* dereferenceable(72) %10)
          to label %invoke.cont16 unwind label %lpad, !dbg !10377

invoke.cont16:                                    ; preds = %invoke.cont13
  invoke void @_ZN3ros10NodeHandle9subscribeERNS_16SubscribeOptionsE(%"class.ros::Subscriber"* sret %agg.result, %"class.ros::NodeHandle"* %this2, %"struct.ros::SubscribeOptions"* dereferenceable(152) %ops)
          to label %invoke.cont17 unwind label %lpad, !dbg !10378

invoke.cont17:                                    ; preds = %invoke.cont16
  store i32 1, i32* %cleanup.dest.slot
  call void @_ZN3ros16SubscribeOptionsD2Ev(%"struct.ros::SubscribeOptions"* %ops), !dbg !10379
  ret void, !dbg !10379

lpad:                                             ; preds = %invoke.cont16, %invoke.cont13, %invoke.cont11, %invoke.cont, %entry
  %11 = landingpad { i8*, i32 } personality i8* bitcast (i32 (...)* @__gxx_personality_v0 to i8*)
          cleanup, !dbg !10379
  %12 = extractvalue { i8*, i32 } %11, 0, !dbg !10379
  store i8* %12, i8** %exn.slot, !dbg !10379
  %13 = extractvalue { i8*, i32 } %11, 1, !dbg !10379
  store i32 %13, i32* %ehselector.slot, !dbg !10379
  br label %ehcleanup18, !dbg !10379

lpad7:                                            ; preds = %invoke.cont10, %invoke.cont4
  %14 = landingpad { i8*, i32 } personality i8* bitcast (i32 (...)* @__gxx_personality_v0 to i8*)
          cleanup, !dbg !10380
  %15 = extractvalue { i8*, i32 } %14, 0, !dbg !10380
  store i8* %15, i8** %exn.slot, !dbg !10380
  %16 = extractvalue { i8*, i32 } %14, 1, !dbg !10380
  store i32 %16, i32* %ehselector.slot, !dbg !10380
  br label %ehcleanup, !dbg !10380

lpad9:                                            ; preds = %invoke.cont8
  %17 = landingpad { i8*, i32 } personality i8* bitcast (i32 (...)* @__gxx_personality_v0 to i8*)
          cleanup, !dbg !10379
  %18 = extractvalue { i8*, i32 } %17, 0, !dbg !10379
  store i8* %18, i8** %exn.slot, !dbg !10379
  %19 = extractvalue { i8*, i32 } %17, 1, !dbg !10379
  store i32 %19, i32* %ehselector.slot, !dbg !10379
  invoke void @_ZN5boost8functionIFNS_10shared_ptrIN8std_msgs8Float64_ISaIvEEEEEvEED2Ev(%"class.boost::function.45"* %ref.tmp5)
          to label %invoke.cont12 unwind label %terminate.lpad, !dbg !10383

invoke.cont12:                                    ; preds = %lpad9
  br label %ehcleanup, !dbg !10384

ehcleanup:                                        ; preds = %invoke.cont12, %lpad7
  invoke void @_ZN5boost8functionIFvRKNS_10shared_ptrIKN8std_msgs8Float64_ISaIvEEEEEEED2Ev(%"class.boost::function.42"* %ref.tmp)
          to label %invoke.cont14 unwind label %terminate.lpad, !dbg !10386

invoke.cont14:                                    ; preds = %ehcleanup
  br label %ehcleanup18, !dbg !10389

ehcleanup18:                                      ; preds = %invoke.cont14, %lpad
  invoke void @_ZN3ros16SubscribeOptionsD2Ev(%"struct.ros::SubscribeOptions"* %ops)
          to label %invoke.cont19 unwind label %terminate.lpad, !dbg !10391

invoke.cont19:                                    ; preds = %ehcleanup18
  br label %eh.resume, !dbg !10392

eh.resume:                                        ; preds = %invoke.cont19
  %exn = load i8** %exn.slot, !dbg !10393
  %sel = load i32* %ehselector.slot, !dbg !10393
  %lpad.val = insertvalue { i8*, i32 } undef, i8* %exn, 0, !dbg !10393
  %lpad.val20 = insertvalue { i8*, i32 } %lpad.val, i32 %sel, 1, !dbg !10393
  resume { i8*, i32 } %lpad.val20, !dbg !10393

terminate.lpad:                                   ; preds = %ehcleanup18, %ehcleanup, %lpad9
  %20 = landingpad { i8*, i32 } personality i8* bitcast (i32 (...)* @__gxx_personality_v0 to i8*)
          catch i8* null, !dbg !10394
  %21 = extractvalue { i8*, i32 } %20, 0, !dbg !10394
  call void @__clang_call_terminate(i8* %21) #15, !dbg !10394
  unreachable, !dbg !10394
}

; Function Attrs: uwtable
define void @_ZN4Test14callbackSimpleERKN5boost10shared_ptrIKN8std_msgs8Float64_ISaIvEEEEE(%class.Test* %this, %"class.boost::shared_ptr.35"* nonnull %in_msg) #3 align 2 {
entry:
  %this.addr = alloca %class.Test*, align 8
  %in_msg.addr = alloca %"class.boost::shared_ptr.35"*, align 8
  %msg = alloca %"struct.std_msgs::String_", align 8
  %ss = alloca %"class.std::basic_stringstream", align 8
  %exn.slot = alloca i8*
  %ehselector.slot = alloca i32
  %ref.tmp = alloca %"class.std::basic_string", align 8
  %mmmm = alloca %"struct.std_msgs::String_", align 8
  %ss21 = alloca %"class.std::basic_stringstream", align 8
  %ref.tmp31 = alloca %"class.std::basic_string", align 8
  store %class.Test* %this, %class.Test** %this.addr, align 8
  call void @llvm.dbg.declare(metadata %class.Test** %this.addr, metadata !10397, metadata !9990), !dbg !10398
  store %"class.boost::shared_ptr.35"* %in_msg, %"class.boost::shared_ptr.35"** %in_msg.addr, align 8
  call void @llvm.dbg.declare(metadata %"class.boost::shared_ptr.35"** %in_msg.addr, metadata !10399, metadata !9990), !dbg !10400
  %this1 = load %class.Test** %this.addr
  %0 = load %"class.boost::shared_ptr.35"** %in_msg.addr, align 8, !dbg !10401
  %call = call %"struct.std_msgs::Float64_"* @_ZNK5boost10shared_ptrIKN8std_msgs8Float64_ISaIvEEEEptEv(%"class.boost::shared_ptr.35"* %0), !dbg !10401
  %data = getelementptr inbounds %"struct.std_msgs::Float64_"* %call, i32 0, i32 0, !dbg !10403
  %1 = load double* %data, align 8, !dbg !10403
  %_threshold = getelementptr inbounds %class.Test* %this1, i32 0, i32 2, !dbg !10404
  %2 = load i32* %_threshold, align 4, !dbg !10404
  %conv = sitofp i32 %2 to double, !dbg !10404
  %cmp = fcmp ogt double %1, %conv, !dbg !10405
  br i1 %cmp, label %if.then, label %if.end, !dbg !10406

if.then:                                          ; preds = %entry
  call void @llvm.dbg.declare(metadata %"struct.std_msgs::String_"* %msg, metadata !10407, metadata !9990), !dbg !10410
  call void @_ZN8std_msgs7String_ISaIvEEC2Ev(%"struct.std_msgs::String_"* %msg), !dbg !10410
  call void @llvm.dbg.declare(metadata %"class.std::basic_stringstream"* %ss, metadata !10411, metadata !9990), !dbg !10413
  %call2 = invoke i32 @_ZStorSt13_Ios_OpenmodeS_(i32 16, i32 8)
          to label %invoke.cont unwind label %lpad, !dbg !10413

invoke.cont:                                      ; preds = %if.then
  invoke void @_ZNSt18basic_stringstreamIcSt11char_traitsIcESaIcEEC1ESt13_Ios_Openmode(%"class.std::basic_stringstream"* %ss, i32 %call2)
          to label %invoke.cont3 unwind label %lpad, !dbg !10414

invoke.cont3:                                     ; preds = %invoke.cont
  %3 = bitcast %"class.std::basic_stringstream"* %ss to i8*, !dbg !10416
  %add.ptr = getelementptr inbounds i8* %3, i64 16, !dbg !10416
  %4 = bitcast i8* %add.ptr to %"class.std::basic_ostream"*, !dbg !10416
  %call6 = invoke dereferenceable(272) %"class.std::basic_ostream"* @_ZStlsISt11char_traitsIcEERSt13basic_ostreamIcT_ES5_PKc(%"class.std::basic_ostream"* dereferenceable(272) %4, i8* getelementptr inbounds ([13 x i8]* @.str17, i32 0, i32 0))
          to label %invoke.cont5 unwind label %lpad4, !dbg !10417

invoke.cont5:                                     ; preds = %invoke.cont3
  %5 = load %"class.boost::shared_ptr.35"** %in_msg.addr, align 8, !dbg !10418
  %call8 = invoke dereferenceable(272) %"class.std::basic_ostream"* @_ZN5boostlsIcSt11char_traitsIcEKN8std_msgs8Float64_ISaIvEEEEERSt13basic_ostreamIT_T0_ESC_RKNS_10shared_ptrIT1_EE(%"class.std::basic_ostream"* dereferenceable(272) %call6, %"class.boost::shared_ptr.35"* dereferenceable(16) %5)
          to label %invoke.cont7 unwind label %lpad4, !dbg !10419

invoke.cont7:                                     ; preds = %invoke.cont5
  %data9 = getelementptr inbounds %"struct.std_msgs::String_"* %msg, i32 0, i32 0, !dbg !10420
  invoke void @_ZNKSt18basic_stringstreamIcSt11char_traitsIcESaIcEE3strEv(%"class.std::basic_string"* sret %ref.tmp, %"class.std::basic_stringstream"* %ss)
          to label %invoke.cont10 unwind label %lpad4, !dbg !10421

invoke.cont10:                                    ; preds = %invoke.cont7
  %call13 = invoke dereferenceable(8) %"class.std::basic_string"* @_ZNSsaSERKSs(%"class.std::basic_string"* %data9, %"class.std::basic_string"* dereferenceable(8) %ref.tmp)
          to label %invoke.cont12 unwind label %lpad11, !dbg !10422

invoke.cont12:                                    ; preds = %invoke.cont10
  invoke void @_ZNSsD1Ev(%"class.std::basic_string"* %ref.tmp)
          to label %invoke.cont14 unwind label %lpad4, !dbg !10423

invoke.cont14:                                    ; preds = %invoke.cont12
  %msg_pub = getelementptr inbounds %class.Test* %this1, i32 0, i32 4, !dbg !10425
  invoke void @_ZNK3ros9Publisher7publishIN8std_msgs7String_ISaIvEEEEEvRKT_(%"class.ros::Publisher"* %msg_pub, %"struct.std_msgs::String_"* dereferenceable(24) %msg)
          to label %invoke.cont16 unwind label %lpad4, !dbg !10425

invoke.cont16:                                    ; preds = %invoke.cont14
  invoke void @_ZNSt18basic_stringstreamIcSt11char_traitsIcESaIcEED1Ev(%"class.std::basic_stringstream"* %ss)
          to label %invoke.cont17 unwind label %lpad, !dbg !10426

invoke.cont17:                                    ; preds = %invoke.cont16
  call void @_ZN8std_msgs7String_ISaIvEED2Ev(%"struct.std_msgs::String_"* %msg), !dbg !10427
  br label %if.end, !dbg !10429

lpad:                                             ; preds = %invoke.cont16, %invoke.cont, %if.then
  %6 = landingpad { i8*, i32 } personality i8* bitcast (i32 (...)* @__gxx_personality_v0 to i8*)
          cleanup, !dbg !10430
  %7 = extractvalue { i8*, i32 } %6, 0, !dbg !10430
  store i8* %7, i8** %exn.slot, !dbg !10430
  %8 = extractvalue { i8*, i32 } %6, 1, !dbg !10430
  store i32 %8, i32* %ehselector.slot, !dbg !10430
  br label %ehcleanup19, !dbg !10430

lpad4:                                            ; preds = %invoke.cont14, %invoke.cont12, %invoke.cont7, %invoke.cont5, %invoke.cont3
  %9 = landingpad { i8*, i32 } personality i8* bitcast (i32 (...)* @__gxx_personality_v0 to i8*)
          cleanup, !dbg !10432
  %10 = extractvalue { i8*, i32 } %9, 0, !dbg !10432
  store i8* %10, i8** %exn.slot, !dbg !10432
  %11 = extractvalue { i8*, i32 } %9, 1, !dbg !10432
  store i32 %11, i32* %ehselector.slot, !dbg !10432
  br label %ehcleanup, !dbg !10432

lpad11:                                           ; preds = %invoke.cont10
  %12 = landingpad { i8*, i32 } personality i8* bitcast (i32 (...)* @__gxx_personality_v0 to i8*)
          cleanup, !dbg !10432
  %13 = extractvalue { i8*, i32 } %12, 0, !dbg !10432
  store i8* %13, i8** %exn.slot, !dbg !10432
  %14 = extractvalue { i8*, i32 } %12, 1, !dbg !10432
  store i32 %14, i32* %ehselector.slot, !dbg !10432
  invoke void @_ZNSsD1Ev(%"class.std::basic_string"* %ref.tmp)
          to label %invoke.cont15 unwind label %terminate.lpad, !dbg !10433

invoke.cont15:                                    ; preds = %lpad11
  br label %ehcleanup, !dbg !10434

ehcleanup:                                        ; preds = %invoke.cont15, %lpad4
  invoke void @_ZNSt18basic_stringstreamIcSt11char_traitsIcESaIcEED1Ev(%"class.std::basic_stringstream"* %ss)
          to label %invoke.cont18 unwind label %terminate.lpad, !dbg !10426

invoke.cont18:                                    ; preds = %ehcleanup
  br label %ehcleanup19, !dbg !10436

ehcleanup19:                                      ; preds = %invoke.cont18, %lpad
  invoke void @_ZN8std_msgs7String_ISaIvEED2Ev(%"struct.std_msgs::String_"* %msg)
          to label %invoke.cont20 unwind label %terminate.lpad, !dbg !10438

invoke.cont20:                                    ; preds = %ehcleanup19
  br label %eh.resume, !dbg !10440

if.end:                                           ; preds = %invoke.cont17, %entry
  call void @llvm.dbg.declare(metadata %"struct.std_msgs::String_"* %mmmm, metadata !10442, metadata !9990), !dbg !10443
  call void @_ZN8std_msgs7String_ISaIvEEC2Ev(%"struct.std_msgs::String_"* %mmmm), !dbg !10443
  call void @llvm.dbg.declare(metadata %"class.std::basic_stringstream"* %ss21, metadata !10444, metadata !9990), !dbg !10445
  %call24 = invoke i32 @_ZStorSt13_Ios_OpenmodeS_(i32 16, i32 8)
          to label %invoke.cont23 unwind label %lpad22, !dbg !10445

invoke.cont23:                                    ; preds = %if.end
  invoke void @_ZNSt18basic_stringstreamIcSt11char_traitsIcESaIcEEC1ESt13_Ios_Openmode(%"class.std::basic_stringstream"* %ss21, i32 %call24)
          to label %invoke.cont25 unwind label %lpad22, !dbg !10446

invoke.cont25:                                    ; preds = %invoke.cont23
  %15 = bitcast %"class.std::basic_stringstream"* %ss21 to i8*, !dbg !10448
  %add.ptr26 = getelementptr inbounds i8* %15, i64 16, !dbg !10448
  %16 = bitcast i8* %add.ptr26 to %"class.std::basic_ostream"*, !dbg !10448
  %call29 = invoke dereferenceable(272) %"class.std::basic_ostream"* @_ZStlsISt11char_traitsIcEERSt13basic_ostreamIcT_ES5_PKc(%"class.std::basic_ostream"* dereferenceable(272) %16, i8* getelementptr inbounds ([6 x i8]* @.str18, i32 0, i32 0))
          to label %invoke.cont28 unwind label %lpad27, !dbg !10449

invoke.cont28:                                    ; preds = %invoke.cont25
  %data30 = getelementptr inbounds %"struct.std_msgs::String_"* %mmmm, i32 0, i32 0, !dbg !10450
  invoke void @_ZNKSt18basic_stringstreamIcSt11char_traitsIcESaIcEE3strEv(%"class.std::basic_string"* sret %ref.tmp31, %"class.std::basic_stringstream"* %ss21)
          to label %invoke.cont32 unwind label %lpad27, !dbg !10451

invoke.cont32:                                    ; preds = %invoke.cont28
  %call35 = invoke dereferenceable(8) %"class.std::basic_string"* @_ZNSsaSERKSs(%"class.std::basic_string"* %data30, %"class.std::basic_string"* dereferenceable(8) %ref.tmp31)
          to label %invoke.cont34 unwind label %lpad33, !dbg !10452

invoke.cont34:                                    ; preds = %invoke.cont32
  invoke void @_ZNSsD1Ev(%"class.std::basic_string"* %ref.tmp31)
          to label %invoke.cont36 unwind label %lpad27, !dbg !10453

invoke.cont36:                                    ; preds = %invoke.cont34
  %other_pub = getelementptr inbounds %class.Test* %this1, i32 0, i32 5, !dbg !10455
  invoke void @_ZNK3ros9Publisher7publishIN8std_msgs7String_ISaIvEEEEEvRKT_(%"class.ros::Publisher"* %other_pub, %"struct.std_msgs::String_"* dereferenceable(24) %mmmm)
          to label %invoke.cont39 unwind label %lpad27, !dbg !10455

invoke.cont39:                                    ; preds = %invoke.cont36
  invoke void @_ZNSt18basic_stringstreamIcSt11char_traitsIcESaIcEED1Ev(%"class.std::basic_stringstream"* %ss21)
          to label %invoke.cont40 unwind label %lpad22, !dbg !10456

invoke.cont40:                                    ; preds = %invoke.cont39
  call void @_ZN8std_msgs7String_ISaIvEED2Ev(%"struct.std_msgs::String_"* %mmmm), !dbg !10457
  ret void, !dbg !10457

lpad22:                                           ; preds = %invoke.cont39, %invoke.cont23, %if.end
  %17 = landingpad { i8*, i32 } personality i8* bitcast (i32 (...)* @__gxx_personality_v0 to i8*)
          cleanup, !dbg !10458
  %18 = extractvalue { i8*, i32 } %17, 0, !dbg !10458
  store i8* %18, i8** %exn.slot, !dbg !10458
  %19 = extractvalue { i8*, i32 } %17, 1, !dbg !10458
  store i32 %19, i32* %ehselector.slot, !dbg !10458
  br label %ehcleanup43, !dbg !10458

lpad27:                                           ; preds = %invoke.cont36, %invoke.cont34, %invoke.cont28, %invoke.cont25
  %20 = landingpad { i8*, i32 } personality i8* bitcast (i32 (...)* @__gxx_personality_v0 to i8*)
          cleanup, !dbg !10456
  %21 = extractvalue { i8*, i32 } %20, 0, !dbg !10456
  store i8* %21, i8** %exn.slot, !dbg !10456
  %22 = extractvalue { i8*, i32 } %20, 1, !dbg !10456
  store i32 %22, i32* %ehselector.slot, !dbg !10456
  br label %ehcleanup41, !dbg !10456

lpad33:                                           ; preds = %invoke.cont32
  %23 = landingpad { i8*, i32 } personality i8* bitcast (i32 (...)* @__gxx_personality_v0 to i8*)
          cleanup, !dbg !10456
  %24 = extractvalue { i8*, i32 } %23, 0, !dbg !10456
  store i8* %24, i8** %exn.slot, !dbg !10456
  %25 = extractvalue { i8*, i32 } %23, 1, !dbg !10456
  store i32 %25, i32* %ehselector.slot, !dbg !10456
  invoke void @_ZNSsD1Ev(%"class.std::basic_string"* %ref.tmp31)
          to label %invoke.cont38 unwind label %terminate.lpad, !dbg !10460

invoke.cont38:                                    ; preds = %lpad33
  br label %ehcleanup41, !dbg !10461

ehcleanup41:                                      ; preds = %invoke.cont38, %lpad27
  invoke void @_ZNSt18basic_stringstreamIcSt11char_traitsIcESaIcEED1Ev(%"class.std::basic_stringstream"* %ss21)
          to label %invoke.cont42 unwind label %terminate.lpad, !dbg !10463

invoke.cont42:                                    ; preds = %ehcleanup41
  br label %ehcleanup43, !dbg !10464

ehcleanup43:                                      ; preds = %invoke.cont42, %lpad22
  invoke void @_ZN8std_msgs7String_ISaIvEED2Ev(%"struct.std_msgs::String_"* %mmmm)
          to label %invoke.cont44 unwind label %terminate.lpad, !dbg !10465

invoke.cont44:                                    ; preds = %ehcleanup43
  br label %eh.resume, !dbg !10467

eh.resume:                                        ; preds = %invoke.cont44, %invoke.cont20
  %exn = load i8** %exn.slot, !dbg !10469
  %sel = load i32* %ehselector.slot, !dbg !10469
  %lpad.val = insertvalue { i8*, i32 } undef, i8* %exn, 0, !dbg !10469
  %lpad.val45 = insertvalue { i8*, i32 } %lpad.val, i32 %sel, 1, !dbg !10469
  resume { i8*, i32 } %lpad.val45, !dbg !10469

terminate.lpad:                                   ; preds = %ehcleanup43, %ehcleanup41, %lpad33, %ehcleanup19, %ehcleanup, %lpad11
  %26 = landingpad { i8*, i32 } personality i8* bitcast (i32 (...)* @__gxx_personality_v0 to i8*)
          catch i8* null, !dbg !10471
  %27 = extractvalue { i8*, i32 } %26, 0, !dbg !10471
  call void @__clang_call_terminate(i8* %27) #15, !dbg !10471
  unreachable, !dbg !10471
}

; Function Attrs: nounwind
declare void @llvm.memset.p0i8.i64(i8* nocapture, i8, i64, i32, i1) #1

; Function Attrs: inlinehint uwtable
define linkonce_odr void @_ZN3ros14TransportHintsC2Ev(%"class.ros::TransportHints"* %this) unnamed_addr #6 comdat align 2 {
entry:
  %this.addr = alloca %"class.ros::TransportHints"*, align 8
  %exn.slot = alloca i8*
  %ehselector.slot = alloca i32
  store %"class.ros::TransportHints"* %this, %"class.ros::TransportHints"** %this.addr, align 8
  call void @llvm.dbg.declare(metadata %"class.ros::TransportHints"** %this.addr, metadata !10473, metadata !9990), !dbg !10475
  %this1 = load %"class.ros::TransportHints"** %this.addr
  %transports_ = getelementptr inbounds %"class.ros::TransportHints"* %this1, i32 0, i32 0, !dbg !10476
  call void @_ZNSt6vectorISsSaISsEEC2Ev(%"class.std::vector.30"* %transports_), !dbg !10476
  %options_ = getelementptr inbounds %"class.ros::TransportHints"* %this1, i32 0, i32 1, !dbg !10476
  invoke void @_ZNSt3mapISsSsSt4lessISsESaISt4pairIKSsSsEEEC2Ev(%"class.std::map"* %options_)
          to label %invoke.cont unwind label %lpad, !dbg !10476

invoke.cont:                                      ; preds = %entry
  ret void, !dbg !10477

lpad:                                             ; preds = %entry
  %0 = landingpad { i8*, i32 } personality i8* bitcast (i32 (...)* @__gxx_personality_v0 to i8*)
          cleanup, !dbg !10479
  %1 = extractvalue { i8*, i32 } %0, 0, !dbg !10479
  store i8* %1, i8** %exn.slot, !dbg !10479
  %2 = extractvalue { i8*, i32 } %0, 1, !dbg !10479
  store i32 %2, i32* %ehselector.slot, !dbg !10479
  invoke void @_ZNSt6vectorISsSaISsEED2Ev(%"class.std::vector.30"* %transports_)
          to label %invoke.cont2 unwind label %terminate.lpad, !dbg !10481

invoke.cont2:                                     ; preds = %lpad
  br label %eh.resume, !dbg !10483

eh.resume:                                        ; preds = %invoke.cont2
  %exn = load i8** %exn.slot, !dbg !10485
  %sel = load i32* %ehselector.slot, !dbg !10485
  %lpad.val = insertvalue { i8*, i32 } undef, i8* %exn, 0, !dbg !10485
  %lpad.val3 = insertvalue { i8*, i32 } %lpad.val, i32 %sel, 1, !dbg !10485
  resume { i8*, i32 } %lpad.val3, !dbg !10485

terminate.lpad:                                   ; preds = %lpad
  %3 = landingpad { i8*, i32 } personality i8* bitcast (i32 (...)* @__gxx_personality_v0 to i8*)
          catch i8* null, !dbg !10487
  %4 = extractvalue { i8*, i32 } %3, 0, !dbg !10487
  call void @__clang_call_terminate(i8* %4) #15, !dbg !10487
  unreachable, !dbg !10487
}

declare void @_ZN3ros10SubscriberD1Ev(%"class.ros::Subscriber"*) #0

; Function Attrs: inlinehint uwtable
define linkonce_odr void @_ZN3ros14TransportHintsD2Ev(%"class.ros::TransportHints"* %this) unnamed_addr #6 comdat align 2 {
entry:
  %this.addr = alloca %"class.ros::TransportHints"*, align 8
  %exn.slot = alloca i8*
  %ehselector.slot = alloca i32
  store %"class.ros::TransportHints"* %this, %"class.ros::TransportHints"** %this.addr, align 8
  call void @llvm.dbg.declare(metadata %"class.ros::TransportHints"** %this.addr, metadata !10489, metadata !9990), !dbg !10490
  %this1 = load %"class.ros::TransportHints"** %this.addr
  %options_ = getelementptr inbounds %"class.ros::TransportHints"* %this1, i32 0, i32 1, !dbg !10491
  invoke void @_ZNSt3mapISsSsSt4lessISsESaISt4pairIKSsSsEEED2Ev(%"class.std::map"* %options_)
          to label %invoke.cont unwind label %lpad, !dbg !10491

invoke.cont:                                      ; preds = %entry
  %transports_ = getelementptr inbounds %"class.ros::TransportHints"* %this1, i32 0, i32 0, !dbg !10493
  call void @_ZNSt6vectorISsSaISsEED2Ev(%"class.std::vector.30"* %transports_), !dbg !10493
  ret void, !dbg !10495

lpad:                                             ; preds = %entry
  %0 = landingpad { i8*, i32 } personality i8* bitcast (i32 (...)* @__gxx_personality_v0 to i8*)
          cleanup, !dbg !10496
  %1 = extractvalue { i8*, i32 } %0, 0, !dbg !10496
  store i8* %1, i8** %exn.slot, !dbg !10496
  %2 = extractvalue { i8*, i32 } %0, 1, !dbg !10496
  store i32 %2, i32* %ehselector.slot, !dbg !10496
  %transports_2 = getelementptr inbounds %"class.ros::TransportHints"* %this1, i32 0, i32 0, !dbg !10491
  invoke void @_ZNSt6vectorISsSaISsEED2Ev(%"class.std::vector.30"* %transports_2)
          to label %invoke.cont3 unwind label %terminate.lpad, !dbg !10491

invoke.cont3:                                     ; preds = %lpad
  br label %eh.resume, !dbg !10498

eh.resume:                                        ; preds = %invoke.cont3
  %exn = load i8** %exn.slot, !dbg !10500
  %sel = load i32* %ehselector.slot, !dbg !10500
  %lpad.val = insertvalue { i8*, i32 } undef, i8* %exn, 0, !dbg !10500
  %lpad.val4 = insertvalue { i8*, i32 } %lpad.val, i32 %sel, 1, !dbg !10500
  resume { i8*, i32 } %lpad.val4, !dbg !10500

terminate.lpad:                                   ; preds = %lpad
  %3 = landingpad { i8*, i32 } personality i8* bitcast (i32 (...)* @__gxx_personality_v0 to i8*)
          catch i8* null, !dbg !10502
  %4 = extractvalue { i8*, i32 } %3, 0, !dbg !10502
  call void @__clang_call_terminate(i8* %4) #15, !dbg !10502
  unreachable, !dbg !10502
}

declare void @_ZN3ros10NodeHandleD1Ev(%"class.ros::NodeHandle"*) #0

; Function Attrs: nounwind uwtable
define linkonce_odr %"struct.std_msgs::Float64_"* @_ZNK5boost10shared_ptrIKN8std_msgs8Float64_ISaIvEEEEptEv(%"class.boost::shared_ptr.35"* %this) #2 comdat align 2 {
entry:
  %this.addr = alloca %"class.boost::shared_ptr.35"*, align 8
  store %"class.boost::shared_ptr.35"* %this, %"class.boost::shared_ptr.35"** %this.addr, align 8
  call void @llvm.dbg.declare(metadata %"class.boost::shared_ptr.35"** %this.addr, metadata !10504, metadata !9990), !dbg !10506
  %this1 = load %"class.boost::shared_ptr.35"** %this.addr
  %px = getelementptr inbounds %"class.boost::shared_ptr.35"* %this1, i32 0, i32 0, !dbg !10507
  %0 = load %"struct.std_msgs::Float64_"** %px, align 8, !dbg !10507
  %cmp = icmp ne %"struct.std_msgs::Float64_"* %0, null, !dbg !10507
  br i1 %cmp, label %cond.true, label %cond.false, !dbg !10507

cond.true:                                        ; preds = %entry
  br label %cond.end, !dbg !10508

cond.false:                                       ; preds = %entry
  call void @__assert_fail(i8* getelementptr inbounds ([8 x i8]* @.str28, i32 0, i32 0), i8* getelementptr inbounds ([44 x i8]* @.str29, i32 0, i32 0), i32 418, i8* getelementptr inbounds ([145 x i8]* @__PRETTY_FUNCTION__._ZNK5boost10shared_ptrIKN8std_msgs8Float64_ISaIvEEEEptEv, i32 0, i32 0)) #15, !dbg !10510
  unreachable, !dbg !10510
                                                  ; No predecessors!
  br label %cond.end, !dbg !10507

cond.end:                                         ; preds = %1, %cond.true
  %px2 = getelementptr inbounds %"class.boost::shared_ptr.35"* %this1, i32 0, i32 0, !dbg !10512
  %2 = load %"struct.std_msgs::Float64_"** %px2, align 8, !dbg !10512
  ret %"struct.std_msgs::Float64_"* %2, !dbg !10513
}

; Function Attrs: uwtable
define linkonce_odr void @_ZN8std_msgs7String_ISaIvEEC2Ev(%"struct.std_msgs::String_"* %this) unnamed_addr #3 comdat align 2 {
entry:
  %this.addr = alloca %"struct.std_msgs::String_"*, align 8
  %exn.slot = alloca i8*
  %ehselector.slot = alloca i32
  store %"struct.std_msgs::String_"* %this, %"struct.std_msgs::String_"** %this.addr, align 8
  call void @llvm.dbg.declare(metadata %"struct.std_msgs::String_"** %this.addr, metadata !10514, metadata !9990), !dbg !10516
  %this1 = load %"struct.std_msgs::String_"** %this.addr
  %data = getelementptr inbounds %"struct.std_msgs::String_"* %this1, i32 0, i32 0, !dbg !10517
  call void @_ZNSsC1Ev(%"class.std::basic_string"* %data), !dbg !10517
  %__connection_header = getelementptr inbounds %"struct.std_msgs::String_"* %this1, i32 0, i32 1, !dbg !10518
  invoke void @_ZN5boost10shared_ptrISt3mapISsSsSt4lessISsESaISt4pairIKSsSsEEEEC2Ev(%"class.boost::shared_ptr.36"* %__connection_header)
          to label %invoke.cont unwind label %lpad, !dbg !10518

invoke.cont:                                      ; preds = %entry
  ret void, !dbg !10519

lpad:                                             ; preds = %entry
  %0 = landingpad { i8*, i32 } personality i8* bitcast (i32 (...)* @__gxx_personality_v0 to i8*)
          cleanup, !dbg !10519
  %1 = extractvalue { i8*, i32 } %0, 0, !dbg !10519
  store i8* %1, i8** %exn.slot, !dbg !10519
  %2 = extractvalue { i8*, i32 } %0, 1, !dbg !10519
  store i32 %2, i32* %ehselector.slot, !dbg !10519
  invoke void @_ZNSsD1Ev(%"class.std::basic_string"* %data)
          to label %invoke.cont2 unwind label %terminate.lpad, !dbg !10520

invoke.cont2:                                     ; preds = %lpad
  br label %eh.resume, !dbg !10522

eh.resume:                                        ; preds = %invoke.cont2
  %exn = load i8** %exn.slot, !dbg !10524
  %sel = load i32* %ehselector.slot, !dbg !10524
  %lpad.val = insertvalue { i8*, i32 } undef, i8* %exn, 0, !dbg !10524
  %lpad.val3 = insertvalue { i8*, i32 } %lpad.val, i32 %sel, 1, !dbg !10524
  resume { i8*, i32 } %lpad.val3, !dbg !10524

terminate.lpad:                                   ; preds = %lpad
  %3 = landingpad { i8*, i32 } personality i8* bitcast (i32 (...)* @__gxx_personality_v0 to i8*)
          catch i8* null, !dbg !10526
  %4 = extractvalue { i8*, i32 } %3, 0, !dbg !10526
  call void @__clang_call_terminate(i8* %4) #15, !dbg !10526
  unreachable, !dbg !10526
}

; Function Attrs: inlinehint nounwind uwtable
define linkonce_odr i32 @_ZStorSt13_Ios_OpenmodeS_(i32 %__a, i32 %__b) #8 comdat {
entry:
  %__a.addr = alloca i32, align 4
  %__b.addr = alloca i32, align 4
  store i32 %__a, i32* %__a.addr, align 4
  call void @llvm.dbg.declare(metadata i32* %__a.addr, metadata !10528, metadata !9990), !dbg !10530
  store i32 %__b, i32* %__b.addr, align 4
  call void @llvm.dbg.declare(metadata i32* %__b.addr, metadata !10531, metadata !9990), !dbg !10532
  %0 = load i32* %__a.addr, align 4, !dbg !10533
  %1 = load i32* %__b.addr, align 4, !dbg !10534
  %or = or i32 %0, %1, !dbg !10535
  ret i32 %or, !dbg !10536
}

declare void @_ZNSt18basic_stringstreamIcSt11char_traitsIcESaIcEEC1ESt13_Ios_Openmode(%"class.std::basic_stringstream"*, i32) #0

; Function Attrs: uwtable
define linkonce_odr dereferenceable(272) %"class.std::basic_ostream"* @_ZN5boostlsIcSt11char_traitsIcEKN8std_msgs8Float64_ISaIvEEEEERSt13basic_ostreamIT_T0_ESC_RKNS_10shared_ptrIT1_EE(%"class.std::basic_ostream"* dereferenceable(272) %os, %"class.boost::shared_ptr.35"* dereferenceable(16) %p) #3 comdat {
entry:
  %os.addr = alloca %"class.std::basic_ostream"*, align 8
  %p.addr = alloca %"class.boost::shared_ptr.35"*, align 8
  store %"class.std::basic_ostream"* %os, %"class.std::basic_ostream"** %os.addr, align 8
  call void @llvm.dbg.declare(metadata %"class.std::basic_ostream"** %os.addr, metadata !10537, metadata !9990), !dbg !10539
  store %"class.boost::shared_ptr.35"* %p, %"class.boost::shared_ptr.35"** %p.addr, align 8
  call void @llvm.dbg.declare(metadata %"class.boost::shared_ptr.35"** %p.addr, metadata !10540, metadata !9990), !dbg !10541
  %0 = load %"class.std::basic_ostream"** %os.addr, align 8, !dbg !10542
  %1 = load %"class.boost::shared_ptr.35"** %p.addr, align 8, !dbg !10543
  %call = call %"struct.std_msgs::Float64_"* @_ZNK5boost10shared_ptrIKN8std_msgs8Float64_ISaIvEEEE3getEv(%"class.boost::shared_ptr.35"* %1), !dbg !10543
  %2 = bitcast %"struct.std_msgs::Float64_"* %call to i8*, !dbg !10543
  %call1 = call dereferenceable(272) %"class.std::basic_ostream"* @_ZNSolsEPKv(%"class.std::basic_ostream"* %0, i8* %2), !dbg !10544
  %3 = load %"class.std::basic_ostream"** %os.addr, align 8, !dbg !10545
  ret %"class.std::basic_ostream"* %3, !dbg !10546
}

declare dereferenceable(272) %"class.std::basic_ostream"* @_ZStlsISt11char_traitsIcEERSt13basic_ostreamIcT_ES5_PKc(%"class.std::basic_ostream"* dereferenceable(272), i8*) #0

declare dereferenceable(8) %"class.std::basic_string"* @_ZNSsaSERKSs(%"class.std::basic_string"*, %"class.std::basic_string"* dereferenceable(8)) #0

declare void @_ZNKSt18basic_stringstreamIcSt11char_traitsIcESaIcEE3strEv(%"class.std::basic_string"* sret, %"class.std::basic_stringstream"*) #0

; Function Attrs: uwtable
define linkonce_odr void @_ZNK3ros9Publisher7publishIN8std_msgs7String_ISaIvEEEEEvRKT_(%"class.ros::Publisher"* %this, %"struct.std_msgs::String_"* dereferenceable(24) %message) #3 comdat align 2 {
entry:
  %this.addr = alloca %"class.ros::Publisher"*, align 8
  %message.addr = alloca %"struct.std_msgs::String_"*, align 8
  %ref.tmp = alloca %"class.std::basic_string", align 8
  %ref.tmp8 = alloca %"class.std::allocator", align 1
  %exn.slot = alloca i8*
  %ehselector.slot = alloca i32
  %enabled = alloca i8, align 1
  %ref.tmp31 = alloca %"class.std::basic_string", align 8
  %ref.tmp32 = alloca %"class.std::allocator", align 1
  %enabled45 = alloca i8, align 1
  %ref.tmp64 = alloca %"class.std::basic_string", align 8
  %ref.tmp65 = alloca %"class.std::allocator", align 1
  %enabled78 = alloca i8, align 1
  %ref.tmp104 = alloca %"class.std::basic_string", align 8
  %ref.tmp105 = alloca %"class.std::allocator", align 1
  %enabled118 = alloca i8, align 1
  %ref.tmp137 = alloca %"class.std::basic_string", align 8
  %ref.tmp138 = alloca %"class.std::allocator", align 1
  %enabled151 = alloca i8, align 1
  %ref.tmp173 = alloca %"class.std::basic_string", align 8
  %ref.tmp174 = alloca %"class.std::allocator", align 1
  %enabled187 = alloca i8, align 1
  %ref.tmp202 = alloca %"class.std::basic_string", align 8
  %ref.tmp204 = alloca %"class.std::allocator", align 1
  %cleanup.cond = alloca i1
  %cleanup.cond207 = alloca i1
  %ref.tmp244 = alloca %"class.std::basic_string", align 8
  %ref.tmp245 = alloca %"class.std::allocator", align 1
  %enabled258 = alloca i8, align 1
  %ref.tmp277 = alloca %"class.std::basic_string", align 8
  %ref.tmp278 = alloca %"class.std::allocator", align 1
  %enabled291 = alloca i8, align 1
  %ref.tmp319 = alloca %"class.std::basic_string", align 8
  %ref.tmp320 = alloca %"class.std::allocator", align 1
  %enabled333 = alloca i8, align 1
  %m = alloca %"class.ros::SerializedMessage", align 8
  %ref.tmp344 = alloca %"class.boost::function.61", align 8
  %agg.tmp = alloca %"class.boost::_bi::bind_t.63", align 8
  %agg.tmp345 = alloca %"class.boost::reference_wrapper", align 8
  store %"class.ros::Publisher"* %this, %"class.ros::Publisher"** %this.addr, align 8
  call void @llvm.dbg.declare(metadata %"class.ros::Publisher"** %this.addr, metadata !10547, metadata !9990), !dbg !10549
  store %"struct.std_msgs::String_"* %message, %"struct.std_msgs::String_"** %message.addr, align 8
  call void @llvm.dbg.declare(metadata %"struct.std_msgs::String_"** %message.addr, metadata !10550, metadata !9990), !dbg !10551
  %this1 = load %"class.ros::Publisher"** %this.addr
  %impl_ = getelementptr inbounds %"class.ros::Publisher"* %this1, i32 0, i32 0, !dbg !10552
  %call = call zeroext i1 @_ZNK5boost10shared_ptrIN3ros9Publisher4ImplEEntEv(%"class.boost::shared_ptr.21"* %impl_), !dbg !10554
  br i1 %call, label %if.then, label %if.end88, !dbg !10555

if.then:                                          ; preds = %entry
  br label %do.body, !dbg !10556

do.body:                                          ; preds = %if.then
  br label %do.body2, !dbg !10558

do.body2:                                         ; preds = %do.body
  br label %do.body3, !dbg !10563

do.body3:                                         ; preds = %do.body2
  %0 = load i8* @_ZN3ros7console13g_initializedE, align 1, !dbg !10566
  %tobool = trunc i8 %0 to i1, !dbg !10566
  %lnot = xor i1 %tobool, true, !dbg !10566
  br i1 %lnot, label %if.then4, label %if.end, !dbg !10570

if.then4:                                         ; preds = %do.body3
  call void @_ZN3ros7console10initializeEv(), !dbg !10571
  br label %if.end, !dbg !10571

if.end:                                           ; preds = %if.then4, %do.body3
  br label %do.end, !dbg !10574

do.end:                                           ; preds = %if.end
  %1 = load i8* getelementptr inbounds (%"struct.ros::console::LogLocation"* @_ZZNK3ros9Publisher7publishIN8std_msgs7String_ISaIvEEEEEvRKT_E3loc, i32 0, i32 0), align 1, !dbg !10577
  %tobool5 = trunc i8 %1 to i1, !dbg !10577
  %lnot6 = xor i1 %tobool5, true, !dbg !10577
  br i1 %lnot6, label %if.then7, label %if.end13, !dbg !10580

if.then7:                                         ; preds = %do.end
  call void @_ZNSaIcEC1Ev(%"class.std::allocator"* %ref.tmp8) #1, !dbg !10581
  invoke void @_ZNSsC1EPKcRKSaIcE(%"class.std::basic_string"* %ref.tmp, i8* getelementptr inbounds ([20 x i8]* @.str11, i32 0, i32 0), %"class.std::allocator"* dereferenceable(1) %ref.tmp8)
          to label %invoke.cont unwind label %lpad, !dbg !10581

invoke.cont:                                      ; preds = %if.then7
  invoke void @_ZN3ros7console21initializeLogLocationEPNS0_11LogLocationERKSsNS0_6levels5LevelE(%"struct.ros::console::LogLocation"* @_ZZNK3ros9Publisher7publishIN8std_msgs7String_ISaIvEEEEEvRKT_E3loc, %"class.std::basic_string"* dereferenceable(8) %ref.tmp, i32 4)
          to label %invoke.cont10 unwind label %lpad9, !dbg !10584

invoke.cont10:                                    ; preds = %invoke.cont
  invoke void @_ZNSsD1Ev(%"class.std::basic_string"* %ref.tmp)
          to label %invoke.cont11 unwind label %lpad, !dbg !10586

invoke.cont11:                                    ; preds = %invoke.cont10
  call void @_ZNSaIcED1Ev(%"class.std::allocator"* %ref.tmp8) #1, !dbg !10588
  br label %if.end13, !dbg !10588

lpad:                                             ; preds = %invoke.cont10, %if.then7
  %2 = landingpad { i8*, i32 } personality i8* bitcast (i32 (...)* @__gxx_personality_v0 to i8*)
          cleanup, !dbg !10590
  %3 = extractvalue { i8*, i32 } %2, 0, !dbg !10590
  store i8* %3, i8** %exn.slot, !dbg !10590
  %4 = extractvalue { i8*, i32 } %2, 1, !dbg !10590
  store i32 %4, i32* %ehselector.slot, !dbg !10590
  br label %ehcleanup, !dbg !10590

lpad9:                                            ; preds = %invoke.cont
  %5 = landingpad { i8*, i32 } personality i8* bitcast (i32 (...)* @__gxx_personality_v0 to i8*)
          cleanup, !dbg !10590
  %6 = extractvalue { i8*, i32 } %5, 0, !dbg !10590
  store i8* %6, i8** %exn.slot, !dbg !10590
  %7 = extractvalue { i8*, i32 } %5, 1, !dbg !10590
  store i32 %7, i32* %ehselector.slot, !dbg !10590
  invoke void @_ZNSsD1Ev(%"class.std::basic_string"* %ref.tmp)
          to label %invoke.cont12 unwind label %terminate.lpad, !dbg !10591

invoke.cont12:                                    ; preds = %lpad9
  br label %ehcleanup, !dbg !10592

ehcleanup:                                        ; preds = %invoke.cont12, %lpad
  call void @_ZNSaIcED1Ev(%"class.std::allocator"* %ref.tmp8) #1, !dbg !10594
  br label %eh.resume, !dbg !10594

if.end13:                                         ; preds = %invoke.cont11, %do.end
  %8 = load i32* getelementptr inbounds (%"struct.ros::console::LogLocation"* @_ZZNK3ros9Publisher7publishIN8std_msgs7String_ISaIvEEEEEvRKT_E3loc, i32 0, i32 2), align 4, !dbg !10596
  %cmp = icmp ne i32 %8, 4, !dbg !10596
  br i1 %cmp, label %if.then14, label %if.end15, !dbg !10580

if.then14:                                        ; preds = %if.end13
  call void @_ZN3ros7console19setLogLocationLevelEPNS0_11LogLocationENS0_6levels5LevelE(%"struct.ros::console::LogLocation"* @_ZZNK3ros9Publisher7publishIN8std_msgs7String_ISaIvEEEEEvRKT_E3loc, i32 4), !dbg !10600
  call void @_ZN3ros7console23checkLogLocationEnabledEPNS0_11LogLocationE(%"struct.ros::console::LogLocation"* @_ZZNK3ros9Publisher7publishIN8std_msgs7String_ISaIvEEEEEvRKT_E3loc), !dbg !10600
  br label %if.end15, !dbg !10600

if.end15:                                         ; preds = %if.then14, %if.end13
  call void @llvm.dbg.declare(metadata i8* %enabled, metadata !10603, metadata !9990), !dbg !10580
  %9 = load i8* getelementptr inbounds (%"struct.ros::console::LogLocation"* @_ZZNK3ros9Publisher7publishIN8std_msgs7String_ISaIvEEEEEvRKT_E3loc, i32 0, i32 1), align 1, !dbg !10604
  %tobool16 = trunc i8 %9 to i1, !dbg !10604
  br i1 %tobool16, label %land.rhs, label %land.end, !dbg !10604

land.rhs:                                         ; preds = %if.end15
  br label %land.end

land.end:                                         ; preds = %land.rhs, %if.end15
  %10 = phi i1 [ false, %if.end15 ], [ true, %land.rhs ]
  %frombool = zext i1 %10 to i8, !dbg !10607
  store i8 %frombool, i8* %enabled, align 1, !dbg !10607
  %11 = load i8* %enabled, align 1, !dbg !10609
  %tobool17 = trunc i8 %11 to i1, !dbg !10609
  br i1 %tobool17, label %if.then18, label %if.end19, !dbg !10580

if.then18:                                        ; preds = %land.end
  %12 = load %"class.log4cxx::Logger"** getelementptr inbounds (%"struct.ros::console::LogLocation"* @_ZZNK3ros9Publisher7publishIN8std_msgs7String_ISaIvEEEEEvRKT_E3loc, i32 0, i32 3), align 8, !dbg !10611
  %13 = load i32* getelementptr inbounds (%"struct.ros::console::LogLocation"* @_ZZNK3ros9Publisher7publishIN8std_msgs7String_ISaIvEEEEEvRKT_E3loc, i32 0, i32 2), align 4, !dbg !10611
  call void (%"class.ros::console::FilterBase"*, %"class.log4cxx::Logger"*, i32, i8*, i32, i8*, i8*, ...)* @_ZN3ros7console5printEPNS0_10FilterBaseEPN7log4cxx6LoggerENS0_6levels5LevelEPKciS9_S9_z(%"class.ros::console::FilterBase"* null, %"class.log4cxx::Logger"* %12, i32 %13, i8* getelementptr inbounds ([40 x i8]* @.str30, i32 0, i32 0), i32 102, i8* getelementptr inbounds ([93 x i8]* @__PRETTY_FUNCTION__._ZNK3ros9Publisher7publishIN8std_msgs7String_ISaIvEEEEEvRKT_, i32 0, i32 0), i8* getelementptr inbounds ([62 x i8]* @.str31, i32 0, i32 0), i8* getelementptr inbounds ([40 x i8]* @.str30, i32 0, i32 0), i32 102, i8* getelementptr inbounds ([6 x i8]* @.str32, i32 0, i32 0)), !dbg !10611
  br label %if.end19, !dbg !10611

if.end19:                                         ; preds = %if.then18, %land.end
  br label %do.end20, !dbg !10614

do.end20:                                         ; preds = %if.end19
  br label %do.body21, !dbg !10617

do.body21:                                        ; preds = %do.end20
  br label %do.body22, !dbg !10619

do.body22:                                        ; preds = %do.body21
  %14 = load i8* @_ZN3ros7console13g_initializedE, align 1, !dbg !10622
  %tobool23 = trunc i8 %14 to i1, !dbg !10622
  %lnot24 = xor i1 %tobool23, true, !dbg !10622
  br i1 %lnot24, label %if.then25, label %if.end26, !dbg !10626

if.then25:                                        ; preds = %do.body22
  call void @_ZN3ros7console10initializeEv(), !dbg !10627
  br label %if.end26, !dbg !10627

if.end26:                                         ; preds = %if.then25, %do.body22
  br label %do.end27, !dbg !10630

do.end27:                                         ; preds = %if.end26
  %15 = load i8* getelementptr inbounds (%"struct.ros::console::LogLocation"* @_ZZNK3ros9Publisher7publishIN8std_msgs7String_ISaIvEEEEEvRKT_E3loc_0, i32 0, i32 0), align 1, !dbg !10633
  %tobool28 = trunc i8 %15 to i1, !dbg !10633
  %lnot29 = xor i1 %tobool28, true, !dbg !10633
  br i1 %lnot29, label %if.then30, label %if.end41, !dbg !10636

if.then30:                                        ; preds = %do.end27
  call void @_ZNSaIcEC1Ev(%"class.std::allocator"* %ref.tmp32) #1, !dbg !10637
  invoke void @_ZNSsC1EPKcRKSaIcE(%"class.std::basic_string"* %ref.tmp31, i8* getelementptr inbounds ([20 x i8]* @.str11, i32 0, i32 0), %"class.std::allocator"* dereferenceable(1) %ref.tmp32)
          to label %invoke.cont34 unwind label %lpad33, !dbg !10637

invoke.cont34:                                    ; preds = %if.then30
  invoke void @_ZN3ros7console21initializeLogLocationEPNS0_11LogLocationERKSsNS0_6levels5LevelE(%"struct.ros::console::LogLocation"* @_ZZNK3ros9Publisher7publishIN8std_msgs7String_ISaIvEEEEEvRKT_E3loc_0, %"class.std::basic_string"* dereferenceable(8) %ref.tmp31, i32 4)
          to label %invoke.cont36 unwind label %lpad35, !dbg !10640

invoke.cont36:                                    ; preds = %invoke.cont34
  invoke void @_ZNSsD1Ev(%"class.std::basic_string"* %ref.tmp31)
          to label %invoke.cont37 unwind label %lpad33, !dbg !10642

invoke.cont37:                                    ; preds = %invoke.cont36
  call void @_ZNSaIcED1Ev(%"class.std::allocator"* %ref.tmp32) #1, !dbg !10644
  br label %if.end41, !dbg !10644

lpad33:                                           ; preds = %invoke.cont36, %if.then30
  %16 = landingpad { i8*, i32 } personality i8* bitcast (i32 (...)* @__gxx_personality_v0 to i8*)
          cleanup, !dbg !10646
  %17 = extractvalue { i8*, i32 } %16, 0, !dbg !10646
  store i8* %17, i8** %exn.slot, !dbg !10646
  %18 = extractvalue { i8*, i32 } %16, 1, !dbg !10646
  store i32 %18, i32* %ehselector.slot, !dbg !10646
  br label %ehcleanup40, !dbg !10646

lpad35:                                           ; preds = %invoke.cont34
  %19 = landingpad { i8*, i32 } personality i8* bitcast (i32 (...)* @__gxx_personality_v0 to i8*)
          cleanup, !dbg !10646
  %20 = extractvalue { i8*, i32 } %19, 0, !dbg !10646
  store i8* %20, i8** %exn.slot, !dbg !10646
  %21 = extractvalue { i8*, i32 } %19, 1, !dbg !10646
  store i32 %21, i32* %ehselector.slot, !dbg !10646
  invoke void @_ZNSsD1Ev(%"class.std::basic_string"* %ref.tmp31)
          to label %invoke.cont39 unwind label %terminate.lpad, !dbg !10647

invoke.cont39:                                    ; preds = %lpad35
  br label %ehcleanup40, !dbg !10648

ehcleanup40:                                      ; preds = %invoke.cont39, %lpad33
  call void @_ZNSaIcED1Ev(%"class.std::allocator"* %ref.tmp32) #1, !dbg !10650
  br label %eh.resume, !dbg !10650

if.end41:                                         ; preds = %invoke.cont37, %do.end27
  %22 = load i32* getelementptr inbounds (%"struct.ros::console::LogLocation"* @_ZZNK3ros9Publisher7publishIN8std_msgs7String_ISaIvEEEEEvRKT_E3loc_0, i32 0, i32 2), align 4, !dbg !10652
  %cmp42 = icmp ne i32 %22, 4, !dbg !10652
  br i1 %cmp42, label %if.then43, label %if.end44, !dbg !10636

if.then43:                                        ; preds = %if.end41
  call void @_ZN3ros7console19setLogLocationLevelEPNS0_11LogLocationENS0_6levels5LevelE(%"struct.ros::console::LogLocation"* @_ZZNK3ros9Publisher7publishIN8std_msgs7String_ISaIvEEEEEvRKT_E3loc_0, i32 4), !dbg !10656
  call void @_ZN3ros7console23checkLogLocationEnabledEPNS0_11LogLocationE(%"struct.ros::console::LogLocation"* @_ZZNK3ros9Publisher7publishIN8std_msgs7String_ISaIvEEEEEvRKT_E3loc_0), !dbg !10656
  br label %if.end44, !dbg !10656

if.end44:                                         ; preds = %if.then43, %if.end41
  call void @llvm.dbg.declare(metadata i8* %enabled45, metadata !10659, metadata !9990), !dbg !10636
  %23 = load i8* getelementptr inbounds (%"struct.ros::console::LogLocation"* @_ZZNK3ros9Publisher7publishIN8std_msgs7String_ISaIvEEEEEvRKT_E3loc_0, i32 0, i32 1), align 1, !dbg !10660
  %tobool46 = trunc i8 %23 to i1, !dbg !10660
  br i1 %tobool46, label %land.rhs47, label %land.end48, !dbg !10660

land.rhs47:                                       ; preds = %if.end44
  br label %land.end48

land.end48:                                       ; preds = %land.rhs47, %if.end44
  %24 = phi i1 [ false, %if.end44 ], [ true, %land.rhs47 ]
  %frombool49 = zext i1 %24 to i8, !dbg !10663
  store i8 %frombool49, i8* %enabled45, align 1, !dbg !10663
  %25 = load i8* %enabled45, align 1, !dbg !10665
  %tobool50 = trunc i8 %25 to i1, !dbg !10665
  br i1 %tobool50, label %if.then51, label %if.end52, !dbg !10636

if.then51:                                        ; preds = %land.end48
  %26 = load %"class.log4cxx::Logger"** getelementptr inbounds (%"struct.ros::console::LogLocation"* @_ZZNK3ros9Publisher7publishIN8std_msgs7String_ISaIvEEEEEvRKT_E3loc_0, i32 0, i32 3), align 8, !dbg !10667
  %27 = load i32* getelementptr inbounds (%"struct.ros::console::LogLocation"* @_ZZNK3ros9Publisher7publishIN8std_msgs7String_ISaIvEEEEEvRKT_E3loc_0, i32 0, i32 2), align 4, !dbg !10667
  call void (%"class.ros::console::FilterBase"*, %"class.log4cxx::Logger"*, i32, i8*, i32, i8*, i8*, ...)* @_ZN3ros7console5printEPNS0_10FilterBaseEPN7log4cxx6LoggerENS0_6levels5LevelEPKciS9_S9_z(%"class.ros::console::FilterBase"* null, %"class.log4cxx::Logger"* %26, i32 %27, i8* getelementptr inbounds ([40 x i8]* @.str30, i32 0, i32 0), i32 102, i8* getelementptr inbounds ([93 x i8]* @__PRETTY_FUNCTION__._ZNK3ros9Publisher7publishIN8std_msgs7String_ISaIvEEEEEvRKT_, i32 0, i32 0), i8* getelementptr inbounds ([42 x i8]* @.str33, i32 0, i32 0)), !dbg !10667
  br label %if.end52, !dbg !10667

if.end52:                                         ; preds = %if.then51, %land.end48
  br label %do.end53, !dbg !10670

do.end53:                                         ; preds = %if.end52
  br label %do.body54, !dbg !10673

do.body54:                                        ; preds = %do.end53
  br label %do.body55, !dbg !10675

do.body55:                                        ; preds = %do.body54
  %28 = load i8* @_ZN3ros7console13g_initializedE, align 1, !dbg !10678
  %tobool56 = trunc i8 %28 to i1, !dbg !10678
  %lnot57 = xor i1 %tobool56, true, !dbg !10678
  br i1 %lnot57, label %if.then58, label %if.end59, !dbg !10682

if.then58:                                        ; preds = %do.body55
  call void @_ZN3ros7console10initializeEv(), !dbg !10683
  br label %if.end59, !dbg !10683

if.end59:                                         ; preds = %if.then58, %do.body55
  br label %do.end60, !dbg !10686

do.end60:                                         ; preds = %if.end59
  %29 = load i8* getelementptr inbounds (%"struct.ros::console::LogLocation"* @_ZZNK3ros9Publisher7publishIN8std_msgs7String_ISaIvEEEEEvRKT_E3loc_1, i32 0, i32 0), align 1, !dbg !10689
  %tobool61 = trunc i8 %29 to i1, !dbg !10689
  %lnot62 = xor i1 %tobool61, true, !dbg !10689
  br i1 %lnot62, label %if.then63, label %if.end74, !dbg !10692

if.then63:                                        ; preds = %do.end60
  call void @_ZNSaIcEC1Ev(%"class.std::allocator"* %ref.tmp65) #1, !dbg !10693
  invoke void @_ZNSsC1EPKcRKSaIcE(%"class.std::basic_string"* %ref.tmp64, i8* getelementptr inbounds ([20 x i8]* @.str11, i32 0, i32 0), %"class.std::allocator"* dereferenceable(1) %ref.tmp65)
          to label %invoke.cont67 unwind label %lpad66, !dbg !10693

invoke.cont67:                                    ; preds = %if.then63
  invoke void @_ZN3ros7console21initializeLogLocationEPNS0_11LogLocationERKSsNS0_6levels5LevelE(%"struct.ros::console::LogLocation"* @_ZZNK3ros9Publisher7publishIN8std_msgs7String_ISaIvEEEEEvRKT_E3loc_1, %"class.std::basic_string"* dereferenceable(8) %ref.tmp64, i32 4)
          to label %invoke.cont69 unwind label %lpad68, !dbg !10696

invoke.cont69:                                    ; preds = %invoke.cont67
  invoke void @_ZNSsD1Ev(%"class.std::basic_string"* %ref.tmp64)
          to label %invoke.cont70 unwind label %lpad66, !dbg !10698

invoke.cont70:                                    ; preds = %invoke.cont69
  call void @_ZNSaIcED1Ev(%"class.std::allocator"* %ref.tmp65) #1, !dbg !10700
  br label %if.end74, !dbg !10700

lpad66:                                           ; preds = %invoke.cont69, %if.then63
  %30 = landingpad { i8*, i32 } personality i8* bitcast (i32 (...)* @__gxx_personality_v0 to i8*)
          cleanup, !dbg !10702
  %31 = extractvalue { i8*, i32 } %30, 0, !dbg !10702
  store i8* %31, i8** %exn.slot, !dbg !10702
  %32 = extractvalue { i8*, i32 } %30, 1, !dbg !10702
  store i32 %32, i32* %ehselector.slot, !dbg !10702
  br label %ehcleanup73, !dbg !10702

lpad68:                                           ; preds = %invoke.cont67
  %33 = landingpad { i8*, i32 } personality i8* bitcast (i32 (...)* @__gxx_personality_v0 to i8*)
          cleanup, !dbg !10702
  %34 = extractvalue { i8*, i32 } %33, 0, !dbg !10702
  store i8* %34, i8** %exn.slot, !dbg !10702
  %35 = extractvalue { i8*, i32 } %33, 1, !dbg !10702
  store i32 %35, i32* %ehselector.slot, !dbg !10702
  invoke void @_ZNSsD1Ev(%"class.std::basic_string"* %ref.tmp64)
          to label %invoke.cont72 unwind label %terminate.lpad, !dbg !10703

invoke.cont72:                                    ; preds = %lpad68
  br label %ehcleanup73, !dbg !10704

ehcleanup73:                                      ; preds = %invoke.cont72, %lpad66
  call void @_ZNSaIcED1Ev(%"class.std::allocator"* %ref.tmp65) #1, !dbg !10706
  br label %eh.resume, !dbg !10706

if.end74:                                         ; preds = %invoke.cont70, %do.end60
  %36 = load i32* getelementptr inbounds (%"struct.ros::console::LogLocation"* @_ZZNK3ros9Publisher7publishIN8std_msgs7String_ISaIvEEEEEvRKT_E3loc_1, i32 0, i32 2), align 4, !dbg !10708
  %cmp75 = icmp ne i32 %36, 4, !dbg !10708
  br i1 %cmp75, label %if.then76, label %if.end77, !dbg !10692

if.then76:                                        ; preds = %if.end74
  call void @_ZN3ros7console19setLogLocationLevelEPNS0_11LogLocationENS0_6levels5LevelE(%"struct.ros::console::LogLocation"* @_ZZNK3ros9Publisher7publishIN8std_msgs7String_ISaIvEEEEEvRKT_E3loc_1, i32 4), !dbg !10712
  call void @_ZN3ros7console23checkLogLocationEnabledEPNS0_11LogLocationE(%"struct.ros::console::LogLocation"* @_ZZNK3ros9Publisher7publishIN8std_msgs7String_ISaIvEEEEEvRKT_E3loc_1), !dbg !10712
  br label %if.end77, !dbg !10712

if.end77:                                         ; preds = %if.then76, %if.end74
  call void @llvm.dbg.declare(metadata i8* %enabled78, metadata !10715, metadata !9990), !dbg !10692
  %37 = load i8* getelementptr inbounds (%"struct.ros::console::LogLocation"* @_ZZNK3ros9Publisher7publishIN8std_msgs7String_ISaIvEEEEEvRKT_E3loc_1, i32 0, i32 1), align 1, !dbg !10716
  %tobool79 = trunc i8 %37 to i1, !dbg !10716
  br i1 %tobool79, label %land.rhs80, label %land.end81, !dbg !10716

land.rhs80:                                       ; preds = %if.end77
  br label %land.end81

land.end81:                                       ; preds = %land.rhs80, %if.end77
  %38 = phi i1 [ false, %if.end77 ], [ true, %land.rhs80 ]
  %frombool82 = zext i1 %38 to i8, !dbg !10719
  store i8 %frombool82, i8* %enabled78, align 1, !dbg !10719
  %39 = load i8* %enabled78, align 1, !dbg !10721
  %tobool83 = trunc i8 %39 to i1, !dbg !10721
  br i1 %tobool83, label %if.then84, label %if.end85, !dbg !10692

if.then84:                                        ; preds = %land.end81
  %40 = load %"class.log4cxx::Logger"** getelementptr inbounds (%"struct.ros::console::LogLocation"* @_ZZNK3ros9Publisher7publishIN8std_msgs7String_ISaIvEEEEEvRKT_E3loc_1, i32 0, i32 3), align 8, !dbg !10723
  %41 = load i32* getelementptr inbounds (%"struct.ros::console::LogLocation"* @_ZZNK3ros9Publisher7publishIN8std_msgs7String_ISaIvEEEEEvRKT_E3loc_1, i32 0, i32 2), align 4, !dbg !10723
  call void (%"class.ros::console::FilterBase"*, %"class.log4cxx::Logger"*, i32, i8*, i32, i8*, i8*, ...)* @_ZN3ros7console5printEPNS0_10FilterBaseEPN7log4cxx6LoggerENS0_6levels5LevelEPKciS9_S9_z(%"class.ros::console::FilterBase"* null, %"class.log4cxx::Logger"* %40, i32 %41, i8* getelementptr inbounds ([40 x i8]* @.str30, i32 0, i32 0), i32 102, i8* getelementptr inbounds ([93 x i8]* @__PRETTY_FUNCTION__._ZNK3ros9Publisher7publishIN8std_msgs7String_ISaIvEEEEEvRKT_, i32 0, i32 0), i8* getelementptr inbounds ([2 x i8]* @.str34, i32 0, i32 0)), !dbg !10723
  br label %if.end85, !dbg !10723

if.end85:                                         ; preds = %if.then84, %land.end81
  br label %do.end86, !dbg !10726

do.end86:                                         ; preds = %if.end85
  call void asm sideeffect "int $$3", "~{dirflag},~{fpsr},~{flags}"() #1, !dbg !10729, !srcloc !10731
  br label %do.end87, !dbg !10732

do.end87:                                         ; preds = %do.end86
  br label %return, !dbg !10733

if.end88:                                         ; preds = %entry
  %impl_89 = getelementptr inbounds %"class.ros::Publisher"* %this1, i32 0, i32 0, !dbg !10734
  %call90 = call %"class.ros::Publisher::Impl"* @_ZNK5boost10shared_ptrIN3ros9Publisher4ImplEEptEv(%"class.boost::shared_ptr.21"* %impl_89), !dbg !10734
  %call91 = call zeroext i1 @_ZNK3ros9Publisher4Impl7isValidEv(%"class.ros::Publisher::Impl"* %call90), !dbg !10734
  br i1 %call91, label %if.end197, label %if.then92, !dbg !10736

if.then92:                                        ; preds = %if.end88
  br label %do.body93, !dbg !10737

do.body93:                                        ; preds = %if.then92
  br label %do.body94, !dbg !10739

do.body94:                                        ; preds = %do.body93
  br label %do.body95, !dbg !10744

do.body95:                                        ; preds = %do.body94
  %42 = load i8* @_ZN3ros7console13g_initializedE, align 1, !dbg !10747
  %tobool96 = trunc i8 %42 to i1, !dbg !10747
  %lnot97 = xor i1 %tobool96, true, !dbg !10747
  br i1 %lnot97, label %if.then98, label %if.end99, !dbg !10751

if.then98:                                        ; preds = %do.body95
  call void @_ZN3ros7console10initializeEv(), !dbg !10752
  br label %if.end99, !dbg !10752

if.end99:                                         ; preds = %if.then98, %do.body95
  br label %do.end100, !dbg !10755

do.end100:                                        ; preds = %if.end99
  %43 = load i8* getelementptr inbounds (%"struct.ros::console::LogLocation"* @_ZZNK3ros9Publisher7publishIN8std_msgs7String_ISaIvEEEEEvRKT_E3loc_2, i32 0, i32 0), align 1, !dbg !10758
  %tobool101 = trunc i8 %43 to i1, !dbg !10758
  %lnot102 = xor i1 %tobool101, true, !dbg !10758
  br i1 %lnot102, label %if.then103, label %if.end114, !dbg !10761

if.then103:                                       ; preds = %do.end100
  call void @_ZNSaIcEC1Ev(%"class.std::allocator"* %ref.tmp105) #1, !dbg !10762
  invoke void @_ZNSsC1EPKcRKSaIcE(%"class.std::basic_string"* %ref.tmp104, i8* getelementptr inbounds ([20 x i8]* @.str11, i32 0, i32 0), %"class.std::allocator"* dereferenceable(1) %ref.tmp105)
          to label %invoke.cont107 unwind label %lpad106, !dbg !10762

invoke.cont107:                                   ; preds = %if.then103
  invoke void @_ZN3ros7console21initializeLogLocationEPNS0_11LogLocationERKSsNS0_6levels5LevelE(%"struct.ros::console::LogLocation"* @_ZZNK3ros9Publisher7publishIN8std_msgs7String_ISaIvEEEEEvRKT_E3loc_2, %"class.std::basic_string"* dereferenceable(8) %ref.tmp104, i32 4)
          to label %invoke.cont109 unwind label %lpad108, !dbg !10765

invoke.cont109:                                   ; preds = %invoke.cont107
  invoke void @_ZNSsD1Ev(%"class.std::basic_string"* %ref.tmp104)
          to label %invoke.cont110 unwind label %lpad106, !dbg !10767

invoke.cont110:                                   ; preds = %invoke.cont109
  call void @_ZNSaIcED1Ev(%"class.std::allocator"* %ref.tmp105) #1, !dbg !10769
  br label %if.end114, !dbg !10769

lpad106:                                          ; preds = %invoke.cont109, %if.then103
  %44 = landingpad { i8*, i32 } personality i8* bitcast (i32 (...)* @__gxx_personality_v0 to i8*)
          cleanup, !dbg !10771
  %45 = extractvalue { i8*, i32 } %44, 0, !dbg !10771
  store i8* %45, i8** %exn.slot, !dbg !10771
  %46 = extractvalue { i8*, i32 } %44, 1, !dbg !10771
  store i32 %46, i32* %ehselector.slot, !dbg !10771
  br label %ehcleanup113, !dbg !10771

lpad108:                                          ; preds = %invoke.cont107
  %47 = landingpad { i8*, i32 } personality i8* bitcast (i32 (...)* @__gxx_personality_v0 to i8*)
          cleanup, !dbg !10771
  %48 = extractvalue { i8*, i32 } %47, 0, !dbg !10771
  store i8* %48, i8** %exn.slot, !dbg !10771
  %49 = extractvalue { i8*, i32 } %47, 1, !dbg !10771
  store i32 %49, i32* %ehselector.slot, !dbg !10771
  invoke void @_ZNSsD1Ev(%"class.std::basic_string"* %ref.tmp104)
          to label %invoke.cont112 unwind label %terminate.lpad, !dbg !10772

invoke.cont112:                                   ; preds = %lpad108
  br label %ehcleanup113, !dbg !10773

ehcleanup113:                                     ; preds = %invoke.cont112, %lpad106
  call void @_ZNSaIcED1Ev(%"class.std::allocator"* %ref.tmp105) #1, !dbg !10775
  br label %eh.resume, !dbg !10775

if.end114:                                        ; preds = %invoke.cont110, %do.end100
  %50 = load i32* getelementptr inbounds (%"struct.ros::console::LogLocation"* @_ZZNK3ros9Publisher7publishIN8std_msgs7String_ISaIvEEEEEvRKT_E3loc_2, i32 0, i32 2), align 4, !dbg !10777
  %cmp115 = icmp ne i32 %50, 4, !dbg !10777
  br i1 %cmp115, label %if.then116, label %if.end117, !dbg !10761

if.then116:                                       ; preds = %if.end114
  call void @_ZN3ros7console19setLogLocationLevelEPNS0_11LogLocationENS0_6levels5LevelE(%"struct.ros::console::LogLocation"* @_ZZNK3ros9Publisher7publishIN8std_msgs7String_ISaIvEEEEEvRKT_E3loc_2, i32 4), !dbg !10781
  call void @_ZN3ros7console23checkLogLocationEnabledEPNS0_11LogLocationE(%"struct.ros::console::LogLocation"* @_ZZNK3ros9Publisher7publishIN8std_msgs7String_ISaIvEEEEEvRKT_E3loc_2), !dbg !10781
  br label %if.end117, !dbg !10781

if.end117:                                        ; preds = %if.then116, %if.end114
  call void @llvm.dbg.declare(metadata i8* %enabled118, metadata !10784, metadata !9990), !dbg !10761
  %51 = load i8* getelementptr inbounds (%"struct.ros::console::LogLocation"* @_ZZNK3ros9Publisher7publishIN8std_msgs7String_ISaIvEEEEEvRKT_E3loc_2, i32 0, i32 1), align 1, !dbg !10785
  %tobool119 = trunc i8 %51 to i1, !dbg !10785
  br i1 %tobool119, label %land.rhs120, label %land.end121, !dbg !10785

land.rhs120:                                      ; preds = %if.end117
  br label %land.end121

land.end121:                                      ; preds = %land.rhs120, %if.end117
  %52 = phi i1 [ false, %if.end117 ], [ true, %land.rhs120 ]
  %frombool122 = zext i1 %52 to i8, !dbg !10788
  store i8 %frombool122, i8* %enabled118, align 1, !dbg !10788
  %53 = load i8* %enabled118, align 1, !dbg !10790
  %tobool123 = trunc i8 %53 to i1, !dbg !10790
  br i1 %tobool123, label %if.then124, label %if.end125, !dbg !10761

if.then124:                                       ; preds = %land.end121
  %54 = load %"class.log4cxx::Logger"** getelementptr inbounds (%"struct.ros::console::LogLocation"* @_ZZNK3ros9Publisher7publishIN8std_msgs7String_ISaIvEEEEEvRKT_E3loc_2, i32 0, i32 3), align 8, !dbg !10792
  %55 = load i32* getelementptr inbounds (%"struct.ros::console::LogLocation"* @_ZZNK3ros9Publisher7publishIN8std_msgs7String_ISaIvEEEEEvRKT_E3loc_2, i32 0, i32 2), align 4, !dbg !10792
  call void (%"class.ros::console::FilterBase"*, %"class.log4cxx::Logger"*, i32, i8*, i32, i8*, i8*, ...)* @_ZN3ros7console5printEPNS0_10FilterBaseEPN7log4cxx6LoggerENS0_6levels5LevelEPKciS9_S9_z(%"class.ros::console::FilterBase"* null, %"class.log4cxx::Logger"* %54, i32 %55, i8* getelementptr inbounds ([40 x i8]* @.str30, i32 0, i32 0), i32 108, i8* getelementptr inbounds ([93 x i8]* @__PRETTY_FUNCTION__._ZNK3ros9Publisher7publishIN8std_msgs7String_ISaIvEEEEEvRKT_, i32 0, i32 0), i8* getelementptr inbounds ([62 x i8]* @.str31, i32 0, i32 0), i8* getelementptr inbounds ([40 x i8]* @.str30, i32 0, i32 0), i32 108, i8* getelementptr inbounds ([6 x i8]* @.str32, i32 0, i32 0)), !dbg !10792
  br label %if.end125, !dbg !10792

if.end125:                                        ; preds = %if.then124, %land.end121
  br label %do.end126, !dbg !10795

do.end126:                                        ; preds = %if.end125
  br label %do.body127, !dbg !10798

do.body127:                                       ; preds = %do.end126
  br label %do.body128, !dbg !10800

do.body128:                                       ; preds = %do.body127
  %56 = load i8* @_ZN3ros7console13g_initializedE, align 1, !dbg !10803
  %tobool129 = trunc i8 %56 to i1, !dbg !10803
  %lnot130 = xor i1 %tobool129, true, !dbg !10803
  br i1 %lnot130, label %if.then131, label %if.end132, !dbg !10807

if.then131:                                       ; preds = %do.body128
  call void @_ZN3ros7console10initializeEv(), !dbg !10808
  br label %if.end132, !dbg !10808

if.end132:                                        ; preds = %if.then131, %do.body128
  br label %do.end133, !dbg !10811

do.end133:                                        ; preds = %if.end132
  %57 = load i8* getelementptr inbounds (%"struct.ros::console::LogLocation"* @_ZZNK3ros9Publisher7publishIN8std_msgs7String_ISaIvEEEEEvRKT_E3loc_3, i32 0, i32 0), align 1, !dbg !10814
  %tobool134 = trunc i8 %57 to i1, !dbg !10814
  %lnot135 = xor i1 %tobool134, true, !dbg !10814
  br i1 %lnot135, label %if.then136, label %if.end147, !dbg !10817

if.then136:                                       ; preds = %do.end133
  call void @_ZNSaIcEC1Ev(%"class.std::allocator"* %ref.tmp138) #1, !dbg !10818
  invoke void @_ZNSsC1EPKcRKSaIcE(%"class.std::basic_string"* %ref.tmp137, i8* getelementptr inbounds ([20 x i8]* @.str11, i32 0, i32 0), %"class.std::allocator"* dereferenceable(1) %ref.tmp138)
          to label %invoke.cont140 unwind label %lpad139, !dbg !10818

invoke.cont140:                                   ; preds = %if.then136
  invoke void @_ZN3ros7console21initializeLogLocationEPNS0_11LogLocationERKSsNS0_6levels5LevelE(%"struct.ros::console::LogLocation"* @_ZZNK3ros9Publisher7publishIN8std_msgs7String_ISaIvEEEEEvRKT_E3loc_3, %"class.std::basic_string"* dereferenceable(8) %ref.tmp137, i32 4)
          to label %invoke.cont142 unwind label %lpad141, !dbg !10821

invoke.cont142:                                   ; preds = %invoke.cont140
  invoke void @_ZNSsD1Ev(%"class.std::basic_string"* %ref.tmp137)
          to label %invoke.cont143 unwind label %lpad139, !dbg !10823

invoke.cont143:                                   ; preds = %invoke.cont142
  call void @_ZNSaIcED1Ev(%"class.std::allocator"* %ref.tmp138) #1, !dbg !10825
  br label %if.end147, !dbg !10825

lpad139:                                          ; preds = %invoke.cont142, %if.then136
  %58 = landingpad { i8*, i32 } personality i8* bitcast (i32 (...)* @__gxx_personality_v0 to i8*)
          cleanup, !dbg !10827
  %59 = extractvalue { i8*, i32 } %58, 0, !dbg !10827
  store i8* %59, i8** %exn.slot, !dbg !10827
  %60 = extractvalue { i8*, i32 } %58, 1, !dbg !10827
  store i32 %60, i32* %ehselector.slot, !dbg !10827
  br label %ehcleanup146, !dbg !10827

lpad141:                                          ; preds = %invoke.cont140
  %61 = landingpad { i8*, i32 } personality i8* bitcast (i32 (...)* @__gxx_personality_v0 to i8*)
          cleanup, !dbg !10827
  %62 = extractvalue { i8*, i32 } %61, 0, !dbg !10827
  store i8* %62, i8** %exn.slot, !dbg !10827
  %63 = extractvalue { i8*, i32 } %61, 1, !dbg !10827
  store i32 %63, i32* %ehselector.slot, !dbg !10827
  invoke void @_ZNSsD1Ev(%"class.std::basic_string"* %ref.tmp137)
          to label %invoke.cont145 unwind label %terminate.lpad, !dbg !10828

invoke.cont145:                                   ; preds = %lpad141
  br label %ehcleanup146, !dbg !10829

ehcleanup146:                                     ; preds = %invoke.cont145, %lpad139
  call void @_ZNSaIcED1Ev(%"class.std::allocator"* %ref.tmp138) #1, !dbg !10831
  br label %eh.resume, !dbg !10831

if.end147:                                        ; preds = %invoke.cont143, %do.end133
  %64 = load i32* getelementptr inbounds (%"struct.ros::console::LogLocation"* @_ZZNK3ros9Publisher7publishIN8std_msgs7String_ISaIvEEEEEvRKT_E3loc_3, i32 0, i32 2), align 4, !dbg !10833
  %cmp148 = icmp ne i32 %64, 4, !dbg !10833
  br i1 %cmp148, label %if.then149, label %if.end150, !dbg !10817

if.then149:                                       ; preds = %if.end147
  call void @_ZN3ros7console19setLogLocationLevelEPNS0_11LogLocationENS0_6levels5LevelE(%"struct.ros::console::LogLocation"* @_ZZNK3ros9Publisher7publishIN8std_msgs7String_ISaIvEEEEEvRKT_E3loc_3, i32 4), !dbg !10837
  call void @_ZN3ros7console23checkLogLocationEnabledEPNS0_11LogLocationE(%"struct.ros::console::LogLocation"* @_ZZNK3ros9Publisher7publishIN8std_msgs7String_ISaIvEEEEEvRKT_E3loc_3), !dbg !10837
  br label %if.end150, !dbg !10837

if.end150:                                        ; preds = %if.then149, %if.end147
  call void @llvm.dbg.declare(metadata i8* %enabled151, metadata !10840, metadata !9990), !dbg !10817
  %65 = load i8* getelementptr inbounds (%"struct.ros::console::LogLocation"* @_ZZNK3ros9Publisher7publishIN8std_msgs7String_ISaIvEEEEEvRKT_E3loc_3, i32 0, i32 1), align 1, !dbg !10841
  %tobool152 = trunc i8 %65 to i1, !dbg !10841
  br i1 %tobool152, label %land.rhs153, label %land.end154, !dbg !10841

land.rhs153:                                      ; preds = %if.end150
  br label %land.end154

land.end154:                                      ; preds = %land.rhs153, %if.end150
  %66 = phi i1 [ false, %if.end150 ], [ true, %land.rhs153 ]
  %frombool155 = zext i1 %66 to i8, !dbg !10844
  store i8 %frombool155, i8* %enabled151, align 1, !dbg !10844
  %67 = load i8* %enabled151, align 1, !dbg !10846
  %tobool156 = trunc i8 %67 to i1, !dbg !10846
  br i1 %tobool156, label %if.then157, label %if.end161, !dbg !10817

if.then157:                                       ; preds = %land.end154
  %68 = load %"class.log4cxx::Logger"** getelementptr inbounds (%"struct.ros::console::LogLocation"* @_ZZNK3ros9Publisher7publishIN8std_msgs7String_ISaIvEEEEEvRKT_E3loc_3, i32 0, i32 3), align 8, !dbg !10848
  %69 = load i32* getelementptr inbounds (%"struct.ros::console::LogLocation"* @_ZZNK3ros9Publisher7publishIN8std_msgs7String_ISaIvEEEEEvRKT_E3loc_3, i32 0, i32 2), align 4, !dbg !10848
  %impl_158 = getelementptr inbounds %"class.ros::Publisher"* %this1, i32 0, i32 0, !dbg !10848
  %call159 = call %"class.ros::Publisher::Impl"* @_ZNK5boost10shared_ptrIN3ros9Publisher4ImplEEptEv(%"class.boost::shared_ptr.21"* %impl_158), !dbg !10848
  %topic_ = getelementptr inbounds %"class.ros::Publisher::Impl"* %call159, i32 0, i32 0, !dbg !10848
  %call160 = call i8* @_ZNKSs5c_strEv(%"class.std::basic_string"* %topic_), !dbg !10848
  call void (%"class.ros::console::FilterBase"*, %"class.log4cxx::Logger"*, i32, i8*, i32, i8*, i8*, ...)* @_ZN3ros7console5printEPNS0_10FilterBaseEPN7log4cxx6LoggerENS0_6levels5LevelEPKciS9_S9_z(%"class.ros::console::FilterBase"* null, %"class.log4cxx::Logger"* %68, i32 %69, i8* getelementptr inbounds ([40 x i8]* @.str30, i32 0, i32 0), i32 108, i8* getelementptr inbounds ([93 x i8]* @__PRETTY_FUNCTION__._ZNK3ros9Publisher7publishIN8std_msgs7String_ISaIvEEEEEvRKT_, i32 0, i32 0), i8* getelementptr inbounds ([55 x i8]* @.str35, i32 0, i32 0), i8* %call160), !dbg !10848
  br label %if.end161, !dbg !10848

if.end161:                                        ; preds = %if.then157, %land.end154
  br label %do.end162, !dbg !10851

do.end162:                                        ; preds = %if.end161
  br label %do.body163, !dbg !10854

do.body163:                                       ; preds = %do.end162
  br label %do.body164, !dbg !10856

do.body164:                                       ; preds = %do.body163
  %70 = load i8* @_ZN3ros7console13g_initializedE, align 1, !dbg !10859
  %tobool165 = trunc i8 %70 to i1, !dbg !10859
  %lnot166 = xor i1 %tobool165, true, !dbg !10859
  br i1 %lnot166, label %if.then167, label %if.end168, !dbg !10863

if.then167:                                       ; preds = %do.body164
  call void @_ZN3ros7console10initializeEv(), !dbg !10864
  br label %if.end168, !dbg !10864

if.end168:                                        ; preds = %if.then167, %do.body164
  br label %do.end169, !dbg !10867

do.end169:                                        ; preds = %if.end168
  %71 = load i8* getelementptr inbounds (%"struct.ros::console::LogLocation"* @_ZZNK3ros9Publisher7publishIN8std_msgs7String_ISaIvEEEEEvRKT_E3loc_4, i32 0, i32 0), align 1, !dbg !10870
  %tobool170 = trunc i8 %71 to i1, !dbg !10870
  %lnot171 = xor i1 %tobool170, true, !dbg !10870
  br i1 %lnot171, label %if.then172, label %if.end183, !dbg !10873

if.then172:                                       ; preds = %do.end169
  call void @_ZNSaIcEC1Ev(%"class.std::allocator"* %ref.tmp174) #1, !dbg !10874
  invoke void @_ZNSsC1EPKcRKSaIcE(%"class.std::basic_string"* %ref.tmp173, i8* getelementptr inbounds ([20 x i8]* @.str11, i32 0, i32 0), %"class.std::allocator"* dereferenceable(1) %ref.tmp174)
          to label %invoke.cont176 unwind label %lpad175, !dbg !10874

invoke.cont176:                                   ; preds = %if.then172
  invoke void @_ZN3ros7console21initializeLogLocationEPNS0_11LogLocationERKSsNS0_6levels5LevelE(%"struct.ros::console::LogLocation"* @_ZZNK3ros9Publisher7publishIN8std_msgs7String_ISaIvEEEEEvRKT_E3loc_4, %"class.std::basic_string"* dereferenceable(8) %ref.tmp173, i32 4)
          to label %invoke.cont178 unwind label %lpad177, !dbg !10877

invoke.cont178:                                   ; preds = %invoke.cont176
  invoke void @_ZNSsD1Ev(%"class.std::basic_string"* %ref.tmp173)
          to label %invoke.cont179 unwind label %lpad175, !dbg !10879

invoke.cont179:                                   ; preds = %invoke.cont178
  call void @_ZNSaIcED1Ev(%"class.std::allocator"* %ref.tmp174) #1, !dbg !10881
  br label %if.end183, !dbg !10881

lpad175:                                          ; preds = %invoke.cont178, %if.then172
  %72 = landingpad { i8*, i32 } personality i8* bitcast (i32 (...)* @__gxx_personality_v0 to i8*)
          cleanup, !dbg !10883
  %73 = extractvalue { i8*, i32 } %72, 0, !dbg !10883
  store i8* %73, i8** %exn.slot, !dbg !10883
  %74 = extractvalue { i8*, i32 } %72, 1, !dbg !10883
  store i32 %74, i32* %ehselector.slot, !dbg !10883
  br label %ehcleanup182, !dbg !10883

lpad177:                                          ; preds = %invoke.cont176
  %75 = landingpad { i8*, i32 } personality i8* bitcast (i32 (...)* @__gxx_personality_v0 to i8*)
          cleanup, !dbg !10883
  %76 = extractvalue { i8*, i32 } %75, 0, !dbg !10883
  store i8* %76, i8** %exn.slot, !dbg !10883
  %77 = extractvalue { i8*, i32 } %75, 1, !dbg !10883
  store i32 %77, i32* %ehselector.slot, !dbg !10883
  invoke void @_ZNSsD1Ev(%"class.std::basic_string"* %ref.tmp173)
          to label %invoke.cont181 unwind label %terminate.lpad, !dbg !10884

invoke.cont181:                                   ; preds = %lpad177
  br label %ehcleanup182, !dbg !10885

ehcleanup182:                                     ; preds = %invoke.cont181, %lpad175
  call void @_ZNSaIcED1Ev(%"class.std::allocator"* %ref.tmp174) #1, !dbg !10887
  br label %eh.resume, !dbg !10887

if.end183:                                        ; preds = %invoke.cont179, %do.end169
  %78 = load i32* getelementptr inbounds (%"struct.ros::console::LogLocation"* @_ZZNK3ros9Publisher7publishIN8std_msgs7String_ISaIvEEEEEvRKT_E3loc_4, i32 0, i32 2), align 4, !dbg !10889
  %cmp184 = icmp ne i32 %78, 4, !dbg !10889
  br i1 %cmp184, label %if.then185, label %if.end186, !dbg !10873

if.then185:                                       ; preds = %if.end183
  call void @_ZN3ros7console19setLogLocationLevelEPNS0_11LogLocationENS0_6levels5LevelE(%"struct.ros::console::LogLocation"* @_ZZNK3ros9Publisher7publishIN8std_msgs7String_ISaIvEEEEEvRKT_E3loc_4, i32 4), !dbg !10893
  call void @_ZN3ros7console23checkLogLocationEnabledEPNS0_11LogLocationE(%"struct.ros::console::LogLocation"* @_ZZNK3ros9Publisher7publishIN8std_msgs7String_ISaIvEEEEEvRKT_E3loc_4), !dbg !10893
  br label %if.end186, !dbg !10893

if.end186:                                        ; preds = %if.then185, %if.end183
  call void @llvm.dbg.declare(metadata i8* %enabled187, metadata !10896, metadata !9990), !dbg !10873
  %79 = load i8* getelementptr inbounds (%"struct.ros::console::LogLocation"* @_ZZNK3ros9Publisher7publishIN8std_msgs7String_ISaIvEEEEEvRKT_E3loc_4, i32 0, i32 1), align 1, !dbg !10897
  %tobool188 = trunc i8 %79 to i1, !dbg !10897
  br i1 %tobool188, label %land.rhs189, label %land.end190, !dbg !10897

land.rhs189:                                      ; preds = %if.end186
  br label %land.end190

land.end190:                                      ; preds = %land.rhs189, %if.end186
  %80 = phi i1 [ false, %if.end186 ], [ true, %land.rhs189 ]
  %frombool191 = zext i1 %80 to i8, !dbg !10900
  store i8 %frombool191, i8* %enabled187, align 1, !dbg !10900
  %81 = load i8* %enabled187, align 1, !dbg !10902
  %tobool192 = trunc i8 %81 to i1, !dbg !10902
  br i1 %tobool192, label %if.then193, label %if.end194, !dbg !10873

if.then193:                                       ; preds = %land.end190
  %82 = load %"class.log4cxx::Logger"** getelementptr inbounds (%"struct.ros::console::LogLocation"* @_ZZNK3ros9Publisher7publishIN8std_msgs7String_ISaIvEEEEEvRKT_E3loc_4, i32 0, i32 3), align 8, !dbg !10904
  %83 = load i32* getelementptr inbounds (%"struct.ros::console::LogLocation"* @_ZZNK3ros9Publisher7publishIN8std_msgs7String_ISaIvEEEEEvRKT_E3loc_4, i32 0, i32 2), align 4, !dbg !10904
  call void (%"class.ros::console::FilterBase"*, %"class.log4cxx::Logger"*, i32, i8*, i32, i8*, i8*, ...)* @_ZN3ros7console5printEPNS0_10FilterBaseEPN7log4cxx6LoggerENS0_6levels5LevelEPKciS9_S9_z(%"class.ros::console::FilterBase"* null, %"class.log4cxx::Logger"* %82, i32 %83, i8* getelementptr inbounds ([40 x i8]* @.str30, i32 0, i32 0), i32 108, i8* getelementptr inbounds ([93 x i8]* @__PRETTY_FUNCTION__._ZNK3ros9Publisher7publishIN8std_msgs7String_ISaIvEEEEEvRKT_, i32 0, i32 0), i8* getelementptr inbounds ([2 x i8]* @.str34, i32 0, i32 0)), !dbg !10904
  br label %if.end194, !dbg !10904

if.end194:                                        ; preds = %if.then193, %land.end190
  br label %do.end195, !dbg !10907

do.end195:                                        ; preds = %if.end194
  call void asm sideeffect "int $$3", "~{dirflag},~{fpsr},~{flags}"() #1, !dbg !10910, !srcloc !10912
  br label %do.end196, !dbg !10913

do.end196:                                        ; preds = %do.end195
  br label %return, !dbg !10914

if.end197:                                        ; preds = %if.end88
  br label %do.body198, !dbg !10915

do.body198:                                       ; preds = %if.end197
  %impl_199 = getelementptr inbounds %"class.ros::Publisher"* %this1, i32 0, i32 0, !dbg !10916
  %call200 = call %"class.ros::Publisher::Impl"* @_ZNK5boost10shared_ptrIN3ros9Publisher4ImplEEptEv(%"class.boost::shared_ptr.21"* %impl_199), !dbg !10916
  %md5sum_ = getelementptr inbounds %"class.ros::Publisher::Impl"* %call200, i32 0, i32 1, !dbg !10916
  %call201 = call zeroext i1 @_ZSteqIcSt11char_traitsIcESaIcEEbRKSbIT_T0_T1_EPKS3_(%"class.std::basic_string"* dereferenceable(8) %md5sum_, i8* getelementptr inbounds ([2 x i8]* @.str36, i32 0, i32 0)), !dbg !10916
  store i1 false, i1* %cleanup.cond
  store i1 false, i1* %cleanup.cond207
  br i1 %call201, label %lor.end, label %lor.lhs.false, !dbg !10920

lor.lhs.false:                                    ; preds = %do.body198
  %84 = load %"struct.std_msgs::String_"** %message.addr, align 8, !dbg !10921
  %call203 = call i8* @_ZN3ros14message_traits6md5sumIN8std_msgs7String_ISaIvEEEEEPKcRKT_(%"struct.std_msgs::String_"* dereferenceable(24) %84), !dbg !10921
  call void @_ZNSaIcEC1Ev(%"class.std::allocator"* %ref.tmp204) #1, !dbg !10921
  store i1 true, i1* %cleanup.cond, !dbg !10921
  invoke void @_ZNSsC1EPKcRKSaIcE(%"class.std::basic_string"* %ref.tmp202, i8* %call203, %"class.std::allocator"* dereferenceable(1) %ref.tmp204)
          to label %invoke.cont206 unwind label %lpad205, !dbg !10921

invoke.cont206:                                   ; preds = %lor.lhs.false
  store i1 true, i1* %cleanup.cond207, !dbg !10923
  %call210 = invoke zeroext i1 @_ZSteqIcSt11char_traitsIcESaIcEEbRKSbIT_T0_T1_EPKS3_(%"class.std::basic_string"* dereferenceable(8) %ref.tmp202, i8* getelementptr inbounds ([2 x i8]* @.str36, i32 0, i32 0))
          to label %invoke.cont209 unwind label %lpad208, !dbg !10923

invoke.cont209:                                   ; preds = %invoke.cont206
  br i1 %call210, label %lor.end, label %lor.rhs, !dbg !10925

lor.rhs:                                          ; preds = %invoke.cont209
  %impl_211 = getelementptr inbounds %"class.ros::Publisher"* %this1, i32 0, i32 0, !dbg !10927
  %call213 = invoke %"class.ros::Publisher::Impl"* @_ZNK5boost10shared_ptrIN3ros9Publisher4ImplEEptEv(%"class.boost::shared_ptr.21"* %impl_211)
          to label %invoke.cont212 unwind label %lpad208, !dbg !10927

invoke.cont212:                                   ; preds = %lor.rhs
  %md5sum_214 = getelementptr inbounds %"class.ros::Publisher::Impl"* %call213, i32 0, i32 1, !dbg !10929
  %85 = load %"struct.std_msgs::String_"** %message.addr, align 8, !dbg !10929
  %call216 = invoke i8* @_ZN3ros14message_traits6md5sumIN8std_msgs7String_ISaIvEEEEEPKcRKT_(%"struct.std_msgs::String_"* dereferenceable(24) %85)
          to label %invoke.cont215 unwind label %lpad208, !dbg !10929

invoke.cont215:                                   ; preds = %invoke.cont212
  %call218 = invoke zeroext i1 @_ZSteqIcSt11char_traitsIcESaIcEEbRKSbIT_T0_T1_EPKS3_(%"class.std::basic_string"* dereferenceable(8) %md5sum_214, i8* %call216)
          to label %invoke.cont217 unwind label %lpad208, !dbg !10931

invoke.cont217:                                   ; preds = %invoke.cont215
  br label %lor.end, !dbg !10933

lor.end:                                          ; preds = %invoke.cont217, %invoke.cont209, %do.body198
  %86 = phi i1 [ true, %invoke.cont209 ], [ true, %do.body198 ], [ %call218, %invoke.cont217 ]
  %lnot219 = xor i1 %86, true, !dbg !10935
  %cleanup.is_active = load i1* %cleanup.cond207, !dbg !10935
  br i1 %cleanup.is_active, label %cleanup.action, label %cleanup.done, !dbg !10935

cleanup.action:                                   ; preds = %lor.end
  invoke void @_ZNSsD1Ev(%"class.std::basic_string"* %ref.tmp202)
          to label %invoke.cont220 unwind label %lpad205, !dbg !10939

invoke.cont220:                                   ; preds = %cleanup.action
  br label %cleanup.done, !dbg !10941

cleanup.done:                                     ; preds = %invoke.cont220, %lor.end
  %cleanup.is_active226 = load i1* %cleanup.cond, !dbg !10943
  br i1 %cleanup.is_active226, label %cleanup.action227, label %cleanup.done228, !dbg !10943

cleanup.action227:                                ; preds = %cleanup.done
  call void @_ZNSaIcED1Ev(%"class.std::allocator"* %ref.tmp204) #1, !dbg !10946
  br label %cleanup.done228, !dbg !10946

cleanup.done228:                                  ; preds = %cleanup.action227, %cleanup.done
  br i1 %lnot219, label %if.then233, label %if.end342, !dbg !10948

if.then233:                                       ; preds = %cleanup.done228
  br label %do.body234, !dbg !10951

do.body234:                                       ; preds = %if.then233
  br label %do.body235, !dbg !10954

do.body235:                                       ; preds = %do.body234
  %87 = load i8* @_ZN3ros7console13g_initializedE, align 1, !dbg !10957
  %tobool236 = trunc i8 %87 to i1, !dbg !10957
  %lnot237 = xor i1 %tobool236, true, !dbg !10957
  br i1 %lnot237, label %if.then238, label %if.end239, !dbg !10961

if.then238:                                       ; preds = %do.body235
  call void @_ZN3ros7console10initializeEv(), !dbg !10962
  br label %if.end239, !dbg !10962

lpad205:                                          ; preds = %cleanup.action, %lor.lhs.false
  %88 = landingpad { i8*, i32 } personality i8* bitcast (i32 (...)* @__gxx_personality_v0 to i8*)
          cleanup, !dbg !10965
  %89 = extractvalue { i8*, i32 } %88, 0, !dbg !10965
  store i8* %89, i8** %exn.slot, !dbg !10965
  %90 = extractvalue { i8*, i32 } %88, 1, !dbg !10965
  store i32 %90, i32* %ehselector.slot, !dbg !10965
  br label %ehcleanup229, !dbg !10965

lpad208:                                          ; preds = %invoke.cont215, %invoke.cont212, %lor.rhs, %invoke.cont206
  %91 = landingpad { i8*, i32 } personality i8* bitcast (i32 (...)* @__gxx_personality_v0 to i8*)
          cleanup, !dbg !10965
  %92 = extractvalue { i8*, i32 } %91, 0, !dbg !10965
  store i8* %92, i8** %exn.slot, !dbg !10965
  %93 = extractvalue { i8*, i32 } %91, 1, !dbg !10965
  store i32 %93, i32* %ehselector.slot, !dbg !10965
  %cleanup.is_active222 = load i1* %cleanup.cond207, !dbg !10920
  br i1 %cleanup.is_active222, label %cleanup.action223, label %cleanup.done225, !dbg !10920

cleanup.action223:                                ; preds = %lpad208
  invoke void @_ZNSsD1Ev(%"class.std::basic_string"* %ref.tmp202)
          to label %invoke.cont224 unwind label %terminate.lpad, !dbg !10966

invoke.cont224:                                   ; preds = %cleanup.action223
  br label %cleanup.done225, !dbg !10968

cleanup.done225:                                  ; preds = %invoke.cont224, %lpad208
  br label %ehcleanup229, !dbg !10970

ehcleanup229:                                     ; preds = %cleanup.done225, %lpad205
  %cleanup.is_active230 = load i1* %cleanup.cond, !dbg !10973
  br i1 %cleanup.is_active230, label %cleanup.action231, label %cleanup.done232, !dbg !10973

cleanup.action231:                                ; preds = %ehcleanup229
  call void @_ZNSaIcED1Ev(%"class.std::allocator"* %ref.tmp204) #1, !dbg !10975
  br label %cleanup.done232, !dbg !10975

cleanup.done232:                                  ; preds = %cleanup.action231, %ehcleanup229
  br label %eh.resume, !dbg !10977

if.end239:                                        ; preds = %if.then238, %do.body235
  br label %do.end240, !dbg !10980

do.end240:                                        ; preds = %if.end239
  %94 = load i8* getelementptr inbounds (%"struct.ros::console::LogLocation"* @_ZZNK3ros9Publisher7publishIN8std_msgs7String_ISaIvEEEEEvRKT_E3loc_5, i32 0, i32 0), align 1, !dbg !10983
  %tobool241 = trunc i8 %94 to i1, !dbg !10983
  %lnot242 = xor i1 %tobool241, true, !dbg !10983
  br i1 %lnot242, label %if.then243, label %if.end254, !dbg !10986

if.then243:                                       ; preds = %do.end240
  call void @_ZNSaIcEC1Ev(%"class.std::allocator"* %ref.tmp245) #1, !dbg !10987
  invoke void @_ZNSsC1EPKcRKSaIcE(%"class.std::basic_string"* %ref.tmp244, i8* getelementptr inbounds ([20 x i8]* @.str11, i32 0, i32 0), %"class.std::allocator"* dereferenceable(1) %ref.tmp245)
          to label %invoke.cont247 unwind label %lpad246, !dbg !10987

invoke.cont247:                                   ; preds = %if.then243
  invoke void @_ZN3ros7console21initializeLogLocationEPNS0_11LogLocationERKSsNS0_6levels5LevelE(%"struct.ros::console::LogLocation"* @_ZZNK3ros9Publisher7publishIN8std_msgs7String_ISaIvEEEEEvRKT_E3loc_5, %"class.std::basic_string"* dereferenceable(8) %ref.tmp244, i32 4)
          to label %invoke.cont249 unwind label %lpad248, !dbg !10990

invoke.cont249:                                   ; preds = %invoke.cont247
  invoke void @_ZNSsD1Ev(%"class.std::basic_string"* %ref.tmp244)
          to label %invoke.cont250 unwind label %lpad246, !dbg !10992

invoke.cont250:                                   ; preds = %invoke.cont249
  call void @_ZNSaIcED1Ev(%"class.std::allocator"* %ref.tmp245) #1, !dbg !10994
  br label %if.end254, !dbg !10994

lpad246:                                          ; preds = %invoke.cont249, %if.then243
  %95 = landingpad { i8*, i32 } personality i8* bitcast (i32 (...)* @__gxx_personality_v0 to i8*)
          cleanup, !dbg !10996
  %96 = extractvalue { i8*, i32 } %95, 0, !dbg !10996
  store i8* %96, i8** %exn.slot, !dbg !10996
  %97 = extractvalue { i8*, i32 } %95, 1, !dbg !10996
  store i32 %97, i32* %ehselector.slot, !dbg !10996
  br label %ehcleanup253, !dbg !10996

lpad248:                                          ; preds = %invoke.cont247
  %98 = landingpad { i8*, i32 } personality i8* bitcast (i32 (...)* @__gxx_personality_v0 to i8*)
          cleanup, !dbg !10996
  %99 = extractvalue { i8*, i32 } %98, 0, !dbg !10996
  store i8* %99, i8** %exn.slot, !dbg !10996
  %100 = extractvalue { i8*, i32 } %98, 1, !dbg !10996
  store i32 %100, i32* %ehselector.slot, !dbg !10996
  invoke void @_ZNSsD1Ev(%"class.std::basic_string"* %ref.tmp244)
          to label %invoke.cont252 unwind label %terminate.lpad, !dbg !10997

invoke.cont252:                                   ; preds = %lpad248
  br label %ehcleanup253, !dbg !10998

ehcleanup253:                                     ; preds = %invoke.cont252, %lpad246
  call void @_ZNSaIcED1Ev(%"class.std::allocator"* %ref.tmp245) #1, !dbg !11000
  br label %eh.resume, !dbg !11000

if.end254:                                        ; preds = %invoke.cont250, %do.end240
  %101 = load i32* getelementptr inbounds (%"struct.ros::console::LogLocation"* @_ZZNK3ros9Publisher7publishIN8std_msgs7String_ISaIvEEEEEvRKT_E3loc_5, i32 0, i32 2), align 4, !dbg !11002
  %cmp255 = icmp ne i32 %101, 4, !dbg !11002
  br i1 %cmp255, label %if.then256, label %if.end257, !dbg !10986

if.then256:                                       ; preds = %if.end254
  call void @_ZN3ros7console19setLogLocationLevelEPNS0_11LogLocationENS0_6levels5LevelE(%"struct.ros::console::LogLocation"* @_ZZNK3ros9Publisher7publishIN8std_msgs7String_ISaIvEEEEEvRKT_E3loc_5, i32 4), !dbg !11006
  call void @_ZN3ros7console23checkLogLocationEnabledEPNS0_11LogLocationE(%"struct.ros::console::LogLocation"* @_ZZNK3ros9Publisher7publishIN8std_msgs7String_ISaIvEEEEEvRKT_E3loc_5), !dbg !11006
  br label %if.end257, !dbg !11006

if.end257:                                        ; preds = %if.then256, %if.end254
  call void @llvm.dbg.declare(metadata i8* %enabled258, metadata !11009, metadata !9990), !dbg !10986
  %102 = load i8* getelementptr inbounds (%"struct.ros::console::LogLocation"* @_ZZNK3ros9Publisher7publishIN8std_msgs7String_ISaIvEEEEEvRKT_E3loc_5, i32 0, i32 1), align 1, !dbg !11010
  %tobool259 = trunc i8 %102 to i1, !dbg !11010
  br i1 %tobool259, label %land.rhs260, label %land.end261, !dbg !11010

land.rhs260:                                      ; preds = %if.end257
  br label %land.end261

land.end261:                                      ; preds = %land.rhs260, %if.end257
  %103 = phi i1 [ false, %if.end257 ], [ true, %land.rhs260 ]
  %frombool262 = zext i1 %103 to i8, !dbg !11013
  store i8 %frombool262, i8* %enabled258, align 1, !dbg !11013
  %104 = load i8* %enabled258, align 1, !dbg !11015
  %tobool263 = trunc i8 %104 to i1, !dbg !11015
  br i1 %tobool263, label %if.then264, label %if.end265, !dbg !10986

if.then264:                                       ; preds = %land.end261
  %105 = load %"class.log4cxx::Logger"** getelementptr inbounds (%"struct.ros::console::LogLocation"* @_ZZNK3ros9Publisher7publishIN8std_msgs7String_ISaIvEEEEEvRKT_E3loc_5, i32 0, i32 3), align 8, !dbg !11017
  %106 = load i32* getelementptr inbounds (%"struct.ros::console::LogLocation"* @_ZZNK3ros9Publisher7publishIN8std_msgs7String_ISaIvEEEEEvRKT_E3loc_5, i32 0, i32 2), align 4, !dbg !11017
  call void (%"class.ros::console::FilterBase"*, %"class.log4cxx::Logger"*, i32, i8*, i32, i8*, i8*, ...)* @_ZN3ros7console5printEPNS0_10FilterBaseEPN7log4cxx6LoggerENS0_6levels5LevelEPKciS9_S9_z(%"class.ros::console::FilterBase"* null, %"class.log4cxx::Logger"* %105, i32 %106, i8* getelementptr inbounds ([40 x i8]* @.str30, i32 0, i32 0), i32 115, i8* getelementptr inbounds ([93 x i8]* @__PRETTY_FUNCTION__._ZNK3ros9Publisher7publishIN8std_msgs7String_ISaIvEEEEEvRKT_, i32 0, i32 0), i8* getelementptr inbounds ([62 x i8]* @.str31, i32 0, i32 0), i8* getelementptr inbounds ([40 x i8]* @.str30, i32 0, i32 0), i32 115, i8* getelementptr inbounds ([112 x i8]* @.str37, i32 0, i32 0)), !dbg !11017
  br label %if.end265, !dbg !11017

if.end265:                                        ; preds = %if.then264, %land.end261
  br label %do.end266, !dbg !11020

do.end266:                                        ; preds = %if.end265
  br label %do.body267, !dbg !11023

do.body267:                                       ; preds = %do.end266
  br label %do.body268, !dbg !11025

do.body268:                                       ; preds = %do.body267
  %107 = load i8* @_ZN3ros7console13g_initializedE, align 1, !dbg !11028
  %tobool269 = trunc i8 %107 to i1, !dbg !11028
  %lnot270 = xor i1 %tobool269, true, !dbg !11028
  br i1 %lnot270, label %if.then271, label %if.end272, !dbg !11032

if.then271:                                       ; preds = %do.body268
  call void @_ZN3ros7console10initializeEv(), !dbg !11033
  br label %if.end272, !dbg !11033

if.end272:                                        ; preds = %if.then271, %do.body268
  br label %do.end273, !dbg !11036

do.end273:                                        ; preds = %if.end272
  %108 = load i8* getelementptr inbounds (%"struct.ros::console::LogLocation"* @_ZZNK3ros9Publisher7publishIN8std_msgs7String_ISaIvEEEEEvRKT_E3loc_6, i32 0, i32 0), align 1, !dbg !11039
  %tobool274 = trunc i8 %108 to i1, !dbg !11039
  %lnot275 = xor i1 %tobool274, true, !dbg !11039
  br i1 %lnot275, label %if.then276, label %if.end287, !dbg !11042

if.then276:                                       ; preds = %do.end273
  call void @_ZNSaIcEC1Ev(%"class.std::allocator"* %ref.tmp278) #1, !dbg !11043
  invoke void @_ZNSsC1EPKcRKSaIcE(%"class.std::basic_string"* %ref.tmp277, i8* getelementptr inbounds ([20 x i8]* @.str11, i32 0, i32 0), %"class.std::allocator"* dereferenceable(1) %ref.tmp278)
          to label %invoke.cont280 unwind label %lpad279, !dbg !11043

invoke.cont280:                                   ; preds = %if.then276
  invoke void @_ZN3ros7console21initializeLogLocationEPNS0_11LogLocationERKSsNS0_6levels5LevelE(%"struct.ros::console::LogLocation"* @_ZZNK3ros9Publisher7publishIN8std_msgs7String_ISaIvEEEEEvRKT_E3loc_6, %"class.std::basic_string"* dereferenceable(8) %ref.tmp277, i32 4)
          to label %invoke.cont282 unwind label %lpad281, !dbg !11046

invoke.cont282:                                   ; preds = %invoke.cont280
  invoke void @_ZNSsD1Ev(%"class.std::basic_string"* %ref.tmp277)
          to label %invoke.cont283 unwind label %lpad279, !dbg !11048

invoke.cont283:                                   ; preds = %invoke.cont282
  call void @_ZNSaIcED1Ev(%"class.std::allocator"* %ref.tmp278) #1, !dbg !11050
  br label %if.end287, !dbg !11050

lpad279:                                          ; preds = %invoke.cont282, %if.then276
  %109 = landingpad { i8*, i32 } personality i8* bitcast (i32 (...)* @__gxx_personality_v0 to i8*)
          cleanup, !dbg !11052
  %110 = extractvalue { i8*, i32 } %109, 0, !dbg !11052
  store i8* %110, i8** %exn.slot, !dbg !11052
  %111 = extractvalue { i8*, i32 } %109, 1, !dbg !11052
  store i32 %111, i32* %ehselector.slot, !dbg !11052
  br label %ehcleanup286, !dbg !11052

lpad281:                                          ; preds = %invoke.cont280
  %112 = landingpad { i8*, i32 } personality i8* bitcast (i32 (...)* @__gxx_personality_v0 to i8*)
          cleanup, !dbg !11052
  %113 = extractvalue { i8*, i32 } %112, 0, !dbg !11052
  store i8* %113, i8** %exn.slot, !dbg !11052
  %114 = extractvalue { i8*, i32 } %112, 1, !dbg !11052
  store i32 %114, i32* %ehselector.slot, !dbg !11052
  invoke void @_ZNSsD1Ev(%"class.std::basic_string"* %ref.tmp277)
          to label %invoke.cont285 unwind label %terminate.lpad, !dbg !11053

invoke.cont285:                                   ; preds = %lpad281
  br label %ehcleanup286, !dbg !11054

ehcleanup286:                                     ; preds = %invoke.cont285, %lpad279
  call void @_ZNSaIcED1Ev(%"class.std::allocator"* %ref.tmp278) #1, !dbg !11056
  br label %eh.resume, !dbg !11056

if.end287:                                        ; preds = %invoke.cont283, %do.end273
  %115 = load i32* getelementptr inbounds (%"struct.ros::console::LogLocation"* @_ZZNK3ros9Publisher7publishIN8std_msgs7String_ISaIvEEEEEvRKT_E3loc_6, i32 0, i32 2), align 4, !dbg !11058
  %cmp288 = icmp ne i32 %115, 4, !dbg !11058
  br i1 %cmp288, label %if.then289, label %if.end290, !dbg !11042

if.then289:                                       ; preds = %if.end287
  call void @_ZN3ros7console19setLogLocationLevelEPNS0_11LogLocationENS0_6levels5LevelE(%"struct.ros::console::LogLocation"* @_ZZNK3ros9Publisher7publishIN8std_msgs7String_ISaIvEEEEEvRKT_E3loc_6, i32 4), !dbg !11062
  call void @_ZN3ros7console23checkLogLocationEnabledEPNS0_11LogLocationE(%"struct.ros::console::LogLocation"* @_ZZNK3ros9Publisher7publishIN8std_msgs7String_ISaIvEEEEEvRKT_E3loc_6), !dbg !11062
  br label %if.end290, !dbg !11062

if.end290:                                        ; preds = %if.then289, %if.end287
  call void @llvm.dbg.declare(metadata i8* %enabled291, metadata !11065, metadata !9990), !dbg !11042
  %116 = load i8* getelementptr inbounds (%"struct.ros::console::LogLocation"* @_ZZNK3ros9Publisher7publishIN8std_msgs7String_ISaIvEEEEEvRKT_E3loc_6, i32 0, i32 1), align 1, !dbg !11066
  %tobool292 = trunc i8 %116 to i1, !dbg !11066
  br i1 %tobool292, label %land.rhs293, label %land.end294, !dbg !11066

land.rhs293:                                      ; preds = %if.end290
  br label %land.end294

land.end294:                                      ; preds = %land.rhs293, %if.end290
  %117 = phi i1 [ false, %if.end290 ], [ true, %land.rhs293 ]
  %frombool295 = zext i1 %117 to i8, !dbg !11069
  store i8 %frombool295, i8* %enabled291, align 1, !dbg !11069
  %118 = load i8* %enabled291, align 1, !dbg !11071
  %tobool296 = trunc i8 %118 to i1, !dbg !11071
  br i1 %tobool296, label %if.then297, label %if.end307, !dbg !11042

if.then297:                                       ; preds = %land.end294
  %119 = load %"class.log4cxx::Logger"** getelementptr inbounds (%"struct.ros::console::LogLocation"* @_ZZNK3ros9Publisher7publishIN8std_msgs7String_ISaIvEEEEEvRKT_E3loc_6, i32 0, i32 3), align 8, !dbg !11073
  %120 = load i32* getelementptr inbounds (%"struct.ros::console::LogLocation"* @_ZZNK3ros9Publisher7publishIN8std_msgs7String_ISaIvEEEEEvRKT_E3loc_6, i32 0, i32 2), align 4, !dbg !11073
  %121 = load %"struct.std_msgs::String_"** %message.addr, align 8, !dbg !11073
  %call298 = call i8* @_ZN3ros14message_traits8datatypeIN8std_msgs7String_ISaIvEEEEEPKcRKT_(%"struct.std_msgs::String_"* dereferenceable(24) %121), !dbg !11073
  %122 = load %"struct.std_msgs::String_"** %message.addr, align 8, !dbg !11073
  %call299 = call i8* @_ZN3ros14message_traits6md5sumIN8std_msgs7String_ISaIvEEEEEPKcRKT_(%"struct.std_msgs::String_"* dereferenceable(24) %122), !dbg !11073
  %impl_300 = getelementptr inbounds %"class.ros::Publisher"* %this1, i32 0, i32 0, !dbg !11073
  %call301 = call %"class.ros::Publisher::Impl"* @_ZNK5boost10shared_ptrIN3ros9Publisher4ImplEEptEv(%"class.boost::shared_ptr.21"* %impl_300), !dbg !11073
  %datatype_ = getelementptr inbounds %"class.ros::Publisher::Impl"* %call301, i32 0, i32 2, !dbg !11073
  %call302 = call i8* @_ZNKSs5c_strEv(%"class.std::basic_string"* %datatype_), !dbg !11073
  %impl_303 = getelementptr inbounds %"class.ros::Publisher"* %this1, i32 0, i32 0, !dbg !11073
  %call304 = call %"class.ros::Publisher::Impl"* @_ZNK5boost10shared_ptrIN3ros9Publisher4ImplEEptEv(%"class.boost::shared_ptr.21"* %impl_303), !dbg !11073
  %md5sum_305 = getelementptr inbounds %"class.ros::Publisher::Impl"* %call304, i32 0, i32 1, !dbg !11073
  %call306 = call i8* @_ZNKSs5c_strEv(%"class.std::basic_string"* %md5sum_305), !dbg !11073
  call void (%"class.ros::console::FilterBase"*, %"class.log4cxx::Logger"*, i32, i8*, i32, i8*, i8*, ...)* @_ZN3ros7console5printEPNS0_10FilterBaseEPN7log4cxx6LoggerENS0_6levels5LevelEPKciS9_S9_z(%"class.ros::console::FilterBase"* null, %"class.log4cxx::Logger"* %119, i32 %120, i8* getelementptr inbounds ([40 x i8]* @.str30, i32 0, i32 0), i32 115, i8* getelementptr inbounds ([93 x i8]* @__PRETTY_FUNCTION__._ZNK3ros9Publisher7publishIN8std_msgs7String_ISaIvEEEEEvRKT_, i32 0, i32 0), i8* getelementptr inbounds ([75 x i8]* @.str38, i32 0, i32 0), i8* %call298, i8* %call299, i8* %call302, i8* %call306), !dbg !11073
  br label %if.end307, !dbg !11073

if.end307:                                        ; preds = %if.then297, %land.end294
  br label %do.end308, !dbg !11076

do.end308:                                        ; preds = %if.end307
  br label %do.body309, !dbg !11079

do.body309:                                       ; preds = %do.end308
  br label %do.body310, !dbg !11081

do.body310:                                       ; preds = %do.body309
  %123 = load i8* @_ZN3ros7console13g_initializedE, align 1, !dbg !11084
  %tobool311 = trunc i8 %123 to i1, !dbg !11084
  %lnot312 = xor i1 %tobool311, true, !dbg !11084
  br i1 %lnot312, label %if.then313, label %if.end314, !dbg !11088

if.then313:                                       ; preds = %do.body310
  call void @_ZN3ros7console10initializeEv(), !dbg !11089
  br label %if.end314, !dbg !11089

if.end314:                                        ; preds = %if.then313, %do.body310
  br label %do.end315, !dbg !11092

do.end315:                                        ; preds = %if.end314
  %124 = load i8* getelementptr inbounds (%"struct.ros::console::LogLocation"* @_ZZNK3ros9Publisher7publishIN8std_msgs7String_ISaIvEEEEEvRKT_E3loc_7, i32 0, i32 0), align 1, !dbg !11095
  %tobool316 = trunc i8 %124 to i1, !dbg !11095
  %lnot317 = xor i1 %tobool316, true, !dbg !11095
  br i1 %lnot317, label %if.then318, label %if.end329, !dbg !11098

if.then318:                                       ; preds = %do.end315
  call void @_ZNSaIcEC1Ev(%"class.std::allocator"* %ref.tmp320) #1, !dbg !11099
  invoke void @_ZNSsC1EPKcRKSaIcE(%"class.std::basic_string"* %ref.tmp319, i8* getelementptr inbounds ([20 x i8]* @.str11, i32 0, i32 0), %"class.std::allocator"* dereferenceable(1) %ref.tmp320)
          to label %invoke.cont322 unwind label %lpad321, !dbg !11099

invoke.cont322:                                   ; preds = %if.then318
  invoke void @_ZN3ros7console21initializeLogLocationEPNS0_11LogLocationERKSsNS0_6levels5LevelE(%"struct.ros::console::LogLocation"* @_ZZNK3ros9Publisher7publishIN8std_msgs7String_ISaIvEEEEEvRKT_E3loc_7, %"class.std::basic_string"* dereferenceable(8) %ref.tmp319, i32 4)
          to label %invoke.cont324 unwind label %lpad323, !dbg !11102

invoke.cont324:                                   ; preds = %invoke.cont322
  invoke void @_ZNSsD1Ev(%"class.std::basic_string"* %ref.tmp319)
          to label %invoke.cont325 unwind label %lpad321, !dbg !11104

invoke.cont325:                                   ; preds = %invoke.cont324
  call void @_ZNSaIcED1Ev(%"class.std::allocator"* %ref.tmp320) #1, !dbg !11106
  br label %if.end329, !dbg !11106

lpad321:                                          ; preds = %invoke.cont324, %if.then318
  %125 = landingpad { i8*, i32 } personality i8* bitcast (i32 (...)* @__gxx_personality_v0 to i8*)
          cleanup, !dbg !11108
  %126 = extractvalue { i8*, i32 } %125, 0, !dbg !11108
  store i8* %126, i8** %exn.slot, !dbg !11108
  %127 = extractvalue { i8*, i32 } %125, 1, !dbg !11108
  store i32 %127, i32* %ehselector.slot, !dbg !11108
  br label %ehcleanup328, !dbg !11108

lpad323:                                          ; preds = %invoke.cont322
  %128 = landingpad { i8*, i32 } personality i8* bitcast (i32 (...)* @__gxx_personality_v0 to i8*)
          cleanup, !dbg !11108
  %129 = extractvalue { i8*, i32 } %128, 0, !dbg !11108
  store i8* %129, i8** %exn.slot, !dbg !11108
  %130 = extractvalue { i8*, i32 } %128, 1, !dbg !11108
  store i32 %130, i32* %ehselector.slot, !dbg !11108
  invoke void @_ZNSsD1Ev(%"class.std::basic_string"* %ref.tmp319)
          to label %invoke.cont327 unwind label %terminate.lpad, !dbg !11109

invoke.cont327:                                   ; preds = %lpad323
  br label %ehcleanup328, !dbg !11110

ehcleanup328:                                     ; preds = %invoke.cont327, %lpad321
  call void @_ZNSaIcED1Ev(%"class.std::allocator"* %ref.tmp320) #1, !dbg !11112
  br label %eh.resume, !dbg !11112

if.end329:                                        ; preds = %invoke.cont325, %do.end315
  %131 = load i32* getelementptr inbounds (%"struct.ros::console::LogLocation"* @_ZZNK3ros9Publisher7publishIN8std_msgs7String_ISaIvEEEEEvRKT_E3loc_7, i32 0, i32 2), align 4, !dbg !11114
  %cmp330 = icmp ne i32 %131, 4, !dbg !11114
  br i1 %cmp330, label %if.then331, label %if.end332, !dbg !11098

if.then331:                                       ; preds = %if.end329
  call void @_ZN3ros7console19setLogLocationLevelEPNS0_11LogLocationENS0_6levels5LevelE(%"struct.ros::console::LogLocation"* @_ZZNK3ros9Publisher7publishIN8std_msgs7String_ISaIvEEEEEvRKT_E3loc_7, i32 4), !dbg !11118
  call void @_ZN3ros7console23checkLogLocationEnabledEPNS0_11LogLocationE(%"struct.ros::console::LogLocation"* @_ZZNK3ros9Publisher7publishIN8std_msgs7String_ISaIvEEEEEvRKT_E3loc_7), !dbg !11118
  br label %if.end332, !dbg !11118

if.end332:                                        ; preds = %if.then331, %if.end329
  call void @llvm.dbg.declare(metadata i8* %enabled333, metadata !11121, metadata !9990), !dbg !11098
  %132 = load i8* getelementptr inbounds (%"struct.ros::console::LogLocation"* @_ZZNK3ros9Publisher7publishIN8std_msgs7String_ISaIvEEEEEvRKT_E3loc_7, i32 0, i32 1), align 1, !dbg !11122
  %tobool334 = trunc i8 %132 to i1, !dbg !11122
  br i1 %tobool334, label %land.rhs335, label %land.end336, !dbg !11122

land.rhs335:                                      ; preds = %if.end332
  br label %land.end336

land.end336:                                      ; preds = %land.rhs335, %if.end332
  %133 = phi i1 [ false, %if.end332 ], [ true, %land.rhs335 ]
  %frombool337 = zext i1 %133 to i8, !dbg !11125
  store i8 %frombool337, i8* %enabled333, align 1, !dbg !11125
  %134 = load i8* %enabled333, align 1, !dbg !11127
  %tobool338 = trunc i8 %134 to i1, !dbg !11127
  br i1 %tobool338, label %if.then339, label %if.end340, !dbg !11098

if.then339:                                       ; preds = %land.end336
  %135 = load %"class.log4cxx::Logger"** getelementptr inbounds (%"struct.ros::console::LogLocation"* @_ZZNK3ros9Publisher7publishIN8std_msgs7String_ISaIvEEEEEvRKT_E3loc_7, i32 0, i32 3), align 8, !dbg !11129
  %136 = load i32* getelementptr inbounds (%"struct.ros::console::LogLocation"* @_ZZNK3ros9Publisher7publishIN8std_msgs7String_ISaIvEEEEEvRKT_E3loc_7, i32 0, i32 2), align 4, !dbg !11129
  call void (%"class.ros::console::FilterBase"*, %"class.log4cxx::Logger"*, i32, i8*, i32, i8*, i8*, ...)* @_ZN3ros7console5printEPNS0_10FilterBaseEPN7log4cxx6LoggerENS0_6levels5LevelEPKciS9_S9_z(%"class.ros::console::FilterBase"* null, %"class.log4cxx::Logger"* %135, i32 %136, i8* getelementptr inbounds ([40 x i8]* @.str30, i32 0, i32 0), i32 115, i8* getelementptr inbounds ([93 x i8]* @__PRETTY_FUNCTION__._ZNK3ros9Publisher7publishIN8std_msgs7String_ISaIvEEEEEvRKT_, i32 0, i32 0), i8* getelementptr inbounds ([2 x i8]* @.str34, i32 0, i32 0)), !dbg !11129
  br label %if.end340, !dbg !11129

if.end340:                                        ; preds = %if.then339, %land.end336
  br label %do.end341, !dbg !11132

do.end341:                                        ; preds = %if.end340
  call void asm sideeffect "int $$3", "~{dirflag},~{fpsr},~{flags}"() #1, !dbg !11135, !srcloc !11137
  br label %if.end342, !dbg !11135

if.end342:                                        ; preds = %do.end341, %cleanup.done228
  br label %do.end343, !dbg !11138

do.end343:                                        ; preds = %if.end342
  call void @llvm.dbg.declare(metadata %"class.ros::SerializedMessage"* %m, metadata !11141, metadata !9990), !dbg !11142
  call void @_ZN3ros17SerializedMessageC2Ev(%"class.ros::SerializedMessage"* %m), !dbg !11142
  %137 = load %"struct.std_msgs::String_"** %message.addr, align 8, !dbg !11143
  %call348 = invoke %"struct.std_msgs::String_"* @_ZN5boost3refIKN8std_msgs7String_ISaIvEEEEEKNS_17reference_wrapperIT_EERS7_(%"struct.std_msgs::String_"* dereferenceable(24) %137)
          to label %invoke.cont347 unwind label %lpad346, !dbg !11144

invoke.cont347:                                   ; preds = %do.end343
  %coerce.dive = getelementptr %"class.boost::reference_wrapper"* %agg.tmp345, i32 0, i32 0, !dbg !11145
  store %"struct.std_msgs::String_"* %call348, %"struct.std_msgs::String_"** %coerce.dive, !dbg !11145
  %coerce.dive349 = getelementptr %"class.boost::reference_wrapper"* %agg.tmp345, i32 0, i32 0, !dbg !11147
  %138 = load %"struct.std_msgs::String_"** %coerce.dive349, !dbg !11147
  %call351 = invoke { void (%"class.ros::SerializedMessage"*, %"struct.std_msgs::String_"*)*, %"struct.std_msgs::String_"* } @_ZN5boost4bindIN3ros17SerializedMessageERKN8std_msgs7String_ISaIvEEENS_17reference_wrapperIS7_EEEENS_3_bi6bind_tIT_PFSD_T0_ENSB_9list_av_1IT1_E4typeEEESG_SI_(void (%"class.ros::SerializedMessage"*, %"struct.std_msgs::String_"*)* @_ZN3ros13serialization16serializeMessageIN8std_msgs7String_ISaIvEEEEENS_17SerializedMessageERKT_, %"struct.std_msgs::String_"* %138)
          to label %invoke.cont350 unwind label %lpad346, !dbg !11147

invoke.cont350:                                   ; preds = %invoke.cont347
  %139 = bitcast %"class.boost::_bi::bind_t.63"* %agg.tmp to { void (%"class.ros::SerializedMessage"*, %"struct.std_msgs::String_"*)*, %"struct.std_msgs::String_"* }*, !dbg !11148
  %140 = getelementptr { void (%"class.ros::SerializedMessage"*, %"struct.std_msgs::String_"*)*, %"struct.std_msgs::String_"* }* %139, i32 0, i32 0, !dbg !11148
  %141 = extractvalue { void (%"class.ros::SerializedMessage"*, %"struct.std_msgs::String_"*)*, %"struct.std_msgs::String_"* } %call351, 0, !dbg !11148
  store void (%"class.ros::SerializedMessage"*, %"struct.std_msgs::String_"*)* %141, void (%"class.ros::SerializedMessage"*, %"struct.std_msgs::String_"*)** %140, align 1, !dbg !11148
  %142 = getelementptr { void (%"class.ros::SerializedMessage"*, %"struct.std_msgs::String_"*)*, %"struct.std_msgs::String_"* }* %139, i32 0, i32 1, !dbg !11148
  %143 = extractvalue { void (%"class.ros::SerializedMessage"*, %"struct.std_msgs::String_"*)*, %"struct.std_msgs::String_"* } %call351, 1, !dbg !11148
  store %"struct.std_msgs::String_"* %143, %"struct.std_msgs::String_"** %142, align 1, !dbg !11148
  %144 = bitcast %"class.boost::_bi::bind_t.63"* %agg.tmp to { void (%"class.ros::SerializedMessage"*, %"struct.std_msgs::String_"*)*, %"struct.std_msgs::String_"* }*, !dbg !11148
  %145 = getelementptr { void (%"class.ros::SerializedMessage"*, %"struct.std_msgs::String_"*)*, %"struct.std_msgs::String_"* }* %144, i32 0, i32 0, !dbg !11148
  %146 = load void (%"class.ros::SerializedMessage"*, %"struct.std_msgs::String_"*)** %145, align 1, !dbg !11148
  %147 = getelementptr { void (%"class.ros::SerializedMessage"*, %"struct.std_msgs::String_"*)*, %"struct.std_msgs::String_"* }* %144, i32 0, i32 1, !dbg !11148
  %148 = load %"struct.std_msgs::String_"** %147, align 1, !dbg !11148
  invoke void @_ZN5boost8functionIFN3ros17SerializedMessageEvEEC2INS_3_bi6bind_tIS2_PFS2_RKN8std_msgs7String_ISaIvEEEENS6_5list1INS_17reference_wrapperISC_EEEEEEEET_NS_11enable_if_cIXsr5boost11type_traits7ice_notIXsr11is_integralISL_EE5valueEEE5valueEiE4typeE(%"class.boost::function.61"* %ref.tmp344, void (%"class.ros::SerializedMessage"*, %"struct.std_msgs::String_"*)* %146, %"struct.std_msgs::String_"* %148, i32 0)
          to label %invoke.cont352 unwind label %lpad346, !dbg !11148

invoke.cont352:                                   ; preds = %invoke.cont350
  invoke void @_ZNK3ros9Publisher7publishERKN5boost8functionIFNS_17SerializedMessageEvEEERS3_(%"class.ros::Publisher"* %this1, %"class.boost::function.61"* dereferenceable(32) %ref.tmp344, %"class.ros::SerializedMessage"* dereferenceable(56) %m)
          to label %invoke.cont354 unwind label %lpad353, !dbg !11150

invoke.cont354:                                   ; preds = %invoke.cont352
  invoke void @_ZN5boost8functionIFN3ros17SerializedMessageEvEED2Ev(%"class.boost::function.61"* %ref.tmp344)
          to label %invoke.cont355 unwind label %lpad346, !dbg !11152

invoke.cont355:                                   ; preds = %invoke.cont354
  call void @_ZN3ros17SerializedMessageD2Ev(%"class.ros::SerializedMessage"* %m), !dbg !11154
  br label %return, !dbg !11154

return:                                           ; preds = %invoke.cont355, %do.end196, %do.end87
  ret void, !dbg !11155

lpad346:                                          ; preds = %invoke.cont354, %invoke.cont350, %invoke.cont347, %do.end343
  %149 = landingpad { i8*, i32 } personality i8* bitcast (i32 (...)* @__gxx_personality_v0 to i8*)
          cleanup, !dbg !11154
  %150 = extractvalue { i8*, i32 } %149, 0, !dbg !11154
  store i8* %150, i8** %exn.slot, !dbg !11154
  %151 = extractvalue { i8*, i32 } %149, 1, !dbg !11154
  store i32 %151, i32* %ehselector.slot, !dbg !11154
  br label %ehcleanup358, !dbg !11154

lpad353:                                          ; preds = %invoke.cont352
  %152 = landingpad { i8*, i32 } personality i8* bitcast (i32 (...)* @__gxx_personality_v0 to i8*)
          cleanup, !dbg !11154
  %153 = extractvalue { i8*, i32 } %152, 0, !dbg !11154
  store i8* %153, i8** %exn.slot, !dbg !11154
  %154 = extractvalue { i8*, i32 } %152, 1, !dbg !11154
  store i32 %154, i32* %ehselector.slot, !dbg !11154
  invoke void @_ZN5boost8functionIFN3ros17SerializedMessageEvEED2Ev(%"class.boost::function.61"* %ref.tmp344)
          to label %invoke.cont357 unwind label %terminate.lpad, !dbg !11156

invoke.cont357:                                   ; preds = %lpad353
  br label %ehcleanup358, !dbg !11157

ehcleanup358:                                     ; preds = %invoke.cont357, %lpad346
  invoke void @_ZN3ros17SerializedMessageD2Ev(%"class.ros::SerializedMessage"* %m)
          to label %invoke.cont359 unwind label %terminate.lpad, !dbg !11159

invoke.cont359:                                   ; preds = %ehcleanup358
  br label %eh.resume, !dbg !11160

eh.resume:                                        ; preds = %invoke.cont359, %ehcleanup328, %ehcleanup286, %ehcleanup253, %cleanup.done232, %ehcleanup182, %ehcleanup146, %ehcleanup113, %ehcleanup73, %ehcleanup40, %ehcleanup
  %exn = load i8** %exn.slot, !dbg !11161
  %sel = load i32* %ehselector.slot, !dbg !11161
  %lpad.val = insertvalue { i8*, i32 } undef, i8* %exn, 0, !dbg !11161
  %lpad.val360 = insertvalue { i8*, i32 } %lpad.val, i32 %sel, 1, !dbg !11161
  resume { i8*, i32 } %lpad.val360, !dbg !11161

terminate.lpad:                                   ; preds = %ehcleanup358, %lpad353, %lpad323, %lpad281, %lpad248, %cleanup.action223, %lpad177, %lpad141, %lpad108, %lpad68, %lpad35, %lpad9
  %155 = landingpad { i8*, i32 } personality i8* bitcast (i32 (...)* @__gxx_personality_v0 to i8*)
          catch i8* null, !dbg !11165
  %156 = extractvalue { i8*, i32 } %155, 0, !dbg !11165
  call void @__clang_call_terminate(i8* %156) #15, !dbg !11165
  unreachable, !dbg !11165
}

declare void @_ZNSt18basic_stringstreamIcSt11char_traitsIcESaIcEED1Ev(%"class.std::basic_stringstream"*) #0

; Function Attrs: inlinehint uwtable
define linkonce_odr void @_ZN8std_msgs7String_ISaIvEED2Ev(%"struct.std_msgs::String_"* %this) unnamed_addr #6 comdat align 2 {
entry:
  %this.addr = alloca %"struct.std_msgs::String_"*, align 8
  %exn.slot = alloca i8*
  %ehselector.slot = alloca i32
  store %"struct.std_msgs::String_"* %this, %"struct.std_msgs::String_"** %this.addr, align 8
  call void @llvm.dbg.declare(metadata %"struct.std_msgs::String_"** %this.addr, metadata !11169, metadata !9990), !dbg !11170
  %this1 = load %"struct.std_msgs::String_"** %this.addr
  %__connection_header = getelementptr inbounds %"struct.std_msgs::String_"* %this1, i32 0, i32 1, !dbg !11171
  invoke void @_ZN5boost10shared_ptrISt3mapISsSsSt4lessISsESaISt4pairIKSsSsEEEED2Ev(%"class.boost::shared_ptr.36"* %__connection_header)
          to label %invoke.cont unwind label %lpad, !dbg !11171

invoke.cont:                                      ; preds = %entry
  %data = getelementptr inbounds %"struct.std_msgs::String_"* %this1, i32 0, i32 0, !dbg !11173
  call void @_ZNSsD1Ev(%"class.std::basic_string"* %data), !dbg !11173
  ret void, !dbg !11175

lpad:                                             ; preds = %entry
  %0 = landingpad { i8*, i32 } personality i8* bitcast (i32 (...)* @__gxx_personality_v0 to i8*)
          cleanup, !dbg !11176
  %1 = extractvalue { i8*, i32 } %0, 0, !dbg !11176
  store i8* %1, i8** %exn.slot, !dbg !11176
  %2 = extractvalue { i8*, i32 } %0, 1, !dbg !11176
  store i32 %2, i32* %ehselector.slot, !dbg !11176
  %data2 = getelementptr inbounds %"struct.std_msgs::String_"* %this1, i32 0, i32 0, !dbg !11171
  invoke void @_ZNSsD1Ev(%"class.std::basic_string"* %data2)
          to label %invoke.cont3 unwind label %terminate.lpad, !dbg !11171

invoke.cont3:                                     ; preds = %lpad
  br label %eh.resume, !dbg !11178

eh.resume:                                        ; preds = %invoke.cont3
  %exn = load i8** %exn.slot, !dbg !11180
  %sel = load i32* %ehselector.slot, !dbg !11180
  %lpad.val = insertvalue { i8*, i32 } undef, i8* %exn, 0, !dbg !11180
  %lpad.val4 = insertvalue { i8*, i32 } %lpad.val, i32 %sel, 1, !dbg !11180
  resume { i8*, i32 } %lpad.val4, !dbg !11180

terminate.lpad:                                   ; preds = %lpad
  %3 = landingpad { i8*, i32 } personality i8* bitcast (i32 (...)* @__gxx_personality_v0 to i8*)
          catch i8* null, !dbg !11182
  %4 = extractvalue { i8*, i32 } %3, 0, !dbg !11182
  call void @__clang_call_terminate(i8* %4) #15, !dbg !11182
  unreachable, !dbg !11182
}

; Function Attrs: uwtable
define i32 @main(i32 %argc, i8** %argv) #3 {
entry:
  %retval = alloca i32, align 4
  %argc.addr = alloca i32, align 4
  %argv.addr = alloca i8**, align 8
  %ref.tmp = alloca %"class.std::basic_string", align 8
  %ref.tmp1 = alloca %"class.std::allocator", align 1
  %exn.slot = alloca i8*
  %ehselector.slot = alloca i32
  %test = alloca %class.Test, align 8
  %cleanup.dest.slot = alloca i32
  store i32 0, i32* %retval
  store i32 %argc, i32* %argc.addr, align 4
  call void @llvm.dbg.declare(metadata i32* %argc.addr, metadata !11184, metadata !9990), !dbg !11185
  store i8** %argv, i8*** %argv.addr, align 8
  call void @llvm.dbg.declare(metadata i8*** %argv.addr, metadata !11186, metadata !9990), !dbg !11187
  %0 = load i8*** %argv.addr, align 8, !dbg !11188
  call void @_ZNSaIcEC1Ev(%"class.std::allocator"* %ref.tmp1) #1, !dbg !11189
  invoke void @_ZNSsC1EPKcRKSaIcE(%"class.std::basic_string"* %ref.tmp, i8* getelementptr inbounds ([7 x i8]* @.str19, i32 0, i32 0), %"class.std::allocator"* dereferenceable(1) %ref.tmp1)
          to label %invoke.cont unwind label %lpad, !dbg !11189

invoke.cont:                                      ; preds = %entry
  invoke void @_ZN3ros4initERiPPcRKSsj(i32* dereferenceable(4) %argc.addr, i8** %0, %"class.std::basic_string"* dereferenceable(8) %ref.tmp, i32 0)
          to label %invoke.cont3 unwind label %lpad2, !dbg !11190

invoke.cont3:                                     ; preds = %invoke.cont
  invoke void @_ZNSsD1Ev(%"class.std::basic_string"* %ref.tmp)
          to label %invoke.cont4 unwind label %lpad, !dbg !11192

invoke.cont4:                                     ; preds = %invoke.cont3
  call void @_ZNSaIcED1Ev(%"class.std::allocator"* %ref.tmp1) #1, !dbg !11194
  call void @llvm.dbg.declare(metadata %class.Test* %test, metadata !11196, metadata !9990), !dbg !11197
  call void @_ZN4TestC1Ev(%class.Test* %test), !dbg !11197
  invoke void @_ZN3ros4spinEv()
          to label %invoke.cont7 unwind label %lpad6, !dbg !11198

invoke.cont7:                                     ; preds = %invoke.cont4
  store i32 0, i32* %retval, !dbg !11199
  store i32 1, i32* %cleanup.dest.slot
  call void @_ZN4TestD2Ev(%class.Test* %test), !dbg !11200
  %1 = load i32* %retval, !dbg !11200
  ret i32 %1, !dbg !11200

lpad:                                             ; preds = %invoke.cont3, %entry
  %2 = landingpad { i8*, i32 } personality i8* bitcast (i32 (...)* @__gxx_personality_v0 to i8*)
          cleanup, !dbg !11200
  %3 = extractvalue { i8*, i32 } %2, 0, !dbg !11200
  store i8* %3, i8** %exn.slot, !dbg !11200
  %4 = extractvalue { i8*, i32 } %2, 1, !dbg !11200
  store i32 %4, i32* %ehselector.slot, !dbg !11200
  br label %ehcleanup, !dbg !11200

lpad2:                                            ; preds = %invoke.cont
  %5 = landingpad { i8*, i32 } personality i8* bitcast (i32 (...)* @__gxx_personality_v0 to i8*)
          cleanup, !dbg !11200
  %6 = extractvalue { i8*, i32 } %5, 0, !dbg !11200
  store i8* %6, i8** %exn.slot, !dbg !11200
  %7 = extractvalue { i8*, i32 } %5, 1, !dbg !11200
  store i32 %7, i32* %ehselector.slot, !dbg !11200
  invoke void @_ZNSsD1Ev(%"class.std::basic_string"* %ref.tmp)
          to label %invoke.cont5 unwind label %terminate.lpad, !dbg !11201

invoke.cont5:                                     ; preds = %lpad2
  br label %ehcleanup, !dbg !11202

ehcleanup:                                        ; preds = %invoke.cont5, %lpad
  call void @_ZNSaIcED1Ev(%"class.std::allocator"* %ref.tmp1) #1, !dbg !11204
  br label %eh.resume, !dbg !11204

lpad6:                                            ; preds = %invoke.cont4
  %8 = landingpad { i8*, i32 } personality i8* bitcast (i32 (...)* @__gxx_personality_v0 to i8*)
          cleanup, !dbg !11200
  %9 = extractvalue { i8*, i32 } %8, 0, !dbg !11200
  store i8* %9, i8** %exn.slot, !dbg !11200
  %10 = extractvalue { i8*, i32 } %8, 1, !dbg !11200
  store i32 %10, i32* %ehselector.slot, !dbg !11200
  invoke void @_ZN4TestD2Ev(%class.Test* %test)
          to label %invoke.cont9 unwind label %terminate.lpad, !dbg !11200

invoke.cont9:                                     ; preds = %lpad6
  br label %eh.resume, !dbg !11206

eh.resume:                                        ; preds = %invoke.cont9, %ehcleanup
  %exn = load i8** %exn.slot, !dbg !11207
  %sel = load i32* %ehselector.slot, !dbg !11207
  %lpad.val = insertvalue { i8*, i32 } undef, i8* %exn, 0, !dbg !11207
  %lpad.val10 = insertvalue { i8*, i32 } %lpad.val, i32 %sel, 1, !dbg !11207
  resume { i8*, i32 } %lpad.val10, !dbg !11207

terminate.lpad:                                   ; preds = %lpad6, %lpad2
  %11 = landingpad { i8*, i32 } personality i8* bitcast (i32 (...)* @__gxx_personality_v0 to i8*)
          catch i8* null, !dbg !11209
  %12 = extractvalue { i8*, i32 } %11, 0, !dbg !11209
  call void @__clang_call_terminate(i8* %12) #15, !dbg !11209
  unreachable, !dbg !11209
}

declare void @_ZN3ros4initERiPPcRKSsj(i32* dereferenceable(4), i8**, %"class.std::basic_string"* dereferenceable(8), i32) #0

declare void @_ZN3ros4spinEv() #0

; Function Attrs: inlinehint uwtable
define linkonce_odr void @_ZN4TestD2Ev(%class.Test* %this) unnamed_addr #6 comdat align 2 {
entry:
  %this.addr = alloca %class.Test*, align 8
  %exn.slot = alloca i8*
  %ehselector.slot = alloca i32
  store %class.Test* %this, %class.Test** %this.addr, align 8
  call void @llvm.dbg.declare(metadata %class.Test** %this.addr, metadata !11211, metadata !9990), !dbg !11212
  %this1 = load %class.Test** %this.addr
  %other_pub = getelementptr inbounds %class.Test* %this1, i32 0, i32 5, !dbg !11213
  invoke void @_ZN3ros9PublisherD1Ev(%"class.ros::Publisher"* %other_pub)
          to label %invoke.cont unwind label %lpad, !dbg !11213

invoke.cont:                                      ; preds = %entry
  %msg_pub = getelementptr inbounds %class.Test* %this1, i32 0, i32 4, !dbg !11215
  invoke void @_ZN3ros9PublisherD1Ev(%"class.ros::Publisher"* %msg_pub)
          to label %invoke.cont3 unwind label %lpad2, !dbg !11215

invoke.cont3:                                     ; preds = %invoke.cont
  %msg_sub = getelementptr inbounds %class.Test* %this1, i32 0, i32 3, !dbg !11217
  invoke void @_ZN3ros10SubscriberD1Ev(%"class.ros::Subscriber"* %msg_sub)
          to label %invoke.cont7 unwind label %lpad6, !dbg !11217

invoke.cont7:                                     ; preds = %invoke.cont3
  %nh = getelementptr inbounds %class.Test* %this1, i32 0, i32 1, !dbg !11219
  invoke void @_ZN3ros10NodeHandleD1Ev(%"class.ros::NodeHandle"* %nh)
          to label %invoke.cont11 unwind label %lpad10, !dbg !11219

invoke.cont11:                                    ; preds = %invoke.cont7
  %private_nh_ = getelementptr inbounds %class.Test* %this1, i32 0, i32 0, !dbg !11221
  call void @_ZN3ros10NodeHandleD1Ev(%"class.ros::NodeHandle"* %private_nh_), !dbg !11221
  ret void, !dbg !11223

lpad:                                             ; preds = %entry
  %0 = landingpad { i8*, i32 } personality i8* bitcast (i32 (...)* @__gxx_personality_v0 to i8*)
          cleanup, !dbg !11224
  %1 = extractvalue { i8*, i32 } %0, 0, !dbg !11224
  store i8* %1, i8** %exn.slot, !dbg !11224
  %2 = extractvalue { i8*, i32 } %0, 1, !dbg !11224
  store i32 %2, i32* %ehselector.slot, !dbg !11224
  %msg_pub4 = getelementptr inbounds %class.Test* %this1, i32 0, i32 4, !dbg !11213
  invoke void @_ZN3ros9PublisherD1Ev(%"class.ros::Publisher"* %msg_pub4)
          to label %invoke.cont5 unwind label %terminate.lpad, !dbg !11213

lpad2:                                            ; preds = %invoke.cont
  %3 = landingpad { i8*, i32 } personality i8* bitcast (i32 (...)* @__gxx_personality_v0 to i8*)
          cleanup, !dbg !11226
  %4 = extractvalue { i8*, i32 } %3, 0, !dbg !11226
  store i8* %4, i8** %exn.slot, !dbg !11226
  %5 = extractvalue { i8*, i32 } %3, 1, !dbg !11226
  store i32 %5, i32* %ehselector.slot, !dbg !11226
  br label %ehcleanup, !dbg !11226

invoke.cont5:                                     ; preds = %lpad
  br label %ehcleanup, !dbg !11228

lpad6:                                            ; preds = %invoke.cont3
  %6 = landingpad { i8*, i32 } personality i8* bitcast (i32 (...)* @__gxx_personality_v0 to i8*)
          cleanup, !dbg !11230
  %7 = extractvalue { i8*, i32 } %6, 0, !dbg !11230
  store i8* %7, i8** %exn.slot, !dbg !11230
  %8 = extractvalue { i8*, i32 } %6, 1, !dbg !11230
  store i32 %8, i32* %ehselector.slot, !dbg !11230
  br label %ehcleanup12, !dbg !11230

ehcleanup:                                        ; preds = %invoke.cont5, %lpad2
  %msg_sub8 = getelementptr inbounds %class.Test* %this1, i32 0, i32 3, !dbg !11232
  invoke void @_ZN3ros10SubscriberD1Ev(%"class.ros::Subscriber"* %msg_sub8)
          to label %invoke.cont9 unwind label %terminate.lpad, !dbg !11232

invoke.cont9:                                     ; preds = %ehcleanup
  br label %ehcleanup12, !dbg !11235

lpad10:                                           ; preds = %invoke.cont7
  %9 = landingpad { i8*, i32 } personality i8* bitcast (i32 (...)* @__gxx_personality_v0 to i8*)
          cleanup, !dbg !11237
  %10 = extractvalue { i8*, i32 } %9, 0, !dbg !11237
  store i8* %10, i8** %exn.slot, !dbg !11237
  %11 = extractvalue { i8*, i32 } %9, 1, !dbg !11237
  store i32 %11, i32* %ehselector.slot, !dbg !11237
  br label %ehcleanup15, !dbg !11237

ehcleanup12:                                      ; preds = %invoke.cont9, %lpad6
  %nh13 = getelementptr inbounds %class.Test* %this1, i32 0, i32 1, !dbg !11239
  invoke void @_ZN3ros10NodeHandleD1Ev(%"class.ros::NodeHandle"* %nh13)
          to label %invoke.cont14 unwind label %terminate.lpad, !dbg !11239

invoke.cont14:                                    ; preds = %ehcleanup12
  br label %ehcleanup15, !dbg !11242

ehcleanup15:                                      ; preds = %invoke.cont14, %lpad10
  %private_nh_16 = getelementptr inbounds %class.Test* %this1, i32 0, i32 0, !dbg !11244
  invoke void @_ZN3ros10NodeHandleD1Ev(%"class.ros::NodeHandle"* %private_nh_16)
          to label %invoke.cont17 unwind label %terminate.lpad, !dbg !11244

invoke.cont17:                                    ; preds = %ehcleanup15
  br label %eh.resume, !dbg !11247

eh.resume:                                        ; preds = %invoke.cont17
  %exn = load i8** %exn.slot, !dbg !11249
  %sel = load i32* %ehselector.slot, !dbg !11249
  %lpad.val = insertvalue { i8*, i32 } undef, i8* %exn, 0, !dbg !11249
  %lpad.val18 = insertvalue { i8*, i32 } %lpad.val, i32 %sel, 1, !dbg !11249
  resume { i8*, i32 } %lpad.val18, !dbg !11249

terminate.lpad:                                   ; preds = %ehcleanup15, %ehcleanup12, %ehcleanup, %lpad
  %12 = landingpad { i8*, i32 } personality i8* bitcast (i32 (...)* @__gxx_personality_v0 to i8*)
          catch i8* null, !dbg !11251
  %13 = extractvalue { i8*, i32 } %12, 0, !dbg !11251
  call void @__clang_call_terminate(i8* %13) #15, !dbg !11251
  unreachable, !dbg !11251
}

; Function Attrs: uwtable
define linkonce_odr void @_ZNSt8_Rb_treeISsSt4pairIKSsSsESt10_Select1stIS2_ESt4lessISsESaIS2_EED2Ev(%"class.std::_Rb_tree"* %this) unnamed_addr #3 comdat align 2 {
entry:
  %this.addr = alloca %"class.std::_Rb_tree"*, align 8
  %exn.slot = alloca i8*
  %ehselector.slot = alloca i32
  store %"class.std::_Rb_tree"* %this, %"class.std::_Rb_tree"** %this.addr, align 8
  call void @llvm.dbg.declare(metadata %"class.std::_Rb_tree"** %this.addr, metadata !11256, metadata !9990), !dbg !11258
  %this1 = load %"class.std::_Rb_tree"** %this.addr
  %call = invoke %"struct.std::_Rb_tree_node"* @_ZNSt8_Rb_treeISsSt4pairIKSsSsESt10_Select1stIS2_ESt4lessISsESaIS2_EE8_M_beginEv(%"class.std::_Rb_tree"* %this1)
          to label %invoke.cont unwind label %lpad, !dbg !11259

invoke.cont:                                      ; preds = %entry
  invoke void @_ZNSt8_Rb_treeISsSt4pairIKSsSsESt10_Select1stIS2_ESt4lessISsESaIS2_EE8_M_eraseEPSt13_Rb_tree_nodeIS2_E(%"class.std::_Rb_tree"* %this1, %"struct.std::_Rb_tree_node"* %call)
          to label %invoke.cont2 unwind label %lpad, !dbg !11261

invoke.cont2:                                     ; preds = %invoke.cont
  %_M_impl = getelementptr inbounds %"class.std::_Rb_tree"* %this1, i32 0, i32 0, !dbg !11263
  call void @_ZNSt8_Rb_treeISsSt4pairIKSsSsESt10_Select1stIS2_ESt4lessISsESaIS2_EE13_Rb_tree_implIS6_Lb0EED2Ev(%"struct.std::_Rb_tree<std::basic_string<char>, std::pair<const std::basic_string<char>, std::basic_string<char> >, std::_Select1st<std::pair<const std::basic_string<char>, std::basic_string<char> > >, std::less<std::basic_string<char> >, std::allocator<std::pair<const std::basic_string<char>, std::basic_string<char> > > >::_Rb_tree_impl"* %_M_impl) #1, !dbg !11263
  ret void, !dbg !11265

lpad:                                             ; preds = %invoke.cont, %entry
  %0 = landingpad { i8*, i32 } personality i8* bitcast (i32 (...)* @__gxx_personality_v0 to i8*)
          cleanup, !dbg !11266
  %1 = extractvalue { i8*, i32 } %0, 0, !dbg !11266
  store i8* %1, i8** %exn.slot, !dbg !11266
  %2 = extractvalue { i8*, i32 } %0, 1, !dbg !11266
  store i32 %2, i32* %ehselector.slot, !dbg !11266
  %_M_impl3 = getelementptr inbounds %"class.std::_Rb_tree"* %this1, i32 0, i32 0, !dbg !11266
  call void @_ZNSt8_Rb_treeISsSt4pairIKSsSsESt10_Select1stIS2_ESt4lessISsESaIS2_EE13_Rb_tree_implIS6_Lb0EED2Ev(%"struct.std::_Rb_tree<std::basic_string<char>, std::pair<const std::basic_string<char>, std::basic_string<char> >, std::_Select1st<std::pair<const std::basic_string<char>, std::basic_string<char> > >, std::less<std::basic_string<char> >, std::allocator<std::pair<const std::basic_string<char>, std::basic_string<char> > > >::_Rb_tree_impl"* %_M_impl3) #1, !dbg !11266
  br label %eh.resume, !dbg !11266

eh.resume:                                        ; preds = %lpad
  %exn = load i8** %exn.slot, !dbg !11269
  %sel = load i32* %ehselector.slot, !dbg !11269
  %lpad.val = insertvalue { i8*, i32 } undef, i8* %exn, 0, !dbg !11269
  %lpad.val4 = insertvalue { i8*, i32 } %lpad.val, i32 %sel, 1, !dbg !11269
  resume { i8*, i32 } %lpad.val4, !dbg !11269
}

; Function Attrs: uwtable
define linkonce_odr void @_ZNSt8_Rb_treeISsSt4pairIKSsSsESt10_Select1stIS2_ESt4lessISsESaIS2_EE8_M_eraseEPSt13_Rb_tree_nodeIS2_E(%"class.std::_Rb_tree"* %this, %"struct.std::_Rb_tree_node"* %__x) #3 comdat align 2 {
entry:
  %this.addr = alloca %"class.std::_Rb_tree"*, align 8
  %__x.addr = alloca %"struct.std::_Rb_tree_node"*, align 8
  %__y = alloca %"struct.std::_Rb_tree_node"*, align 8
  store %"class.std::_Rb_tree"* %this, %"class.std::_Rb_tree"** %this.addr, align 8
  call void @llvm.dbg.declare(metadata %"class.std::_Rb_tree"** %this.addr, metadata !11271, metadata !9990), !dbg !11272
  store %"struct.std::_Rb_tree_node"* %__x, %"struct.std::_Rb_tree_node"** %__x.addr, align 8
  call void @llvm.dbg.declare(metadata %"struct.std::_Rb_tree_node"** %__x.addr, metadata !11273, metadata !9990), !dbg !11275
  %this1 = load %"class.std::_Rb_tree"** %this.addr
  br label %while.cond, !dbg !11276

while.cond:                                       ; preds = %while.body, %entry
  %0 = load %"struct.std::_Rb_tree_node"** %__x.addr, align 8, !dbg !11277
  %cmp = icmp ne %"struct.std::_Rb_tree_node"* %0, null, !dbg !11280
  br i1 %cmp, label %while.body, label %while.end, !dbg !11276

while.body:                                       ; preds = %while.cond
  %1 = load %"struct.std::_Rb_tree_node"** %__x.addr, align 8, !dbg !11281
  %2 = bitcast %"struct.std::_Rb_tree_node"* %1 to %"struct.std::_Rb_tree_node_base"*, !dbg !11281
  %call = call %"struct.std::_Rb_tree_node"* @_ZNSt8_Rb_treeISsSt4pairIKSsSsESt10_Select1stIS2_ESt4lessISsESaIS2_EE8_S_rightEPSt18_Rb_tree_node_base(%"struct.std::_Rb_tree_node_base"* %2), !dbg !11283
  call void @_ZNSt8_Rb_treeISsSt4pairIKSsSsESt10_Select1stIS2_ESt4lessISsESaIS2_EE8_M_eraseEPSt13_Rb_tree_nodeIS2_E(%"class.std::_Rb_tree"* %this1, %"struct.std::_Rb_tree_node"* %call), !dbg !11284
  call void @llvm.dbg.declare(metadata %"struct.std::_Rb_tree_node"** %__y, metadata !11285, metadata !9990), !dbg !11286
  %3 = load %"struct.std::_Rb_tree_node"** %__x.addr, align 8, !dbg !11287
  %4 = bitcast %"struct.std::_Rb_tree_node"* %3 to %"struct.std::_Rb_tree_node_base"*, !dbg !11287
  %call2 = call %"struct.std::_Rb_tree_node"* @_ZNSt8_Rb_treeISsSt4pairIKSsSsESt10_Select1stIS2_ESt4lessISsESaIS2_EE7_S_leftEPSt18_Rb_tree_node_base(%"struct.std::_Rb_tree_node_base"* %4), !dbg !11288
  store %"struct.std::_Rb_tree_node"* %call2, %"struct.std::_Rb_tree_node"** %__y, align 8, !dbg !11286
  %5 = load %"struct.std::_Rb_tree_node"** %__x.addr, align 8, !dbg !11289
  call void @_ZNSt8_Rb_treeISsSt4pairIKSsSsESt10_Select1stIS2_ESt4lessISsESaIS2_EE15_M_destroy_nodeEPSt13_Rb_tree_nodeIS2_E(%"class.std::_Rb_tree"* %this1, %"struct.std::_Rb_tree_node"* %5), !dbg !11290
  %6 = load %"struct.std::_Rb_tree_node"** %__y, align 8, !dbg !11291
  store %"struct.std::_Rb_tree_node"* %6, %"struct.std::_Rb_tree_node"** %__x.addr, align 8, !dbg !11292
  br label %while.cond, !dbg !11276

while.end:                                        ; preds = %while.cond
  ret void, !dbg !11293
}

; Function Attrs: nounwind uwtable
define linkonce_odr %"struct.std::_Rb_tree_node"* @_ZNSt8_Rb_treeISsSt4pairIKSsSsESt10_Select1stIS2_ESt4lessISsESaIS2_EE8_M_beginEv(%"class.std::_Rb_tree"* %this) #2 comdat align 2 {
entry:
  %this.addr = alloca %"class.std::_Rb_tree"*, align 8
  store %"class.std::_Rb_tree"* %this, %"class.std::_Rb_tree"** %this.addr, align 8
  call void @llvm.dbg.declare(metadata %"class.std::_Rb_tree"** %this.addr, metadata !11294, metadata !9990), !dbg !11295
  %this1 = load %"class.std::_Rb_tree"** %this.addr
  %_M_impl = getelementptr inbounds %"class.std::_Rb_tree"* %this1, i32 0, i32 0, !dbg !11296
  %_M_header = getelementptr inbounds %"struct.std::_Rb_tree<std::basic_string<char>, std::pair<const std::basic_string<char>, std::basic_string<char> >, std::_Select1st<std::pair<const std::basic_string<char>, std::basic_string<char> > >, std::less<std::basic_string<char> >, std::allocator<std::pair<const std::basic_string<char>, std::basic_string<char> > > >::_Rb_tree_impl"* %_M_impl, i32 0, i32 1, !dbg !11297
  %_M_parent = getelementptr inbounds %"struct.std::_Rb_tree_node_base"* %_M_header, i32 0, i32 1, !dbg !11298
  %0 = load %"struct.std::_Rb_tree_node_base"** %_M_parent, align 8, !dbg !11298
  %1 = bitcast %"struct.std::_Rb_tree_node_base"* %0 to %"struct.std::_Rb_tree_node"*, !dbg !11299
  ret %"struct.std::_Rb_tree_node"* %1, !dbg !11300
}

; Function Attrs: inlinehint nounwind uwtable
define linkonce_odr void @_ZNSt8_Rb_treeISsSt4pairIKSsSsESt10_Select1stIS2_ESt4lessISsESaIS2_EE13_Rb_tree_implIS6_Lb0EED2Ev(%"struct.std::_Rb_tree<std::basic_string<char>, std::pair<const std::basic_string<char>, std::basic_string<char> >, std::_Select1st<std::pair<const std::basic_string<char>, std::basic_string<char> > >, std::less<std::basic_string<char> >, std::allocator<std::pair<const std::basic_string<char>, std::basic_string<char> > > >::_Rb_tree_impl"* %this) unnamed_addr #8 comdat align 2 {
entry:
  %this.addr = alloca %"struct.std::_Rb_tree<std::basic_string<char>, std::pair<const std::basic_string<char>, std::basic_string<char> >, std::_Select1st<std::pair<const std::basic_string<char>, std::basic_string<char> > >, std::less<std::basic_string<char> >, std::allocator<std::pair<const std::basic_string<char>, std::basic_string<char> > > >::_Rb_tree_impl"*, align 8
  store %"struct.std::_Rb_tree<std::basic_string<char>, std::pair<const std::basic_string<char>, std::basic_string<char> >, std::_Select1st<std::pair<const std::basic_string<char>, std::basic_string<char> > >, std::less<std::basic_string<char> >, std::allocator<std::pair<const std::basic_string<char>, std::basic_string<char> > > >::_Rb_tree_impl"* %this, %"struct.std::_Rb_tree<std::basic_string<char>, std::pair<const std::basic_string<char>, std::basic_string<char> >, std::_Select1st<std::pair<const std::basic_string<char>, std::basic_string<char> > >, std::less<std::basic_string<char> >, std::allocator<std::pair<const std::basic_string<char>, std::basic_string<char> > > >::_Rb_tree_impl"** %this.addr, align 8
  call void @llvm.dbg.declare(metadata %"struct.std::_Rb_tree<std::basic_string<char>, std::pair<const std::basic_string<char>, std::basic_string<char> >, std::_Select1st<std::pair<const std::basic_string<char>, std::basic_string<char> > >, std::less<std::basic_string<char> >, std::allocator<std::pair<const std::basic_string<char>, std::basic_string<char> > > >::_Rb_tree_impl"** %this.addr, metadata !11301, metadata !9990), !dbg !11303
  %this1 = load %"struct.std::_Rb_tree<std::basic_string<char>, std::pair<const std::basic_string<char>, std::basic_string<char> >, std::_Select1st<std::pair<const std::basic_string<char>, std::basic_string<char> > >, std::less<std::basic_string<char> >, std::allocator<std::pair<const std::basic_string<char>, std::basic_string<char> > > >::_Rb_tree_impl"** %this.addr
  %0 = bitcast %"struct.std::_Rb_tree<std::basic_string<char>, std::pair<const std::basic_string<char>, std::basic_string<char> >, std::_Select1st<std::pair<const std::basic_string<char>, std::basic_string<char> > >, std::less<std::basic_string<char> >, std::allocator<std::pair<const std::basic_string<char>, std::basic_string<char> > > >::_Rb_tree_impl"* %this1 to %"class.std::allocator.16"*, !dbg !11304
  call void @_ZNSaISt13_Rb_tree_nodeISt4pairIKSsSsEEED2Ev(%"class.std::allocator.16"* %0) #1, !dbg !11304
  ret void, !dbg !11306
}

; Function Attrs: nounwind uwtable
define linkonce_odr %"struct.std::_Rb_tree_node"* @_ZNSt8_Rb_treeISsSt4pairIKSsSsESt10_Select1stIS2_ESt4lessISsESaIS2_EE8_S_rightEPSt18_Rb_tree_node_base(%"struct.std::_Rb_tree_node_base"* %__x) #2 comdat align 2 {
entry:
  %__x.addr = alloca %"struct.std::_Rb_tree_node_base"*, align 8
  store %"struct.std::_Rb_tree_node_base"* %__x, %"struct.std::_Rb_tree_node_base"** %__x.addr, align 8
  call void @llvm.dbg.declare(metadata %"struct.std::_Rb_tree_node_base"** %__x.addr, metadata !11307, metadata !9990), !dbg !11308
  %0 = load %"struct.std::_Rb_tree_node_base"** %__x.addr, align 8, !dbg !11309
  %_M_right = getelementptr inbounds %"struct.std::_Rb_tree_node_base"* %0, i32 0, i32 3, !dbg !11310
  %1 = load %"struct.std::_Rb_tree_node_base"** %_M_right, align 8, !dbg !11310
  %2 = bitcast %"struct.std::_Rb_tree_node_base"* %1 to %"struct.std::_Rb_tree_node"*, !dbg !11311
  ret %"struct.std::_Rb_tree_node"* %2, !dbg !11312
}

; Function Attrs: nounwind uwtable
define linkonce_odr %"struct.std::_Rb_tree_node"* @_ZNSt8_Rb_treeISsSt4pairIKSsSsESt10_Select1stIS2_ESt4lessISsESaIS2_EE7_S_leftEPSt18_Rb_tree_node_base(%"struct.std::_Rb_tree_node_base"* %__x) #2 comdat align 2 {
entry:
  %__x.addr = alloca %"struct.std::_Rb_tree_node_base"*, align 8
  store %"struct.std::_Rb_tree_node_base"* %__x, %"struct.std::_Rb_tree_node_base"** %__x.addr, align 8
  call void @llvm.dbg.declare(metadata %"struct.std::_Rb_tree_node_base"** %__x.addr, metadata !11313, metadata !9990), !dbg !11314
  %0 = load %"struct.std::_Rb_tree_node_base"** %__x.addr, align 8, !dbg !11315
  %_M_left = getelementptr inbounds %"struct.std::_Rb_tree_node_base"* %0, i32 0, i32 2, !dbg !11316
  %1 = load %"struct.std::_Rb_tree_node_base"** %_M_left, align 8, !dbg !11316
  %2 = bitcast %"struct.std::_Rb_tree_node_base"* %1 to %"struct.std::_Rb_tree_node"*, !dbg !11317
  ret %"struct.std::_Rb_tree_node"* %2, !dbg !11318
}

; Function Attrs: uwtable
define linkonce_odr void @_ZNSt8_Rb_treeISsSt4pairIKSsSsESt10_Select1stIS2_ESt4lessISsESaIS2_EE15_M_destroy_nodeEPSt13_Rb_tree_nodeIS2_E(%"class.std::_Rb_tree"* %this, %"struct.std::_Rb_tree_node"* %__p) #3 comdat align 2 {
entry:
  %this.addr = alloca %"class.std::_Rb_tree"*, align 8
  %__p.addr = alloca %"struct.std::_Rb_tree_node"*, align 8
  %temp.lvalue = alloca %"class.std::allocator.37", align 1
  %exn.slot = alloca i8*
  %ehselector.slot = alloca i32
  store %"class.std::_Rb_tree"* %this, %"class.std::_Rb_tree"** %this.addr, align 8
  call void @llvm.dbg.declare(metadata %"class.std::_Rb_tree"** %this.addr, metadata !11319, metadata !9990), !dbg !11320
  store %"struct.std::_Rb_tree_node"* %__p, %"struct.std::_Rb_tree_node"** %__p.addr, align 8
  call void @llvm.dbg.declare(metadata %"struct.std::_Rb_tree_node"** %__p.addr, metadata !11321, metadata !9990), !dbg !11322
  %this1 = load %"class.std::_Rb_tree"** %this.addr
  call void @_ZNKSt8_Rb_treeISsSt4pairIKSsSsESt10_Select1stIS2_ESt4lessISsESaIS2_EE13get_allocatorEv(%"class.std::allocator.37"* sret %temp.lvalue, %"class.std::_Rb_tree"* %this1), !dbg !11323
  %0 = bitcast %"class.std::allocator.37"* %temp.lvalue to %"class.__gnu_cxx::new_allocator.38"*, !dbg !11323
  %1 = load %"struct.std::_Rb_tree_node"** %__p.addr, align 8, !dbg !11324
  %_M_value_field = getelementptr inbounds %"struct.std::_Rb_tree_node"* %1, i32 0, i32 1, !dbg !11325
  %call = invoke %"struct.std::pair"* @_ZSt11__addressofISt4pairIKSsSsEEPT_RS3_(%"struct.std::pair"* dereferenceable(16) %_M_value_field)
          to label %invoke.cont unwind label %lpad, !dbg !11326

invoke.cont:                                      ; preds = %entry
  invoke void @_ZN9__gnu_cxx13new_allocatorISt4pairIKSsSsEE7destroyEPS3_(%"class.__gnu_cxx::new_allocator.38"* %0, %"struct.std::pair"* %call)
          to label %invoke.cont2 unwind label %lpad, !dbg !11327

invoke.cont2:                                     ; preds = %invoke.cont
  call void @_ZNSaISt4pairIKSsSsEED2Ev(%"class.std::allocator.37"* %temp.lvalue) #1, !dbg !11329
  %2 = load %"struct.std::_Rb_tree_node"** %__p.addr, align 8, !dbg !11331
  call void @_ZNSt8_Rb_treeISsSt4pairIKSsSsESt10_Select1stIS2_ESt4lessISsESaIS2_EE11_M_put_nodeEPSt13_Rb_tree_nodeIS2_E(%"class.std::_Rb_tree"* %this1, %"struct.std::_Rb_tree_node"* %2), !dbg !11332
  ret void, !dbg !11333

lpad:                                             ; preds = %invoke.cont, %entry
  %3 = landingpad { i8*, i32 } personality i8* bitcast (i32 (...)* @__gxx_personality_v0 to i8*)
          cleanup, !dbg !11333
  %4 = extractvalue { i8*, i32 } %3, 0, !dbg !11333
  store i8* %4, i8** %exn.slot, !dbg !11333
  %5 = extractvalue { i8*, i32 } %3, 1, !dbg !11333
  store i32 %5, i32* %ehselector.slot, !dbg !11333
  call void @_ZNSaISt4pairIKSsSsEED2Ev(%"class.std::allocator.37"* %temp.lvalue) #1, !dbg !11323
  br label %eh.resume, !dbg !11323

eh.resume:                                        ; preds = %lpad
  %exn = load i8** %exn.slot, !dbg !11334
  %sel = load i32* %ehselector.slot, !dbg !11334
  %lpad.val = insertvalue { i8*, i32 } undef, i8* %exn, 0, !dbg !11334
  %lpad.val3 = insertvalue { i8*, i32 } %lpad.val, i32 %sel, 1, !dbg !11334
  resume { i8*, i32 } %lpad.val3, !dbg !11334
}

; Function Attrs: uwtable
define linkonce_odr void @_ZNKSt8_Rb_treeISsSt4pairIKSsSsESt10_Select1stIS2_ESt4lessISsESaIS2_EE13get_allocatorEv(%"class.std::allocator.37"* noalias sret %agg.result, %"class.std::_Rb_tree"* %this) #3 comdat align 2 {
entry:
  %this.addr = alloca %"class.std::_Rb_tree"*, align 8
  store %"class.std::_Rb_tree"* %this, %"class.std::_Rb_tree"** %this.addr, align 8
  call void @llvm.dbg.declare(metadata %"class.std::_Rb_tree"** %this.addr, metadata !11336, metadata !9990), !dbg !11338
  %this1 = load %"class.std::_Rb_tree"** %this.addr
  %call = call dereferenceable(1) %"class.std::allocator.16"* @_ZNKSt8_Rb_treeISsSt4pairIKSsSsESt10_Select1stIS2_ESt4lessISsESaIS2_EE21_M_get_Node_allocatorEv(%"class.std::_Rb_tree"* %this1), !dbg !11339
  call void @_ZNSaISt4pairIKSsSsEEC2ISt13_Rb_tree_nodeIS1_EEERKSaIT_E(%"class.std::allocator.37"* %agg.result, %"class.std::allocator.16"* dereferenceable(1) %call) #1, !dbg !11340
  ret void, !dbg !11341
}

; Function Attrs: uwtable
define linkonce_odr void @_ZN9__gnu_cxx13new_allocatorISt4pairIKSsSsEE7destroyEPS3_(%"class.__gnu_cxx::new_allocator.38"* %this, %"struct.std::pair"* %__p) #3 comdat align 2 {
entry:
  %this.addr = alloca %"class.__gnu_cxx::new_allocator.38"*, align 8
  %__p.addr = alloca %"struct.std::pair"*, align 8
  store %"class.__gnu_cxx::new_allocator.38"* %this, %"class.__gnu_cxx::new_allocator.38"** %this.addr, align 8
  call void @llvm.dbg.declare(metadata %"class.__gnu_cxx::new_allocator.38"** %this.addr, metadata !11342, metadata !9990), !dbg !11344
  store %"struct.std::pair"* %__p, %"struct.std::pair"** %__p.addr, align 8
  call void @llvm.dbg.declare(metadata %"struct.std::pair"** %__p.addr, metadata !11345, metadata !9990), !dbg !11347
  %this1 = load %"class.__gnu_cxx::new_allocator.38"** %this.addr
  %0 = load %"struct.std::pair"** %__p.addr, align 8, !dbg !11348
  call void @_ZNSt4pairIKSsSsED2Ev(%"struct.std::pair"* %0), !dbg !11348
  ret void, !dbg !11349
}

; Function Attrs: inlinehint nounwind uwtable
define linkonce_odr %"struct.std::pair"* @_ZSt11__addressofISt4pairIKSsSsEEPT_RS3_(%"struct.std::pair"* dereferenceable(16) %__r) #8 comdat {
entry:
  %__r.addr = alloca %"struct.std::pair"*, align 8
  store %"struct.std::pair"* %__r, %"struct.std::pair"** %__r.addr, align 8
  call void @llvm.dbg.declare(metadata %"struct.std::pair"** %__r.addr, metadata !11350, metadata !9990), !dbg !11352
  %0 = load %"struct.std::pair"** %__r.addr, align 8, !dbg !11353
  %1 = bitcast %"struct.std::pair"* %0 to i8*, !dbg !11354
  %2 = bitcast i8* %1 to %"struct.std::pair"*, !dbg !11355
  ret %"struct.std::pair"* %2, !dbg !11356
}

; Function Attrs: nounwind uwtable
define linkonce_odr void @_ZNSaISt4pairIKSsSsEED2Ev(%"class.std::allocator.37"* %this) unnamed_addr #2 comdat align 2 {
entry:
  %this.addr = alloca %"class.std::allocator.37"*, align 8
  store %"class.std::allocator.37"* %this, %"class.std::allocator.37"** %this.addr, align 8
  call void @llvm.dbg.declare(metadata %"class.std::allocator.37"** %this.addr, metadata !11357, metadata !9990), !dbg !11359
  %this1 = load %"class.std::allocator.37"** %this.addr
  %0 = bitcast %"class.std::allocator.37"* %this1 to %"class.__gnu_cxx::new_allocator.38"*, !dbg !11360
  call void @_ZN9__gnu_cxx13new_allocatorISt4pairIKSsSsEED2Ev(%"class.__gnu_cxx::new_allocator.38"* %0) #1, !dbg !11360
  ret void, !dbg !11362
}

; Function Attrs: uwtable
define linkonce_odr void @_ZNSt8_Rb_treeISsSt4pairIKSsSsESt10_Select1stIS2_ESt4lessISsESaIS2_EE11_M_put_nodeEPSt13_Rb_tree_nodeIS2_E(%"class.std::_Rb_tree"* %this, %"struct.std::_Rb_tree_node"* %__p) #3 comdat align 2 {
entry:
  %this.addr = alloca %"class.std::_Rb_tree"*, align 8
  %__p.addr = alloca %"struct.std::_Rb_tree_node"*, align 8
  store %"class.std::_Rb_tree"* %this, %"class.std::_Rb_tree"** %this.addr, align 8
  call void @llvm.dbg.declare(metadata %"class.std::_Rb_tree"** %this.addr, metadata !11363, metadata !9990), !dbg !11364
  store %"struct.std::_Rb_tree_node"* %__p, %"struct.std::_Rb_tree_node"** %__p.addr, align 8
  call void @llvm.dbg.declare(metadata %"struct.std::_Rb_tree_node"** %__p.addr, metadata !11365, metadata !9990), !dbg !11366
  %this1 = load %"class.std::_Rb_tree"** %this.addr
  %_M_impl = getelementptr inbounds %"class.std::_Rb_tree"* %this1, i32 0, i32 0, !dbg !11367
  %0 = bitcast %"struct.std::_Rb_tree<std::basic_string<char>, std::pair<const std::basic_string<char>, std::basic_string<char> >, std::_Select1st<std::pair<const std::basic_string<char>, std::basic_string<char> > >, std::less<std::basic_string<char> >, std::allocator<std::pair<const std::basic_string<char>, std::basic_string<char> > > >::_Rb_tree_impl"* %_M_impl to %"class.std::allocator.16"*, !dbg !11367
  %1 = bitcast %"class.std::allocator.16"* %0 to %"class.__gnu_cxx::new_allocator.17"*, !dbg !11367
  %2 = load %"struct.std::_Rb_tree_node"** %__p.addr, align 8, !dbg !11368
  call void @_ZN9__gnu_cxx13new_allocatorISt13_Rb_tree_nodeISt4pairIKSsSsEEE10deallocateEPS5_m(%"class.__gnu_cxx::new_allocator.17"* %1, %"struct.std::_Rb_tree_node"* %2, i64 1), !dbg !11367
  ret void, !dbg !11369
}

; Function Attrs: nounwind uwtable
define linkonce_odr dereferenceable(1) %"class.std::allocator.16"* @_ZNKSt8_Rb_treeISsSt4pairIKSsSsESt10_Select1stIS2_ESt4lessISsESaIS2_EE21_M_get_Node_allocatorEv(%"class.std::_Rb_tree"* %this) #2 comdat align 2 {
entry:
  %this.addr = alloca %"class.std::_Rb_tree"*, align 8
  store %"class.std::_Rb_tree"* %this, %"class.std::_Rb_tree"** %this.addr, align 8
  call void @llvm.dbg.declare(metadata %"class.std::_Rb_tree"** %this.addr, metadata !11370, metadata !9990), !dbg !11371
  %this1 = load %"class.std::_Rb_tree"** %this.addr
  %_M_impl = getelementptr inbounds %"class.std::_Rb_tree"* %this1, i32 0, i32 0, !dbg !11372
  %0 = bitcast %"struct.std::_Rb_tree<std::basic_string<char>, std::pair<const std::basic_string<char>, std::basic_string<char> >, std::_Select1st<std::pair<const std::basic_string<char>, std::basic_string<char> > >, std::less<std::basic_string<char> >, std::allocator<std::pair<const std::basic_string<char>, std::basic_string<char> > > >::_Rb_tree_impl"* %_M_impl to %"class.std::allocator.16"*, !dbg !11373
  ret %"class.std::allocator.16"* %0, !dbg !11374
}

; Function Attrs: nounwind uwtable
define linkonce_odr void @_ZNSaISt4pairIKSsSsEEC2ISt13_Rb_tree_nodeIS1_EEERKSaIT_E(%"class.std::allocator.37"* %this, %"class.std::allocator.16"* dereferenceable(1)) unnamed_addr #2 comdat align 2 {
entry:
  %this.addr = alloca %"class.std::allocator.37"*, align 8
  %.addr = alloca %"class.std::allocator.16"*, align 8
  store %"class.std::allocator.37"* %this, %"class.std::allocator.37"** %this.addr, align 8
  call void @llvm.dbg.declare(metadata %"class.std::allocator.37"** %this.addr, metadata !11375, metadata !9990), !dbg !11376
  store %"class.std::allocator.16"* %0, %"class.std::allocator.16"** %.addr, align 8
  call void @llvm.dbg.declare(metadata %"class.std::allocator.16"** %.addr, metadata !11377, metadata !9990), !dbg !11379
  %this1 = load %"class.std::allocator.37"** %this.addr
  %1 = bitcast %"class.std::allocator.37"* %this1 to %"class.__gnu_cxx::new_allocator.38"*, !dbg !11380
  call void @_ZN9__gnu_cxx13new_allocatorISt4pairIKSsSsEEC2Ev(%"class.__gnu_cxx::new_allocator.38"* %1) #1, !dbg !11381
  ret void, !dbg !11382
}

; Function Attrs: nounwind uwtable
define linkonce_odr void @_ZN9__gnu_cxx13new_allocatorISt4pairIKSsSsEEC2Ev(%"class.__gnu_cxx::new_allocator.38"* %this) unnamed_addr #2 comdat align 2 {
entry:
  %this.addr = alloca %"class.__gnu_cxx::new_allocator.38"*, align 8
  store %"class.__gnu_cxx::new_allocator.38"* %this, %"class.__gnu_cxx::new_allocator.38"** %this.addr, align 8
  call void @llvm.dbg.declare(metadata %"class.__gnu_cxx::new_allocator.38"** %this.addr, metadata !11383, metadata !9990), !dbg !11384
  %this1 = load %"class.__gnu_cxx::new_allocator.38"** %this.addr
  ret void, !dbg !11385
}

; Function Attrs: inlinehint uwtable
define linkonce_odr void @_ZNSt4pairIKSsSsED2Ev(%"struct.std::pair"* %this) unnamed_addr #6 comdat align 2 {
entry:
  %this.addr = alloca %"struct.std::pair"*, align 8
  %exn.slot = alloca i8*
  %ehselector.slot = alloca i32
  store %"struct.std::pair"* %this, %"struct.std::pair"** %this.addr, align 8
  call void @llvm.dbg.declare(metadata %"struct.std::pair"** %this.addr, metadata !11386, metadata !9990), !dbg !11387
  %this1 = load %"struct.std::pair"** %this.addr
  %second = getelementptr inbounds %"struct.std::pair"* %this1, i32 0, i32 1, !dbg !11388
  invoke void @_ZNSsD1Ev(%"class.std::basic_string"* %second)
          to label %invoke.cont unwind label %lpad, !dbg !11388

invoke.cont:                                      ; preds = %entry
  %first = getelementptr inbounds %"struct.std::pair"* %this1, i32 0, i32 0, !dbg !11390
  call void @_ZNSsD1Ev(%"class.std::basic_string"* %first), !dbg !11390
  ret void, !dbg !11392

lpad:                                             ; preds = %entry
  %0 = landingpad { i8*, i32 } personality i8* bitcast (i32 (...)* @__gxx_personality_v0 to i8*)
          cleanup, !dbg !11393
  %1 = extractvalue { i8*, i32 } %0, 0, !dbg !11393
  store i8* %1, i8** %exn.slot, !dbg !11393
  %2 = extractvalue { i8*, i32 } %0, 1, !dbg !11393
  store i32 %2, i32* %ehselector.slot, !dbg !11393
  %first2 = getelementptr inbounds %"struct.std::pair"* %this1, i32 0, i32 0, !dbg !11388
  invoke void @_ZNSsD1Ev(%"class.std::basic_string"* %first2)
          to label %invoke.cont3 unwind label %terminate.lpad, !dbg !11388

invoke.cont3:                                     ; preds = %lpad
  br label %eh.resume, !dbg !11395

eh.resume:                                        ; preds = %invoke.cont3
  %exn = load i8** %exn.slot, !dbg !11397
  %sel = load i32* %ehselector.slot, !dbg !11397
  %lpad.val = insertvalue { i8*, i32 } undef, i8* %exn, 0, !dbg !11397
  %lpad.val4 = insertvalue { i8*, i32 } %lpad.val, i32 %sel, 1, !dbg !11397
  resume { i8*, i32 } %lpad.val4, !dbg !11397

terminate.lpad:                                   ; preds = %lpad
  %3 = landingpad { i8*, i32 } personality i8* bitcast (i32 (...)* @__gxx_personality_v0 to i8*)
          catch i8* null, !dbg !11399
  %4 = extractvalue { i8*, i32 } %3, 0, !dbg !11399
  call void @__clang_call_terminate(i8* %4) #15, !dbg !11399
  unreachable, !dbg !11399
}

; Function Attrs: nounwind uwtable
define linkonce_odr void @_ZN9__gnu_cxx13new_allocatorISt4pairIKSsSsEED2Ev(%"class.__gnu_cxx::new_allocator.38"* %this) unnamed_addr #2 comdat align 2 {
entry:
  %this.addr = alloca %"class.__gnu_cxx::new_allocator.38"*, align 8
  store %"class.__gnu_cxx::new_allocator.38"* %this, %"class.__gnu_cxx::new_allocator.38"** %this.addr, align 8
  call void @llvm.dbg.declare(metadata %"class.__gnu_cxx::new_allocator.38"** %this.addr, metadata !11401, metadata !9990), !dbg !11402
  %this1 = load %"class.__gnu_cxx::new_allocator.38"** %this.addr
  ret void, !dbg !11403
}

; Function Attrs: nounwind uwtable
define linkonce_odr void @_ZN9__gnu_cxx13new_allocatorISt13_Rb_tree_nodeISt4pairIKSsSsEEE10deallocateEPS5_m(%"class.__gnu_cxx::new_allocator.17"* %this, %"struct.std::_Rb_tree_node"* %__p, i64) #2 comdat align 2 {
entry:
  %this.addr = alloca %"class.__gnu_cxx::new_allocator.17"*, align 8
  %__p.addr = alloca %"struct.std::_Rb_tree_node"*, align 8
  %.addr = alloca i64, align 8
  store %"class.__gnu_cxx::new_allocator.17"* %this, %"class.__gnu_cxx::new_allocator.17"** %this.addr, align 8
  call void @llvm.dbg.declare(metadata %"class.__gnu_cxx::new_allocator.17"** %this.addr, metadata !11404, metadata !9990), !dbg !11406
  store %"struct.std::_Rb_tree_node"* %__p, %"struct.std::_Rb_tree_node"** %__p.addr, align 8
  call void @llvm.dbg.declare(metadata %"struct.std::_Rb_tree_node"** %__p.addr, metadata !11407, metadata !9990), !dbg !11408
  store i64 %0, i64* %.addr, align 8
  call void @llvm.dbg.declare(metadata i64* %.addr, metadata !11409, metadata !9990), !dbg !11410
  %this1 = load %"class.__gnu_cxx::new_allocator.17"** %this.addr
  %1 = load %"struct.std::_Rb_tree_node"** %__p.addr, align 8, !dbg !11411
  %2 = bitcast %"struct.std::_Rb_tree_node"* %1 to i8*, !dbg !11411
  call void @_ZdlPv(i8* %2) #1, !dbg !11412
  ret void, !dbg !11413
}

; Function Attrs: nobuiltin nounwind
declare void @_ZdlPv(i8*) #9

; Function Attrs: nounwind uwtable
define linkonce_odr void @_ZNSaISt13_Rb_tree_nodeISt4pairIKSsSsEEED2Ev(%"class.std::allocator.16"* %this) unnamed_addr #2 comdat align 2 {
entry:
  %this.addr = alloca %"class.std::allocator.16"*, align 8
  store %"class.std::allocator.16"* %this, %"class.std::allocator.16"** %this.addr, align 8
  call void @llvm.dbg.declare(metadata %"class.std::allocator.16"** %this.addr, metadata !11414, metadata !9990), !dbg !11416
  %this1 = load %"class.std::allocator.16"** %this.addr
  %0 = bitcast %"class.std::allocator.16"* %this1 to %"class.__gnu_cxx::new_allocator.17"*, !dbg !11417
  call void @_ZN9__gnu_cxx13new_allocatorISt13_Rb_tree_nodeISt4pairIKSsSsEEED2Ev(%"class.__gnu_cxx::new_allocator.17"* %0) #1, !dbg !11417
  ret void, !dbg !11419
}

; Function Attrs: nounwind uwtable
define linkonce_odr void @_ZN9__gnu_cxx13new_allocatorISt13_Rb_tree_nodeISt4pairIKSsSsEEED2Ev(%"class.__gnu_cxx::new_allocator.17"* %this) unnamed_addr #2 comdat align 2 {
entry:
  %this.addr = alloca %"class.__gnu_cxx::new_allocator.17"*, align 8
  store %"class.__gnu_cxx::new_allocator.17"* %this, %"class.__gnu_cxx::new_allocator.17"** %this.addr, align 8
  call void @llvm.dbg.declare(metadata %"class.__gnu_cxx::new_allocator.17"** %this.addr, metadata !11420, metadata !9990), !dbg !11421
  %this1 = load %"class.__gnu_cxx::new_allocator.17"** %this.addr
  ret void, !dbg !11422
}

; Function Attrs: uwtable
define linkonce_odr void @_ZN5boost10shared_ptrIN3ros10Subscriber4ImplEEC2Ev(%"class.boost::shared_ptr"* %this) unnamed_addr #3 comdat align 2 {
entry:
  %this.addr = alloca %"class.boost::shared_ptr"*, align 8
  store %"class.boost::shared_ptr"* %this, %"class.boost::shared_ptr"** %this.addr, align 8
  call void @llvm.dbg.declare(metadata %"class.boost::shared_ptr"** %this.addr, metadata !11423, metadata !9990), !dbg !11425
  %this1 = load %"class.boost::shared_ptr"** %this.addr
  %px = getelementptr inbounds %"class.boost::shared_ptr"* %this1, i32 0, i32 0, !dbg !11426
  store %"class.ros::Subscriber::Impl"* null, %"class.ros::Subscriber::Impl"** %px, align 8, !dbg !11426
  %pn = getelementptr inbounds %"class.boost::shared_ptr"* %this1, i32 0, i32 1, !dbg !11427
  call void @_ZN5boost6detail12shared_countC2Ev(%"class.boost::detail::shared_count"* %pn), !dbg !11427
  ret void, !dbg !11428
}

; Function Attrs: nounwind uwtable
define linkonce_odr void @_ZN5boost6detail12shared_countC2Ev(%"class.boost::detail::shared_count"* %this) unnamed_addr #2 comdat align 2 {
entry:
  %this.addr = alloca %"class.boost::detail::shared_count"*, align 8
  store %"class.boost::detail::shared_count"* %this, %"class.boost::detail::shared_count"** %this.addr, align 8
  call void @llvm.dbg.declare(metadata %"class.boost::detail::shared_count"** %this.addr, metadata !11429, metadata !9990), !dbg !11431
  %this1 = load %"class.boost::detail::shared_count"** %this.addr
  %pi_ = getelementptr inbounds %"class.boost::detail::shared_count"* %this1, i32 0, i32 0, !dbg !11432
  store %"class.boost::detail::sp_counted_base"* null, %"class.boost::detail::sp_counted_base"** %pi_, align 8, !dbg !11432
  ret void, !dbg !11433
}

; Function Attrs: uwtable
define linkonce_odr void @_ZN5boost10shared_ptrIN3ros9Publisher4ImplEEC2Ev(%"class.boost::shared_ptr.21"* %this) unnamed_addr #3 comdat align 2 {
entry:
  %this.addr = alloca %"class.boost::shared_ptr.21"*, align 8
  store %"class.boost::shared_ptr.21"* %this, %"class.boost::shared_ptr.21"** %this.addr, align 8
  call void @llvm.dbg.declare(metadata %"class.boost::shared_ptr.21"** %this.addr, metadata !11434, metadata !9990), !dbg !11436
  %this1 = load %"class.boost::shared_ptr.21"** %this.addr
  %px = getelementptr inbounds %"class.boost::shared_ptr.21"* %this1, i32 0, i32 0, !dbg !11437
  store %"class.ros::Publisher::Impl"* null, %"class.ros::Publisher::Impl"** %px, align 8, !dbg !11437
  %pn = getelementptr inbounds %"class.boost::shared_ptr.21"* %this1, i32 0, i32 1, !dbg !11438
  call void @_ZN5boost6detail12shared_countC2Ev(%"class.boost::detail::shared_count"* %pn), !dbg !11438
  ret void, !dbg !11439
}

; Function Attrs: uwtable
define linkonce_odr dereferenceable(16) %"class.boost::shared_ptr.21"* @_ZN5boost10shared_ptrIN3ros9Publisher4ImplEEaSERKS4_(%"class.boost::shared_ptr.21"* %this, %"class.boost::shared_ptr.21"* dereferenceable(16) %r) #3 comdat align 2 {
entry:
  %this.addr = alloca %"class.boost::shared_ptr.21"*, align 8
  %r.addr = alloca %"class.boost::shared_ptr.21"*, align 8
  %temp.lvalue = alloca %"class.boost::shared_ptr.21", align 8
  %exn.slot = alloca i8*
  %ehselector.slot = alloca i32
  store %"class.boost::shared_ptr.21"* %this, %"class.boost::shared_ptr.21"** %this.addr, align 8
  call void @llvm.dbg.declare(metadata %"class.boost::shared_ptr.21"** %this.addr, metadata !11440, metadata !9990), !dbg !11441
  store %"class.boost::shared_ptr.21"* %r, %"class.boost::shared_ptr.21"** %r.addr, align 8
  call void @llvm.dbg.declare(metadata %"class.boost::shared_ptr.21"** %r.addr, metadata !11442, metadata !9990), !dbg !11443
  %this1 = load %"class.boost::shared_ptr.21"** %this.addr
  %0 = load %"class.boost::shared_ptr.21"** %r.addr, align 8, !dbg !11444
  call void @_ZN5boost10shared_ptrIN3ros9Publisher4ImplEEC2ERKS4_(%"class.boost::shared_ptr.21"* %temp.lvalue, %"class.boost::shared_ptr.21"* dereferenceable(16) %0), !dbg !11445
  invoke void @_ZN5boost10shared_ptrIN3ros9Publisher4ImplEE4swapERS4_(%"class.boost::shared_ptr.21"* %temp.lvalue, %"class.boost::shared_ptr.21"* dereferenceable(16) %this1)
          to label %invoke.cont unwind label %lpad, !dbg !11445

invoke.cont:                                      ; preds = %entry
  call void @_ZN5boost10shared_ptrIN3ros9Publisher4ImplEED2Ev(%"class.boost::shared_ptr.21"* %temp.lvalue), !dbg !11446
  ret %"class.boost::shared_ptr.21"* %this1, !dbg !11448

lpad:                                             ; preds = %entry
  %1 = landingpad { i8*, i32 } personality i8* bitcast (i32 (...)* @__gxx_personality_v0 to i8*)
          cleanup, !dbg !11449
  %2 = extractvalue { i8*, i32 } %1, 0, !dbg !11449
  store i8* %2, i8** %exn.slot, !dbg !11449
  %3 = extractvalue { i8*, i32 } %1, 1, !dbg !11449
  store i32 %3, i32* %ehselector.slot, !dbg !11449
  invoke void @_ZN5boost10shared_ptrIN3ros9Publisher4ImplEED2Ev(%"class.boost::shared_ptr.21"* %temp.lvalue)
          to label %invoke.cont2 unwind label %terminate.lpad, !dbg !11445

invoke.cont2:                                     ; preds = %lpad
  br label %eh.resume, !dbg !11450

eh.resume:                                        ; preds = %invoke.cont2
  %exn = load i8** %exn.slot, !dbg !11452
  %sel = load i32* %ehselector.slot, !dbg !11452
  %lpad.val = insertvalue { i8*, i32 } undef, i8* %exn, 0, !dbg !11452
  %lpad.val3 = insertvalue { i8*, i32 } %lpad.val, i32 %sel, 1, !dbg !11452
  resume { i8*, i32 } %lpad.val3, !dbg !11452

terminate.lpad:                                   ; preds = %lpad
  %4 = landingpad { i8*, i32 } personality i8* bitcast (i32 (...)* @__gxx_personality_v0 to i8*)
          catch i8* null, !dbg !11454
  %5 = extractvalue { i8*, i32 } %4, 0, !dbg !11454
  call void @__clang_call_terminate(i8* %5) #15, !dbg !11454
  unreachable, !dbg !11454
}

; Function Attrs: inlinehint uwtable
define linkonce_odr void @_ZN5boost10shared_ptrIN3ros9Publisher4ImplEEC2ERKS4_(%"class.boost::shared_ptr.21"* %this, %"class.boost::shared_ptr.21"* dereferenceable(16)) unnamed_addr #6 comdat align 2 {
entry:
  %this.addr = alloca %"class.boost::shared_ptr.21"*, align 8
  %.addr = alloca %"class.boost::shared_ptr.21"*, align 8
  store %"class.boost::shared_ptr.21"* %this, %"class.boost::shared_ptr.21"** %this.addr, align 8
  call void @llvm.dbg.declare(metadata %"class.boost::shared_ptr.21"** %this.addr, metadata !11456, metadata !9990), !dbg !11457
  store %"class.boost::shared_ptr.21"* %0, %"class.boost::shared_ptr.21"** %.addr, align 8
  call void @llvm.dbg.declare(metadata %"class.boost::shared_ptr.21"** %.addr, metadata !11458, metadata !9990), !dbg !11457
  %this1 = load %"class.boost::shared_ptr.21"** %this.addr
  %px = getelementptr inbounds %"class.boost::shared_ptr.21"* %this1, i32 0, i32 0, !dbg !11459
  %1 = load %"class.boost::shared_ptr.21"** %.addr, align 8, !dbg !11459
  %px2 = getelementptr inbounds %"class.boost::shared_ptr.21"* %1, i32 0, i32 0, !dbg !11459
  %2 = load %"class.ros::Publisher::Impl"** %px2, align 8, !dbg !11459
  store %"class.ros::Publisher::Impl"* %2, %"class.ros::Publisher::Impl"** %px, align 8, !dbg !11459
  %pn = getelementptr inbounds %"class.boost::shared_ptr.21"* %this1, i32 0, i32 1, !dbg !11459
  %3 = load %"class.boost::shared_ptr.21"** %.addr, align 8, !dbg !11459
  %pn3 = getelementptr inbounds %"class.boost::shared_ptr.21"* %3, i32 0, i32 1, !dbg !11459
  call void @_ZN5boost6detail12shared_countC2ERKS1_(%"class.boost::detail::shared_count"* %pn, %"class.boost::detail::shared_count"* dereferenceable(8) %pn3), !dbg !11459
  %px4 = getelementptr inbounds %"class.boost::shared_ptr.21"* %this1, i32 0, i32 0, !dbg !11459
  %4 = load %"class.boost::shared_ptr.21"** %.addr, align 8, !dbg !11459
  %px5 = getelementptr inbounds %"class.boost::shared_ptr.21"* %4, i32 0, i32 0, !dbg !11459
  %5 = load %"class.ros::Publisher::Impl"** %px5, align 8, !dbg !11459
  store %"class.ros::Publisher::Impl"* %5, %"class.ros::Publisher::Impl"** %px4, align 8, !dbg !11459
  ret void, !dbg !11459
}

; Function Attrs: uwtable
define linkonce_odr void @_ZN5boost10shared_ptrIN3ros9Publisher4ImplEE4swapERS4_(%"class.boost::shared_ptr.21"* %this, %"class.boost::shared_ptr.21"* dereferenceable(16) %other) #3 comdat align 2 {
entry:
  %this.addr = alloca %"class.boost::shared_ptr.21"*, align 8
  %other.addr = alloca %"class.boost::shared_ptr.21"*, align 8
  store %"class.boost::shared_ptr.21"* %this, %"class.boost::shared_ptr.21"** %this.addr, align 8
  call void @llvm.dbg.declare(metadata %"class.boost::shared_ptr.21"** %this.addr, metadata !11460, metadata !9990), !dbg !11461
  store %"class.boost::shared_ptr.21"* %other, %"class.boost::shared_ptr.21"** %other.addr, align 8
  call void @llvm.dbg.declare(metadata %"class.boost::shared_ptr.21"** %other.addr, metadata !11462, metadata !9990), !dbg !11463
  %this1 = load %"class.boost::shared_ptr.21"** %this.addr
  %px = getelementptr inbounds %"class.boost::shared_ptr.21"* %this1, i32 0, i32 0, !dbg !11464
  %0 = load %"class.boost::shared_ptr.21"** %other.addr, align 8, !dbg !11465
  %px2 = getelementptr inbounds %"class.boost::shared_ptr.21"* %0, i32 0, i32 0, !dbg !11466
  call void @_ZSt4swapIPN3ros9Publisher4ImplEEvRT_S5_(%"class.ros::Publisher::Impl"** dereferenceable(8) %px, %"class.ros::Publisher::Impl"** dereferenceable(8) %px2), !dbg !11467
  %pn = getelementptr inbounds %"class.boost::shared_ptr.21"* %this1, i32 0, i32 1, !dbg !11468
  %1 = load %"class.boost::shared_ptr.21"** %other.addr, align 8, !dbg !11469
  %pn3 = getelementptr inbounds %"class.boost::shared_ptr.21"* %1, i32 0, i32 1, !dbg !11470
  call void @_ZN5boost6detail12shared_count4swapERS1_(%"class.boost::detail::shared_count"* %pn, %"class.boost::detail::shared_count"* dereferenceable(8) %pn3), !dbg !11468
  ret void, !dbg !11471
}

; Function Attrs: inlinehint uwtable
define linkonce_odr void @_ZN5boost10shared_ptrIN3ros9Publisher4ImplEED2Ev(%"class.boost::shared_ptr.21"* %this) unnamed_addr #6 comdat align 2 {
entry:
  %this.addr = alloca %"class.boost::shared_ptr.21"*, align 8
  store %"class.boost::shared_ptr.21"* %this, %"class.boost::shared_ptr.21"** %this.addr, align 8
  call void @llvm.dbg.declare(metadata %"class.boost::shared_ptr.21"** %this.addr, metadata !11472, metadata !9990), !dbg !11473
  %this1 = load %"class.boost::shared_ptr.21"** %this.addr
  %pn = getelementptr inbounds %"class.boost::shared_ptr.21"* %this1, i32 0, i32 1, !dbg !11474
  call void @_ZN5boost6detail12shared_countD2Ev(%"class.boost::detail::shared_count"* %pn), !dbg !11474
  ret void, !dbg !11476
}

; Function Attrs: uwtable
define linkonce_odr void @_ZN5boost6detail12shared_countC2ERKS1_(%"class.boost::detail::shared_count"* %this, %"class.boost::detail::shared_count"* dereferenceable(8) %r) unnamed_addr #3 comdat align 2 {
entry:
  %this.addr = alloca %"class.boost::detail::shared_count"*, align 8
  %r.addr = alloca %"class.boost::detail::shared_count"*, align 8
  store %"class.boost::detail::shared_count"* %this, %"class.boost::detail::shared_count"** %this.addr, align 8
  call void @llvm.dbg.declare(metadata %"class.boost::detail::shared_count"** %this.addr, metadata !11477, metadata !9990), !dbg !11478
  store %"class.boost::detail::shared_count"* %r, %"class.boost::detail::shared_count"** %r.addr, align 8
  call void @llvm.dbg.declare(metadata %"class.boost::detail::shared_count"** %r.addr, metadata !11479, metadata !9990), !dbg !11481
  %this1 = load %"class.boost::detail::shared_count"** %this.addr
  %pi_ = getelementptr inbounds %"class.boost::detail::shared_count"* %this1, i32 0, i32 0, !dbg !11482
  %0 = load %"class.boost::detail::shared_count"** %r.addr, align 8, !dbg !11483
  %pi_2 = getelementptr inbounds %"class.boost::detail::shared_count"* %0, i32 0, i32 0, !dbg !11484
  %1 = load %"class.boost::detail::sp_counted_base"** %pi_2, align 8, !dbg !11484
  store %"class.boost::detail::sp_counted_base"* %1, %"class.boost::detail::sp_counted_base"** %pi_, align 8, !dbg !11482
  %pi_3 = getelementptr inbounds %"class.boost::detail::shared_count"* %this1, i32 0, i32 0, !dbg !11485
  %2 = load %"class.boost::detail::sp_counted_base"** %pi_3, align 8, !dbg !11485
  %cmp = icmp ne %"class.boost::detail::sp_counted_base"* %2, null, !dbg !11488
  br i1 %cmp, label %if.then, label %if.end, !dbg !11489

if.then:                                          ; preds = %entry
  %pi_4 = getelementptr inbounds %"class.boost::detail::shared_count"* %this1, i32 0, i32 0, !dbg !11490
  %3 = load %"class.boost::detail::sp_counted_base"** %pi_4, align 8, !dbg !11490
  call void @_ZN5boost6detail15sp_counted_base12add_ref_copyEv(%"class.boost::detail::sp_counted_base"* %3), !dbg !11490
  br label %if.end, !dbg !11490

if.end:                                           ; preds = %if.then, %entry
  ret void, !dbg !11492
}

; Function Attrs: uwtable
define linkonce_odr void @_ZN5boost6detail15sp_counted_base12add_ref_copyEv(%"class.boost::detail::sp_counted_base"* %this) #3 comdat align 2 {
entry:
  %this.addr = alloca %"class.boost::detail::sp_counted_base"*, align 8
  store %"class.boost::detail::sp_counted_base"* %this, %"class.boost::detail::sp_counted_base"** %this.addr, align 8
  call void @llvm.dbg.declare(metadata %"class.boost::detail::sp_counted_base"** %this.addr, metadata !11493, metadata !9990), !dbg !11494
  %this1 = load %"class.boost::detail::sp_counted_base"** %this.addr
  %use_count_ = getelementptr inbounds %"class.boost::detail::sp_counted_base"* %this1, i32 0, i32 1, !dbg !11495
  call void @_ZN5boost6detail16atomic_incrementEPi(i32* %use_count_), !dbg !11496
  ret void, !dbg !11497
}

; Function Attrs: inlinehint nounwind uwtable
define linkonce_odr void @_ZN5boost6detail16atomic_incrementEPi(i32* %pw) #8 comdat {
entry:
  %pw.addr = alloca i32*, align 8
  store i32* %pw, i32** %pw.addr, align 8
  call void @llvm.dbg.declare(metadata i32** %pw.addr, metadata !11498, metadata !9990), !dbg !11499
  %0 = load i32** %pw.addr, align 8, !dbg !11500
  %1 = load i32** %pw.addr, align 8, !dbg !11501
  call void asm "lock\0A\09incl $0", "=*m,*m,~{cc},~{dirflag},~{fpsr},~{flags}"(i32* %0, i32* %1) #1, !dbg !11502, !srcloc !11503
  ret void, !dbg !11504
}

; Function Attrs: nounwind uwtable
define linkonce_odr void @_ZSt4swapIPN3ros9Publisher4ImplEEvRT_S5_(%"class.ros::Publisher::Impl"** dereferenceable(8) %__a, %"class.ros::Publisher::Impl"** dereferenceable(8) %__b) #2 comdat {
entry:
  %__a.addr = alloca %"class.ros::Publisher::Impl"**, align 8
  %__b.addr = alloca %"class.ros::Publisher::Impl"**, align 8
  %__tmp = alloca %"class.ros::Publisher::Impl"*, align 8
  store %"class.ros::Publisher::Impl"** %__a, %"class.ros::Publisher::Impl"*** %__a.addr, align 8
  call void @llvm.dbg.declare(metadata %"class.ros::Publisher::Impl"*** %__a.addr, metadata !11505, metadata !9990), !dbg !11508
  store %"class.ros::Publisher::Impl"** %__b, %"class.ros::Publisher::Impl"*** %__b.addr, align 8
  call void @llvm.dbg.declare(metadata %"class.ros::Publisher::Impl"*** %__b.addr, metadata !11509, metadata !9990), !dbg !11510
  call void @llvm.dbg.declare(metadata %"class.ros::Publisher::Impl"** %__tmp, metadata !11511, metadata !9990), !dbg !11512
  %0 = load %"class.ros::Publisher::Impl"*** %__a.addr, align 8, !dbg !11513
  %1 = load %"class.ros::Publisher::Impl"** %0, align 8, !dbg !11513
  store %"class.ros::Publisher::Impl"* %1, %"class.ros::Publisher::Impl"** %__tmp, align 8, !dbg !11512
  %2 = load %"class.ros::Publisher::Impl"*** %__b.addr, align 8, !dbg !11514
  %3 = load %"class.ros::Publisher::Impl"** %2, align 8, !dbg !11514
  %4 = load %"class.ros::Publisher::Impl"*** %__a.addr, align 8, !dbg !11515
  store %"class.ros::Publisher::Impl"* %3, %"class.ros::Publisher::Impl"** %4, align 8, !dbg !11516
  %5 = load %"class.ros::Publisher::Impl"** %__tmp, align 8, !dbg !11517
  %6 = load %"class.ros::Publisher::Impl"*** %__b.addr, align 8, !dbg !11518
  store %"class.ros::Publisher::Impl"* %5, %"class.ros::Publisher::Impl"** %6, align 8, !dbg !11519
  ret void, !dbg !11520
}

; Function Attrs: nounwind uwtable
define linkonce_odr void @_ZN5boost6detail12shared_count4swapERS1_(%"class.boost::detail::shared_count"* %this, %"class.boost::detail::shared_count"* dereferenceable(8) %r) #2 comdat align 2 {
entry:
  %this.addr = alloca %"class.boost::detail::shared_count"*, align 8
  %r.addr = alloca %"class.boost::detail::shared_count"*, align 8
  %tmp = alloca %"class.boost::detail::sp_counted_base"*, align 8
  store %"class.boost::detail::shared_count"* %this, %"class.boost::detail::shared_count"** %this.addr, align 8
  call void @llvm.dbg.declare(metadata %"class.boost::detail::shared_count"** %this.addr, metadata !11521, metadata !9990), !dbg !11522
  store %"class.boost::detail::shared_count"* %r, %"class.boost::detail::shared_count"** %r.addr, align 8
  call void @llvm.dbg.declare(metadata %"class.boost::detail::shared_count"** %r.addr, metadata !11523, metadata !9990), !dbg !11524
  %this1 = load %"class.boost::detail::shared_count"** %this.addr
  call void @llvm.dbg.declare(metadata %"class.boost::detail::sp_counted_base"** %tmp, metadata !11525, metadata !9990), !dbg !11526
  %0 = load %"class.boost::detail::shared_count"** %r.addr, align 8, !dbg !11527
  %pi_ = getelementptr inbounds %"class.boost::detail::shared_count"* %0, i32 0, i32 0, !dbg !11528
  %1 = load %"class.boost::detail::sp_counted_base"** %pi_, align 8, !dbg !11528
  store %"class.boost::detail::sp_counted_base"* %1, %"class.boost::detail::sp_counted_base"** %tmp, align 8, !dbg !11526
  %pi_2 = getelementptr inbounds %"class.boost::detail::shared_count"* %this1, i32 0, i32 0, !dbg !11529
  %2 = load %"class.boost::detail::sp_counted_base"** %pi_2, align 8, !dbg !11529
  %3 = load %"class.boost::detail::shared_count"** %r.addr, align 8, !dbg !11530
  %pi_3 = getelementptr inbounds %"class.boost::detail::shared_count"* %3, i32 0, i32 0, !dbg !11531
  store %"class.boost::detail::sp_counted_base"* %2, %"class.boost::detail::sp_counted_base"** %pi_3, align 8, !dbg !11532
  %4 = load %"class.boost::detail::sp_counted_base"** %tmp, align 8, !dbg !11533
  %pi_4 = getelementptr inbounds %"class.boost::detail::shared_count"* %this1, i32 0, i32 0, !dbg !11534
  store %"class.boost::detail::sp_counted_base"* %4, %"class.boost::detail::sp_counted_base"** %pi_4, align 8, !dbg !11535
  ret void, !dbg !11536
}

; Function Attrs: uwtable
define linkonce_odr void @_ZN5boost6detail12shared_countD2Ev(%"class.boost::detail::shared_count"* %this) unnamed_addr #3 comdat align 2 {
entry:
  %this.addr = alloca %"class.boost::detail::shared_count"*, align 8
  store %"class.boost::detail::shared_count"* %this, %"class.boost::detail::shared_count"** %this.addr, align 8
  call void @llvm.dbg.declare(metadata %"class.boost::detail::shared_count"** %this.addr, metadata !11537, metadata !9990), !dbg !11538
  %this1 = load %"class.boost::detail::shared_count"** %this.addr
  %pi_ = getelementptr inbounds %"class.boost::detail::shared_count"* %this1, i32 0, i32 0, !dbg !11539
  %0 = load %"class.boost::detail::sp_counted_base"** %pi_, align 8, !dbg !11539
  %cmp = icmp ne %"class.boost::detail::sp_counted_base"* %0, null, !dbg !11542
  br i1 %cmp, label %if.then, label %if.end, !dbg !11543

if.then:                                          ; preds = %entry
  %pi_2 = getelementptr inbounds %"class.boost::detail::shared_count"* %this1, i32 0, i32 0, !dbg !11544
  %1 = load %"class.boost::detail::sp_counted_base"** %pi_2, align 8, !dbg !11544
  call void @_ZN5boost6detail15sp_counted_base7releaseEv(%"class.boost::detail::sp_counted_base"* %1), !dbg !11544
  br label %if.end, !dbg !11544

if.end:                                           ; preds = %if.then, %entry
  ret void, !dbg !11546
}

; Function Attrs: uwtable
define linkonce_odr void @_ZN5boost6detail15sp_counted_base7releaseEv(%"class.boost::detail::sp_counted_base"* %this) #3 comdat align 2 {
entry:
  %this.addr = alloca %"class.boost::detail::sp_counted_base"*, align 8
  store %"class.boost::detail::sp_counted_base"* %this, %"class.boost::detail::sp_counted_base"** %this.addr, align 8
  call void @llvm.dbg.declare(metadata %"class.boost::detail::sp_counted_base"** %this.addr, metadata !11547, metadata !9990), !dbg !11548
  %this1 = load %"class.boost::detail::sp_counted_base"** %this.addr
  %use_count_ = getelementptr inbounds %"class.boost::detail::sp_counted_base"* %this1, i32 0, i32 1, !dbg !11549
  %call = call i32 @_ZN5boost6detail23atomic_exchange_and_addEPii(i32* %use_count_, i32 -1), !dbg !11551
  %cmp = icmp eq i32 %call, 1, !dbg !11552
  br i1 %cmp, label %if.then, label %if.end, !dbg !11553

if.then:                                          ; preds = %entry
  %0 = bitcast %"class.boost::detail::sp_counted_base"* %this1 to void (%"class.boost::detail::sp_counted_base"*)***, !dbg !11554
  %vtable = load void (%"class.boost::detail::sp_counted_base"*)*** %0, !dbg !11554
  %vfn = getelementptr inbounds void (%"class.boost::detail::sp_counted_base"*)** %vtable, i64 2, !dbg !11554
  %1 = load void (%"class.boost::detail::sp_counted_base"*)** %vfn, !dbg !11554
  call void %1(%"class.boost::detail::sp_counted_base"* %this1), !dbg !11554
  call void @_ZN5boost6detail15sp_counted_base12weak_releaseEv(%"class.boost::detail::sp_counted_base"* %this1), !dbg !11556
  br label %if.end, !dbg !11557

if.end:                                           ; preds = %if.then, %entry
  ret void, !dbg !11558
}

; Function Attrs: inlinehint nounwind uwtable
define linkonce_odr i32 @_ZN5boost6detail23atomic_exchange_and_addEPii(i32* %pw, i32 %dv) #8 comdat {
entry:
  %pw.addr = alloca i32*, align 8
  %dv.addr = alloca i32, align 4
  %r = alloca i32, align 4
  store i32* %pw, i32** %pw.addr, align 8
  call void @llvm.dbg.declare(metadata i32** %pw.addr, metadata !11559, metadata !9990), !dbg !11560
  store i32 %dv, i32* %dv.addr, align 4
  call void @llvm.dbg.declare(metadata i32* %dv.addr, metadata !11561, metadata !9990), !dbg !11562
  call void @llvm.dbg.declare(metadata i32* %r, metadata !11563, metadata !9990), !dbg !11564
  %0 = load i32** %pw.addr, align 8, !dbg !11565
  %1 = load i32** %pw.addr, align 8, !dbg !11566
  %2 = load i32* %dv.addr, align 4, !dbg !11567
  %3 = call i32 asm sideeffect "lock\0A\09xadd $1, $0", "=*m,=r,*m,1,~{memory},~{cc},~{dirflag},~{fpsr},~{flags}"(i32* %0, i32* %1, i32 %2) #1, !dbg !11568, !srcloc !11569
  store i32 %3, i32* %r, align 4, !dbg !11568
  %4 = load i32* %r, align 4, !dbg !11570
  ret i32 %4, !dbg !11571
}

; Function Attrs: uwtable
define linkonce_odr void @_ZN5boost6detail15sp_counted_base12weak_releaseEv(%"class.boost::detail::sp_counted_base"* %this) #3 comdat align 2 {
entry:
  %this.addr = alloca %"class.boost::detail::sp_counted_base"*, align 8
  store %"class.boost::detail::sp_counted_base"* %this, %"class.boost::detail::sp_counted_base"** %this.addr, align 8
  call void @llvm.dbg.declare(metadata %"class.boost::detail::sp_counted_base"** %this.addr, metadata !11572, metadata !9990), !dbg !11573
  %this1 = load %"class.boost::detail::sp_counted_base"** %this.addr
  %weak_count_ = getelementptr inbounds %"class.boost::detail::sp_counted_base"* %this1, i32 0, i32 2, !dbg !11574
  %call = call i32 @_ZN5boost6detail23atomic_exchange_and_addEPii(i32* %weak_count_, i32 -1), !dbg !11576
  %cmp = icmp eq i32 %call, 1, !dbg !11577
  br i1 %cmp, label %if.then, label %if.end, !dbg !11578

if.then:                                          ; preds = %entry
  %0 = bitcast %"class.boost::detail::sp_counted_base"* %this1 to void (%"class.boost::detail::sp_counted_base"*)***, !dbg !11579
  %vtable = load void (%"class.boost::detail::sp_counted_base"*)*** %0, !dbg !11579
  %vfn = getelementptr inbounds void (%"class.boost::detail::sp_counted_base"*)** %vtable, i64 3, !dbg !11579
  %1 = load void (%"class.boost::detail::sp_counted_base"*)** %vfn, !dbg !11579
  call void %1(%"class.boost::detail::sp_counted_base"* %this1), !dbg !11579
  br label %if.end, !dbg !11581

if.end:                                           ; preds = %if.then, %entry
  ret void, !dbg !11582
}

; Function Attrs: uwtable
define linkonce_odr dereferenceable(16) %"class.boost::shared_ptr"* @_ZN5boost10shared_ptrIN3ros10Subscriber4ImplEEaSERKS4_(%"class.boost::shared_ptr"* %this, %"class.boost::shared_ptr"* dereferenceable(16) %r) #3 comdat align 2 {
entry:
  %this.addr = alloca %"class.boost::shared_ptr"*, align 8
  %r.addr = alloca %"class.boost::shared_ptr"*, align 8
  %temp.lvalue = alloca %"class.boost::shared_ptr", align 8
  %exn.slot = alloca i8*
  %ehselector.slot = alloca i32
  store %"class.boost::shared_ptr"* %this, %"class.boost::shared_ptr"** %this.addr, align 8
  call void @llvm.dbg.declare(metadata %"class.boost::shared_ptr"** %this.addr, metadata !11583, metadata !9990), !dbg !11584
  store %"class.boost::shared_ptr"* %r, %"class.boost::shared_ptr"** %r.addr, align 8
  call void @llvm.dbg.declare(metadata %"class.boost::shared_ptr"** %r.addr, metadata !11585, metadata !9990), !dbg !11586
  %this1 = load %"class.boost::shared_ptr"** %this.addr
  %0 = load %"class.boost::shared_ptr"** %r.addr, align 8, !dbg !11587
  call void @_ZN5boost10shared_ptrIN3ros10Subscriber4ImplEEC2ERKS4_(%"class.boost::shared_ptr"* %temp.lvalue, %"class.boost::shared_ptr"* dereferenceable(16) %0), !dbg !11588
  invoke void @_ZN5boost10shared_ptrIN3ros10Subscriber4ImplEE4swapERS4_(%"class.boost::shared_ptr"* %temp.lvalue, %"class.boost::shared_ptr"* dereferenceable(16) %this1)
          to label %invoke.cont unwind label %lpad, !dbg !11588

invoke.cont:                                      ; preds = %entry
  call void @_ZN5boost10shared_ptrIN3ros10Subscriber4ImplEED2Ev(%"class.boost::shared_ptr"* %temp.lvalue), !dbg !11589
  ret %"class.boost::shared_ptr"* %this1, !dbg !11591

lpad:                                             ; preds = %entry
  %1 = landingpad { i8*, i32 } personality i8* bitcast (i32 (...)* @__gxx_personality_v0 to i8*)
          cleanup, !dbg !11592
  %2 = extractvalue { i8*, i32 } %1, 0, !dbg !11592
  store i8* %2, i8** %exn.slot, !dbg !11592
  %3 = extractvalue { i8*, i32 } %1, 1, !dbg !11592
  store i32 %3, i32* %ehselector.slot, !dbg !11592
  invoke void @_ZN5boost10shared_ptrIN3ros10Subscriber4ImplEED2Ev(%"class.boost::shared_ptr"* %temp.lvalue)
          to label %invoke.cont2 unwind label %terminate.lpad, !dbg !11588

invoke.cont2:                                     ; preds = %lpad
  br label %eh.resume, !dbg !11593

eh.resume:                                        ; preds = %invoke.cont2
  %exn = load i8** %exn.slot, !dbg !11595
  %sel = load i32* %ehselector.slot, !dbg !11595
  %lpad.val = insertvalue { i8*, i32 } undef, i8* %exn, 0, !dbg !11595
  %lpad.val3 = insertvalue { i8*, i32 } %lpad.val, i32 %sel, 1, !dbg !11595
  resume { i8*, i32 } %lpad.val3, !dbg !11595

terminate.lpad:                                   ; preds = %lpad
  %4 = landingpad { i8*, i32 } personality i8* bitcast (i32 (...)* @__gxx_personality_v0 to i8*)
          catch i8* null, !dbg !11597
  %5 = extractvalue { i8*, i32 } %4, 0, !dbg !11597
  call void @__clang_call_terminate(i8* %5) #15, !dbg !11597
  unreachable, !dbg !11597
}

; Function Attrs: inlinehint uwtable
define linkonce_odr void @_ZN5boost10shared_ptrIN3ros10Subscriber4ImplEEC2ERKS4_(%"class.boost::shared_ptr"* %this, %"class.boost::shared_ptr"* dereferenceable(16)) unnamed_addr #6 comdat align 2 {
entry:
  %this.addr = alloca %"class.boost::shared_ptr"*, align 8
  %.addr = alloca %"class.boost::shared_ptr"*, align 8
  store %"class.boost::shared_ptr"* %this, %"class.boost::shared_ptr"** %this.addr, align 8
  call void @llvm.dbg.declare(metadata %"class.boost::shared_ptr"** %this.addr, metadata !11599, metadata !9990), !dbg !11600
  store %"class.boost::shared_ptr"* %0, %"class.boost::shared_ptr"** %.addr, align 8
  call void @llvm.dbg.declare(metadata %"class.boost::shared_ptr"** %.addr, metadata !11601, metadata !9990), !dbg !11600
  %this1 = load %"class.boost::shared_ptr"** %this.addr
  %px = getelementptr inbounds %"class.boost::shared_ptr"* %this1, i32 0, i32 0, !dbg !11602
  %1 = load %"class.boost::shared_ptr"** %.addr, align 8, !dbg !11602
  %px2 = getelementptr inbounds %"class.boost::shared_ptr"* %1, i32 0, i32 0, !dbg !11602
  %2 = load %"class.ros::Subscriber::Impl"** %px2, align 8, !dbg !11602
  store %"class.ros::Subscriber::Impl"* %2, %"class.ros::Subscriber::Impl"** %px, align 8, !dbg !11602
  %pn = getelementptr inbounds %"class.boost::shared_ptr"* %this1, i32 0, i32 1, !dbg !11602
  %3 = load %"class.boost::shared_ptr"** %.addr, align 8, !dbg !11602
  %pn3 = getelementptr inbounds %"class.boost::shared_ptr"* %3, i32 0, i32 1, !dbg !11602
  call void @_ZN5boost6detail12shared_countC2ERKS1_(%"class.boost::detail::shared_count"* %pn, %"class.boost::detail::shared_count"* dereferenceable(8) %pn3), !dbg !11602
  %px4 = getelementptr inbounds %"class.boost::shared_ptr"* %this1, i32 0, i32 0, !dbg !11602
  %4 = load %"class.boost::shared_ptr"** %.addr, align 8, !dbg !11602
  %px5 = getelementptr inbounds %"class.boost::shared_ptr"* %4, i32 0, i32 0, !dbg !11602
  %5 = load %"class.ros::Subscriber::Impl"** %px5, align 8, !dbg !11602
  store %"class.ros::Subscriber::Impl"* %5, %"class.ros::Subscriber::Impl"** %px4, align 8, !dbg !11602
  ret void, !dbg !11602
}

; Function Attrs: uwtable
define linkonce_odr void @_ZN5boost10shared_ptrIN3ros10Subscriber4ImplEE4swapERS4_(%"class.boost::shared_ptr"* %this, %"class.boost::shared_ptr"* dereferenceable(16) %other) #3 comdat align 2 {
entry:
  %this.addr = alloca %"class.boost::shared_ptr"*, align 8
  %other.addr = alloca %"class.boost::shared_ptr"*, align 8
  store %"class.boost::shared_ptr"* %this, %"class.boost::shared_ptr"** %this.addr, align 8
  call void @llvm.dbg.declare(metadata %"class.boost::shared_ptr"** %this.addr, metadata !11603, metadata !9990), !dbg !11604
  store %"class.boost::shared_ptr"* %other, %"class.boost::shared_ptr"** %other.addr, align 8
  call void @llvm.dbg.declare(metadata %"class.boost::shared_ptr"** %other.addr, metadata !11605, metadata !9990), !dbg !11606
  %this1 = load %"class.boost::shared_ptr"** %this.addr
  %px = getelementptr inbounds %"class.boost::shared_ptr"* %this1, i32 0, i32 0, !dbg !11607
  %0 = load %"class.boost::shared_ptr"** %other.addr, align 8, !dbg !11608
  %px2 = getelementptr inbounds %"class.boost::shared_ptr"* %0, i32 0, i32 0, !dbg !11609
  call void @_ZSt4swapIPN3ros10Subscriber4ImplEEvRT_S5_(%"class.ros::Subscriber::Impl"** dereferenceable(8) %px, %"class.ros::Subscriber::Impl"** dereferenceable(8) %px2), !dbg !11610
  %pn = getelementptr inbounds %"class.boost::shared_ptr"* %this1, i32 0, i32 1, !dbg !11611
  %1 = load %"class.boost::shared_ptr"** %other.addr, align 8, !dbg !11612
  %pn3 = getelementptr inbounds %"class.boost::shared_ptr"* %1, i32 0, i32 1, !dbg !11613
  call void @_ZN5boost6detail12shared_count4swapERS1_(%"class.boost::detail::shared_count"* %pn, %"class.boost::detail::shared_count"* dereferenceable(8) %pn3), !dbg !11611
  ret void, !dbg !11614
}

; Function Attrs: inlinehint uwtable
define linkonce_odr void @_ZN5boost10shared_ptrIN3ros10Subscriber4ImplEED2Ev(%"class.boost::shared_ptr"* %this) unnamed_addr #6 comdat align 2 {
entry:
  %this.addr = alloca %"class.boost::shared_ptr"*, align 8
  store %"class.boost::shared_ptr"* %this, %"class.boost::shared_ptr"** %this.addr, align 8
  call void @llvm.dbg.declare(metadata %"class.boost::shared_ptr"** %this.addr, metadata !11615, metadata !9990), !dbg !11616
  %this1 = load %"class.boost::shared_ptr"** %this.addr
  %pn = getelementptr inbounds %"class.boost::shared_ptr"* %this1, i32 0, i32 1, !dbg !11617
  call void @_ZN5boost6detail12shared_countD2Ev(%"class.boost::detail::shared_count"* %pn), !dbg !11617
  ret void, !dbg !11619
}

; Function Attrs: nounwind uwtable
define linkonce_odr void @_ZSt4swapIPN3ros10Subscriber4ImplEEvRT_S5_(%"class.ros::Subscriber::Impl"** dereferenceable(8) %__a, %"class.ros::Subscriber::Impl"** dereferenceable(8) %__b) #2 comdat {
entry:
  %__a.addr = alloca %"class.ros::Subscriber::Impl"**, align 8
  %__b.addr = alloca %"class.ros::Subscriber::Impl"**, align 8
  %__tmp = alloca %"class.ros::Subscriber::Impl"*, align 8
  store %"class.ros::Subscriber::Impl"** %__a, %"class.ros::Subscriber::Impl"*** %__a.addr, align 8
  call void @llvm.dbg.declare(metadata %"class.ros::Subscriber::Impl"*** %__a.addr, metadata !11620, metadata !9990), !dbg !11621
  store %"class.ros::Subscriber::Impl"** %__b, %"class.ros::Subscriber::Impl"*** %__b.addr, align 8
  call void @llvm.dbg.declare(metadata %"class.ros::Subscriber::Impl"*** %__b.addr, metadata !11622, metadata !9990), !dbg !11623
  call void @llvm.dbg.declare(metadata %"class.ros::Subscriber::Impl"** %__tmp, metadata !11624, metadata !9990), !dbg !11625
  %0 = load %"class.ros::Subscriber::Impl"*** %__a.addr, align 8, !dbg !11626
  %1 = load %"class.ros::Subscriber::Impl"** %0, align 8, !dbg !11626
  store %"class.ros::Subscriber::Impl"* %1, %"class.ros::Subscriber::Impl"** %__tmp, align 8, !dbg !11625
  %2 = load %"class.ros::Subscriber::Impl"*** %__b.addr, align 8, !dbg !11627
  %3 = load %"class.ros::Subscriber::Impl"** %2, align 8, !dbg !11627
  %4 = load %"class.ros::Subscriber::Impl"*** %__a.addr, align 8, !dbg !11628
  store %"class.ros::Subscriber::Impl"* %3, %"class.ros::Subscriber::Impl"** %4, align 8, !dbg !11629
  %5 = load %"class.ros::Subscriber::Impl"** %__tmp, align 8, !dbg !11630
  %6 = load %"class.ros::Subscriber::Impl"*** %__b.addr, align 8, !dbg !11631
  store %"class.ros::Subscriber::Impl"* %5, %"class.ros::Subscriber::Impl"** %6, align 8, !dbg !11632
  ret void, !dbg !11633
}

; Function Attrs: uwtable
define linkonce_odr void @_ZNSt6vectorISsSaISsEEC2Ev(%"class.std::vector.30"* %this) unnamed_addr #3 comdat align 2 {
entry:
  %this.addr = alloca %"class.std::vector.30"*, align 8
  store %"class.std::vector.30"* %this, %"class.std::vector.30"** %this.addr, align 8
  call void @llvm.dbg.declare(metadata %"class.std::vector.30"** %this.addr, metadata !11634, metadata !9990), !dbg !11636
  %this1 = load %"class.std::vector.30"** %this.addr
  %0 = bitcast %"class.std::vector.30"* %this1 to %"struct.std::_Vector_base.31"*, !dbg !11637
  call void @_ZNSt12_Vector_baseISsSaISsEEC2Ev(%"struct.std::_Vector_base.31"* %0), !dbg !11638
  ret void, !dbg !11639
}

; Function Attrs: uwtable
define linkonce_odr void @_ZNSt6vectorISsSaISsEED2Ev(%"class.std::vector.30"* %this) unnamed_addr #3 comdat align 2 {
entry:
  %this.addr = alloca %"class.std::vector.30"*, align 8
  %exn.slot = alloca i8*
  %ehselector.slot = alloca i32
  store %"class.std::vector.30"* %this, %"class.std::vector.30"** %this.addr, align 8
  call void @llvm.dbg.declare(metadata %"class.std::vector.30"** %this.addr, metadata !11640, metadata !9990), !dbg !11641
  %this1 = load %"class.std::vector.30"** %this.addr
  %0 = bitcast %"class.std::vector.30"* %this1 to %"struct.std::_Vector_base.31"*, !dbg !11642
  %_M_impl = getelementptr inbounds %"struct.std::_Vector_base.31"* %0, i32 0, i32 0, !dbg !11644
  %_M_start = getelementptr inbounds %"struct.std::_Vector_base<std::basic_string<char>, std::allocator<std::basic_string<char> > >::_Vector_impl"* %_M_impl, i32 0, i32 0, !dbg !11645
  %1 = load %"class.std::basic_string"** %_M_start, align 8, !dbg !11645
  %2 = bitcast %"class.std::vector.30"* %this1 to %"struct.std::_Vector_base.31"*, !dbg !11646
  %_M_impl2 = getelementptr inbounds %"struct.std::_Vector_base.31"* %2, i32 0, i32 0, !dbg !11647
  %_M_finish = getelementptr inbounds %"struct.std::_Vector_base<std::basic_string<char>, std::allocator<std::basic_string<char> > >::_Vector_impl"* %_M_impl2, i32 0, i32 1, !dbg !11648
  %3 = load %"class.std::basic_string"** %_M_finish, align 8, !dbg !11648
  %4 = bitcast %"class.std::vector.30"* %this1 to %"struct.std::_Vector_base.31"*, !dbg !11649
  %call = invoke dereferenceable(1) %"class.std::allocator.32"* @_ZNSt12_Vector_baseISsSaISsEE19_M_get_Tp_allocatorEv(%"struct.std::_Vector_base.31"* %4)
          to label %invoke.cont unwind label %lpad, !dbg !11649

invoke.cont:                                      ; preds = %entry
  invoke void @_ZSt8_DestroyIPSsSsEvT_S1_RSaIT0_E(%"class.std::basic_string"* %1, %"class.std::basic_string"* %3, %"class.std::allocator.32"* dereferenceable(1) %call)
          to label %invoke.cont3 unwind label %lpad, !dbg !11650

invoke.cont3:                                     ; preds = %invoke.cont
  %5 = bitcast %"class.std::vector.30"* %this1 to %"struct.std::_Vector_base.31"*, !dbg !11651
  call void @_ZNSt12_Vector_baseISsSaISsEED2Ev(%"struct.std::_Vector_base.31"* %5), !dbg !11651
  ret void, !dbg !11652

lpad:                                             ; preds = %invoke.cont, %entry
  %6 = landingpad { i8*, i32 } personality i8* bitcast (i32 (...)* @__gxx_personality_v0 to i8*)
          cleanup, !dbg !11653
  %7 = extractvalue { i8*, i32 } %6, 0, !dbg !11653
  store i8* %7, i8** %exn.slot, !dbg !11653
  %8 = extractvalue { i8*, i32 } %6, 1, !dbg !11653
  store i32 %8, i32* %ehselector.slot, !dbg !11653
  %9 = bitcast %"class.std::vector.30"* %this1 to %"struct.std::_Vector_base.31"*, !dbg !11653
  invoke void @_ZNSt12_Vector_baseISsSaISsEED2Ev(%"struct.std::_Vector_base.31"* %9)
          to label %invoke.cont4 unwind label %terminate.lpad, !dbg !11653

invoke.cont4:                                     ; preds = %lpad
  br label %eh.resume, !dbg !11655

eh.resume:                                        ; preds = %invoke.cont4
  %exn = load i8** %exn.slot, !dbg !11657
  %sel = load i32* %ehselector.slot, !dbg !11657
  %lpad.val = insertvalue { i8*, i32 } undef, i8* %exn, 0, !dbg !11657
  %lpad.val5 = insertvalue { i8*, i32 } %lpad.val, i32 %sel, 1, !dbg !11657
  resume { i8*, i32 } %lpad.val5, !dbg !11657

terminate.lpad:                                   ; preds = %lpad
  %10 = landingpad { i8*, i32 } personality i8* bitcast (i32 (...)* @__gxx_personality_v0 to i8*)
          catch i8* null, !dbg !11659
  %11 = extractvalue { i8*, i32 } %10, 0, !dbg !11659
  call void @__clang_call_terminate(i8* %11) #15, !dbg !11659
  unreachable, !dbg !11659
}

; Function Attrs: uwtable
define linkonce_odr void @_ZNSt12_Vector_baseISsSaISsEEC2Ev(%"struct.std::_Vector_base.31"* %this) unnamed_addr #3 comdat align 2 {
entry:
  %this.addr = alloca %"struct.std::_Vector_base.31"*, align 8
  store %"struct.std::_Vector_base.31"* %this, %"struct.std::_Vector_base.31"** %this.addr, align 8
  call void @llvm.dbg.declare(metadata %"struct.std::_Vector_base.31"** %this.addr, metadata !11661, metadata !9990), !dbg !11663
  %this1 = load %"struct.std::_Vector_base.31"** %this.addr
  %_M_impl = getelementptr inbounds %"struct.std::_Vector_base.31"* %this1, i32 0, i32 0, !dbg !11664
  call void @_ZNSt12_Vector_baseISsSaISsEE12_Vector_implC2Ev(%"struct.std::_Vector_base<std::basic_string<char>, std::allocator<std::basic_string<char> > >::_Vector_impl"* %_M_impl), !dbg !11664
  ret void, !dbg !11665
}

; Function Attrs: nounwind uwtable
define linkonce_odr void @_ZNSt12_Vector_baseISsSaISsEE12_Vector_implC2Ev(%"struct.std::_Vector_base<std::basic_string<char>, std::allocator<std::basic_string<char> > >::_Vector_impl"* %this) unnamed_addr #2 comdat align 2 {
entry:
  %this.addr = alloca %"struct.std::_Vector_base<std::basic_string<char>, std::allocator<std::basic_string<char> > >::_Vector_impl"*, align 8
  store %"struct.std::_Vector_base<std::basic_string<char>, std::allocator<std::basic_string<char> > >::_Vector_impl"* %this, %"struct.std::_Vector_base<std::basic_string<char>, std::allocator<std::basic_string<char> > >::_Vector_impl"** %this.addr, align 8
  call void @llvm.dbg.declare(metadata %"struct.std::_Vector_base<std::basic_string<char>, std::allocator<std::basic_string<char> > >::_Vector_impl"** %this.addr, metadata !11666, metadata !9990), !dbg !11668
  %this1 = load %"struct.std::_Vector_base<std::basic_string<char>, std::allocator<std::basic_string<char> > >::_Vector_impl"** %this.addr
  %0 = bitcast %"struct.std::_Vector_base<std::basic_string<char>, std::allocator<std::basic_string<char> > >::_Vector_impl"* %this1 to %"class.std::allocator.32"*, !dbg !11669
  call void @_ZNSaISsEC2Ev(%"class.std::allocator.32"* %0) #1, !dbg !11670
  %_M_start = getelementptr inbounds %"struct.std::_Vector_base<std::basic_string<char>, std::allocator<std::basic_string<char> > >::_Vector_impl"* %this1, i32 0, i32 0, !dbg !11671
  store %"class.std::basic_string"* null, %"class.std::basic_string"** %_M_start, align 8, !dbg !11671
  %_M_finish = getelementptr inbounds %"struct.std::_Vector_base<std::basic_string<char>, std::allocator<std::basic_string<char> > >::_Vector_impl"* %this1, i32 0, i32 1, !dbg !11672
  store %"class.std::basic_string"* null, %"class.std::basic_string"** %_M_finish, align 8, !dbg !11672
  %_M_end_of_storage = getelementptr inbounds %"struct.std::_Vector_base<std::basic_string<char>, std::allocator<std::basic_string<char> > >::_Vector_impl"* %this1, i32 0, i32 2, !dbg !11673
  store %"class.std::basic_string"* null, %"class.std::basic_string"** %_M_end_of_storage, align 8, !dbg !11673
  ret void, !dbg !11674
}

; Function Attrs: nounwind uwtable
define linkonce_odr void @_ZNSaISsEC2Ev(%"class.std::allocator.32"* %this) unnamed_addr #2 comdat align 2 {
entry:
  %this.addr = alloca %"class.std::allocator.32"*, align 8
  store %"class.std::allocator.32"* %this, %"class.std::allocator.32"** %this.addr, align 8
  call void @llvm.dbg.declare(metadata %"class.std::allocator.32"** %this.addr, metadata !11675, metadata !9990), !dbg !11677
  %this1 = load %"class.std::allocator.32"** %this.addr
  %0 = bitcast %"class.std::allocator.32"* %this1 to %"class.__gnu_cxx::new_allocator.33"*, !dbg !11678
  call void @_ZN9__gnu_cxx13new_allocatorISsEC2Ev(%"class.__gnu_cxx::new_allocator.33"* %0) #1, !dbg !11679
  ret void, !dbg !11680
}

; Function Attrs: nounwind uwtable
define linkonce_odr void @_ZN9__gnu_cxx13new_allocatorISsEC2Ev(%"class.__gnu_cxx::new_allocator.33"* %this) unnamed_addr #2 comdat align 2 {
entry:
  %this.addr = alloca %"class.__gnu_cxx::new_allocator.33"*, align 8
  store %"class.__gnu_cxx::new_allocator.33"* %this, %"class.__gnu_cxx::new_allocator.33"** %this.addr, align 8
  call void @llvm.dbg.declare(metadata %"class.__gnu_cxx::new_allocator.33"** %this.addr, metadata !11681, metadata !9990), !dbg !11683
  %this1 = load %"class.__gnu_cxx::new_allocator.33"** %this.addr
  ret void, !dbg !11684
}

; Function Attrs: inlinehint uwtable
define linkonce_odr void @_ZSt8_DestroyIPSsSsEvT_S1_RSaIT0_E(%"class.std::basic_string"* %__first, %"class.std::basic_string"* %__last, %"class.std::allocator.32"* dereferenceable(1)) #6 comdat {
entry:
  %__first.addr = alloca %"class.std::basic_string"*, align 8
  %__last.addr = alloca %"class.std::basic_string"*, align 8
  %.addr = alloca %"class.std::allocator.32"*, align 8
  store %"class.std::basic_string"* %__first, %"class.std::basic_string"** %__first.addr, align 8
  call void @llvm.dbg.declare(metadata %"class.std::basic_string"** %__first.addr, metadata !11685, metadata !9990), !dbg !11687
  store %"class.std::basic_string"* %__last, %"class.std::basic_string"** %__last.addr, align 8
  call void @llvm.dbg.declare(metadata %"class.std::basic_string"** %__last.addr, metadata !11688, metadata !9990), !dbg !11689
  store %"class.std::allocator.32"* %0, %"class.std::allocator.32"** %.addr, align 8
  call void @llvm.dbg.declare(metadata %"class.std::allocator.32"** %.addr, metadata !11690, metadata !9990), !dbg !11691
  %1 = load %"class.std::basic_string"** %__first.addr, align 8, !dbg !11692
  %2 = load %"class.std::basic_string"** %__last.addr, align 8, !dbg !11693
  call void @_ZSt8_DestroyIPSsEvT_S1_(%"class.std::basic_string"* %1, %"class.std::basic_string"* %2), !dbg !11694
  ret void, !dbg !11695
}

; Function Attrs: nounwind uwtable
define linkonce_odr dereferenceable(1) %"class.std::allocator.32"* @_ZNSt12_Vector_baseISsSaISsEE19_M_get_Tp_allocatorEv(%"struct.std::_Vector_base.31"* %this) #2 comdat align 2 {
entry:
  %this.addr = alloca %"struct.std::_Vector_base.31"*, align 8
  store %"struct.std::_Vector_base.31"* %this, %"struct.std::_Vector_base.31"** %this.addr, align 8
  call void @llvm.dbg.declare(metadata %"struct.std::_Vector_base.31"** %this.addr, metadata !11696, metadata !9990), !dbg !11697
  %this1 = load %"struct.std::_Vector_base.31"** %this.addr
  %_M_impl = getelementptr inbounds %"struct.std::_Vector_base.31"* %this1, i32 0, i32 0, !dbg !11698
  %0 = bitcast %"struct.std::_Vector_base<std::basic_string<char>, std::allocator<std::basic_string<char> > >::_Vector_impl"* %_M_impl to %"class.std::allocator.32"*, !dbg !11699
  ret %"class.std::allocator.32"* %0, !dbg !11700
}

; Function Attrs: uwtable
define linkonce_odr void @_ZNSt12_Vector_baseISsSaISsEED2Ev(%"struct.std::_Vector_base.31"* %this) unnamed_addr #3 comdat align 2 {
entry:
  %this.addr = alloca %"struct.std::_Vector_base.31"*, align 8
  %exn.slot = alloca i8*
  %ehselector.slot = alloca i32
  store %"struct.std::_Vector_base.31"* %this, %"struct.std::_Vector_base.31"** %this.addr, align 8
  call void @llvm.dbg.declare(metadata %"struct.std::_Vector_base.31"** %this.addr, metadata !11701, metadata !9990), !dbg !11702
  %this1 = load %"struct.std::_Vector_base.31"** %this.addr
  %_M_impl = getelementptr inbounds %"struct.std::_Vector_base.31"* %this1, i32 0, i32 0, !dbg !11703
  %_M_start = getelementptr inbounds %"struct.std::_Vector_base<std::basic_string<char>, std::allocator<std::basic_string<char> > >::_Vector_impl"* %_M_impl, i32 0, i32 0, !dbg !11705
  %0 = load %"class.std::basic_string"** %_M_start, align 8, !dbg !11705
  %_M_impl2 = getelementptr inbounds %"struct.std::_Vector_base.31"* %this1, i32 0, i32 0, !dbg !11706
  %_M_end_of_storage = getelementptr inbounds %"struct.std::_Vector_base<std::basic_string<char>, std::allocator<std::basic_string<char> > >::_Vector_impl"* %_M_impl2, i32 0, i32 2, !dbg !11707
  %1 = load %"class.std::basic_string"** %_M_end_of_storage, align 8, !dbg !11707
  %_M_impl3 = getelementptr inbounds %"struct.std::_Vector_base.31"* %this1, i32 0, i32 0, !dbg !11708
  %_M_start4 = getelementptr inbounds %"struct.std::_Vector_base<std::basic_string<char>, std::allocator<std::basic_string<char> > >::_Vector_impl"* %_M_impl3, i32 0, i32 0, !dbg !11709
  %2 = load %"class.std::basic_string"** %_M_start4, align 8, !dbg !11709
  %sub.ptr.lhs.cast = ptrtoint %"class.std::basic_string"* %1 to i64, !dbg !11710
  %sub.ptr.rhs.cast = ptrtoint %"class.std::basic_string"* %2 to i64, !dbg !11710
  %sub.ptr.sub = sub i64 %sub.ptr.lhs.cast, %sub.ptr.rhs.cast, !dbg !11710
  %sub.ptr.div = sdiv exact i64 %sub.ptr.sub, 8, !dbg !11710
  invoke void @_ZNSt12_Vector_baseISsSaISsEE13_M_deallocateEPSsm(%"struct.std::_Vector_base.31"* %this1, %"class.std::basic_string"* %0, i64 %sub.ptr.div)
          to label %invoke.cont unwind label %lpad, !dbg !11711

invoke.cont:                                      ; preds = %entry
  %_M_impl5 = getelementptr inbounds %"struct.std::_Vector_base.31"* %this1, i32 0, i32 0, !dbg !11712
  call void @_ZNSt12_Vector_baseISsSaISsEE12_Vector_implD2Ev(%"struct.std::_Vector_base<std::basic_string<char>, std::allocator<std::basic_string<char> > >::_Vector_impl"* %_M_impl5) #1, !dbg !11712
  ret void, !dbg !11713

lpad:                                             ; preds = %entry
  %3 = landingpad { i8*, i32 } personality i8* bitcast (i32 (...)* @__gxx_personality_v0 to i8*)
          cleanup, !dbg !11712
  %4 = extractvalue { i8*, i32 } %3, 0, !dbg !11712
  store i8* %4, i8** %exn.slot, !dbg !11712
  %5 = extractvalue { i8*, i32 } %3, 1, !dbg !11712
  store i32 %5, i32* %ehselector.slot, !dbg !11712
  %_M_impl6 = getelementptr inbounds %"struct.std::_Vector_base.31"* %this1, i32 0, i32 0, !dbg !11712
  call void @_ZNSt12_Vector_baseISsSaISsEE12_Vector_implD2Ev(%"struct.std::_Vector_base<std::basic_string<char>, std::allocator<std::basic_string<char> > >::_Vector_impl"* %_M_impl6) #1, !dbg !11712
  br label %eh.resume, !dbg !11712

eh.resume:                                        ; preds = %lpad
  %exn = load i8** %exn.slot, !dbg !11714
  %sel = load i32* %ehselector.slot, !dbg !11714
  %lpad.val = insertvalue { i8*, i32 } undef, i8* %exn, 0, !dbg !11714
  %lpad.val7 = insertvalue { i8*, i32 } %lpad.val, i32 %sel, 1, !dbg !11714
  resume { i8*, i32 } %lpad.val7, !dbg !11714
}

; Function Attrs: inlinehint uwtable
define linkonce_odr void @_ZSt8_DestroyIPSsEvT_S1_(%"class.std::basic_string"* %__first, %"class.std::basic_string"* %__last) #6 comdat {
entry:
  %__first.addr = alloca %"class.std::basic_string"*, align 8
  %__last.addr = alloca %"class.std::basic_string"*, align 8
  store %"class.std::basic_string"* %__first, %"class.std::basic_string"** %__first.addr, align 8
  call void @llvm.dbg.declare(metadata %"class.std::basic_string"** %__first.addr, metadata !11716, metadata !9990), !dbg !11717
  store %"class.std::basic_string"* %__last, %"class.std::basic_string"** %__last.addr, align 8
  call void @llvm.dbg.declare(metadata %"class.std::basic_string"** %__last.addr, metadata !11718, metadata !9990), !dbg !11719
  %0 = load %"class.std::basic_string"** %__first.addr, align 8, !dbg !11720
  %1 = load %"class.std::basic_string"** %__last.addr, align 8, !dbg !11721
  call void @_ZNSt12_Destroy_auxILb0EE9__destroyIPSsEEvT_S3_(%"class.std::basic_string"* %0, %"class.std::basic_string"* %1), !dbg !11722
  ret void, !dbg !11723
}

; Function Attrs: uwtable
define linkonce_odr void @_ZNSt12_Destroy_auxILb0EE9__destroyIPSsEEvT_S3_(%"class.std::basic_string"* %__first, %"class.std::basic_string"* %__last) #3 comdat align 2 {
entry:
  %__first.addr = alloca %"class.std::basic_string"*, align 8
  %__last.addr = alloca %"class.std::basic_string"*, align 8
  store %"class.std::basic_string"* %__first, %"class.std::basic_string"** %__first.addr, align 8
  call void @llvm.dbg.declare(metadata %"class.std::basic_string"** %__first.addr, metadata !11724, metadata !9990), !dbg !11725
  store %"class.std::basic_string"* %__last, %"class.std::basic_string"** %__last.addr, align 8
  call void @llvm.dbg.declare(metadata %"class.std::basic_string"** %__last.addr, metadata !11726, metadata !9990), !dbg !11727
  br label %for.cond, !dbg !11728

for.cond:                                         ; preds = %for.inc, %entry
  %0 = load %"class.std::basic_string"** %__first.addr, align 8, !dbg !11729
  %1 = load %"class.std::basic_string"** %__last.addr, align 8, !dbg !11734
  %cmp = icmp ne %"class.std::basic_string"* %0, %1, !dbg !11735
  br i1 %cmp, label %for.body, label %for.end, !dbg !11736

for.body:                                         ; preds = %for.cond
  %2 = load %"class.std::basic_string"** %__first.addr, align 8, !dbg !11737
  %call = call %"class.std::basic_string"* @_ZSt11__addressofISsEPT_RS0_(%"class.std::basic_string"* dereferenceable(8) %2), !dbg !11738
  call void @_ZSt8_DestroyISsEvPT_(%"class.std::basic_string"* %call), !dbg !11739
  br label %for.inc, !dbg !11739

for.inc:                                          ; preds = %for.body
  %3 = load %"class.std::basic_string"** %__first.addr, align 8, !dbg !11740
  %incdec.ptr = getelementptr inbounds %"class.std::basic_string"* %3, i32 1, !dbg !11740
  store %"class.std::basic_string"* %incdec.ptr, %"class.std::basic_string"** %__first.addr, align 8, !dbg !11740
  br label %for.cond, !dbg !11741

for.end:                                          ; preds = %for.cond
  ret void, !dbg !11742
}

; Function Attrs: inlinehint uwtable
define linkonce_odr void @_ZSt8_DestroyISsEvPT_(%"class.std::basic_string"* %__pointer) #6 comdat {
entry:
  %__pointer.addr = alloca %"class.std::basic_string"*, align 8
  store %"class.std::basic_string"* %__pointer, %"class.std::basic_string"** %__pointer.addr, align 8
  call void @llvm.dbg.declare(metadata %"class.std::basic_string"** %__pointer.addr, metadata !11743, metadata !9990), !dbg !11744
  %0 = load %"class.std::basic_string"** %__pointer.addr, align 8, !dbg !11745
  call void @_ZNSsD1Ev(%"class.std::basic_string"* %0), !dbg !11745
  ret void, !dbg !11746
}

; Function Attrs: inlinehint nounwind uwtable
define linkonce_odr %"class.std::basic_string"* @_ZSt11__addressofISsEPT_RS0_(%"class.std::basic_string"* dereferenceable(8) %__r) #8 comdat {
entry:
  %__r.addr = alloca %"class.std::basic_string"*, align 8
  store %"class.std::basic_string"* %__r, %"class.std::basic_string"** %__r.addr, align 8
  call void @llvm.dbg.declare(metadata %"class.std::basic_string"** %__r.addr, metadata !11747, metadata !9990), !dbg !11748
  %0 = load %"class.std::basic_string"** %__r.addr, align 8, !dbg !11749
  %1 = bitcast %"class.std::basic_string"* %0 to i8*, !dbg !11750
  %2 = bitcast i8* %1 to %"class.std::basic_string"*, !dbg !11751
  ret %"class.std::basic_string"* %2, !dbg !11752
}

; Function Attrs: uwtable
define linkonce_odr void @_ZNSt12_Vector_baseISsSaISsEE13_M_deallocateEPSsm(%"struct.std::_Vector_base.31"* %this, %"class.std::basic_string"* %__p, i64 %__n) #3 comdat align 2 {
entry:
  %this.addr = alloca %"struct.std::_Vector_base.31"*, align 8
  %__p.addr = alloca %"class.std::basic_string"*, align 8
  %__n.addr = alloca i64, align 8
  store %"struct.std::_Vector_base.31"* %this, %"struct.std::_Vector_base.31"** %this.addr, align 8
  call void @llvm.dbg.declare(metadata %"struct.std::_Vector_base.31"** %this.addr, metadata !11753, metadata !9990), !dbg !11754
  store %"class.std::basic_string"* %__p, %"class.std::basic_string"** %__p.addr, align 8
  call void @llvm.dbg.declare(metadata %"class.std::basic_string"** %__p.addr, metadata !11755, metadata !9990), !dbg !11757
  store i64 %__n, i64* %__n.addr, align 8
  call void @llvm.dbg.declare(metadata i64* %__n.addr, metadata !11758, metadata !9990), !dbg !11759
  %this1 = load %"struct.std::_Vector_base.31"** %this.addr
  %0 = load %"class.std::basic_string"** %__p.addr, align 8, !dbg !11760
  %tobool = icmp ne %"class.std::basic_string"* %0, null, !dbg !11760
  br i1 %tobool, label %if.then, label %if.end, !dbg !11762

if.then:                                          ; preds = %entry
  %_M_impl = getelementptr inbounds %"struct.std::_Vector_base.31"* %this1, i32 0, i32 0, !dbg !11763
  %1 = bitcast %"struct.std::_Vector_base<std::basic_string<char>, std::allocator<std::basic_string<char> > >::_Vector_impl"* %_M_impl to %"class.__gnu_cxx::new_allocator.33"*, !dbg !11763
  %2 = load %"class.std::basic_string"** %__p.addr, align 8, !dbg !11764
  %3 = load i64* %__n.addr, align 8, !dbg !11765
  call void @_ZN9__gnu_cxx13new_allocatorISsE10deallocateEPSsm(%"class.__gnu_cxx::new_allocator.33"* %1, %"class.std::basic_string"* %2, i64 %3), !dbg !11763
  br label %if.end, !dbg !11763

if.end:                                           ; preds = %if.then, %entry
  ret void, !dbg !11766
}

; Function Attrs: inlinehint nounwind uwtable
define linkonce_odr void @_ZNSt12_Vector_baseISsSaISsEE12_Vector_implD2Ev(%"struct.std::_Vector_base<std::basic_string<char>, std::allocator<std::basic_string<char> > >::_Vector_impl"* %this) unnamed_addr #8 comdat align 2 {
entry:
  %this.addr = alloca %"struct.std::_Vector_base<std::basic_string<char>, std::allocator<std::basic_string<char> > >::_Vector_impl"*, align 8
  store %"struct.std::_Vector_base<std::basic_string<char>, std::allocator<std::basic_string<char> > >::_Vector_impl"* %this, %"struct.std::_Vector_base<std::basic_string<char>, std::allocator<std::basic_string<char> > >::_Vector_impl"** %this.addr, align 8
  call void @llvm.dbg.declare(metadata %"struct.std::_Vector_base<std::basic_string<char>, std::allocator<std::basic_string<char> > >::_Vector_impl"** %this.addr, metadata !11767, metadata !9990), !dbg !11768
  %this1 = load %"struct.std::_Vector_base<std::basic_string<char>, std::allocator<std::basic_string<char> > >::_Vector_impl"** %this.addr
  %0 = bitcast %"struct.std::_Vector_base<std::basic_string<char>, std::allocator<std::basic_string<char> > >::_Vector_impl"* %this1 to %"class.std::allocator.32"*, !dbg !11769
  call void @_ZNSaISsED2Ev(%"class.std::allocator.32"* %0) #1, !dbg !11769
  ret void, !dbg !11771
}

; Function Attrs: nounwind uwtable
define linkonce_odr void @_ZN9__gnu_cxx13new_allocatorISsE10deallocateEPSsm(%"class.__gnu_cxx::new_allocator.33"* %this, %"class.std::basic_string"* %__p, i64) #2 comdat align 2 {
entry:
  %this.addr = alloca %"class.__gnu_cxx::new_allocator.33"*, align 8
  %__p.addr = alloca %"class.std::basic_string"*, align 8
  %.addr = alloca i64, align 8
  store %"class.__gnu_cxx::new_allocator.33"* %this, %"class.__gnu_cxx::new_allocator.33"** %this.addr, align 8
  call void @llvm.dbg.declare(metadata %"class.__gnu_cxx::new_allocator.33"** %this.addr, metadata !11772, metadata !9990), !dbg !11773
  store %"class.std::basic_string"* %__p, %"class.std::basic_string"** %__p.addr, align 8
  call void @llvm.dbg.declare(metadata %"class.std::basic_string"** %__p.addr, metadata !11774, metadata !9990), !dbg !11775
  store i64 %0, i64* %.addr, align 8
  call void @llvm.dbg.declare(metadata i64* %.addr, metadata !11776, metadata !9990), !dbg !11777
  %this1 = load %"class.__gnu_cxx::new_allocator.33"** %this.addr
  %1 = load %"class.std::basic_string"** %__p.addr, align 8, !dbg !11778
  %2 = bitcast %"class.std::basic_string"* %1 to i8*, !dbg !11778
  call void @_ZdlPv(i8* %2) #1, !dbg !11779
  ret void, !dbg !11780
}

; Function Attrs: nounwind uwtable
define linkonce_odr void @_ZNSaISsED2Ev(%"class.std::allocator.32"* %this) unnamed_addr #2 comdat align 2 {
entry:
  %this.addr = alloca %"class.std::allocator.32"*, align 8
  store %"class.std::allocator.32"* %this, %"class.std::allocator.32"** %this.addr, align 8
  call void @llvm.dbg.declare(metadata %"class.std::allocator.32"** %this.addr, metadata !11781, metadata !9990), !dbg !11782
  %this1 = load %"class.std::allocator.32"** %this.addr
  %0 = bitcast %"class.std::allocator.32"* %this1 to %"class.__gnu_cxx::new_allocator.33"*, !dbg !11783
  call void @_ZN9__gnu_cxx13new_allocatorISsED2Ev(%"class.__gnu_cxx::new_allocator.33"* %0) #1, !dbg !11783
  ret void, !dbg !11785
}

; Function Attrs: nounwind uwtable
define linkonce_odr void @_ZN9__gnu_cxx13new_allocatorISsED2Ev(%"class.__gnu_cxx::new_allocator.33"* %this) unnamed_addr #2 comdat align 2 {
entry:
  %this.addr = alloca %"class.__gnu_cxx::new_allocator.33"*, align 8
  store %"class.__gnu_cxx::new_allocator.33"* %this, %"class.__gnu_cxx::new_allocator.33"** %this.addr, align 8
  call void @llvm.dbg.declare(metadata %"class.__gnu_cxx::new_allocator.33"** %this.addr, metadata !11786, metadata !9990), !dbg !11787
  %this1 = load %"class.__gnu_cxx::new_allocator.33"** %this.addr
  ret void, !dbg !11788
}

; Function Attrs: inlinehint uwtable
define linkonce_odr void @_ZN5boost10shared_ptrISt3mapISsSsSt4lessISsESaISt4pairIKSsSsEEEED2Ev(%"class.boost::shared_ptr.36"* %this) unnamed_addr #6 comdat align 2 {
entry:
  %this.addr = alloca %"class.boost::shared_ptr.36"*, align 8
  store %"class.boost::shared_ptr.36"* %this, %"class.boost::shared_ptr.36"** %this.addr, align 8
  call void @llvm.dbg.declare(metadata %"class.boost::shared_ptr.36"** %this.addr, metadata !11789, metadata !9990), !dbg !11791
  %this1 = load %"class.boost::shared_ptr.36"** %this.addr
  %pn = getelementptr inbounds %"class.boost::shared_ptr.36"* %this1, i32 0, i32 1, !dbg !11792
  call void @_ZN5boost6detail12shared_countD2Ev(%"class.boost::detail::shared_count"* %pn), !dbg !11792
  ret void, !dbg !11794
}

; Function Attrs: uwtable
define linkonce_odr void @_ZNSt8_Rb_treeISsSt4pairIKSsSsESt10_Select1stIS2_ESt4lessISsESaIS2_EEC2Ev(%"class.std::_Rb_tree"* %this) unnamed_addr #3 comdat align 2 {
entry:
  %this.addr = alloca %"class.std::_Rb_tree"*, align 8
  store %"class.std::_Rb_tree"* %this, %"class.std::_Rb_tree"** %this.addr, align 8
  call void @llvm.dbg.declare(metadata %"class.std::_Rb_tree"** %this.addr, metadata !11795, metadata !9990), !dbg !11796
  %this1 = load %"class.std::_Rb_tree"** %this.addr
  %_M_impl = getelementptr inbounds %"class.std::_Rb_tree"* %this1, i32 0, i32 0, !dbg !11797
  call void @_ZNSt8_Rb_treeISsSt4pairIKSsSsESt10_Select1stIS2_ESt4lessISsESaIS2_EE13_Rb_tree_implIS6_Lb0EEC2Ev(%"struct.std::_Rb_tree<std::basic_string<char>, std::pair<const std::basic_string<char>, std::basic_string<char> >, std::_Select1st<std::pair<const std::basic_string<char>, std::basic_string<char> > >, std::less<std::basic_string<char> >, std::allocator<std::pair<const std::basic_string<char>, std::basic_string<char> > > >::_Rb_tree_impl"* %_M_impl), !dbg !11797
  ret void, !dbg !11798
}

; Function Attrs: uwtable
define linkonce_odr void @_ZNSt8_Rb_treeISsSt4pairIKSsSsESt10_Select1stIS2_ESt4lessISsESaIS2_EE13_Rb_tree_implIS6_Lb0EEC2Ev(%"struct.std::_Rb_tree<std::basic_string<char>, std::pair<const std::basic_string<char>, std::basic_string<char> >, std::_Select1st<std::pair<const std::basic_string<char>, std::basic_string<char> > >, std::less<std::basic_string<char> >, std::allocator<std::pair<const std::basic_string<char>, std::basic_string<char> > > >::_Rb_tree_impl"* %this) unnamed_addr #3 comdat align 2 {
entry:
  %this.addr = alloca %"struct.std::_Rb_tree<std::basic_string<char>, std::pair<const std::basic_string<char>, std::basic_string<char> >, std::_Select1st<std::pair<const std::basic_string<char>, std::basic_string<char> > >, std::less<std::basic_string<char> >, std::allocator<std::pair<const std::basic_string<char>, std::basic_string<char> > > >::_Rb_tree_impl"*, align 8
  %exn.slot = alloca i8*
  %ehselector.slot = alloca i32
  store %"struct.std::_Rb_tree<std::basic_string<char>, std::pair<const std::basic_string<char>, std::basic_string<char> >, std::_Select1st<std::pair<const std::basic_string<char>, std::basic_string<char> > >, std::less<std::basic_string<char> >, std::allocator<std::pair<const std::basic_string<char>, std::basic_string<char> > > >::_Rb_tree_impl"* %this, %"struct.std::_Rb_tree<std::basic_string<char>, std::pair<const std::basic_string<char>, std::basic_string<char> >, std::_Select1st<std::pair<const std::basic_string<char>, std::basic_string<char> > >, std::less<std::basic_string<char> >, std::allocator<std::pair<const std::basic_string<char>, std::basic_string<char> > > >::_Rb_tree_impl"** %this.addr, align 8
  call void @llvm.dbg.declare(metadata %"struct.std::_Rb_tree<std::basic_string<char>, std::pair<const std::basic_string<char>, std::basic_string<char> >, std::_Select1st<std::pair<const std::basic_string<char>, std::basic_string<char> > >, std::less<std::basic_string<char> >, std::allocator<std::pair<const std::basic_string<char>, std::basic_string<char> > > >::_Rb_tree_impl"** %this.addr, metadata !11799, metadata !9990), !dbg !11800
  %this1 = load %"struct.std::_Rb_tree<std::basic_string<char>, std::pair<const std::basic_string<char>, std::basic_string<char> >, std::_Select1st<std::pair<const std::basic_string<char>, std::basic_string<char> > >, std::less<std::basic_string<char> >, std::allocator<std::pair<const std::basic_string<char>, std::basic_string<char> > > >::_Rb_tree_impl"** %this.addr
  %0 = bitcast %"struct.std::_Rb_tree<std::basic_string<char>, std::pair<const std::basic_string<char>, std::basic_string<char> >, std::_Select1st<std::pair<const std::basic_string<char>, std::basic_string<char> > >, std::less<std::basic_string<char> >, std::allocator<std::pair<const std::basic_string<char>, std::basic_string<char> > > >::_Rb_tree_impl"* %this1 to %"class.std::allocator.16"*, !dbg !11801
  call void @_ZNSaISt13_Rb_tree_nodeISt4pairIKSsSsEEEC2Ev(%"class.std::allocator.16"* %0) #1, !dbg !11802
  %_M_key_compare = getelementptr inbounds %"struct.std::_Rb_tree<std::basic_string<char>, std::pair<const std::basic_string<char>, std::basic_string<char> >, std::_Select1st<std::pair<const std::basic_string<char>, std::basic_string<char> > >, std::less<std::basic_string<char> >, std::allocator<std::pair<const std::basic_string<char>, std::basic_string<char> > > >::_Rb_tree_impl"* %this1, i32 0, i32 0, !dbg !11803
  %_M_header = getelementptr inbounds %"struct.std::_Rb_tree<std::basic_string<char>, std::pair<const std::basic_string<char>, std::basic_string<char> >, std::_Select1st<std::pair<const std::basic_string<char>, std::basic_string<char> > >, std::less<std::basic_string<char> >, std::allocator<std::pair<const std::basic_string<char>, std::basic_string<char> > > >::_Rb_tree_impl"* %this1, i32 0, i32 1, !dbg !11804
  %1 = bitcast %"struct.std::_Rb_tree_node_base"* %_M_header to i8*, !dbg !11804
  call void @llvm.memset.p0i8.i64(i8* %1, i8 0, i64 32, i32 8, i1 false), !dbg !11804
  %_M_node_count = getelementptr inbounds %"struct.std::_Rb_tree<std::basic_string<char>, std::pair<const std::basic_string<char>, std::basic_string<char> >, std::_Select1st<std::pair<const std::basic_string<char>, std::basic_string<char> > >, std::less<std::basic_string<char> >, std::allocator<std::pair<const std::basic_string<char>, std::basic_string<char> > > >::_Rb_tree_impl"* %this1, i32 0, i32 2, !dbg !11805
  store i64 0, i64* %_M_node_count, align 8, !dbg !11805
  invoke void @_ZNSt8_Rb_treeISsSt4pairIKSsSsESt10_Select1stIS2_ESt4lessISsESaIS2_EE13_Rb_tree_implIS6_Lb0EE13_M_initializeEv(%"struct.std::_Rb_tree<std::basic_string<char>, std::pair<const std::basic_string<char>, std::basic_string<char> >, std::_Select1st<std::pair<const std::basic_string<char>, std::basic_string<char> > >, std::less<std::basic_string<char> >, std::allocator<std::pair<const std::basic_string<char>, std::basic_string<char> > > >::_Rb_tree_impl"* %this1)
          to label %invoke.cont unwind label %lpad, !dbg !11806

invoke.cont:                                      ; preds = %entry
  ret void, !dbg !11808

lpad:                                             ; preds = %entry
  %2 = landingpad { i8*, i32 } personality i8* bitcast (i32 (...)* @__gxx_personality_v0 to i8*)
          cleanup, !dbg !11810
  %3 = extractvalue { i8*, i32 } %2, 0, !dbg !11810
  store i8* %3, i8** %exn.slot, !dbg !11810
  %4 = extractvalue { i8*, i32 } %2, 1, !dbg !11810
  store i32 %4, i32* %ehselector.slot, !dbg !11810
  %5 = bitcast %"struct.std::_Rb_tree<std::basic_string<char>, std::pair<const std::basic_string<char>, std::basic_string<char> >, std::_Select1st<std::pair<const std::basic_string<char>, std::basic_string<char> > >, std::less<std::basic_string<char> >, std::allocator<std::pair<const std::basic_string<char>, std::basic_string<char> > > >::_Rb_tree_impl"* %this1 to %"class.std::allocator.16"*, !dbg !11810
  call void @_ZNSaISt13_Rb_tree_nodeISt4pairIKSsSsEEED2Ev(%"class.std::allocator.16"* %5) #1, !dbg !11810
  br label %eh.resume, !dbg !11810

eh.resume:                                        ; preds = %lpad
  %exn = load i8** %exn.slot, !dbg !11812
  %sel = load i32* %ehselector.slot, !dbg !11812
  %lpad.val = insertvalue { i8*, i32 } undef, i8* %exn, 0, !dbg !11812
  %lpad.val2 = insertvalue { i8*, i32 } %lpad.val, i32 %sel, 1, !dbg !11812
  resume { i8*, i32 } %lpad.val2, !dbg !11812
}

; Function Attrs: nounwind uwtable
define linkonce_odr void @_ZNSaISt13_Rb_tree_nodeISt4pairIKSsSsEEEC2Ev(%"class.std::allocator.16"* %this) unnamed_addr #2 comdat align 2 {
entry:
  %this.addr = alloca %"class.std::allocator.16"*, align 8
  store %"class.std::allocator.16"* %this, %"class.std::allocator.16"** %this.addr, align 8
  call void @llvm.dbg.declare(metadata %"class.std::allocator.16"** %this.addr, metadata !11814, metadata !9990), !dbg !11815
  %this1 = load %"class.std::allocator.16"** %this.addr
  %0 = bitcast %"class.std::allocator.16"* %this1 to %"class.__gnu_cxx::new_allocator.17"*, !dbg !11816
  call void @_ZN9__gnu_cxx13new_allocatorISt13_Rb_tree_nodeISt4pairIKSsSsEEEC2Ev(%"class.__gnu_cxx::new_allocator.17"* %0) #1, !dbg !11817
  ret void, !dbg !11818
}

; Function Attrs: nounwind uwtable
define linkonce_odr void @_ZNSt8_Rb_treeISsSt4pairIKSsSsESt10_Select1stIS2_ESt4lessISsESaIS2_EE13_Rb_tree_implIS6_Lb0EE13_M_initializeEv(%"struct.std::_Rb_tree<std::basic_string<char>, std::pair<const std::basic_string<char>, std::basic_string<char> >, std::_Select1st<std::pair<const std::basic_string<char>, std::basic_string<char> > >, std::less<std::basic_string<char> >, std::allocator<std::pair<const std::basic_string<char>, std::basic_string<char> > > >::_Rb_tree_impl"* %this) #2 comdat align 2 {
entry:
  %this.addr = alloca %"struct.std::_Rb_tree<std::basic_string<char>, std::pair<const std::basic_string<char>, std::basic_string<char> >, std::_Select1st<std::pair<const std::basic_string<char>, std::basic_string<char> > >, std::less<std::basic_string<char> >, std::allocator<std::pair<const std::basic_string<char>, std::basic_string<char> > > >::_Rb_tree_impl"*, align 8
  store %"struct.std::_Rb_tree<std::basic_string<char>, std::pair<const std::basic_string<char>, std::basic_string<char> >, std::_Select1st<std::pair<const std::basic_string<char>, std::basic_string<char> > >, std::less<std::basic_string<char> >, std::allocator<std::pair<const std::basic_string<char>, std::basic_string<char> > > >::_Rb_tree_impl"* %this, %"struct.std::_Rb_tree<std::basic_string<char>, std::pair<const std::basic_string<char>, std::basic_string<char> >, std::_Select1st<std::pair<const std::basic_string<char>, std::basic_string<char> > >, std::less<std::basic_string<char> >, std::allocator<std::pair<const std::basic_string<char>, std::basic_string<char> > > >::_Rb_tree_impl"** %this.addr, align 8
  call void @llvm.dbg.declare(metadata %"struct.std::_Rb_tree<std::basic_string<char>, std::pair<const std::basic_string<char>, std::basic_string<char> >, std::_Select1st<std::pair<const std::basic_string<char>, std::basic_string<char> > >, std::less<std::basic_string<char> >, std::allocator<std::pair<const std::basic_string<char>, std::basic_string<char> > > >::_Rb_tree_impl"** %this.addr, metadata !11819, metadata !9990), !dbg !11820
  %this1 = load %"struct.std::_Rb_tree<std::basic_string<char>, std::pair<const std::basic_string<char>, std::basic_string<char> >, std::_Select1st<std::pair<const std::basic_string<char>, std::basic_string<char> > >, std::less<std::basic_string<char> >, std::allocator<std::pair<const std::basic_string<char>, std::basic_string<char> > > >::_Rb_tree_impl"** %this.addr
  %_M_header = getelementptr inbounds %"struct.std::_Rb_tree<std::basic_string<char>, std::pair<const std::basic_string<char>, std::basic_string<char> >, std::_Select1st<std::pair<const std::basic_string<char>, std::basic_string<char> > >, std::less<std::basic_string<char> >, std::allocator<std::pair<const std::basic_string<char>, std::basic_string<char> > > >::_Rb_tree_impl"* %this1, i32 0, i32 1, !dbg !11821
  %_M_color = getelementptr inbounds %"struct.std::_Rb_tree_node_base"* %_M_header, i32 0, i32 0, !dbg !11822
  store i32 0, i32* %_M_color, align 4, !dbg !11823
  %_M_header2 = getelementptr inbounds %"struct.std::_Rb_tree<std::basic_string<char>, std::pair<const std::basic_string<char>, std::basic_string<char> >, std::_Select1st<std::pair<const std::basic_string<char>, std::basic_string<char> > >, std::less<std::basic_string<char> >, std::allocator<std::pair<const std::basic_string<char>, std::basic_string<char> > > >::_Rb_tree_impl"* %this1, i32 0, i32 1, !dbg !11824
  %_M_parent = getelementptr inbounds %"struct.std::_Rb_tree_node_base"* %_M_header2, i32 0, i32 1, !dbg !11825
  store %"struct.std::_Rb_tree_node_base"* null, %"struct.std::_Rb_tree_node_base"** %_M_parent, align 8, !dbg !11826
  %_M_header3 = getelementptr inbounds %"struct.std::_Rb_tree<std::basic_string<char>, std::pair<const std::basic_string<char>, std::basic_string<char> >, std::_Select1st<std::pair<const std::basic_string<char>, std::basic_string<char> > >, std::less<std::basic_string<char> >, std::allocator<std::pair<const std::basic_string<char>, std::basic_string<char> > > >::_Rb_tree_impl"* %this1, i32 0, i32 1, !dbg !11827
  %_M_header4 = getelementptr inbounds %"struct.std::_Rb_tree<std::basic_string<char>, std::pair<const std::basic_string<char>, std::basic_string<char> >, std::_Select1st<std::pair<const std::basic_string<char>, std::basic_string<char> > >, std::less<std::basic_string<char> >, std::allocator<std::pair<const std::basic_string<char>, std::basic_string<char> > > >::_Rb_tree_impl"* %this1, i32 0, i32 1, !dbg !11828
  %_M_left = getelementptr inbounds %"struct.std::_Rb_tree_node_base"* %_M_header4, i32 0, i32 2, !dbg !11829
  store %"struct.std::_Rb_tree_node_base"* %_M_header3, %"struct.std::_Rb_tree_node_base"** %_M_left, align 8, !dbg !11830
  %_M_header5 = getelementptr inbounds %"struct.std::_Rb_tree<std::basic_string<char>, std::pair<const std::basic_string<char>, std::basic_string<char> >, std::_Select1st<std::pair<const std::basic_string<char>, std::basic_string<char> > >, std::less<std::basic_string<char> >, std::allocator<std::pair<const std::basic_string<char>, std::basic_string<char> > > >::_Rb_tree_impl"* %this1, i32 0, i32 1, !dbg !11831
  %_M_header6 = getelementptr inbounds %"struct.std::_Rb_tree<std::basic_string<char>, std::pair<const std::basic_string<char>, std::basic_string<char> >, std::_Select1st<std::pair<const std::basic_string<char>, std::basic_string<char> > >, std::less<std::basic_string<char> >, std::allocator<std::pair<const std::basic_string<char>, std::basic_string<char> > > >::_Rb_tree_impl"* %this1, i32 0, i32 1, !dbg !11832
  %_M_right = getelementptr inbounds %"struct.std::_Rb_tree_node_base"* %_M_header6, i32 0, i32 3, !dbg !11833
  store %"struct.std::_Rb_tree_node_base"* %_M_header5, %"struct.std::_Rb_tree_node_base"** %_M_right, align 8, !dbg !11834
  ret void, !dbg !11835
}

; Function Attrs: nounwind uwtable
define linkonce_odr void @_ZN9__gnu_cxx13new_allocatorISt13_Rb_tree_nodeISt4pairIKSsSsEEEC2Ev(%"class.__gnu_cxx::new_allocator.17"* %this) unnamed_addr #2 comdat align 2 {
entry:
  %this.addr = alloca %"class.__gnu_cxx::new_allocator.17"*, align 8
  store %"class.__gnu_cxx::new_allocator.17"* %this, %"class.__gnu_cxx::new_allocator.17"** %this.addr, align 8
  call void @llvm.dbg.declare(metadata %"class.__gnu_cxx::new_allocator.17"** %this.addr, metadata !11836, metadata !9990), !dbg !11837
  %this1 = load %"class.__gnu_cxx::new_allocator.17"** %this.addr
  ret void, !dbg !11838
}

declare zeroext i1 @_ZNK3ros10NodeHandle8hasParamERKSs(%"class.ros::NodeHandle"*, %"class.std::basic_string"* dereferenceable(8)) #0

declare zeroext i1 @_ZNK3ros10NodeHandle8getParamERKSsRi(%"class.ros::NodeHandle"*, %"class.std::basic_string"* dereferenceable(8), i32* dereferenceable(4)) #0

; Function Attrs: uwtable
define linkonce_odr void @_ZN3ros16AdvertiseOptionsC2Ev(%"struct.ros::AdvertiseOptions"* %this) unnamed_addr #3 comdat align 2 {
entry:
  %this.addr = alloca %"struct.ros::AdvertiseOptions"*, align 8
  %exn.slot = alloca i8*
  %ehselector.slot = alloca i32
  store %"struct.ros::AdvertiseOptions"* %this, %"struct.ros::AdvertiseOptions"** %this.addr, align 8
  call void @llvm.dbg.declare(metadata %"struct.ros::AdvertiseOptions"** %this.addr, metadata !11839, metadata !9990), !dbg !11841
  %this1 = load %"struct.ros::AdvertiseOptions"** %this.addr
  %topic = getelementptr inbounds %"struct.ros::AdvertiseOptions"* %this1, i32 0, i32 0, !dbg !11842
  call void @_ZNSsC1Ev(%"class.std::basic_string"* %topic), !dbg !11842
  %md5sum = getelementptr inbounds %"struct.ros::AdvertiseOptions"* %this1, i32 0, i32 3, !dbg !11842
  invoke void @_ZNSsC1Ev(%"class.std::basic_string"* %md5sum)
          to label %invoke.cont unwind label %lpad, !dbg !11842

invoke.cont:                                      ; preds = %entry
  %datatype = getelementptr inbounds %"struct.ros::AdvertiseOptions"* %this1, i32 0, i32 4, !dbg !11843
  invoke void @_ZNSsC1Ev(%"class.std::basic_string"* %datatype)
          to label %invoke.cont3 unwind label %lpad2, !dbg !11843

invoke.cont3:                                     ; preds = %invoke.cont
  %message_definition = getelementptr inbounds %"struct.ros::AdvertiseOptions"* %this1, i32 0, i32 5, !dbg !11845
  invoke void @_ZNSsC1Ev(%"class.std::basic_string"* %message_definition)
          to label %invoke.cont5 unwind label %lpad4, !dbg !11845

invoke.cont5:                                     ; preds = %invoke.cont3
  %connect_cb = getelementptr inbounds %"struct.ros::AdvertiseOptions"* %this1, i32 0, i32 6, !dbg !11847
  invoke void @_ZN5boost8functionIFvRKN3ros25SingleSubscriberPublisherEEEC2Ev(%"class.boost::function"* %connect_cb)
          to label %invoke.cont7 unwind label %lpad6, !dbg !11847

invoke.cont7:                                     ; preds = %invoke.cont5
  %disconnect_cb = getelementptr inbounds %"struct.ros::AdvertiseOptions"* %this1, i32 0, i32 7, !dbg !11849
  invoke void @_ZN5boost8functionIFvRKN3ros25SingleSubscriberPublisherEEEC2Ev(%"class.boost::function"* %disconnect_cb)
          to label %invoke.cont9 unwind label %lpad8, !dbg !11849

invoke.cont9:                                     ; preds = %invoke.cont7
  %callback_queue = getelementptr inbounds %"struct.ros::AdvertiseOptions"* %this1, i32 0, i32 8, !dbg !11851
  store %"class.ros::CallbackQueueInterface"* null, %"class.ros::CallbackQueueInterface"** %callback_queue, align 8, !dbg !11851
  %tracked_object = getelementptr inbounds %"struct.ros::AdvertiseOptions"* %this1, i32 0, i32 9, !dbg !11842
  invoke void @_ZN5boost10shared_ptrIKvEC2Ev(%"class.boost::shared_ptr.40"* %tracked_object)
          to label %invoke.cont11 unwind label %lpad10, !dbg !11842

invoke.cont11:                                    ; preds = %invoke.cont9
  %latch = getelementptr inbounds %"struct.ros::AdvertiseOptions"* %this1, i32 0, i32 10, !dbg !11852
  store i8 0, i8* %latch, align 1, !dbg !11852
  ret void, !dbg !11853

lpad:                                             ; preds = %entry
  %0 = landingpad { i8*, i32 } personality i8* bitcast (i32 (...)* @__gxx_personality_v0 to i8*)
          cleanup, !dbg !11853
  %1 = extractvalue { i8*, i32 } %0, 0, !dbg !11853
  store i8* %1, i8** %exn.slot, !dbg !11853
  %2 = extractvalue { i8*, i32 } %0, 1, !dbg !11853
  store i32 %2, i32* %ehselector.slot, !dbg !11853
  br label %ehcleanup20, !dbg !11853

lpad2:                                            ; preds = %invoke.cont
  %3 = landingpad { i8*, i32 } personality i8* bitcast (i32 (...)* @__gxx_personality_v0 to i8*)
          cleanup, !dbg !11853
  %4 = extractvalue { i8*, i32 } %3, 0, !dbg !11853
  store i8* %4, i8** %exn.slot, !dbg !11853
  %5 = extractvalue { i8*, i32 } %3, 1, !dbg !11853
  store i32 %5, i32* %ehselector.slot, !dbg !11853
  br label %ehcleanup18, !dbg !11853

lpad4:                                            ; preds = %invoke.cont3
  %6 = landingpad { i8*, i32 } personality i8* bitcast (i32 (...)* @__gxx_personality_v0 to i8*)
          cleanup, !dbg !11853
  %7 = extractvalue { i8*, i32 } %6, 0, !dbg !11853
  store i8* %7, i8** %exn.slot, !dbg !11853
  %8 = extractvalue { i8*, i32 } %6, 1, !dbg !11853
  store i32 %8, i32* %ehselector.slot, !dbg !11853
  br label %ehcleanup16, !dbg !11853

lpad6:                                            ; preds = %invoke.cont5
  %9 = landingpad { i8*, i32 } personality i8* bitcast (i32 (...)* @__gxx_personality_v0 to i8*)
          cleanup, !dbg !11853
  %10 = extractvalue { i8*, i32 } %9, 0, !dbg !11853
  store i8* %10, i8** %exn.slot, !dbg !11853
  %11 = extractvalue { i8*, i32 } %9, 1, !dbg !11853
  store i32 %11, i32* %ehselector.slot, !dbg !11853
  br label %ehcleanup14, !dbg !11853

lpad8:                                            ; preds = %invoke.cont7
  %12 = landingpad { i8*, i32 } personality i8* bitcast (i32 (...)* @__gxx_personality_v0 to i8*)
          cleanup, !dbg !11853
  %13 = extractvalue { i8*, i32 } %12, 0, !dbg !11853
  store i8* %13, i8** %exn.slot, !dbg !11853
  %14 = extractvalue { i8*, i32 } %12, 1, !dbg !11853
  store i32 %14, i32* %ehselector.slot, !dbg !11853
  br label %ehcleanup, !dbg !11853

lpad10:                                           ; preds = %invoke.cont9
  %15 = landingpad { i8*, i32 } personality i8* bitcast (i32 (...)* @__gxx_personality_v0 to i8*)
          cleanup, !dbg !11853
  %16 = extractvalue { i8*, i32 } %15, 0, !dbg !11853
  store i8* %16, i8** %exn.slot, !dbg !11853
  %17 = extractvalue { i8*, i32 } %15, 1, !dbg !11853
  store i32 %17, i32* %ehselector.slot, !dbg !11853
  invoke void @_ZN5boost8functionIFvRKN3ros25SingleSubscriberPublisherEEED2Ev(%"class.boost::function"* %disconnect_cb)
          to label %invoke.cont12 unwind label %terminate.lpad, !dbg !11854

invoke.cont12:                                    ; preds = %lpad10
  br label %ehcleanup, !dbg !11856

ehcleanup:                                        ; preds = %invoke.cont12, %lpad8
  invoke void @_ZN5boost8functionIFvRKN3ros25SingleSubscriberPublisherEEED2Ev(%"class.boost::function"* %connect_cb)
          to label %invoke.cont13 unwind label %terminate.lpad, !dbg !11858

invoke.cont13:                                    ; preds = %ehcleanup
  br label %ehcleanup14, !dbg !11861

ehcleanup14:                                      ; preds = %invoke.cont13, %lpad6
  invoke void @_ZNSsD1Ev(%"class.std::basic_string"* %message_definition)
          to label %invoke.cont15 unwind label %terminate.lpad, !dbg !11863

invoke.cont15:                                    ; preds = %ehcleanup14
  br label %ehcleanup16, !dbg !11866

ehcleanup16:                                      ; preds = %invoke.cont15, %lpad4
  invoke void @_ZNSsD1Ev(%"class.std::basic_string"* %datatype)
          to label %invoke.cont17 unwind label %terminate.lpad, !dbg !11868

invoke.cont17:                                    ; preds = %ehcleanup16
  br label %ehcleanup18, !dbg !11871

ehcleanup18:                                      ; preds = %invoke.cont17, %lpad2
  invoke void @_ZNSsD1Ev(%"class.std::basic_string"* %md5sum)
          to label %invoke.cont19 unwind label %terminate.lpad, !dbg !11873

invoke.cont19:                                    ; preds = %ehcleanup18
  br label %ehcleanup20, !dbg !11876

ehcleanup20:                                      ; preds = %invoke.cont19, %lpad
  invoke void @_ZNSsD1Ev(%"class.std::basic_string"* %topic)
          to label %invoke.cont21 unwind label %terminate.lpad, !dbg !11878

invoke.cont21:                                    ; preds = %ehcleanup20
  br label %eh.resume, !dbg !11881

eh.resume:                                        ; preds = %invoke.cont21
  %exn = load i8** %exn.slot, !dbg !11883
  %sel = load i32* %ehselector.slot, !dbg !11883
  %lpad.val = insertvalue { i8*, i32 } undef, i8* %exn, 0, !dbg !11883
  %lpad.val22 = insertvalue { i8*, i32 } %lpad.val, i32 %sel, 1, !dbg !11883
  resume { i8*, i32 } %lpad.val22, !dbg !11883

terminate.lpad:                                   ; preds = %ehcleanup20, %ehcleanup18, %ehcleanup16, %ehcleanup14, %ehcleanup, %lpad10
  %18 = landingpad { i8*, i32 } personality i8* bitcast (i32 (...)* @__gxx_personality_v0 to i8*)
          catch i8* null, !dbg !11885
  %19 = extractvalue { i8*, i32 } %18, 0, !dbg !11885
  call void @__clang_call_terminate(i8* %19) #15, !dbg !11885
  unreachable, !dbg !11885
}

; Function Attrs: uwtable
define linkonce_odr void @_ZN3ros16AdvertiseOptions4initIN8std_msgs7String_ISaIvEEEEEvRKSsjRKN5boost8functionIFvRKNS_25SingleSubscriberPublisherEEEESG_(%"struct.ros::AdvertiseOptions"* %this, %"class.std::basic_string"* dereferenceable(8) %_topic, i32 %_queue_size, %"class.boost::function"* dereferenceable(32) %_connect_cb, %"class.boost::function"* dereferenceable(32) %_disconnect_cb) #3 comdat align 2 {
entry:
  %this.addr = alloca %"struct.ros::AdvertiseOptions"*, align 8
  %_topic.addr = alloca %"class.std::basic_string"*, align 8
  %_queue_size.addr = alloca i32, align 4
  %_connect_cb.addr = alloca %"class.boost::function"*, align 8
  %_disconnect_cb.addr = alloca %"class.boost::function"*, align 8
  store %"struct.ros::AdvertiseOptions"* %this, %"struct.ros::AdvertiseOptions"** %this.addr, align 8
  call void @llvm.dbg.declare(metadata %"struct.ros::AdvertiseOptions"** %this.addr, metadata !11892, metadata !9990), !dbg !11893
  store %"class.std::basic_string"* %_topic, %"class.std::basic_string"** %_topic.addr, align 8
  call void @llvm.dbg.declare(metadata %"class.std::basic_string"** %_topic.addr, metadata !11894, metadata !9990), !dbg !11896
  store i32 %_queue_size, i32* %_queue_size.addr, align 4
  call void @llvm.dbg.declare(metadata i32* %_queue_size.addr, metadata !11897, metadata !9990), !dbg !11898
  store %"class.boost::function"* %_connect_cb, %"class.boost::function"** %_connect_cb.addr, align 8
  call void @llvm.dbg.declare(metadata %"class.boost::function"** %_connect_cb.addr, metadata !11899, metadata !9990), !dbg !11900
  store %"class.boost::function"* %_disconnect_cb, %"class.boost::function"** %_disconnect_cb.addr, align 8
  call void @llvm.dbg.declare(metadata %"class.boost::function"** %_disconnect_cb.addr, metadata !11901, metadata !9990), !dbg !11902
  %this1 = load %"struct.ros::AdvertiseOptions"** %this.addr
  %topic = getelementptr inbounds %"struct.ros::AdvertiseOptions"* %this1, i32 0, i32 0, !dbg !11903
  %0 = load %"class.std::basic_string"** %_topic.addr, align 8, !dbg !11904
  %call = call dereferenceable(8) %"class.std::basic_string"* @_ZNSsaSERKSs(%"class.std::basic_string"* %topic, %"class.std::basic_string"* dereferenceable(8) %0), !dbg !11905
  %1 = load i32* %_queue_size.addr, align 4, !dbg !11906
  %queue_size = getelementptr inbounds %"struct.ros::AdvertiseOptions"* %this1, i32 0, i32 1, !dbg !11907
  store i32 %1, i32* %queue_size, align 4, !dbg !11908
  %connect_cb = getelementptr inbounds %"struct.ros::AdvertiseOptions"* %this1, i32 0, i32 6, !dbg !11909
  %2 = load %"class.boost::function"** %_connect_cb.addr, align 8, !dbg !11910
  %call2 = call dereferenceable(32) %"class.boost::function"* @_ZN5boost8functionIFvRKN3ros25SingleSubscriberPublisherEEEaSERKS6_(%"class.boost::function"* %connect_cb, %"class.boost::function"* dereferenceable(32) %2), !dbg !11911
  %disconnect_cb = getelementptr inbounds %"struct.ros::AdvertiseOptions"* %this1, i32 0, i32 7, !dbg !11912
  %3 = load %"class.boost::function"** %_disconnect_cb.addr, align 8, !dbg !11913
  %call3 = call dereferenceable(32) %"class.boost::function"* @_ZN5boost8functionIFvRKN3ros25SingleSubscriberPublisherEEEaSERKS6_(%"class.boost::function"* %disconnect_cb, %"class.boost::function"* dereferenceable(32) %3), !dbg !11914
  %md5sum = getelementptr inbounds %"struct.ros::AdvertiseOptions"* %this1, i32 0, i32 3, !dbg !11915
  %call4 = call i8* @_ZN3ros14message_traits6md5sumIN8std_msgs7String_ISaIvEEEEEPKcv(), !dbg !11916
  %call5 = call dereferenceable(8) %"class.std::basic_string"* @_ZNSsaSEPKc(%"class.std::basic_string"* %md5sum, i8* %call4), !dbg !11917
  %datatype = getelementptr inbounds %"struct.ros::AdvertiseOptions"* %this1, i32 0, i32 4, !dbg !11918
  %call6 = call i8* @_ZN3ros14message_traits8datatypeIN8std_msgs7String_ISaIvEEEEEPKcv(), !dbg !11919
  %call7 = call dereferenceable(8) %"class.std::basic_string"* @_ZNSsaSEPKc(%"class.std::basic_string"* %datatype, i8* %call6), !dbg !11920
  %message_definition = getelementptr inbounds %"struct.ros::AdvertiseOptions"* %this1, i32 0, i32 5, !dbg !11921
  %call8 = call i8* @_ZN3ros14message_traits10definitionIN8std_msgs7String_ISaIvEEEEEPKcv(), !dbg !11922
  %call9 = call dereferenceable(8) %"class.std::basic_string"* @_ZNSsaSEPKc(%"class.std::basic_string"* %message_definition, i8* %call8), !dbg !11923
  %call10 = call zeroext i1 @_ZN3ros14message_traits9hasHeaderIN8std_msgs7String_ISaIvEEEEEbv(), !dbg !11924
  %has_header = getelementptr inbounds %"struct.ros::AdvertiseOptions"* %this1, i32 0, i32 11, !dbg !11925
  %frombool = zext i1 %call10 to i8, !dbg !11926
  store i8 %frombool, i8* %has_header, align 1, !dbg !11926
  ret void, !dbg !11927
}

; Function Attrs: nounwind uwtable
define linkonce_odr void @_ZN5boost8functionIFvRKN3ros25SingleSubscriberPublisherEEEC2Ev(%"class.boost::function"* %this) unnamed_addr #2 comdat align 2 {
entry:
  %this.addr = alloca %"class.boost::function"*, align 8
  store %"class.boost::function"* %this, %"class.boost::function"** %this.addr, align 8
  call void @llvm.dbg.declare(metadata %"class.boost::function"** %this.addr, metadata !11928, metadata !9990), !dbg !11930
  %this1 = load %"class.boost::function"** %this.addr
  %0 = bitcast %"class.boost::function"* %this1 to %"class.boost::function1"*, !dbg !11931
  call void @_ZN5boost9function1IvRKN3ros25SingleSubscriberPublisherEEC2Ev(%"class.boost::function1"* %0), !dbg !11932
  ret void, !dbg !11933
}

; Function Attrs: inlinehint uwtable
define linkonce_odr void @_ZN5boost8functionIFvRKN3ros25SingleSubscriberPublisherEEED2Ev(%"class.boost::function"* %this) unnamed_addr #6 comdat align 2 {
entry:
  %this.addr = alloca %"class.boost::function"*, align 8
  store %"class.boost::function"* %this, %"class.boost::function"** %this.addr, align 8
  call void @llvm.dbg.declare(metadata %"class.boost::function"** %this.addr, metadata !11934, metadata !9990), !dbg !11935
  %this1 = load %"class.boost::function"** %this.addr
  %0 = bitcast %"class.boost::function"* %this1 to %"class.boost::function1"*, !dbg !11936
  call void @_ZN5boost9function1IvRKN3ros25SingleSubscriberPublisherEED2Ev(%"class.boost::function1"* %0), !dbg !11936
  ret void, !dbg !11938
}

declare void @_ZN3ros10NodeHandle9advertiseERNS_16AdvertiseOptionsE(%"class.ros::Publisher"* sret, %"class.ros::NodeHandle"*, %"struct.ros::AdvertiseOptions"* dereferenceable(136)) #0

; Function Attrs: inlinehint uwtable
define linkonce_odr void @_ZN3ros16AdvertiseOptionsD2Ev(%"struct.ros::AdvertiseOptions"* %this) unnamed_addr #6 comdat align 2 {
entry:
  %this.addr = alloca %"struct.ros::AdvertiseOptions"*, align 8
  %exn.slot = alloca i8*
  %ehselector.slot = alloca i32
  store %"struct.ros::AdvertiseOptions"* %this, %"struct.ros::AdvertiseOptions"** %this.addr, align 8
  call void @llvm.dbg.declare(metadata %"struct.ros::AdvertiseOptions"** %this.addr, metadata !11939, metadata !9990), !dbg !11940
  %this1 = load %"struct.ros::AdvertiseOptions"** %this.addr
  %tracked_object = getelementptr inbounds %"struct.ros::AdvertiseOptions"* %this1, i32 0, i32 9, !dbg !11941
  invoke void @_ZN5boost10shared_ptrIKvED2Ev(%"class.boost::shared_ptr.40"* %tracked_object)
          to label %invoke.cont unwind label %lpad, !dbg !11941

invoke.cont:                                      ; preds = %entry
  %disconnect_cb = getelementptr inbounds %"struct.ros::AdvertiseOptions"* %this1, i32 0, i32 7, !dbg !11943
  invoke void @_ZN5boost8functionIFvRKN3ros25SingleSubscriberPublisherEEED2Ev(%"class.boost::function"* %disconnect_cb)
          to label %invoke.cont3 unwind label %lpad2, !dbg !11943

invoke.cont3:                                     ; preds = %invoke.cont
  %connect_cb = getelementptr inbounds %"struct.ros::AdvertiseOptions"* %this1, i32 0, i32 6, !dbg !11945
  invoke void @_ZN5boost8functionIFvRKN3ros25SingleSubscriberPublisherEEED2Ev(%"class.boost::function"* %connect_cb)
          to label %invoke.cont7 unwind label %lpad6, !dbg !11945

invoke.cont7:                                     ; preds = %invoke.cont3
  %message_definition = getelementptr inbounds %"struct.ros::AdvertiseOptions"* %this1, i32 0, i32 5, !dbg !11947
  invoke void @_ZNSsD1Ev(%"class.std::basic_string"* %message_definition)
          to label %invoke.cont11 unwind label %lpad10, !dbg !11947

invoke.cont11:                                    ; preds = %invoke.cont7
  %datatype = getelementptr inbounds %"struct.ros::AdvertiseOptions"* %this1, i32 0, i32 4, !dbg !11949
  invoke void @_ZNSsD1Ev(%"class.std::basic_string"* %datatype)
          to label %invoke.cont16 unwind label %lpad15, !dbg !11949

invoke.cont16:                                    ; preds = %invoke.cont11
  %md5sum = getelementptr inbounds %"struct.ros::AdvertiseOptions"* %this1, i32 0, i32 3, !dbg !11951
  invoke void @_ZNSsD1Ev(%"class.std::basic_string"* %md5sum)
          to label %invoke.cont21 unwind label %lpad20, !dbg !11951

invoke.cont21:                                    ; preds = %invoke.cont16
  %topic = getelementptr inbounds %"struct.ros::AdvertiseOptions"* %this1, i32 0, i32 0, !dbg !11953
  call void @_ZNSsD1Ev(%"class.std::basic_string"* %topic), !dbg !11953
  ret void, !dbg !11955

lpad:                                             ; preds = %entry
  %0 = landingpad { i8*, i32 } personality i8* bitcast (i32 (...)* @__gxx_personality_v0 to i8*)
          cleanup, !dbg !11956
  %1 = extractvalue { i8*, i32 } %0, 0, !dbg !11956
  store i8* %1, i8** %exn.slot, !dbg !11956
  %2 = extractvalue { i8*, i32 } %0, 1, !dbg !11956
  store i32 %2, i32* %ehselector.slot, !dbg !11956
  %disconnect_cb4 = getelementptr inbounds %"struct.ros::AdvertiseOptions"* %this1, i32 0, i32 7, !dbg !11941
  invoke void @_ZN5boost8functionIFvRKN3ros25SingleSubscriberPublisherEEED2Ev(%"class.boost::function"* %disconnect_cb4)
          to label %invoke.cont5 unwind label %terminate.lpad, !dbg !11941

lpad2:                                            ; preds = %invoke.cont
  %3 = landingpad { i8*, i32 } personality i8* bitcast (i32 (...)* @__gxx_personality_v0 to i8*)
          cleanup, !dbg !11958
  %4 = extractvalue { i8*, i32 } %3, 0, !dbg !11958
  store i8* %4, i8** %exn.slot, !dbg !11958
  %5 = extractvalue { i8*, i32 } %3, 1, !dbg !11958
  store i32 %5, i32* %ehselector.slot, !dbg !11958
  br label %ehcleanup, !dbg !11958

invoke.cont5:                                     ; preds = %lpad
  br label %ehcleanup, !dbg !11960

lpad6:                                            ; preds = %invoke.cont3
  %6 = landingpad { i8*, i32 } personality i8* bitcast (i32 (...)* @__gxx_personality_v0 to i8*)
          cleanup, !dbg !11962
  %7 = extractvalue { i8*, i32 } %6, 0, !dbg !11962
  store i8* %7, i8** %exn.slot, !dbg !11962
  %8 = extractvalue { i8*, i32 } %6, 1, !dbg !11962
  store i32 %8, i32* %ehselector.slot, !dbg !11962
  br label %ehcleanup12, !dbg !11962

ehcleanup:                                        ; preds = %invoke.cont5, %lpad2
  %connect_cb8 = getelementptr inbounds %"struct.ros::AdvertiseOptions"* %this1, i32 0, i32 6, !dbg !11964
  invoke void @_ZN5boost8functionIFvRKN3ros25SingleSubscriberPublisherEEED2Ev(%"class.boost::function"* %connect_cb8)
          to label %invoke.cont9 unwind label %terminate.lpad, !dbg !11964

invoke.cont9:                                     ; preds = %ehcleanup
  br label %ehcleanup12, !dbg !11967

lpad10:                                           ; preds = %invoke.cont7
  %9 = landingpad { i8*, i32 } personality i8* bitcast (i32 (...)* @__gxx_personality_v0 to i8*)
          cleanup, !dbg !11969
  %10 = extractvalue { i8*, i32 } %9, 0, !dbg !11969
  store i8* %10, i8** %exn.slot, !dbg !11969
  %11 = extractvalue { i8*, i32 } %9, 1, !dbg !11969
  store i32 %11, i32* %ehselector.slot, !dbg !11969
  br label %ehcleanup17, !dbg !11969

ehcleanup12:                                      ; preds = %invoke.cont9, %lpad6
  %message_definition13 = getelementptr inbounds %"struct.ros::AdvertiseOptions"* %this1, i32 0, i32 5, !dbg !11971
  invoke void @_ZNSsD1Ev(%"class.std::basic_string"* %message_definition13)
          to label %invoke.cont14 unwind label %terminate.lpad, !dbg !11971

invoke.cont14:                                    ; preds = %ehcleanup12
  br label %ehcleanup17, !dbg !11974

lpad15:                                           ; preds = %invoke.cont11
  %12 = landingpad { i8*, i32 } personality i8* bitcast (i32 (...)* @__gxx_personality_v0 to i8*)
          cleanup, !dbg !11976
  %13 = extractvalue { i8*, i32 } %12, 0, !dbg !11976
  store i8* %13, i8** %exn.slot, !dbg !11976
  %14 = extractvalue { i8*, i32 } %12, 1, !dbg !11976
  store i32 %14, i32* %ehselector.slot, !dbg !11976
  br label %ehcleanup22, !dbg !11976

ehcleanup17:                                      ; preds = %invoke.cont14, %lpad10
  %datatype18 = getelementptr inbounds %"struct.ros::AdvertiseOptions"* %this1, i32 0, i32 4, !dbg !11978
  invoke void @_ZNSsD1Ev(%"class.std::basic_string"* %datatype18)
          to label %invoke.cont19 unwind label %terminate.lpad, !dbg !11978

invoke.cont19:                                    ; preds = %ehcleanup17
  br label %ehcleanup22, !dbg !11981

lpad20:                                           ; preds = %invoke.cont16
  %15 = landingpad { i8*, i32 } personality i8* bitcast (i32 (...)* @__gxx_personality_v0 to i8*)
          cleanup, !dbg !11983
  %16 = extractvalue { i8*, i32 } %15, 0, !dbg !11983
  store i8* %16, i8** %exn.slot, !dbg !11983
  %17 = extractvalue { i8*, i32 } %15, 1, !dbg !11983
  store i32 %17, i32* %ehselector.slot, !dbg !11983
  br label %ehcleanup25, !dbg !11983

ehcleanup22:                                      ; preds = %invoke.cont19, %lpad15
  %md5sum23 = getelementptr inbounds %"struct.ros::AdvertiseOptions"* %this1, i32 0, i32 3, !dbg !11985
  invoke void @_ZNSsD1Ev(%"class.std::basic_string"* %md5sum23)
          to label %invoke.cont24 unwind label %terminate.lpad, !dbg !11985

invoke.cont24:                                    ; preds = %ehcleanup22
  br label %ehcleanup25, !dbg !11988

ehcleanup25:                                      ; preds = %invoke.cont24, %lpad20
  %topic26 = getelementptr inbounds %"struct.ros::AdvertiseOptions"* %this1, i32 0, i32 0, !dbg !11990
  invoke void @_ZNSsD1Ev(%"class.std::basic_string"* %topic26)
          to label %invoke.cont27 unwind label %terminate.lpad, !dbg !11990

invoke.cont27:                                    ; preds = %ehcleanup25
  br label %eh.resume, !dbg !11993

eh.resume:                                        ; preds = %invoke.cont27
  %exn = load i8** %exn.slot, !dbg !11995
  %sel = load i32* %ehselector.slot, !dbg !11995
  %lpad.val = insertvalue { i8*, i32 } undef, i8* %exn, 0, !dbg !11995
  %lpad.val28 = insertvalue { i8*, i32 } %lpad.val, i32 %sel, 1, !dbg !11995
  resume { i8*, i32 } %lpad.val28, !dbg !11995

terminate.lpad:                                   ; preds = %ehcleanup25, %ehcleanup22, %ehcleanup17, %ehcleanup12, %ehcleanup, %lpad
  %18 = landingpad { i8*, i32 } personality i8* bitcast (i32 (...)* @__gxx_personality_v0 to i8*)
          catch i8* null, !dbg !11997
  %19 = extractvalue { i8*, i32 } %18, 0, !dbg !11997
  call void @__clang_call_terminate(i8* %19) #15, !dbg !11997
  unreachable, !dbg !11997
}

; Function Attrs: uwtable
define linkonce_odr void @_ZN5boost10shared_ptrIKvEC2Ev(%"class.boost::shared_ptr.40"* %this) unnamed_addr #3 comdat align 2 {
entry:
  %this.addr = alloca %"class.boost::shared_ptr.40"*, align 8
  store %"class.boost::shared_ptr.40"* %this, %"class.boost::shared_ptr.40"** %this.addr, align 8
  call void @llvm.dbg.declare(metadata %"class.boost::shared_ptr.40"** %this.addr, metadata !12004, metadata !9990), !dbg !12006
  %this1 = load %"class.boost::shared_ptr.40"** %this.addr
  %px = getelementptr inbounds %"class.boost::shared_ptr.40"* %this1, i32 0, i32 0, !dbg !12007
  store i8* null, i8** %px, align 8, !dbg !12007
  %pn = getelementptr inbounds %"class.boost::shared_ptr.40"* %this1, i32 0, i32 1, !dbg !12008
  call void @_ZN5boost6detail12shared_countC2Ev(%"class.boost::detail::shared_count"* %pn), !dbg !12008
  ret void, !dbg !12009
}

; Function Attrs: uwtable
define linkonce_odr dereferenceable(32) %"class.boost::function"* @_ZN5boost8functionIFvRKN3ros25SingleSubscriberPublisherEEEaSERKS6_(%"class.boost::function"* %this, %"class.boost::function"* dereferenceable(32) %f) #3 comdat align 2 {
entry:
  %this.addr = alloca %"class.boost::function"*, align 8
  %f.addr = alloca %"class.boost::function"*, align 8
  %temp.lvalue = alloca %"class.boost::function", align 8
  %exn.slot = alloca i8*
  %ehselector.slot = alloca i32
  store %"class.boost::function"* %this, %"class.boost::function"** %this.addr, align 8
  call void @llvm.dbg.declare(metadata %"class.boost::function"** %this.addr, metadata !12010, metadata !9990), !dbg !12011
  store %"class.boost::function"* %f, %"class.boost::function"** %f.addr, align 8
  call void @llvm.dbg.declare(metadata %"class.boost::function"** %f.addr, metadata !12012, metadata !9990), !dbg !12013
  %this1 = load %"class.boost::function"** %this.addr
  %0 = load %"class.boost::function"** %f.addr, align 8, !dbg !12014
  call void @_ZN5boost8functionIFvRKN3ros25SingleSubscriberPublisherEEEC2ERKS6_(%"class.boost::function"* %temp.lvalue, %"class.boost::function"* dereferenceable(32) %0), !dbg !12015
  %1 = bitcast %"class.boost::function"* %temp.lvalue to %"class.boost::function1"*, !dbg !12015
  %2 = bitcast %"class.boost::function"* %this1 to %"class.boost::function1"*, !dbg !12016
  invoke void @_ZN5boost9function1IvRKN3ros25SingleSubscriberPublisherEE4swapERS5_(%"class.boost::function1"* %1, %"class.boost::function1"* dereferenceable(32) %2)
          to label %invoke.cont unwind label %lpad, !dbg !12015

invoke.cont:                                      ; preds = %entry
  call void @_ZN5boost8functionIFvRKN3ros25SingleSubscriberPublisherEEED2Ev(%"class.boost::function"* %temp.lvalue), !dbg !12017
  ret %"class.boost::function"* %this1, !dbg !12019

lpad:                                             ; preds = %entry
  %3 = landingpad { i8*, i32 } personality i8* bitcast (i32 (...)* @__gxx_personality_v0 to i8*)
          cleanup, !dbg !12020
  %4 = extractvalue { i8*, i32 } %3, 0, !dbg !12020
  store i8* %4, i8** %exn.slot, !dbg !12020
  %5 = extractvalue { i8*, i32 } %3, 1, !dbg !12020
  store i32 %5, i32* %ehselector.slot, !dbg !12020
  invoke void @_ZN5boost8functionIFvRKN3ros25SingleSubscriberPublisherEEED2Ev(%"class.boost::function"* %temp.lvalue)
          to label %invoke.cont2 unwind label %terminate.lpad, !dbg !12015

invoke.cont2:                                     ; preds = %lpad
  br label %eh.resume, !dbg !12021

eh.resume:                                        ; preds = %invoke.cont2
  %exn = load i8** %exn.slot, !dbg !12023
  %sel = load i32* %ehselector.slot, !dbg !12023
  %lpad.val = insertvalue { i8*, i32 } undef, i8* %exn, 0, !dbg !12023
  %lpad.val3 = insertvalue { i8*, i32 } %lpad.val, i32 %sel, 1, !dbg !12023
  resume { i8*, i32 } %lpad.val3, !dbg !12023

terminate.lpad:                                   ; preds = %lpad
  %6 = landingpad { i8*, i32 } personality i8* bitcast (i32 (...)* @__gxx_personality_v0 to i8*)
          catch i8* null, !dbg !12025
  %7 = extractvalue { i8*, i32 } %6, 0, !dbg !12025
  call void @__clang_call_terminate(i8* %7) #15, !dbg !12025
  unreachable, !dbg !12025
}

declare dereferenceable(8) %"class.std::basic_string"* @_ZNSsaSEPKc(%"class.std::basic_string"*, i8*) #0

; Function Attrs: inlinehint uwtable
define linkonce_odr i8* @_ZN3ros14message_traits6md5sumIN8std_msgs7String_ISaIvEEEEEPKcv() #6 comdat {
entry:
  %call = call i8* @_ZN3ros14message_traits6MD5SumIN8std_msgs7String_ISaIvEEEE5valueEv(), !dbg !12027
  ret i8* %call, !dbg !12028
}

; Function Attrs: inlinehint uwtable
define linkonce_odr i8* @_ZN3ros14message_traits8datatypeIN8std_msgs7String_ISaIvEEEEEPKcv() #6 comdat {
entry:
  %call = call i8* @_ZN3ros14message_traits8DataTypeIN8std_msgs7String_ISaIvEEEE5valueEv(), !dbg !12029
  ret i8* %call, !dbg !12030
}

; Function Attrs: inlinehint uwtable
define linkonce_odr i8* @_ZN3ros14message_traits10definitionIN8std_msgs7String_ISaIvEEEEEPKcv() #6 comdat {
entry:
  %call = call i8* @_ZN3ros14message_traits10DefinitionIN8std_msgs7String_ISaIvEEEE5valueEv(), !dbg !12031
  ret i8* %call, !dbg !12032
}

; Function Attrs: inlinehint nounwind uwtable
define linkonce_odr zeroext i1 @_ZN3ros14message_traits9hasHeaderIN8std_msgs7String_ISaIvEEEEEbv() #8 comdat {
entry:
  ret i1 false, !dbg !12033
}

; Function Attrs: uwtable
define linkonce_odr void @_ZN5boost8functionIFvRKN3ros25SingleSubscriberPublisherEEEC2ERKS6_(%"class.boost::function"* %this, %"class.boost::function"* dereferenceable(32) %f) unnamed_addr #3 comdat align 2 {
entry:
  %this.addr = alloca %"class.boost::function"*, align 8
  %f.addr = alloca %"class.boost::function"*, align 8
  store %"class.boost::function"* %this, %"class.boost::function"** %this.addr, align 8
  call void @llvm.dbg.declare(metadata %"class.boost::function"** %this.addr, metadata !12034, metadata !9990), !dbg !12035
  store %"class.boost::function"* %f, %"class.boost::function"** %f.addr, align 8
  call void @llvm.dbg.declare(metadata %"class.boost::function"** %f.addr, metadata !12036, metadata !9990), !dbg !12037
  %this1 = load %"class.boost::function"** %this.addr
  %0 = bitcast %"class.boost::function"* %this1 to %"class.boost::function1"*, !dbg !12038
  %1 = load %"class.boost::function"** %f.addr, align 8, !dbg !12039
  %2 = bitcast %"class.boost::function"* %1 to %"class.boost::function1"*, !dbg !12039
  call void @_ZN5boost9function1IvRKN3ros25SingleSubscriberPublisherEEC2ERKS5_(%"class.boost::function1"* %0, %"class.boost::function1"* dereferenceable(32) %2), !dbg !12040
  ret void, !dbg !12041
}

; Function Attrs: uwtable
define linkonce_odr void @_ZN5boost9function1IvRKN3ros25SingleSubscriberPublisherEE4swapERS5_(%"class.boost::function1"* %this, %"class.boost::function1"* dereferenceable(32) %other) #3 comdat align 2 {
entry:
  %this.addr = alloca %"class.boost::function1"*, align 8
  %other.addr = alloca %"class.boost::function1"*, align 8
  %tmp = alloca %"class.boost::function1", align 8
  %exn.slot = alloca i8*
  %ehselector.slot = alloca i32
  store %"class.boost::function1"* %this, %"class.boost::function1"** %this.addr, align 8
  call void @llvm.dbg.declare(metadata %"class.boost::function1"** %this.addr, metadata !12042, metadata !9990), !dbg !12044
  store %"class.boost::function1"* %other, %"class.boost::function1"** %other.addr, align 8
  call void @llvm.dbg.declare(metadata %"class.boost::function1"** %other.addr, metadata !12045, metadata !9990), !dbg !12046
  %this1 = load %"class.boost::function1"** %this.addr
  %0 = load %"class.boost::function1"** %other.addr, align 8, !dbg !12047
  %cmp = icmp eq %"class.boost::function1"* %0, %this1, !dbg !12049
  br i1 %cmp, label %if.then, label %if.end, !dbg !12050

if.then:                                          ; preds = %entry
  br label %return, !dbg !12051

if.end:                                           ; preds = %entry
  call void @llvm.dbg.declare(metadata %"class.boost::function1"* %tmp, metadata !12052, metadata !9990), !dbg !12053
  call void @_ZN5boost9function1IvRKN3ros25SingleSubscriberPublisherEEC2Ev(%"class.boost::function1"* %tmp), !dbg !12053
  invoke void @_ZN5boost9function1IvRKN3ros25SingleSubscriberPublisherEE11move_assignERS5_(%"class.boost::function1"* %tmp, %"class.boost::function1"* dereferenceable(32) %this1)
          to label %invoke.cont unwind label %lpad, !dbg !12054

invoke.cont:                                      ; preds = %if.end
  %1 = load %"class.boost::function1"** %other.addr, align 8, !dbg !12055
  invoke void @_ZN5boost9function1IvRKN3ros25SingleSubscriberPublisherEE11move_assignERS5_(%"class.boost::function1"* %this1, %"class.boost::function1"* dereferenceable(32) %1)
          to label %invoke.cont2 unwind label %lpad, !dbg !12056

invoke.cont2:                                     ; preds = %invoke.cont
  %2 = load %"class.boost::function1"** %other.addr, align 8, !dbg !12057
  invoke void @_ZN5boost9function1IvRKN3ros25SingleSubscriberPublisherEE11move_assignERS5_(%"class.boost::function1"* %2, %"class.boost::function1"* dereferenceable(32) %tmp)
          to label %invoke.cont3 unwind label %lpad, !dbg !12057

invoke.cont3:                                     ; preds = %invoke.cont2
  call void @_ZN5boost9function1IvRKN3ros25SingleSubscriberPublisherEED2Ev(%"class.boost::function1"* %tmp), !dbg !12058
  br label %return, !dbg !12058

return:                                           ; preds = %invoke.cont3, %if.then
  ret void, !dbg !12059

lpad:                                             ; preds = %invoke.cont2, %invoke.cont, %if.end
  %3 = landingpad { i8*, i32 } personality i8* bitcast (i32 (...)* @__gxx_personality_v0 to i8*)
          cleanup, !dbg !12058
  %4 = extractvalue { i8*, i32 } %3, 0, !dbg !12058
  store i8* %4, i8** %exn.slot, !dbg !12058
  %5 = extractvalue { i8*, i32 } %3, 1, !dbg !12058
  store i32 %5, i32* %ehselector.slot, !dbg !12058
  invoke void @_ZN5boost9function1IvRKN3ros25SingleSubscriberPublisherEED2Ev(%"class.boost::function1"* %tmp)
          to label %invoke.cont4 unwind label %terminate.lpad, !dbg !12058

invoke.cont4:                                     ; preds = %lpad
  br label %eh.resume, !dbg !12061

eh.resume:                                        ; preds = %invoke.cont4
  %exn = load i8** %exn.slot, !dbg !12063
  %sel = load i32* %ehselector.slot, !dbg !12063
  %lpad.val = insertvalue { i8*, i32 } undef, i8* %exn, 0, !dbg !12063
  %lpad.val5 = insertvalue { i8*, i32 } %lpad.val, i32 %sel, 1, !dbg !12063
  resume { i8*, i32 } %lpad.val5, !dbg !12063

terminate.lpad:                                   ; preds = %lpad
  %6 = landingpad { i8*, i32 } personality i8* bitcast (i32 (...)* @__gxx_personality_v0 to i8*)
          catch i8* null, !dbg !12065
  %7 = extractvalue { i8*, i32 } %6, 0, !dbg !12065
  call void @__clang_call_terminate(i8* %7) #15, !dbg !12065
  unreachable, !dbg !12065
}

; Function Attrs: uwtable
define linkonce_odr void @_ZN5boost9function1IvRKN3ros25SingleSubscriberPublisherEEC2ERKS5_(%"class.boost::function1"* %this, %"class.boost::function1"* dereferenceable(32) %f) unnamed_addr #3 comdat align 2 {
entry:
  %this.addr = alloca %"class.boost::function1"*, align 8
  %f.addr = alloca %"class.boost::function1"*, align 8
  store %"class.boost::function1"* %this, %"class.boost::function1"** %this.addr, align 8
  call void @llvm.dbg.declare(metadata %"class.boost::function1"** %this.addr, metadata !12067, metadata !9990), !dbg !12068
  store %"class.boost::function1"* %f, %"class.boost::function1"** %f.addr, align 8
  call void @llvm.dbg.declare(metadata %"class.boost::function1"** %f.addr, metadata !12069, metadata !9990), !dbg !12070
  %this1 = load %"class.boost::function1"** %this.addr
  %0 = bitcast %"class.boost::function1"* %this1 to %"class.boost::function_base"*, !dbg !12071
  call void @_ZN5boost13function_baseC2Ev(%"class.boost::function_base"* %0), !dbg !12072
  %1 = bitcast %"class.boost::function1"* %this1 to %"struct.std::unary_function"*, !dbg !12071
  %2 = load %"class.boost::function1"** %f.addr, align 8, !dbg !12073
  call void @_ZN5boost9function1IvRKN3ros25SingleSubscriberPublisherEE13assign_to_ownERKS5_(%"class.boost::function1"* %this1, %"class.boost::function1"* dereferenceable(32) %2), !dbg !12075
  ret void, !dbg !12076
}

; Function Attrs: nounwind uwtable
define linkonce_odr void @_ZN5boost13function_baseC2Ev(%"class.boost::function_base"* %this) unnamed_addr #2 comdat align 2 {
entry:
  %this.addr = alloca %"class.boost::function_base"*, align 8
  store %"class.boost::function_base"* %this, %"class.boost::function_base"** %this.addr, align 8
  call void @llvm.dbg.declare(metadata %"class.boost::function_base"** %this.addr, metadata !12077, metadata !9990), !dbg !12079
  %this1 = load %"class.boost::function_base"** %this.addr
  %vtable = getelementptr inbounds %"class.boost::function_base"* %this1, i32 0, i32 0, !dbg !12080
  store %"struct.boost::detail::function::vtable_base"* null, %"struct.boost::detail::function::vtable_base"** %vtable, align 8, !dbg !12080
  %functor = getelementptr inbounds %"class.boost::function_base"* %this1, i32 0, i32 1, !dbg !12081
  ret void, !dbg !12082
}

; Function Attrs: uwtable
define linkonce_odr void @_ZN5boost9function1IvRKN3ros25SingleSubscriberPublisherEE13assign_to_ownERKS5_(%"class.boost::function1"* %this, %"class.boost::function1"* dereferenceable(32) %f) #3 comdat align 2 {
entry:
  %this.addr = alloca %"class.boost::function1"*, align 8
  %f.addr = alloca %"class.boost::function1"*, align 8
  store %"class.boost::function1"* %this, %"class.boost::function1"** %this.addr, align 8
  call void @llvm.dbg.declare(metadata %"class.boost::function1"** %this.addr, metadata !12083, metadata !9990), !dbg !12084
  store %"class.boost::function1"* %f, %"class.boost::function1"** %f.addr, align 8
  call void @llvm.dbg.declare(metadata %"class.boost::function1"** %f.addr, metadata !12085, metadata !9990), !dbg !12086
  %this1 = load %"class.boost::function1"** %this.addr
  %0 = load %"class.boost::function1"** %f.addr, align 8, !dbg !12087
  %1 = bitcast %"class.boost::function1"* %0 to %"class.boost::function_base"*, !dbg !12087
  %call = call zeroext i1 @_ZNK5boost13function_base5emptyEv(%"class.boost::function_base"* %1), !dbg !12087
  br i1 %call, label %if.end9, label %if.then, !dbg !12089

if.then:                                          ; preds = %entry
  %2 = load %"class.boost::function1"** %f.addr, align 8, !dbg !12090
  %3 = bitcast %"class.boost::function1"* %2 to %"class.boost::function_base"*, !dbg !12090
  %vtable = getelementptr inbounds %"class.boost::function_base"* %3, i32 0, i32 0, !dbg !12092
  %4 = load %"struct.boost::detail::function::vtable_base"** %vtable, align 8, !dbg !12092
  %5 = bitcast %"class.boost::function1"* %this1 to %"class.boost::function_base"*, !dbg !12093
  %vtable2 = getelementptr inbounds %"class.boost::function_base"* %5, i32 0, i32 0, !dbg !12094
  store %"struct.boost::detail::function::vtable_base"* %4, %"struct.boost::detail::function::vtable_base"** %vtable2, align 8, !dbg !12095
  %6 = bitcast %"class.boost::function1"* %this1 to %"class.boost::function_base"*, !dbg !12096
  %call3 = call zeroext i1 @_ZNK5boost13function_base28has_trivial_copy_and_destroyEv(%"class.boost::function_base"* %6), !dbg !12096
  br i1 %call3, label %if.then4, label %if.else, !dbg !12098

if.then4:                                         ; preds = %if.then
  %7 = bitcast %"class.boost::function1"* %this1 to %"class.boost::function_base"*, !dbg !12099
  %functor = getelementptr inbounds %"class.boost::function_base"* %7, i32 0, i32 1, !dbg !12100
  %8 = load %"class.boost::function1"** %f.addr, align 8, !dbg !12101
  %9 = bitcast %"class.boost::function1"* %8 to %"class.boost::function_base"*, !dbg !12101
  %functor5 = getelementptr inbounds %"class.boost::function_base"* %9, i32 0, i32 1, !dbg !12102
  %10 = bitcast %"union.boost::detail::function::function_buffer"* %functor to i8*, !dbg !12103
  %11 = bitcast %"union.boost::detail::function::function_buffer"* %functor5 to i8*, !dbg !12103
  call void @llvm.memcpy.p0i8.p0i8.i64(i8* %10, i8* %11, i64 24, i32 8, i1 false), !dbg !12103
  br label %if.end, !dbg !12099

if.else:                                          ; preds = %if.then
  %call6 = call %"struct.boost::detail::function::basic_vtable1"* @_ZNK5boost9function1IvRKN3ros25SingleSubscriberPublisherEE10get_vtableEv(%"class.boost::function1"* %this1), !dbg !12104
  %base = getelementptr inbounds %"struct.boost::detail::function::basic_vtable1"* %call6, i32 0, i32 0, !dbg !12105
  %manager = getelementptr inbounds %"struct.boost::detail::function::vtable_base"* %base, i32 0, i32 0, !dbg !12106
  %12 = load void (%"union.boost::detail::function::function_buffer"*, %"union.boost::detail::function::function_buffer"*, i32)** %manager, align 8, !dbg !12106
  %13 = load %"class.boost::function1"** %f.addr, align 8, !dbg !12107
  %14 = bitcast %"class.boost::function1"* %13 to %"class.boost::function_base"*, !dbg !12107
  %functor7 = getelementptr inbounds %"class.boost::function_base"* %14, i32 0, i32 1, !dbg !12108
  %15 = bitcast %"class.boost::function1"* %this1 to %"class.boost::function_base"*, !dbg !12109
  %functor8 = getelementptr inbounds %"class.boost::function_base"* %15, i32 0, i32 1, !dbg !12110
  call void %12(%"union.boost::detail::function::function_buffer"* dereferenceable(24) %functor7, %"union.boost::detail::function::function_buffer"* dereferenceable(24) %functor8, i32 0), !dbg !12104
  br label %if.end

if.end:                                           ; preds = %if.else, %if.then4
  br label %if.end9, !dbg !12111

if.end9:                                          ; preds = %if.end, %entry
  ret void, !dbg !12112
}

; Function Attrs: nounwind uwtable
define linkonce_odr zeroext i1 @_ZNK5boost13function_base5emptyEv(%"class.boost::function_base"* %this) #2 comdat align 2 {
entry:
  %this.addr = alloca %"class.boost::function_base"*, align 8
  store %"class.boost::function_base"* %this, %"class.boost::function_base"** %this.addr, align 8
  call void @llvm.dbg.declare(metadata %"class.boost::function_base"** %this.addr, metadata !12113, metadata !9990), !dbg !12114
  %this1 = load %"class.boost::function_base"** %this.addr
  %vtable = getelementptr inbounds %"class.boost::function_base"* %this1, i32 0, i32 0, !dbg !12115
  %0 = load %"struct.boost::detail::function::vtable_base"** %vtable, align 8, !dbg !12115
  %tobool = icmp ne %"struct.boost::detail::function::vtable_base"* %0, null, !dbg !12115
  %lnot = xor i1 %tobool, true, !dbg !12116
  ret i1 %lnot, !dbg !12117
}

; Function Attrs: nounwind uwtable
define linkonce_odr zeroext i1 @_ZNK5boost13function_base28has_trivial_copy_and_destroyEv(%"class.boost::function_base"* %this) #2 comdat align 2 {
entry:
  %this.addr = alloca %"class.boost::function_base"*, align 8
  store %"class.boost::function_base"* %this, %"class.boost::function_base"** %this.addr, align 8
  call void @llvm.dbg.declare(metadata %"class.boost::function_base"** %this.addr, metadata !12118, metadata !9990), !dbg !12119
  %this1 = load %"class.boost::function_base"** %this.addr
  %vtable = getelementptr inbounds %"class.boost::function_base"* %this1, i32 0, i32 0, !dbg !12120
  %0 = load %"struct.boost::detail::function::vtable_base"** %vtable, align 8, !dbg !12120
  %1 = ptrtoint %"struct.boost::detail::function::vtable_base"* %0 to i64, !dbg !12121
  %and = and i64 %1, 1, !dbg !12122
  %tobool = icmp ne i64 %and, 0, !dbg !12121
  ret i1 %tobool, !dbg !12123
}

; Function Attrs: nounwind
declare void @llvm.memcpy.p0i8.p0i8.i64(i8* nocapture, i8* nocapture readonly, i64, i32, i1) #1

; Function Attrs: nounwind uwtable
define linkonce_odr %"struct.boost::detail::function::basic_vtable1"* @_ZNK5boost9function1IvRKN3ros25SingleSubscriberPublisherEE10get_vtableEv(%"class.boost::function1"* %this) #2 comdat align 2 {
entry:
  %this.addr = alloca %"class.boost::function1"*, align 8
  store %"class.boost::function1"* %this, %"class.boost::function1"** %this.addr, align 8
  call void @llvm.dbg.declare(metadata %"class.boost::function1"** %this.addr, metadata !12124, metadata !9990), !dbg !12126
  %this1 = load %"class.boost::function1"** %this.addr
  %0 = bitcast %"class.boost::function1"* %this1 to %"class.boost::function_base"*, !dbg !12127
  %vtable = getelementptr inbounds %"class.boost::function_base"* %0, i32 0, i32 0, !dbg !12127
  %1 = load %"struct.boost::detail::function::vtable_base"** %vtable, align 8, !dbg !12127
  %2 = ptrtoint %"struct.boost::detail::function::vtable_base"* %1 to i64, !dbg !12128
  %and = and i64 %2, -2, !dbg !12129
  %3 = inttoptr i64 %and to %"struct.boost::detail::function::basic_vtable1"*, !dbg !12130
  ret %"struct.boost::detail::function::basic_vtable1"* %3, !dbg !12131
}

; Function Attrs: nounwind uwtable
define linkonce_odr void @_ZN5boost9function1IvRKN3ros25SingleSubscriberPublisherEEC2Ev(%"class.boost::function1"* %this) unnamed_addr #2 comdat align 2 {
entry:
  %this.addr = alloca %"class.boost::function1"*, align 8
  store %"class.boost::function1"* %this, %"class.boost::function1"** %this.addr, align 8
  call void @llvm.dbg.declare(metadata %"class.boost::function1"** %this.addr, metadata !12132, metadata !9990), !dbg !12133
  %this1 = load %"class.boost::function1"** %this.addr
  %0 = bitcast %"class.boost::function1"* %this1 to %"class.boost::function_base"*, !dbg !12134
  call void @_ZN5boost13function_baseC2Ev(%"class.boost::function_base"* %0), !dbg !12135
  %1 = bitcast %"class.boost::function1"* %this1 to %"struct.std::unary_function"*, !dbg !12134
  ret void, !dbg !12136
}

; Function Attrs: uwtable
define linkonce_odr void @_ZN5boost9function1IvRKN3ros25SingleSubscriberPublisherEE11move_assignERS5_(%"class.boost::function1"* %this, %"class.boost::function1"* dereferenceable(32) %f) #3 comdat align 2 {
entry:
  %this.addr = alloca %"class.boost::function1"*, align 8
  %f.addr = alloca %"class.boost::function1"*, align 8
  %exn.slot = alloca i8*
  %ehselector.slot = alloca i32
  store %"class.boost::function1"* %this, %"class.boost::function1"** %this.addr, align 8
  call void @llvm.dbg.declare(metadata %"class.boost::function1"** %this.addr, metadata !12137, metadata !9990), !dbg !12138
  store %"class.boost::function1"* %f, %"class.boost::function1"** %f.addr, align 8
  call void @llvm.dbg.declare(metadata %"class.boost::function1"** %f.addr, metadata !12139, metadata !9990), !dbg !12140
  %this1 = load %"class.boost::function1"** %this.addr
  %0 = load %"class.boost::function1"** %f.addr, align 8, !dbg !12141
  %cmp = icmp eq %"class.boost::function1"* %0, %this1, !dbg !12143
  br i1 %cmp, label %if.then, label %if.end, !dbg !12144

if.then:                                          ; preds = %entry
  br label %try.cont, !dbg !12145

if.end:                                           ; preds = %entry
  %1 = load %"class.boost::function1"** %f.addr, align 8, !dbg !12146
  %2 = bitcast %"class.boost::function1"* %1 to %"class.boost::function_base"*, !dbg !12146
  %call = invoke zeroext i1 @_ZNK5boost13function_base5emptyEv(%"class.boost::function_base"* %2)
          to label %invoke.cont unwind label %lpad, !dbg !12146

invoke.cont:                                      ; preds = %if.end
  br i1 %call, label %if.else15, label %if.then2, !dbg !12150

if.then2:                                         ; preds = %invoke.cont
  %3 = load %"class.boost::function1"** %f.addr, align 8, !dbg !12152
  %4 = bitcast %"class.boost::function1"* %3 to %"class.boost::function_base"*, !dbg !12152
  %vtable = getelementptr inbounds %"class.boost::function_base"* %4, i32 0, i32 0, !dbg !12154
  %5 = load %"struct.boost::detail::function::vtable_base"** %vtable, align 8, !dbg !12154
  %6 = bitcast %"class.boost::function1"* %this1 to %"class.boost::function_base"*, !dbg !12155
  %vtable3 = getelementptr inbounds %"class.boost::function_base"* %6, i32 0, i32 0, !dbg !12156
  store %"struct.boost::detail::function::vtable_base"* %5, %"struct.boost::detail::function::vtable_base"** %vtable3, align 8, !dbg !12157
  %7 = bitcast %"class.boost::function1"* %this1 to %"class.boost::function_base"*, !dbg !12158
  %call5 = invoke zeroext i1 @_ZNK5boost13function_base28has_trivial_copy_and_destroyEv(%"class.boost::function_base"* %7)
          to label %invoke.cont4 unwind label %lpad, !dbg !12158

invoke.cont4:                                     ; preds = %if.then2
  br i1 %call5, label %if.then6, label %if.else, !dbg !12160

if.then6:                                         ; preds = %invoke.cont4
  %8 = bitcast %"class.boost::function1"* %this1 to %"class.boost::function_base"*, !dbg !12162
  %functor = getelementptr inbounds %"class.boost::function_base"* %8, i32 0, i32 1, !dbg !12163
  %9 = load %"class.boost::function1"** %f.addr, align 8, !dbg !12164
  %10 = bitcast %"class.boost::function1"* %9 to %"class.boost::function_base"*, !dbg !12164
  %functor7 = getelementptr inbounds %"class.boost::function_base"* %10, i32 0, i32 1, !dbg !12165
  %11 = bitcast %"union.boost::detail::function::function_buffer"* %functor to i8*, !dbg !12166
  %12 = bitcast %"union.boost::detail::function::function_buffer"* %functor7 to i8*, !dbg !12166
  call void @llvm.memcpy.p0i8.p0i8.i64(i8* %11, i8* %12, i64 24, i32 8, i1 false), !dbg !12166
  br label %if.end13, !dbg !12162

lpad:                                             ; preds = %if.else15, %invoke.cont8, %if.else, %if.then2, %if.end
  %13 = landingpad { i8*, i32 } personality i8* bitcast (i32 (...)* @__gxx_personality_v0 to i8*)
          catch i8* null, !dbg !12167
  %14 = extractvalue { i8*, i32 } %13, 0, !dbg !12167
  store i8* %14, i8** %exn.slot, !dbg !12167
  %15 = extractvalue { i8*, i32 } %13, 1, !dbg !12167
  store i32 %15, i32* %ehselector.slot, !dbg !12167
  br label %catch, !dbg !12167

catch:                                            ; preds = %lpad
  %exn = load i8** %exn.slot, !dbg !12168
  %16 = call i8* @__cxa_begin_catch(i8* %exn) #1, !dbg !12168
  %17 = bitcast %"class.boost::function1"* %this1 to %"class.boost::function_base"*, !dbg !12169
  %vtable18 = getelementptr inbounds %"class.boost::function_base"* %17, i32 0, i32 0, !dbg !12169
  store %"struct.boost::detail::function::vtable_base"* null, %"struct.boost::detail::function::vtable_base"** %vtable18, align 8, !dbg !12171
  invoke void @__cxa_rethrow() #17
          to label %unreachable unwind label %lpad19, !dbg !12172

if.else:                                          ; preds = %invoke.cont4
  %call9 = invoke %"struct.boost::detail::function::basic_vtable1"* @_ZNK5boost9function1IvRKN3ros25SingleSubscriberPublisherEE10get_vtableEv(%"class.boost::function1"* %this1)
          to label %invoke.cont8 unwind label %lpad, !dbg !12173

invoke.cont8:                                     ; preds = %if.else
  %base = getelementptr inbounds %"struct.boost::detail::function::basic_vtable1"* %call9, i32 0, i32 0, !dbg !12174
  %manager = getelementptr inbounds %"struct.boost::detail::function::vtable_base"* %base, i32 0, i32 0, !dbg !12176
  %18 = load void (%"union.boost::detail::function::function_buffer"*, %"union.boost::detail::function::function_buffer"*, i32)** %manager, align 8, !dbg !12176
  %19 = load %"class.boost::function1"** %f.addr, align 8, !dbg !12177
  %20 = bitcast %"class.boost::function1"* %19 to %"class.boost::function_base"*, !dbg !12177
  %functor10 = getelementptr inbounds %"class.boost::function_base"* %20, i32 0, i32 1, !dbg !12178
  %21 = bitcast %"class.boost::function1"* %this1 to %"class.boost::function_base"*, !dbg !12179
  %functor11 = getelementptr inbounds %"class.boost::function_base"* %21, i32 0, i32 1, !dbg !12180
  invoke void %18(%"union.boost::detail::function::function_buffer"* dereferenceable(24) %functor10, %"union.boost::detail::function::function_buffer"* dereferenceable(24) %functor11, i32 1)
          to label %invoke.cont12 unwind label %lpad, !dbg !12173

invoke.cont12:                                    ; preds = %invoke.cont8
  br label %if.end13

if.end13:                                         ; preds = %invoke.cont12, %if.then6
  %22 = load %"class.boost::function1"** %f.addr, align 8, !dbg !12181
  %23 = bitcast %"class.boost::function1"* %22 to %"class.boost::function_base"*, !dbg !12181
  %vtable14 = getelementptr inbounds %"class.boost::function_base"* %23, i32 0, i32 0, !dbg !12182
  store %"struct.boost::detail::function::vtable_base"* null, %"struct.boost::detail::function::vtable_base"** %vtable14, align 8, !dbg !12183
  br label %if.end17, !dbg !12184

if.else15:                                        ; preds = %invoke.cont
  invoke void @_ZN5boost9function1IvRKN3ros25SingleSubscriberPublisherEE5clearEv(%"class.boost::function1"* %this1)
          to label %invoke.cont16 unwind label %lpad, !dbg !12185

invoke.cont16:                                    ; preds = %if.else15
  br label %if.end17

if.end17:                                         ; preds = %invoke.cont16, %if.end13
  br label %try.cont, !dbg !12168

lpad19:                                           ; preds = %catch
  %24 = landingpad { i8*, i32 } personality i8* bitcast (i32 (...)* @__gxx_personality_v0 to i8*)
          cleanup, !dbg !12187
  %25 = extractvalue { i8*, i32 } %24, 0, !dbg !12187
  store i8* %25, i8** %exn.slot, !dbg !12187
  %26 = extractvalue { i8*, i32 } %24, 1, !dbg !12187
  store i32 %26, i32* %ehselector.slot, !dbg !12187
  invoke void @__cxa_end_catch()
          to label %invoke.cont20 unwind label %terminate.lpad, !dbg !12188

invoke.cont20:                                    ; preds = %lpad19
  br label %eh.resume, !dbg !12189

try.cont:                                         ; preds = %if.then, %if.end17
  ret void, !dbg !12191

eh.resume:                                        ; preds = %invoke.cont20
  %exn21 = load i8** %exn.slot, !dbg !12192
  %sel = load i32* %ehselector.slot, !dbg !12192
  %lpad.val = insertvalue { i8*, i32 } undef, i8* %exn21, 0, !dbg !12192
  %lpad.val22 = insertvalue { i8*, i32 } %lpad.val, i32 %sel, 1, !dbg !12192
  resume { i8*, i32 } %lpad.val22, !dbg !12192

terminate.lpad:                                   ; preds = %lpad19
  %27 = landingpad { i8*, i32 } personality i8* bitcast (i32 (...)* @__gxx_personality_v0 to i8*)
          catch i8* null, !dbg !12194
  %28 = extractvalue { i8*, i32 } %27, 0, !dbg !12194
  call void @__clang_call_terminate(i8* %28) #15, !dbg !12194
  unreachable, !dbg !12194

unreachable:                                      ; preds = %catch
  unreachable
}

; Function Attrs: uwtable
define linkonce_odr void @_ZN5boost9function1IvRKN3ros25SingleSubscriberPublisherEED2Ev(%"class.boost::function1"* %this) unnamed_addr #3 comdat align 2 {
entry:
  %this.addr = alloca %"class.boost::function1"*, align 8
  store %"class.boost::function1"* %this, %"class.boost::function1"** %this.addr, align 8
  call void @llvm.dbg.declare(metadata %"class.boost::function1"** %this.addr, metadata !12196, metadata !9990), !dbg !12197
  %this1 = load %"class.boost::function1"** %this.addr
  call void @_ZN5boost9function1IvRKN3ros25SingleSubscriberPublisherEE5clearEv(%"class.boost::function1"* %this1), !dbg !12198
  ret void, !dbg !12200
}

; Function Attrs: uwtable
define linkonce_odr void @_ZN5boost9function1IvRKN3ros25SingleSubscriberPublisherEE5clearEv(%"class.boost::function1"* %this) #3 comdat align 2 {
entry:
  %this.addr = alloca %"class.boost::function1"*, align 8
  store %"class.boost::function1"* %this, %"class.boost::function1"** %this.addr, align 8
  call void @llvm.dbg.declare(metadata %"class.boost::function1"** %this.addr, metadata !12201, metadata !9990), !dbg !12202
  %this1 = load %"class.boost::function1"** %this.addr
  %0 = bitcast %"class.boost::function1"* %this1 to %"class.boost::function_base"*, !dbg !12203
  %vtable = getelementptr inbounds %"class.boost::function_base"* %0, i32 0, i32 0, !dbg !12203
  %1 = load %"struct.boost::detail::function::vtable_base"** %vtable, align 8, !dbg !12203
  %tobool = icmp ne %"struct.boost::detail::function::vtable_base"* %1, null, !dbg !12203
  br i1 %tobool, label %if.then, label %if.end5, !dbg !12205

if.then:                                          ; preds = %entry
  %2 = bitcast %"class.boost::function1"* %this1 to %"class.boost::function_base"*, !dbg !12206
  %call = call zeroext i1 @_ZNK5boost13function_base28has_trivial_copy_and_destroyEv(%"class.boost::function_base"* %2), !dbg !12206
  br i1 %call, label %if.end, label %if.then2, !dbg !12209

if.then2:                                         ; preds = %if.then
  %call3 = call %"struct.boost::detail::function::basic_vtable1"* @_ZNK5boost9function1IvRKN3ros25SingleSubscriberPublisherEE10get_vtableEv(%"class.boost::function1"* %this1), !dbg !12210
  %3 = bitcast %"class.boost::function1"* %this1 to %"class.boost::function_base"*, !dbg !12211
  %functor = getelementptr inbounds %"class.boost::function_base"* %3, i32 0, i32 1, !dbg !12212
  call void @_ZN5boost6detail8function13basic_vtable1IvRKN3ros25SingleSubscriberPublisherEE5clearERNS1_15function_bufferE(%"struct.boost::detail::function::basic_vtable1"* %call3, %"union.boost::detail::function::function_buffer"* dereferenceable(24) %functor), !dbg !12210
  br label %if.end, !dbg !12210

if.end:                                           ; preds = %if.then2, %if.then
  %4 = bitcast %"class.boost::function1"* %this1 to %"class.boost::function_base"*, !dbg !12213
  %vtable4 = getelementptr inbounds %"class.boost::function_base"* %4, i32 0, i32 0, !dbg !12213
  store %"struct.boost::detail::function::vtable_base"* null, %"struct.boost::detail::function::vtable_base"** %vtable4, align 8, !dbg !12214
  br label %if.end5, !dbg !12215

if.end5:                                          ; preds = %if.end, %entry
  ret void, !dbg !12216
}

declare void @__cxa_rethrow()

declare void @__cxa_end_catch()

; Function Attrs: uwtable
define linkonce_odr void @_ZN5boost6detail8function13basic_vtable1IvRKN3ros25SingleSubscriberPublisherEE5clearERNS1_15function_bufferE(%"struct.boost::detail::function::basic_vtable1"* %this, %"union.boost::detail::function::function_buffer"* dereferenceable(24) %functor) #3 comdat align 2 {
entry:
  %this.addr = alloca %"struct.boost::detail::function::basic_vtable1"*, align 8
  %functor.addr = alloca %"union.boost::detail::function::function_buffer"*, align 8
  store %"struct.boost::detail::function::basic_vtable1"* %this, %"struct.boost::detail::function::basic_vtable1"** %this.addr, align 8
  call void @llvm.dbg.declare(metadata %"struct.boost::detail::function::basic_vtable1"** %this.addr, metadata !12217, metadata !9990), !dbg !12219
  store %"union.boost::detail::function::function_buffer"* %functor, %"union.boost::detail::function::function_buffer"** %functor.addr, align 8
  call void @llvm.dbg.declare(metadata %"union.boost::detail::function::function_buffer"** %functor.addr, metadata !12220, metadata !9990), !dbg !12221
  %this1 = load %"struct.boost::detail::function::basic_vtable1"** %this.addr
  %base = getelementptr inbounds %"struct.boost::detail::function::basic_vtable1"* %this1, i32 0, i32 0, !dbg !12222
  %manager = getelementptr inbounds %"struct.boost::detail::function::vtable_base"* %base, i32 0, i32 0, !dbg !12224
  %0 = load void (%"union.boost::detail::function::function_buffer"*, %"union.boost::detail::function::function_buffer"*, i32)** %manager, align 8, !dbg !12224
  %tobool = icmp ne void (%"union.boost::detail::function::function_buffer"*, %"union.boost::detail::function::function_buffer"*, i32)* %0, null, !dbg !12222
  br i1 %tobool, label %if.then, label %if.end, !dbg !12225

if.then:                                          ; preds = %entry
  %base2 = getelementptr inbounds %"struct.boost::detail::function::basic_vtable1"* %this1, i32 0, i32 0, !dbg !12226
  %manager3 = getelementptr inbounds %"struct.boost::detail::function::vtable_base"* %base2, i32 0, i32 0, !dbg !12227
  %1 = load void (%"union.boost::detail::function::function_buffer"*, %"union.boost::detail::function::function_buffer"*, i32)** %manager3, align 8, !dbg !12227
  %2 = load %"union.boost::detail::function::function_buffer"** %functor.addr, align 8, !dbg !12228
  %3 = load %"union.boost::detail::function::function_buffer"** %functor.addr, align 8, !dbg !12229
  call void %1(%"union.boost::detail::function::function_buffer"* dereferenceable(24) %2, %"union.boost::detail::function::function_buffer"* dereferenceable(24) %3, i32 2), !dbg !12226
  br label %if.end, !dbg !12226

if.end:                                           ; preds = %if.then, %entry
  ret void, !dbg !12230
}

; Function Attrs: nounwind uwtable
define linkonce_odr i8* @_ZN3ros14message_traits6MD5SumIN8std_msgs7String_ISaIvEEEE5valueEv() #2 comdat align 2 {
entry:
  ret i8* getelementptr inbounds ([33 x i8]* @.str20, i32 0, i32 0), !dbg !12231
}

; Function Attrs: nounwind uwtable
define linkonce_odr i8* @_ZN3ros14message_traits8DataTypeIN8std_msgs7String_ISaIvEEEE5valueEv() #2 comdat align 2 {
entry:
  ret i8* getelementptr inbounds ([16 x i8]* @.str21, i32 0, i32 0), !dbg !12232
}

; Function Attrs: nounwind uwtable
define linkonce_odr i8* @_ZN3ros14message_traits10DefinitionIN8std_msgs7String_ISaIvEEEE5valueEv() #2 comdat align 2 {
entry:
  ret i8* getelementptr inbounds ([13 x i8]* @.str22, i32 0, i32 0), !dbg !12233
}

; Function Attrs: inlinehint uwtable
define linkonce_odr void @_ZN5boost10shared_ptrIKvED2Ev(%"class.boost::shared_ptr.40"* %this) unnamed_addr #6 comdat align 2 {
entry:
  %this.addr = alloca %"class.boost::shared_ptr.40"*, align 8
  store %"class.boost::shared_ptr.40"* %this, %"class.boost::shared_ptr.40"** %this.addr, align 8
  call void @llvm.dbg.declare(metadata %"class.boost::shared_ptr.40"** %this.addr, metadata !12234, metadata !9990), !dbg !12235
  %this1 = load %"class.boost::shared_ptr.40"** %this.addr
  %pn = getelementptr inbounds %"class.boost::shared_ptr.40"* %this1, i32 0, i32 1, !dbg !12236
  call void @_ZN5boost6detail12shared_countD2Ev(%"class.boost::detail::shared_count"* %pn), !dbg !12236
  ret void, !dbg !12238
}

; Function Attrs: uwtable
define linkonce_odr void @_ZN3ros16SubscribeOptionsC2Ev(%"struct.ros::SubscribeOptions"* %this) unnamed_addr #3 comdat align 2 {
entry:
  %this.addr = alloca %"struct.ros::SubscribeOptions"*, align 8
  %exn.slot = alloca i8*
  %ehselector.slot = alloca i32
  store %"struct.ros::SubscribeOptions"* %this, %"struct.ros::SubscribeOptions"** %this.addr, align 8
  call void @llvm.dbg.declare(metadata %"struct.ros::SubscribeOptions"** %this.addr, metadata !12239, metadata !9990), !dbg !12241
  %this1 = load %"struct.ros::SubscribeOptions"** %this.addr
  %topic = getelementptr inbounds %"struct.ros::SubscribeOptions"* %this1, i32 0, i32 0, !dbg !12242
  call void @_ZNSsC1Ev(%"class.std::basic_string"* %topic), !dbg !12242
  %queue_size = getelementptr inbounds %"struct.ros::SubscribeOptions"* %this1, i32 0, i32 1, !dbg !12243
  store i32 1, i32* %queue_size, align 4, !dbg !12243
  %md5sum = getelementptr inbounds %"struct.ros::SubscribeOptions"* %this1, i32 0, i32 2, !dbg !12242
  invoke void @_ZNSsC1Ev(%"class.std::basic_string"* %md5sum)
          to label %invoke.cont unwind label %lpad, !dbg !12242

invoke.cont:                                      ; preds = %entry
  %datatype = getelementptr inbounds %"struct.ros::SubscribeOptions"* %this1, i32 0, i32 3, !dbg !12244
  invoke void @_ZNSsC1Ev(%"class.std::basic_string"* %datatype)
          to label %invoke.cont3 unwind label %lpad2, !dbg !12244

invoke.cont3:                                     ; preds = %invoke.cont
  %helper = getelementptr inbounds %"struct.ros::SubscribeOptions"* %this1, i32 0, i32 4, !dbg !12246
  invoke void @_ZN5boost10shared_ptrIN3ros26SubscriptionCallbackHelperEEC2Ev(%"class.boost::shared_ptr.20"* %helper)
          to label %invoke.cont5 unwind label %lpad4, !dbg !12246

invoke.cont5:                                     ; preds = %invoke.cont3
  %callback_queue = getelementptr inbounds %"struct.ros::SubscribeOptions"* %this1, i32 0, i32 5, !dbg !12248
  store %"class.ros::CallbackQueueInterface"* null, %"class.ros::CallbackQueueInterface"** %callback_queue, align 8, !dbg !12248
  %allow_concurrent_callbacks = getelementptr inbounds %"struct.ros::SubscribeOptions"* %this1, i32 0, i32 6, !dbg !12249
  store i8 0, i8* %allow_concurrent_callbacks, align 1, !dbg !12249
  %tracked_object = getelementptr inbounds %"struct.ros::SubscribeOptions"* %this1, i32 0, i32 7, !dbg !12242
  invoke void @_ZN5boost10shared_ptrIKvEC2Ev(%"class.boost::shared_ptr.40"* %tracked_object)
          to label %invoke.cont7 unwind label %lpad6, !dbg !12242

invoke.cont7:                                     ; preds = %invoke.cont5
  %transport_hints = getelementptr inbounds %"struct.ros::SubscribeOptions"* %this1, i32 0, i32 8, !dbg !12250
  invoke void @_ZN3ros14TransportHintsC2Ev(%"class.ros::TransportHints"* %transport_hints)
          to label %invoke.cont9 unwind label %lpad8, !dbg !12250

invoke.cont9:                                     ; preds = %invoke.cont7
  ret void, !dbg !12252

lpad:                                             ; preds = %entry
  %0 = landingpad { i8*, i32 } personality i8* bitcast (i32 (...)* @__gxx_personality_v0 to i8*)
          cleanup, !dbg !12252
  %1 = extractvalue { i8*, i32 } %0, 0, !dbg !12252
  store i8* %1, i8** %exn.slot, !dbg !12252
  %2 = extractvalue { i8*, i32 } %0, 1, !dbg !12252
  store i32 %2, i32* %ehselector.slot, !dbg !12252
  br label %ehcleanup16, !dbg !12252

lpad2:                                            ; preds = %invoke.cont
  %3 = landingpad { i8*, i32 } personality i8* bitcast (i32 (...)* @__gxx_personality_v0 to i8*)
          cleanup, !dbg !12252
  %4 = extractvalue { i8*, i32 } %3, 0, !dbg !12252
  store i8* %4, i8** %exn.slot, !dbg !12252
  %5 = extractvalue { i8*, i32 } %3, 1, !dbg !12252
  store i32 %5, i32* %ehselector.slot, !dbg !12252
  br label %ehcleanup14, !dbg !12252

lpad4:                                            ; preds = %invoke.cont3
  %6 = landingpad { i8*, i32 } personality i8* bitcast (i32 (...)* @__gxx_personality_v0 to i8*)
          cleanup, !dbg !12252
  %7 = extractvalue { i8*, i32 } %6, 0, !dbg !12252
  store i8* %7, i8** %exn.slot, !dbg !12252
  %8 = extractvalue { i8*, i32 } %6, 1, !dbg !12252
  store i32 %8, i32* %ehselector.slot, !dbg !12252
  br label %ehcleanup12, !dbg !12252

lpad6:                                            ; preds = %invoke.cont5
  %9 = landingpad { i8*, i32 } personality i8* bitcast (i32 (...)* @__gxx_personality_v0 to i8*)
          cleanup, !dbg !12252
  %10 = extractvalue { i8*, i32 } %9, 0, !dbg !12252
  store i8* %10, i8** %exn.slot, !dbg !12252
  %11 = extractvalue { i8*, i32 } %9, 1, !dbg !12252
  store i32 %11, i32* %ehselector.slot, !dbg !12252
  br label %ehcleanup, !dbg !12252

lpad8:                                            ; preds = %invoke.cont7
  %12 = landingpad { i8*, i32 } personality i8* bitcast (i32 (...)* @__gxx_personality_v0 to i8*)
          cleanup, !dbg !12252
  %13 = extractvalue { i8*, i32 } %12, 0, !dbg !12252
  store i8* %13, i8** %exn.slot, !dbg !12252
  %14 = extractvalue { i8*, i32 } %12, 1, !dbg !12252
  store i32 %14, i32* %ehselector.slot, !dbg !12252
  invoke void @_ZN5boost10shared_ptrIKvED2Ev(%"class.boost::shared_ptr.40"* %tracked_object)
          to label %invoke.cont10 unwind label %terminate.lpad, !dbg !12253

invoke.cont10:                                    ; preds = %lpad8
  br label %ehcleanup, !dbg !12255

ehcleanup:                                        ; preds = %invoke.cont10, %lpad6
  invoke void @_ZN5boost10shared_ptrIN3ros26SubscriptionCallbackHelperEED2Ev(%"class.boost::shared_ptr.20"* %helper)
          to label %invoke.cont11 unwind label %terminate.lpad, !dbg !12257

invoke.cont11:                                    ; preds = %ehcleanup
  br label %ehcleanup12, !dbg !12260

ehcleanup12:                                      ; preds = %invoke.cont11, %lpad4
  invoke void @_ZNSsD1Ev(%"class.std::basic_string"* %datatype)
          to label %invoke.cont13 unwind label %terminate.lpad, !dbg !12262

invoke.cont13:                                    ; preds = %ehcleanup12
  br label %ehcleanup14, !dbg !12265

ehcleanup14:                                      ; preds = %invoke.cont13, %lpad2
  invoke void @_ZNSsD1Ev(%"class.std::basic_string"* %md5sum)
          to label %invoke.cont15 unwind label %terminate.lpad, !dbg !12267

invoke.cont15:                                    ; preds = %ehcleanup14
  br label %ehcleanup16, !dbg !12270

ehcleanup16:                                      ; preds = %invoke.cont15, %lpad
  invoke void @_ZNSsD1Ev(%"class.std::basic_string"* %topic)
          to label %invoke.cont17 unwind label %terminate.lpad, !dbg !12272

invoke.cont17:                                    ; preds = %ehcleanup16
  br label %eh.resume, !dbg !12275

eh.resume:                                        ; preds = %invoke.cont17
  %exn = load i8** %exn.slot, !dbg !12277
  %sel = load i32* %ehselector.slot, !dbg !12277
  %lpad.val = insertvalue { i8*, i32 } undef, i8* %exn, 0, !dbg !12277
  %lpad.val18 = insertvalue { i8*, i32 } %lpad.val, i32 %sel, 1, !dbg !12277
  resume { i8*, i32 } %lpad.val18, !dbg !12277

terminate.lpad:                                   ; preds = %ehcleanup16, %ehcleanup14, %ehcleanup12, %ehcleanup, %lpad8
  %15 = landingpad { i8*, i32 } personality i8* bitcast (i32 (...)* @__gxx_personality_v0 to i8*)
          catch i8* null, !dbg !12279
  %16 = extractvalue { i8*, i32 } %15, 0, !dbg !12279
  call void @__clang_call_terminate(i8* %16) #15, !dbg !12279
  unreachable, !dbg !12279
}

; Function Attrs: uwtable
define linkonce_odr void @_ZN3ros16SubscribeOptions4initIN8std_msgs8Float64_ISaIvEEEEEvRKSsjRKN5boost8functionIFvRKNS8_10shared_ptrIKT_EEEEERKNS9_IFNSA_ISB_EEvEEE(%"struct.ros::SubscribeOptions"* %this, %"class.std::basic_string"* dereferenceable(8) %_topic, i32 %_queue_size, %"class.boost::function.42"* dereferenceable(32) %_callback, %"class.boost::function.45"* dereferenceable(32) %factory_fn) #3 comdat align 2 {
entry:
  %this.addr = alloca %"struct.ros::SubscribeOptions"*, align 8
  %_topic.addr = alloca %"class.std::basic_string"*, align 8
  %_queue_size.addr = alloca i32, align 4
  %_callback.addr = alloca %"class.boost::function.42"*, align 8
  %factory_fn.addr = alloca %"class.boost::function.45"*, align 8
  %ref.tmp = alloca %"class.boost::shared_ptr.20", align 8
  %ref.tmp7 = alloca %"class.boost::function.46", align 8
  %agg.tmp = alloca %"class.boost::function.42", align 8
  %exn.slot = alloca i8*
  %ehselector.slot = alloca i32
  %cleanup.isactive = alloca i1
  store %"struct.ros::SubscribeOptions"* %this, %"struct.ros::SubscribeOptions"** %this.addr, align 8
  call void @llvm.dbg.declare(metadata %"struct.ros::SubscribeOptions"** %this.addr, metadata !12285, metadata !9990), !dbg !12286
  store %"class.std::basic_string"* %_topic, %"class.std::basic_string"** %_topic.addr, align 8
  call void @llvm.dbg.declare(metadata %"class.std::basic_string"** %_topic.addr, metadata !12287, metadata !9990), !dbg !12289
  store i32 %_queue_size, i32* %_queue_size.addr, align 4
  call void @llvm.dbg.declare(metadata i32* %_queue_size.addr, metadata !12290, metadata !9990), !dbg !12291
  store %"class.boost::function.42"* %_callback, %"class.boost::function.42"** %_callback.addr, align 8
  call void @llvm.dbg.declare(metadata %"class.boost::function.42"** %_callback.addr, metadata !12292, metadata !9990), !dbg !12293
  store %"class.boost::function.45"* %factory_fn, %"class.boost::function.45"** %factory_fn.addr, align 8
  call void @llvm.dbg.declare(metadata %"class.boost::function.45"** %factory_fn.addr, metadata !12294, metadata !9990), !dbg !12295
  %this1 = load %"struct.ros::SubscribeOptions"** %this.addr
  %topic = getelementptr inbounds %"struct.ros::SubscribeOptions"* %this1, i32 0, i32 0, !dbg !12296
  %0 = load %"class.std::basic_string"** %_topic.addr, align 8, !dbg !12297
  %call = call dereferenceable(8) %"class.std::basic_string"* @_ZNSsaSERKSs(%"class.std::basic_string"* %topic, %"class.std::basic_string"* dereferenceable(8) %0), !dbg !12298
  %1 = load i32* %_queue_size.addr, align 4, !dbg !12299
  %queue_size = getelementptr inbounds %"struct.ros::SubscribeOptions"* %this1, i32 0, i32 1, !dbg !12300
  store i32 %1, i32* %queue_size, align 4, !dbg !12301
  %md5sum = getelementptr inbounds %"struct.ros::SubscribeOptions"* %this1, i32 0, i32 2, !dbg !12302
  %call2 = call i8* @_ZN3ros14message_traits6md5sumIN8std_msgs8Float64_ISaIvEEEEEPKcv(), !dbg !12303
  %call3 = call dereferenceable(8) %"class.std::basic_string"* @_ZNSsaSEPKc(%"class.std::basic_string"* %md5sum, i8* %call2), !dbg !12304
  %datatype = getelementptr inbounds %"struct.ros::SubscribeOptions"* %this1, i32 0, i32 3, !dbg !12305
  %call4 = call i8* @_ZN3ros14message_traits8datatypeIN8std_msgs8Float64_ISaIvEEEEEPKcv(), !dbg !12306
  %call5 = call dereferenceable(8) %"class.std::basic_string"* @_ZNSsaSEPKc(%"class.std::basic_string"* %datatype, i8* %call4), !dbg !12307
  %helper = getelementptr inbounds %"struct.ros::SubscribeOptions"* %this1, i32 0, i32 4, !dbg !12308
  %call6 = call noalias i8* @_Znwm(i64 72) #18, !dbg !12309
  store i1 true, i1* %cleanup.isactive
  %2 = bitcast i8* %call6 to %"class.ros::SubscriptionCallbackHelperT"*, !dbg !12309
  %3 = load %"class.boost::function.42"** %_callback.addr, align 8, !dbg !12310
  invoke void @_ZN5boost8functionIFvRKNS_10shared_ptrIKN8std_msgs8Float64_ISaIvEEEEEEEC2ERKSB_(%"class.boost::function.42"* %agg.tmp, %"class.boost::function.42"* dereferenceable(32) %3)
          to label %invoke.cont unwind label %lpad, !dbg !12310

invoke.cont:                                      ; preds = %entry
  invoke void @_ZN5boost8functionIFvNS_10shared_ptrIKN8std_msgs8Float64_ISaIvEEEEEEEC2INS0_IFvRKS7_EEEEET_NS_11enable_if_cIXsr5boost11type_traits7ice_notIXsr11is_integralISF_EE5valueEEE5valueEiE4typeE(%"class.boost::function.46"* %ref.tmp7, %"class.boost::function.42"* %agg.tmp, i32 0)
          to label %invoke.cont9 unwind label %lpad8, !dbg !12311

invoke.cont9:                                     ; preds = %invoke.cont
  %4 = load %"class.boost::function.45"** %factory_fn.addr, align 8, !dbg !12313
  invoke void @_ZN3ros27SubscriptionCallbackHelperTIRKN5boost10shared_ptrIKN8std_msgs8Float64_ISaIvEEEEEvEC2ERKNS1_8functionIFvS8_EEERKNSC_IFNS2_IS6_EEvEEE(%"class.ros::SubscriptionCallbackHelperT"* %2, %"class.boost::function.46"* dereferenceable(32) %ref.tmp7, %"class.boost::function.45"* dereferenceable(32) %4)
          to label %invoke.cont11 unwind label %lpad10, !dbg !12315

invoke.cont11:                                    ; preds = %invoke.cont9
  store i1 false, i1* %cleanup.isactive, !dbg !12316
  invoke void @_ZN5boost10shared_ptrIN3ros26SubscriptionCallbackHelperEEC2INS1_27SubscriptionCallbackHelperTIRKNS0_IKN8std_msgs8Float64_ISaIvEEEEEvEEEEPT_(%"class.boost::shared_ptr.20"* %ref.tmp, %"class.ros::SubscriptionCallbackHelperT"* %2)
          to label %invoke.cont12 unwind label %lpad10, !dbg !12318

invoke.cont12:                                    ; preds = %invoke.cont11
  %call15 = invoke dereferenceable(16) %"class.boost::shared_ptr.20"* @_ZN5boost10shared_ptrIN3ros26SubscriptionCallbackHelperEEaSERKS3_(%"class.boost::shared_ptr.20"* %helper, %"class.boost::shared_ptr.20"* dereferenceable(16) %ref.tmp)
          to label %invoke.cont14 unwind label %lpad13, !dbg !12319

invoke.cont14:                                    ; preds = %invoke.cont12
  invoke void @_ZN5boost10shared_ptrIN3ros26SubscriptionCallbackHelperEED2Ev(%"class.boost::shared_ptr.20"* %ref.tmp)
          to label %invoke.cont16 unwind label %lpad10, !dbg !12321

invoke.cont16:                                    ; preds = %invoke.cont14
  invoke void @_ZN5boost8functionIFvNS_10shared_ptrIKN8std_msgs8Float64_ISaIvEEEEEEED2Ev(%"class.boost::function.46"* %ref.tmp7)
          to label %invoke.cont18 unwind label %lpad8, !dbg !12323

invoke.cont18:                                    ; preds = %invoke.cont16
  invoke void @_ZN5boost8functionIFvRKNS_10shared_ptrIKN8std_msgs8Float64_ISaIvEEEEEEED2Ev(%"class.boost::function.42"* %agg.tmp)
          to label %invoke.cont20 unwind label %lpad, !dbg !12325

invoke.cont20:                                    ; preds = %invoke.cont18
  ret void, !dbg !12327

lpad:                                             ; preds = %invoke.cont18, %entry
  %5 = landingpad { i8*, i32 } personality i8* bitcast (i32 (...)* @__gxx_personality_v0 to i8*)
          cleanup, !dbg !12327
  %6 = extractvalue { i8*, i32 } %5, 0, !dbg !12327
  store i8* %6, i8** %exn.slot, !dbg !12327
  %7 = extractvalue { i8*, i32 } %5, 1, !dbg !12327
  store i32 %7, i32* %ehselector.slot, !dbg !12327
  br label %ehcleanup23, !dbg !12327

lpad8:                                            ; preds = %invoke.cont16, %invoke.cont
  %8 = landingpad { i8*, i32 } personality i8* bitcast (i32 (...)* @__gxx_personality_v0 to i8*)
          cleanup, !dbg !12327
  %9 = extractvalue { i8*, i32 } %8, 0, !dbg !12327
  store i8* %9, i8** %exn.slot, !dbg !12327
  %10 = extractvalue { i8*, i32 } %8, 1, !dbg !12327
  store i32 %10, i32* %ehselector.slot, !dbg !12327
  br label %ehcleanup21, !dbg !12327

lpad10:                                           ; preds = %invoke.cont14, %invoke.cont11, %invoke.cont9
  %11 = landingpad { i8*, i32 } personality i8* bitcast (i32 (...)* @__gxx_personality_v0 to i8*)
          cleanup, !dbg !12327
  %12 = extractvalue { i8*, i32 } %11, 0, !dbg !12327
  store i8* %12, i8** %exn.slot, !dbg !12327
  %13 = extractvalue { i8*, i32 } %11, 1, !dbg !12327
  store i32 %13, i32* %ehselector.slot, !dbg !12327
  br label %ehcleanup, !dbg !12327

lpad13:                                           ; preds = %invoke.cont12
  %14 = landingpad { i8*, i32 } personality i8* bitcast (i32 (...)* @__gxx_personality_v0 to i8*)
          cleanup, !dbg !12327
  %15 = extractvalue { i8*, i32 } %14, 0, !dbg !12327
  store i8* %15, i8** %exn.slot, !dbg !12327
  %16 = extractvalue { i8*, i32 } %14, 1, !dbg !12327
  store i32 %16, i32* %ehselector.slot, !dbg !12327
  invoke void @_ZN5boost10shared_ptrIN3ros26SubscriptionCallbackHelperEED2Ev(%"class.boost::shared_ptr.20"* %ref.tmp)
          to label %invoke.cont17 unwind label %terminate.lpad, !dbg !12308

invoke.cont17:                                    ; preds = %lpad13
  br label %ehcleanup, !dbg !12328

ehcleanup:                                        ; preds = %invoke.cont17, %lpad10
  invoke void @_ZN5boost8functionIFvNS_10shared_ptrIKN8std_msgs8Float64_ISaIvEEEEEEED2Ev(%"class.boost::function.46"* %ref.tmp7)
          to label %invoke.cont19 unwind label %terminate.lpad, !dbg !12330

invoke.cont19:                                    ; preds = %ehcleanup
  br label %ehcleanup21, !dbg !12332

ehcleanup21:                                      ; preds = %invoke.cont19, %lpad8
  invoke void @_ZN5boost8functionIFvRKNS_10shared_ptrIKN8std_msgs8Float64_ISaIvEEEEEEED2Ev(%"class.boost::function.42"* %agg.tmp)
          to label %invoke.cont22 unwind label %terminate.lpad, !dbg !12334

invoke.cont22:                                    ; preds = %ehcleanup21
  br label %ehcleanup23, !dbg !12336

ehcleanup23:                                      ; preds = %invoke.cont22, %lpad
  %cleanup.is_active = load i1* %cleanup.isactive, !dbg !12338
  br i1 %cleanup.is_active, label %cleanup.action, label %cleanup.done, !dbg !12338

cleanup.action:                                   ; preds = %ehcleanup23
  call void @_ZdlPv(i8* %call6) #19, !dbg !12340
  br label %cleanup.done, !dbg !12340

cleanup.done:                                     ; preds = %cleanup.action, %ehcleanup23
  br label %eh.resume, !dbg !12342

eh.resume:                                        ; preds = %cleanup.done
  %exn = load i8** %exn.slot, !dbg !12345
  %sel = load i32* %ehselector.slot, !dbg !12345
  %lpad.val = insertvalue { i8*, i32 } undef, i8* %exn, 0, !dbg !12345
  %lpad.val24 = insertvalue { i8*, i32 } %lpad.val, i32 %sel, 1, !dbg !12345
  resume { i8*, i32 } %lpad.val24, !dbg !12345

terminate.lpad:                                   ; preds = %ehcleanup21, %ehcleanup, %lpad13
  %17 = landingpad { i8*, i32 } personality i8* bitcast (i32 (...)* @__gxx_personality_v0 to i8*)
          catch i8* null, !dbg !12347
  %18 = extractvalue { i8*, i32 } %17, 0, !dbg !12347
  call void @__clang_call_terminate(i8* %18) #15, !dbg !12347
  unreachable, !dbg !12347
}

; Function Attrs: uwtable
define linkonce_odr void @_ZN5boost4bindIv4TestRKNS_10shared_ptrIKN8std_msgs8Float64_ISaIvEEEEEPS1_NS_3argILi1EEEEENS_3_bi6bind_tIT_NS_4_mfi3mf1ISG_T0_T1_EENSE_9list_av_2IT2_T3_E4typeEEEMSJ_FSG_SK_ESN_SO_(%"class.boost::_bi::bind_t"* noalias sret %agg.result, i64 %f.coerce0, i64 %f.coerce1, %class.Test* %a1) #3 comdat {
entry:
  %f = alloca { i64, i64 }, align 8
  %a2 = alloca %"struct.boost::arg", align 1
  %f.addr = alloca { i64, i64 }, align 8
  %a1.addr = alloca %class.Test*, align 8
  %agg.tmp = alloca %"class.boost::_mfi::mf1", align 8
  %coerce = alloca { i64, i64 }, align 8
  %ref.tmp = alloca %"class.boost::_bi::list2", align 8
  %agg.tmp2 = alloca %"class.boost::_bi::value", align 8
  %agg.tmp3 = alloca %"struct.boost::arg", align 1
  %0 = getelementptr { i64, i64 }* %f, i32 0, i32 0
  store i64 %f.coerce0, i64* %0
  %1 = getelementptr { i64, i64 }* %f, i32 0, i32 1
  store i64 %f.coerce1, i64* %1
  %f1 = load { i64, i64 }* %f, align 8
  store { i64, i64 } %f1, { i64, i64 }* %f.addr, align 8
  call void @llvm.dbg.declare(metadata { i64, i64 }* %f.addr, metadata !12351, metadata !9990), !dbg !12353
  store %class.Test* %a1, %class.Test** %a1.addr, align 8
  call void @llvm.dbg.declare(metadata %class.Test** %a1.addr, metadata !12354, metadata !9990), !dbg !12355
  call void @llvm.dbg.declare(metadata %"struct.boost::arg"* %a2, metadata !12356, metadata !9990), !dbg !12357
  %2 = load { i64, i64 }* %f.addr, align 8, !dbg !12358
  store { i64, i64 } %2, { i64, i64 }* %coerce, align 8, !dbg !12359
  %3 = getelementptr { i64, i64 }* %coerce, i32 0, i32 0, !dbg !12359
  %4 = load i64* %3, align 1, !dbg !12359
  %5 = getelementptr { i64, i64 }* %coerce, i32 0, i32 1, !dbg !12359
  %6 = load i64* %5, align 1, !dbg !12359
  call void @_ZN5boost4_mfi3mf1Iv4TestRKNS_10shared_ptrIKN8std_msgs8Float64_ISaIvEEEEEEC2EMS2_FvSB_E(%"class.boost::_mfi::mf1"* %agg.tmp, i64 %4, i64 %6), !dbg !12359
  call void @_ZN5boost3_bi5valueIP4TestEC2ERKS3_(%"class.boost::_bi::value"* %agg.tmp2, %class.Test** dereferenceable(8) %a1.addr), !dbg !12360
  %coerce.dive = getelementptr %"class.boost::_bi::value"* %agg.tmp2, i32 0, i32 0, !dbg !12361
  %7 = load %class.Test** %coerce.dive, !dbg !12361
  call void @_ZN5boost3_bi5list2INS0_5valueIP4TestEENS_3argILi1EEEEC2ES5_S7_(%"class.boost::_bi::list2"* %ref.tmp, %class.Test* %7), !dbg !12361
  %8 = bitcast %"class.boost::_mfi::mf1"* %agg.tmp to { i64, i64 }*, !dbg !12362
  %9 = getelementptr { i64, i64 }* %8, i32 0, i32 0, !dbg !12362
  %10 = load i64* %9, align 1, !dbg !12362
  %11 = getelementptr { i64, i64 }* %8, i32 0, i32 1, !dbg !12362
  %12 = load i64* %11, align 1, !dbg !12362
  call void @_ZN5boost3_bi6bind_tIvNS_4_mfi3mf1Iv4TestRKNS_10shared_ptrIKN8std_msgs8Float64_ISaIvEEEEEEENS0_5list2INS0_5valueIPS4_EENS_3argILi1EEEEEEC2ESE_RKSL_(%"class.boost::_bi::bind_t"* %agg.result, i64 %10, i64 %12, %"class.boost::_bi::list2"* dereferenceable(8) %ref.tmp), !dbg !12362
  ret void, !dbg !12363
}

; Function Attrs: uwtable
define linkonce_odr void @_ZN5boost8functionIFvRKNS_10shared_ptrIKN8std_msgs8Float64_ISaIvEEEEEEEC2INS_3_bi6bind_tIvNS_4_mfi3mf1Iv4TestS9_EENSD_5list2INSD_5valueIPSH_EENS_3argILi1EEEEEEEEET_NS_11enable_if_cIXsr5boost11type_traits7ice_notIXsr11is_integralISR_EE5valueEEE5valueEiE4typeE(%"class.boost::function.42"* %this, %"class.boost::_bi::bind_t"* byval align 8 %f, i32) unnamed_addr #3 comdat align 2 {
entry:
  %this.addr = alloca %"class.boost::function.42"*, align 8
  %.addr = alloca i32, align 4
  %agg.tmp = alloca %"class.boost::_bi::bind_t", align 8
  store %"class.boost::function.42"* %this, %"class.boost::function.42"** %this.addr, align 8
  call void @llvm.dbg.declare(metadata %"class.boost::function.42"** %this.addr, metadata !12364, metadata !9990), !dbg !12365
  call void @llvm.dbg.declare(metadata %"class.boost::_bi::bind_t"* %f, metadata !12366, metadata !9990), !dbg !12367
  store i32 %0, i32* %.addr, align 4
  call void @llvm.dbg.declare(metadata i32* %.addr, metadata !12368, metadata !9990), !dbg !12369
  %this1 = load %"class.boost::function.42"** %this.addr
  %1 = bitcast %"class.boost::function.42"* %this1 to %"class.boost::function1.43"*, !dbg !12370
  %2 = bitcast %"class.boost::_bi::bind_t"* %agg.tmp to i8*, !dbg !12371
  %3 = bitcast %"class.boost::_bi::bind_t"* %f to i8*, !dbg !12371
  call void @llvm.memcpy.p0i8.p0i8.i64(i8* %2, i8* %3, i64 24, i32 8, i1 false), !dbg !12371
  call void @_ZN5boost9function1IvRKNS_10shared_ptrIKN8std_msgs8Float64_ISaIvEEEEEEC2INS_3_bi6bind_tIvNS_4_mfi3mf1Iv4TestS9_EENSC_5list2INSC_5valueIPSG_EENS_3argILi1EEEEEEEEET_NS_11enable_if_cIXsr5boost11type_traits7ice_notIXsr11is_integralISQ_EE5valueEEE5valueEiE4typeE(%"class.boost::function1.43"* %1, %"class.boost::_bi::bind_t"* byval align 8 %agg.tmp, i32 0), !dbg !12372
  ret void, !dbg !12373
}

; Function Attrs: uwtable
define linkonce_odr void @_ZN5boost8functionIFNS_10shared_ptrIN8std_msgs8Float64_ISaIvEEEEEvEEC2IN3ros21DefaultMessageCreatorIS5_EEEET_NS_11enable_if_cIXsr5boost11type_traits7ice_notIXsr11is_integralISD_EE5valueEEE5valueEiE4typeE(%"class.boost::function.45"* %this, i32) unnamed_addr #3 comdat align 2 {
entry:
  %f = alloca %"struct.ros::DefaultMessageCreator", align 1
  %this.addr = alloca %"class.boost::function.45"*, align 8
  %.addr = alloca i32, align 4
  %agg.tmp = alloca %"struct.ros::DefaultMessageCreator", align 1
  store %"class.boost::function.45"* %this, %"class.boost::function.45"** %this.addr, align 8
  call void @llvm.dbg.declare(metadata %"class.boost::function.45"** %this.addr, metadata !12374, metadata !9990), !dbg !12376
  call void @llvm.dbg.declare(metadata %"struct.ros::DefaultMessageCreator"* %f, metadata !12377, metadata !9990), !dbg !12378
  store i32 %0, i32* %.addr, align 4
  call void @llvm.dbg.declare(metadata i32* %.addr, metadata !12379, metadata !9990), !dbg !12380
  %this1 = load %"class.boost::function.45"** %this.addr
  %1 = bitcast %"class.boost::function.45"* %this1 to %"class.boost::function0"*, !dbg !12381
  call void @_ZN5boost9function0INS_10shared_ptrIN8std_msgs8Float64_ISaIvEEEEEEC2IN3ros21DefaultMessageCreatorIS5_EEEET_NS_11enable_if_cIXsr5boost11type_traits7ice_notIXsr11is_integralISC_EE5valueEEE5valueEiE4typeE(%"class.boost::function0"* %1, i32 0), !dbg !12382
  ret void, !dbg !12383
}

; Function Attrs: inlinehint uwtable
define linkonce_odr void @_ZN5boost8functionIFNS_10shared_ptrIN8std_msgs8Float64_ISaIvEEEEEvEED2Ev(%"class.boost::function.45"* %this) unnamed_addr #6 comdat align 2 {
entry:
  %this.addr = alloca %"class.boost::function.45"*, align 8
  store %"class.boost::function.45"* %this, %"class.boost::function.45"** %this.addr, align 8
  call void @llvm.dbg.declare(metadata %"class.boost::function.45"** %this.addr, metadata !12384, metadata !9990), !dbg !12385
