; ModuleID = 'talker.cpp'
target datalayout = "e-m:e-i64:64-f80:128-n8:16:32:64-S128"
target triple = "x86_64-unknown-linux-gnu"

%"class.std::ios_base::Init" = type { i8 }
%"struct.boost::arg" = type { i8 }
%"struct.boost::arg.0" = type { i8 }
%"struct.boost::arg.2" = type { i8 }
%"struct.boost::arg.4" = type { i8 }
%"struct.boost::arg.6" = type { i8 }
%"struct.boost::arg.8" = type { i8 }
%"struct.boost::arg.10" = type { i8 }
%"struct.boost::arg.12" = type { i8 }
%"struct.boost::arg.14" = type { i8 }
%"struct.ros::console::LogLocation" = type { i8, i8, i32, %"class.log4cxx::Logger"* }
%"class.log4cxx::Logger" = type { %"class.log4cxx::spi::AppenderAttachable", %"class.log4cxx::helpers::Pool"*, %"class.std::basic_string", %"class.log4cxx::helpers::ObjectPtrT", %"class.log4cxx::helpers::ObjectPtrT.27", %"class.log4cxx::helpers::ObjectPtrT.28", %"class.log4cxx::spi::LoggerRepository"*, %"class.log4cxx::helpers::ObjectPtrT.29", i8, %"class.log4cxx::helpers::Mutex", %"class.log4cxx::helpers::ObjectImpl.base" }
%"class.log4cxx::spi::AppenderAttachable" = type { %"class.log4cxx::helpers::Object" }
%"class.log4cxx::helpers::Object" = type { i32 (...)** }
%"class.log4cxx::helpers::Pool" = type <{ %struct.apr_pool_t*, i8, [7 x i8] }>
%struct.apr_pool_t = type opaque
%"class.std::basic_string" = type { %"struct.std::basic_string<char, std::char_traits<char>, std::allocator<char> >::_Alloc_hider" }
%"struct.std::basic_string<char, std::char_traits<char>, std::allocator<char> >::_Alloc_hider" = type { i8* }
%"class.log4cxx::helpers::ObjectPtrT" = type { %"class.log4cxx::helpers::ObjectPtrBase", %"class.log4cxx::Level"* }
%"class.log4cxx::helpers::ObjectPtrBase" = type { i32 (...)** }
%"class.log4cxx::Level" = type <{ %"class.log4cxx::helpers::ObjectImpl.base", i32, %"class.std::basic_string", i32, [4 x i8] }>
%"class.log4cxx::helpers::ObjectPtrT.27" = type { %"class.log4cxx::helpers::ObjectPtrBase", %"class.log4cxx::Logger"* }
%"class.log4cxx::helpers::ObjectPtrT.28" = type { %"class.log4cxx::helpers::ObjectPtrBase", %"class.log4cxx::helpers::ResourceBundle"* }
%"class.log4cxx::helpers::ResourceBundle" = type { %"class.log4cxx::helpers::ObjectImpl.base", %"class.log4cxx::helpers::ObjectPtrT.28" }
%"class.log4cxx::spi::LoggerRepository" = type { %"class.log4cxx::helpers::Object" }
%"class.log4cxx::helpers::ObjectPtrT.29" = type { %"class.log4cxx::helpers::ObjectPtrBase", %"class.log4cxx::helpers::AppenderAttachableImpl"* }
%"class.log4cxx::helpers::AppenderAttachableImpl" = type { %"class.log4cxx::spi::AppenderAttachable", %"class.std::vector", %"class.log4cxx::helpers::Mutex", %"class.log4cxx::helpers::ObjectImpl.base" }
%"class.std::vector" = type { %"struct.std::_Vector_base" }
%"struct.std::_Vector_base" = type { %"struct.std::_Vector_base<log4cxx::helpers::ObjectPtrT<log4cxx::Appender>, std::allocator<log4cxx::helpers::ObjectPtrT<log4cxx::Appender> > >::_Vector_impl" }
%"struct.std::_Vector_base<log4cxx::helpers::ObjectPtrT<log4cxx::Appender>, std::allocator<log4cxx::helpers::ObjectPtrT<log4cxx::Appender> > >::_Vector_impl" = type { %"class.log4cxx::helpers::ObjectPtrT.33"*, %"class.log4cxx::helpers::ObjectPtrT.33"*, %"class.log4cxx::helpers::ObjectPtrT.33"* }
%"class.log4cxx::helpers::ObjectPtrT.33" = type opaque
%"class.log4cxx::helpers::Mutex" = type { %struct.apr_thread_mutex_t* }
%struct.apr_thread_mutex_t = type opaque
%"class.log4cxx::helpers::ObjectImpl.base" = type <{ %"class.log4cxx::helpers::Object", i32 }>
%"struct.boost::detail::function::basic_vtable0" = type { %"struct.boost::detail::function::vtable_base", void (%"class.ros::SerializedMessage"*, %"union.boost::detail::function::function_buffer"*)* }
%"struct.boost::detail::function::vtable_base" = type { void (%"union.boost::detail::function::function_buffer"*, %"union.boost::detail::function::function_buffer"*, i32)* }
%"union.boost::detail::function::function_buffer" = type { %"struct.boost::detail::function::function_buffer::bound_memfunc_ptr_t" }
%"struct.boost::detail::function::function_buffer::bound_memfunc_ptr_t" = type { { i64, i64 }, i8* }
%"class.ros::SerializedMessage" = type { %"class.boost::shared_array", i64, i8*, %"class.boost::shared_ptr.25", %"class.std::type_info"* }
%"class.boost::shared_array" = type { i8*, %"class.boost::detail::shared_count" }
%"class.boost::detail::shared_count" = type { %"class.boost::detail::sp_counted_base"* }
%"class.boost::detail::sp_counted_base" = type { i32 (...)**, i32, i32 }
%"class.boost::shared_ptr.25" = type { i8*, %"class.boost::detail::shared_count" }
%"class.std::type_info" = type { i32 (...)**, i8* }
%"class.std::allocator" = type { i8 }
%"class.ros::NodeHandle" = type <{ %"class.std::basic_string", %"class.std::basic_string", %"class.std::map", %"class.std::map", %"class.ros::CallbackQueueInterface"*, %"class.ros::NodeHandleBackingCollection"*, i8, [7 x i8] }>
%"class.std::map" = type { %"class.std::_Rb_tree" }
%"class.std::_Rb_tree" = type { %"struct.std::_Rb_tree<std::basic_string<char>, std::pair<const std::basic_string<char>, std::basic_string<char> >, std::_Select1st<std::pair<const std::basic_string<char>, std::basic_string<char> > >, std::less<std::basic_string<char> >, std::allocator<std::pair<const std::basic_string<char>, std::basic_string<char> > > >::_Rb_tree_impl" }
%"struct.std::_Rb_tree<std::basic_string<char>, std::pair<const std::basic_string<char>, std::basic_string<char> >, std::_Select1st<std::pair<const std::basic_string<char>, std::basic_string<char> > >, std::less<std::basic_string<char> >, std::allocator<std::pair<const std::basic_string<char>, std::basic_string<char> > > >::_Rb_tree_impl" = type { %"struct.std::less", %"struct.std::_Rb_tree_node_base", i64 }
%"struct.std::less" = type { i8 }
%"struct.std::_Rb_tree_node_base" = type { i32, %"struct.std::_Rb_tree_node_base"*, %"struct.std::_Rb_tree_node_base"*, %"struct.std::_Rb_tree_node_base"* }
%"class.ros::CallbackQueueInterface" = type opaque
%"class.ros::NodeHandleBackingCollection" = type opaque
%"class.ros::Publisher" = type { %"class.boost::shared_ptr" }
%"class.boost::shared_ptr" = type { %"class.ros::Publisher::Impl"*, %"class.boost::detail::shared_count" }
%"class.ros::Publisher::Impl" = type <{ %"class.std::basic_string", %"class.std::basic_string", %"class.std::basic_string", %"class.boost::shared_ptr.19", %"class.boost::shared_ptr.20", i8, [7 x i8] }>
%"class.boost::shared_ptr.19" = type { %"class.ros::NodeHandle"*, %"class.boost::detail::shared_count" }
%"class.boost::shared_ptr.20" = type { %"struct.ros::SubscriberCallbacks"*, %"class.boost::detail::shared_count" }
%"struct.ros::SubscriberCallbacks" = type { %"class.boost::function", %"class.boost::function", i8, %"class.boost::weak_ptr", %"class.ros::CallbackQueueInterface"* }
%"class.boost::function" = type { %"class.boost::function1" }
%"class.boost::function1" = type { %"class.boost::function_base" }
%"class.boost::function_base" = type { %"struct.boost::detail::function::vtable_base"*, %"union.boost::detail::function::function_buffer" }
%"class.boost::weak_ptr" = type { i8*, %"class.boost::detail::weak_count" }
%"class.boost::detail::weak_count" = type { %"class.boost::detail::sp_counted_base"* }
%"class.ros::Rate" = type { %"class.ros::Time", %"class.ros::Duration", %"class.ros::Duration" }
%"class.ros::Time" = type { %"class.ros::TimeBase" }
%"class.ros::TimeBase" = type { i32, i32 }
%"class.ros::Duration" = type { %"class.ros::DurationBase" }
%"class.ros::DurationBase" = type { i32, i32 }
%"struct.std_msgs::String_" = type { %"class.std::basic_string", %"class.boost::shared_ptr.21" }
%"class.boost::shared_ptr.21" = type { %"class.std::map"*, %"class.boost::detail::shared_count" }
%"class.std::basic_stringstream" = type { %"class.std::basic_iostream.base", %"class.std::basic_stringbuf", %"class.std::basic_ios" }
%"class.std::basic_iostream.base" = type { %"class.std::basic_istream.base", %"class.std::basic_ostream.base" }
%"class.std::basic_istream.base" = type { i32 (...)**, i64 }
%"class.std::basic_ostream.base" = type { i32 (...)** }
%"class.std::basic_stringbuf" = type { %"class.std::basic_streambuf", i32, %"class.std::basic_string" }
%"class.std::basic_streambuf" = type { i32 (...)**, i8*, i8*, i8*, i8*, i8*, i8*, %"class.std::locale" }
%"class.std::locale" = type { %"class.std::locale::_Impl"* }
%"class.std::locale::_Impl" = type { i32, %"class.std::locale::facet"**, i64, %"class.std::locale::facet"**, i8** }
%"class.std::locale::facet" = type <{ i32 (...)**, i32, [4 x i8] }>
%"class.std::basic_ios" = type { %"class.std::ios_base", %"class.std::basic_ostream"*, i8, i8, %"class.std::basic_streambuf"*, %"class.std::ctype"*, %"class.std::num_put"*, %"class.std::num_get"* }
%"class.std::ios_base" = type { i32 (...)**, i64, i64, i32, i32, i32, %"struct.std::ios_base::_Callback_list"*, %"struct.std::ios_base::_Words", [8 x %"struct.std::ios_base::_Words"], i32, %"struct.std::ios_base::_Words"*, %"class.std::locale" }
%"struct.std::ios_base::_Callback_list" = type { %"struct.std::ios_base::_Callback_list"*, void (i32, %"class.std::ios_base"*, i32)*, i32, i32 }
%"struct.std::ios_base::_Words" = type { i8*, i64 }
%"class.std::basic_ostream" = type { i32 (...)**, %"class.std::basic_ios" }
%"class.std::ctype" = type <{ %"class.std::locale::facet.base", [4 x i8], %struct.__locale_struct*, i8, [7 x i8], i32*, i32*, i16*, i8, [256 x i8], [256 x i8], i8, [6 x i8] }>
%"class.std::locale::facet.base" = type <{ i32 (...)**, i32 }>
%struct.__locale_struct = type { [13 x %struct.__locale_data*], i16*, i32*, i32*, [13 x i8*] }
%struct.__locale_data = type opaque
%"class.std::num_put" = type { %"class.std::locale::facet.base", [4 x i8] }
%"class.std::num_get" = type { %"class.std::locale::facet.base", [4 x i8] }
%"struct.ros::AdvertiseOptions" = type <{ %"class.std::basic_string", i32, [4 x i8], %"class.std::basic_string", %"class.std::basic_string", %"class.std::basic_string", %"class.boost::function", %"class.boost::function", %"class.ros::CallbackQueueInterface"*, %"class.boost::shared_ptr.25", i8, i8, [6 x i8] }>
%"class.boost::function.34" = type { %"class.boost::function0" }
%"class.boost::function0" = type { %"class.boost::function_base" }
%"class.boost::_bi::bind_t" = type { void (%"class.ros::SerializedMessage"*, %"struct.std_msgs::String_"*)*, %"class.boost::_bi::list1" }
%"class.boost::_bi::list1" = type { %"struct.boost::_bi::storage1" }
%"struct.boost::_bi::storage1" = type { %"class.boost::reference_wrapper" }
%"class.boost::reference_wrapper" = type { %"struct.std_msgs::String_"* }
%"class.ros::console::FilterBase" = type { i32 (...)** }
%"struct.std::_Rb_tree_node" = type { %"struct.std::_Rb_tree_node_base", %"struct.std::pair" }
%"struct.std::pair" = type { %"class.std::basic_string", %"class.std::basic_string" }
%"class.std::allocator.16" = type { i8 }
%"class.std::allocator.22" = type { i8 }
%"class.__gnu_cxx::new_allocator.23" = type { i8 }
%"class.__gnu_cxx::new_allocator.17" = type { i8 }
%"struct.std::unary_function" = type { i8 }
%"struct.boost::detail::function::basic_vtable1" = type { %"struct.boost::detail::function::vtable_base", void (%"union.boost::detail::function::function_buffer"*, %"class.ros::SingleSubscriberPublisher"*)* }
%"class.ros::SingleSubscriberPublisher" = type { %"class.boost::shared_ptr.26" }
%"class.boost::shared_ptr.26" = type { %"class.ros::SubscriberLink"*, %"class.boost::detail::shared_count" }
%"class.ros::SubscriberLink" = type opaque
%"struct.ros::serialization::OStream" = type { %"struct.ros::serialization::Stream" }
%"struct.ros::serialization::Stream" = type { i8*, i8* }
%"struct.boost::checked_array_deleter" = type { i8 }
%"class.boost::detail::sp_counted_impl_pd" = type <{ %"class.boost::detail::sp_counted_base", i8*, %"struct.boost::checked_array_deleter", [7 x i8] }>
%"struct.ros::serialization::LStream" = type { i32 }
%"struct.boost::detail::addr_impl_ref" = type { %"struct.std_msgs::String_"* }
%"struct.boost::detail::function::function_obj_tag" = type { i8 }
%"struct.boost::detail::function::function_buffer::type_t" = type { %"class.std::type_info"*, i8, i8 }
%"struct.mpl_::bool_" = type { i8 }
%"class.boost::_bi::list0" = type { i8 }
%"class.boost::_bi::type" = type { i8 }
%"struct.boost::detail::addr_impl_ref.35" = type { %"class.boost::_bi::bind_t"* }

$_ZN5boost3argILi1EEC2Ev = comdat any

$_ZN5boost3argILi2EEC2Ev = comdat any

$_ZN5boost3argILi3EEC2Ev = comdat any

$_ZN5boost3argILi4EEC2Ev = comdat any

$_ZN5boost3argILi5EEC2Ev = comdat any

$_ZN5boost3argILi6EEC2Ev = comdat any

$_ZN5boost3argILi7EEC2Ev = comdat any

$_ZN5boost3argILi8EEC2Ev = comdat any

$_ZN5boost3argILi9EEC2Ev = comdat any

$__clang_call_terminate = comdat any

$_ZNSt3mapISsSsSt4lessISsESaISt4pairIKSsSsEEEC2Ev = comdat any

$_ZNSt3mapISsSsSt4lessISsESaISt4pairIKSsSsEEED2Ev = comdat any

$_ZN3ros10NodeHandle9advertiseIN8std_msgs7String_ISaIvEEEEENS_9PublisherERKSsjb = comdat any

$_ZN8std_msgs7String_ISaIvEEC2Ev = comdat any

$_ZStorSt13_Ios_OpenmodeS_ = comdat any

$_ZNK3ros9Publisher7publishIN8std_msgs7String_ISaIvEEEEEvRKT_ = comdat any

$_ZN8std_msgs7String_ISaIvEED2Ev = comdat any

$_ZN3ros4RateD2Ev = comdat any

$_ZNSt8_Rb_treeISsSt4pairIKSsSsESt10_Select1stIS2_ESt4lessISsESaIS2_EED2Ev = comdat any

$_ZNSt8_Rb_treeISsSt4pairIKSsSsESt10_Select1stIS2_ESt4lessISsESaIS2_EE8_M_eraseEPSt13_Rb_tree_nodeIS2_E = comdat any

$_ZNSt8_Rb_treeISsSt4pairIKSsSsESt10_Select1stIS2_ESt4lessISsESaIS2_EE8_M_beginEv = comdat any

$_ZNSt8_Rb_treeISsSt4pairIKSsSsESt10_Select1stIS2_ESt4lessISsESaIS2_EE13_Rb_tree_implIS6_Lb0EED2Ev = comdat any

$_ZNSt8_Rb_treeISsSt4pairIKSsSsESt10_Select1stIS2_ESt4lessISsESaIS2_EE8_S_rightEPSt18_Rb_tree_node_base = comdat any

$_ZNSt8_Rb_treeISsSt4pairIKSsSsESt10_Select1stIS2_ESt4lessISsESaIS2_EE7_S_leftEPSt18_Rb_tree_node_base = comdat any

$_ZNSt8_Rb_treeISsSt4pairIKSsSsESt10_Select1stIS2_ESt4lessISsESaIS2_EE15_M_destroy_nodeEPSt13_Rb_tree_nodeIS2_E = comdat any

$_ZNKSt8_Rb_treeISsSt4pairIKSsSsESt10_Select1stIS2_ESt4lessISsESaIS2_EE13get_allocatorEv = comdat any

$_ZN9__gnu_cxx13new_allocatorISt4pairIKSsSsEE7destroyEPS3_ = comdat any

$_ZSt11__addressofISt4pairIKSsSsEEPT_RS3_ = comdat any

$_ZNSaISt4pairIKSsSsEED2Ev = comdat any

$_ZNSt8_Rb_treeISsSt4pairIKSsSsESt10_Select1stIS2_ESt4lessISsESaIS2_EE11_M_put_nodeEPSt13_Rb_tree_nodeIS2_E = comdat any

$_ZNKSt8_Rb_treeISsSt4pairIKSsSsESt10_Select1stIS2_ESt4lessISsESaIS2_EE21_M_get_Node_allocatorEv = comdat any

$_ZNSaISt4pairIKSsSsEEC2ISt13_Rb_tree_nodeIS1_EEERKSaIT_E = comdat any

$_ZN9__gnu_cxx13new_allocatorISt4pairIKSsSsEEC2Ev = comdat any

$_ZNSt4pairIKSsSsED2Ev = comdat any

$_ZN9__gnu_cxx13new_allocatorISt4pairIKSsSsEED2Ev = comdat any

$_ZN9__gnu_cxx13new_allocatorISt13_Rb_tree_nodeISt4pairIKSsSsEEE10deallocateEPS5_m = comdat any

$_ZNSaISt13_Rb_tree_nodeISt4pairIKSsSsEEED2Ev = comdat any

$_ZN9__gnu_cxx13new_allocatorISt13_Rb_tree_nodeISt4pairIKSsSsEEED2Ev = comdat any

$_ZN5boost10shared_ptrISt3mapISsSsSt4lessISsESaISt4pairIKSsSsEEEED2Ev = comdat any

$_ZN5boost6detail12shared_countD2Ev = comdat any

$_ZN5boost6detail15sp_counted_base7releaseEv = comdat any

$_ZN5boost6detail23atomic_exchange_and_addEPii = comdat any

$_ZN5boost6detail15sp_counted_base12weak_releaseEv = comdat any

$_ZN3ros8DurationD2Ev = comdat any

$_ZN3ros4TimeD2Ev = comdat any

$_ZN3ros12DurationBaseINS_8DurationEED2Ev = comdat any

$_ZN3ros8TimeBaseINS_4TimeENS_8DurationEED2Ev = comdat any

$_ZNSt8_Rb_treeISsSt4pairIKSsSsESt10_Select1stIS2_ESt4lessISsESaIS2_EEC2Ev = comdat any

$_ZNSt8_Rb_treeISsSt4pairIKSsSsESt10_Select1stIS2_ESt4lessISsESaIS2_EE13_Rb_tree_implIS6_Lb0EEC2Ev = comdat any

$_ZNSaISt13_Rb_tree_nodeISt4pairIKSsSsEEEC2Ev = comdat any

$_ZNSt8_Rb_treeISsSt4pairIKSsSsESt10_Select1stIS2_ESt4lessISsESaIS2_EE13_Rb_tree_implIS6_Lb0EE13_M_initializeEv = comdat any

$_ZN9__gnu_cxx13new_allocatorISt13_Rb_tree_nodeISt4pairIKSsSsEEEC2Ev = comdat any

$_ZN3ros16AdvertiseOptionsC2Ev = comdat any

$_ZN3ros16AdvertiseOptions4initIN8std_msgs7String_ISaIvEEEEEvRKSsjRKN5boost8functionIFvRKNS_25SingleSubscriberPublisherEEEESG_ = comdat any

$_ZN5boost8functionIFvRKN3ros25SingleSubscriberPublisherEEEC2Ev = comdat any

$_ZN5boost8functionIFvRKN3ros25SingleSubscriberPublisherEEED2Ev = comdat any

$_ZN3ros16AdvertiseOptionsD2Ev = comdat any

$_ZN5boost10shared_ptrIKvEC2Ev = comdat any

$_ZN5boost6detail12shared_countC2Ev = comdat any

$_ZN5boost8functionIFvRKN3ros25SingleSubscriberPublisherEEEaSERKS6_ = comdat any

$_ZN3ros14message_traits6md5sumIN8std_msgs7String_ISaIvEEEEEPKcv = comdat any

$_ZN3ros14message_traits8datatypeIN8std_msgs7String_ISaIvEEEEEPKcv = comdat any

$_ZN3ros14message_traits10definitionIN8std_msgs7String_ISaIvEEEEEPKcv = comdat any

$_ZN3ros14message_traits9hasHeaderIN8std_msgs7String_ISaIvEEEEEbv = comdat any

$_ZN5boost8functionIFvRKN3ros25SingleSubscriberPublisherEEEC2ERKS6_ = comdat any

$_ZN5boost9function1IvRKN3ros25SingleSubscriberPublisherEE4swapERS5_ = comdat any

$_ZN5boost9function1IvRKN3ros25SingleSubscriberPublisherEEC2ERKS5_ = comdat any

$_ZN5boost13function_baseC2Ev = comdat any

$_ZN5boost9function1IvRKN3ros25SingleSubscriberPublisherEE13assign_to_ownERKS5_ = comdat any

$_ZNK5boost13function_base5emptyEv = comdat any

$_ZNK5boost13function_base28has_trivial_copy_and_destroyEv = comdat any

$_ZNK5boost9function1IvRKN3ros25SingleSubscriberPublisherEE10get_vtableEv = comdat any

$_ZN5boost9function1IvRKN3ros25SingleSubscriberPublisherEEC2Ev = comdat any

$_ZN5boost9function1IvRKN3ros25SingleSubscriberPublisherEE11move_assignERS5_ = comdat any

$_ZN5boost9function1IvRKN3ros25SingleSubscriberPublisherEED2Ev = comdat any

$_ZN5boost9function1IvRKN3ros25SingleSubscriberPublisherEE5clearEv = comdat any

$_ZN5boost6detail8function13basic_vtable1IvRKN3ros25SingleSubscriberPublisherEE5clearERNS1_15function_bufferE = comdat any

$_ZN3ros14message_traits6MD5SumIN8std_msgs7String_ISaIvEEEE5valueEv = comdat any

$_ZN3ros14message_traits8DataTypeIN8std_msgs7String_ISaIvEEEE5valueEv = comdat any

$_ZN3ros14message_traits10DefinitionIN8std_msgs7String_ISaIvEEEE5valueEv = comdat any

$_ZN5boost10shared_ptrIKvED2Ev = comdat any

$_ZN5boost10shared_ptrISt3mapISsSsSt4lessISsESaISt4pairIKSsSsEEEEC2Ev = comdat any

$_ZNK5boost10shared_ptrIN3ros9Publisher4ImplEEntEv = comdat any

$_ZNK5boost10shared_ptrIN3ros9Publisher4ImplEEptEv = comdat any

$_ZSteqIcSt11char_traitsIcESaIcEEbRKSbIT_T0_T1_EPKS3_ = comdat any

$_ZN3ros14message_traits6md5sumIN8std_msgs7String_ISaIvEEEEEPKcRKT_ = comdat any

$_ZN3ros14message_traits8datatypeIN8std_msgs7String_ISaIvEEEEEPKcRKT_ = comdat any

$_ZN3ros17SerializedMessageC2Ev = comdat any

$_ZN5boost4bindIN3ros17SerializedMessageERKN8std_msgs7String_ISaIvEEENS_17reference_wrapperIS7_EEEENS_3_bi6bind_tIT_PFSD_T0_ENSB_9list_av_1IT1_E4typeEEESG_SI_ = comdat any

$_ZN3ros13serialization16serializeMessageIN8std_msgs7String_ISaIvEEEEENS_17SerializedMessageERKT_ = comdat any

$_ZN5boost3refIKN8std_msgs7String_ISaIvEEEEEKNS_17reference_wrapperIT_EERS7_ = comdat any

$_ZN5boost8functionIFN3ros17SerializedMessageEvEEC2INS_3_bi6bind_tIS2_PFS2_RKN8std_msgs7String_ISaIvEEEENS6_5list1INS_17reference_wrapperISC_EEEEEEEET_NS_11enable_if_cIXsr5boost11type_traits7ice_notIXsr11is_integralISL_EE5valueEEE5valueEiE4typeE = comdat any

$_ZN5boost8functionIFN3ros17SerializedMessageEvEED2Ev = comdat any

$_ZN3ros17SerializedMessageD2Ev = comdat any

$_ZN3ros14message_traits6MD5SumIN8std_msgs7String_ISaIvEEEE5valueERKS5_ = comdat any

$_ZN3ros14message_traits8DataTypeIN8std_msgs7String_ISaIvEEEE5valueERKS5_ = comdat any

$_ZN5boost12shared_arrayIhEC2EPh = comdat any

$_ZN5boost12shared_arrayIhED2Ev = comdat any

$_ZN5boost6detail12shared_countC2IPhNS_21checked_array_deleterIhEEEET_T0_ = comdat any

$_ZN5boost6detail18sp_counted_impl_pdIPhNS_21checked_array_deleterIhEEEC2ES2_S4_ = comdat any

$_ZNK5boost21checked_array_deleterIhEclEPh = comdat any

$_ZN5boost6detail15sp_counted_baseC2Ev = comdat any

$_ZN5boost6detail18sp_counted_impl_pdIPhNS_21checked_array_deleterIhEEED2Ev = comdat any

$_ZN5boost6detail18sp_counted_impl_pdIPhNS_21checked_array_deleterIhEEED0Ev = comdat any

$_ZN5boost6detail18sp_counted_impl_pdIPhNS_21checked_array_deleterIhEEE7disposeEv = comdat any

$_ZN5boost6detail15sp_counted_base7destroyEv = comdat any

$_ZN5boost6detail18sp_counted_impl_pdIPhNS_21checked_array_deleterIhEEE11get_deleterERKSt9type_info = comdat any

$_ZN5boost6detail15sp_counted_baseD2Ev = comdat any

$_ZN5boost6detail15sp_counted_baseD0Ev = comdat any

$_ZNKSt9type_infoeqERKS_ = comdat any

$_ZN5boost20checked_array_deleteIhEEvPT_ = comdat any

$_ZN5boost3_bi5list1INS_17reference_wrapperIKN8std_msgs7String_ISaIvEEEEEEC2ES8_ = comdat any

$_ZN5boost3_bi6bind_tIN3ros17SerializedMessageEPFS3_RKN8std_msgs7String_ISaIvEEEENS0_5list1INS_17reference_wrapperIS8_EEEEEC2ESB_RKSF_ = comdat any

$_ZN5boost3_bi8storage1INS_17reference_wrapperIKN8std_msgs7String_ISaIvEEEEEEC2ES8_ = comdat any

$_ZN3ros13serialization19serializationLengthIN8std_msgs7String_ISaIvEEEEEjRKT_ = comdat any

$_ZN5boost12shared_arrayIhE5resetEPh = comdat any

$_ZNK5boost12shared_arrayIhE3getEv = comdat any

$_ZN3ros13serialization7OStreamC2EPhj = comdat any

$_ZN3ros13serialization9serializeIjNS0_7OStreamEEEvRT0_RKT_ = comdat any

$_ZN3ros13serialization6Stream7getDataEv = comdat any

$_ZN3ros13serialization9serializeIN8std_msgs7String_ISaIvEEENS0_7OStreamEEEvRT0_RKT_ = comdat any

$_ZN3ros13serialization10SerializerIN8std_msgs7String_ISaIvEEEE16serializedLengthIS5_EEjRKT_ = comdat any

$_ZN3ros13serialization7LStreamC2Ev = comdat any

$_ZN3ros13serialization10SerializerIN8std_msgs7String_ISaIvEEEE8allInOneINS0_7LStreamERKS5_EEvRT_T0_ = comdat any

$_ZN3ros13serialization7LStream9getLengthEv = comdat any

$_ZN3ros13serialization7LStream4nextISsEEvRKT_ = comdat any

$_ZN3ros13serialization19serializationLengthISsEEjRKT_ = comdat any

$_ZN3ros13serialization10SerializerISsE16serializedLengthERKSs = comdat any

$_ZN5boost12shared_arrayIhE4swapERS1_ = comdat any

$_ZSt4swapIPhEvRT_S2_ = comdat any

$_ZN5boost6detail12shared_count4swapERS1_ = comdat any

$_ZN3ros13serialization6StreamC2EPhj = comdat any

$_ZN3ros13serialization10SerializerIjE5writeINS0_7OStreamEEEvRT_j = comdat any

$_ZN3ros13serialization6Stream7advanceEj = comdat any

$_ZN3ros13serialization10SerializerIN8std_msgs7String_ISaIvEEEE5writeINS0_7OStreamES5_EEvRT_RKT0_ = comdat any

$_ZN3ros13serialization10SerializerIN8std_msgs7String_ISaIvEEEE8allInOneINS0_7OStreamERKS5_EEvRT_T0_ = comdat any

$_ZN3ros13serialization7OStream4nextISsEEvRKT_ = comdat any

$_ZN3ros13serialization9serializeISsNS0_7OStreamEEEvRT0_RKT_ = comdat any

$_ZN3ros13serialization10SerializerISsE5writeINS0_7OStreamEEEvRT_RKSs = comdat any

$_ZN3ros13serialization7OStream4nextIjEEvRKT_ = comdat any

$_ZN5boost17reference_wrapperIKN8std_msgs7String_ISaIvEEEEC2ERS5_ = comdat any

$_ZN5boost9addressofIKN8std_msgs7String_ISaIvEEEEEPT_RS6_ = comdat any

$_ZN5boost6detail14addressof_implIKN8std_msgs7String_ISaIvEEEE1fERS6_l = comdat any

$_ZN5boost6detail13addr_impl_refIKN8std_msgs7String_ISaIvEEEEC2ERS6_ = comdat any

$_ZNK5boost6detail13addr_impl_refIKN8std_msgs7String_ISaIvEEEEcvRS6_Ev = comdat any

$_ZN5boost9function0IN3ros17SerializedMessageEEC2INS_3_bi6bind_tIS2_PFS2_RKN8std_msgs7String_ISaIvEEEENS5_5list1INS_17reference_wrapperISB_EEEEEEEET_NS_11enable_if_cIXsr5boost11type_traits7ice_notIXsr11is_integralISK_EE5valueEEE5valueEiE4typeE = comdat any

$_ZN5boost9function0IN3ros17SerializedMessageEE9assign_toINS_3_bi6bind_tIS2_PFS2_RKN8std_msgs7String_ISaIvEEEENS5_5list1INS_17reference_wrapperISB_EEEEEEEEvT_ = comdat any

$_ZN5boost6detail8function15functor_managerINS_3_bi6bind_tIN3ros17SerializedMessageEPFS6_RKN8std_msgs7String_ISaIvEEEENS3_5list1INS_17reference_wrapperISB_EEEEEEE6manageERKNS1_15function_bufferERSL_NS1_30functor_manager_operation_typeE = comdat any

$_ZN5boost6detail8function21function_obj_invoker0INS_3_bi6bind_tIN3ros17SerializedMessageEPFS6_RKN8std_msgs7String_ISaIvEEEENS3_5list1INS_17reference_wrapperISB_EEEEEES6_E6invokeERNS1_15function_bufferE = comdat any

$_ZN5boost6detail8function13basic_vtable0IN3ros17SerializedMessageEE9assign_toINS_3_bi6bind_tIS4_PFS4_RKN8std_msgs7String_ISaIvEEEENS7_5list1INS_17reference_wrapperISD_EEEEEEEEbT_RNS1_15function_bufferE = comdat any

$_ZN5boost6detail8function15functor_managerINS_3_bi6bind_tIN3ros17SerializedMessageEPFS6_RKN8std_msgs7String_ISaIvEEEENS3_5list1INS_17reference_wrapperISB_EEEEEEE7managerERKNS1_15function_bufferERSL_NS1_30functor_manager_operation_typeENS1_16function_obj_tagE = comdat any

$_ZN5boost6detail8function15functor_managerINS_3_bi6bind_tIN3ros17SerializedMessageEPFS6_RKN8std_msgs7String_ISaIvEEEENS3_5list1INS_17reference_wrapperISB_EEEEEEE7managerERKNS1_15function_bufferERSL_NS1_30functor_manager_operation_typeEN4mpl_5bool_ILb1EEE = comdat any

$_ZN5boost6detail8function22functor_manager_commonINS_3_bi6bind_tIN3ros17SerializedMessageEPFS6_RKN8std_msgs7String_ISaIvEEEENS3_5list1INS_17reference_wrapperISB_EEEEEEE12manage_smallERKNS1_15function_bufferERSL_NS1_30functor_manager_operation_typeE = comdat any

$_ZNKSt9type_info4nameEv = comdat any

$_ZN5boost3_bi6bind_tIN3ros17SerializedMessageEPFS3_RKN8std_msgs7String_ISaIvEEEENS0_5list1INS_17reference_wrapperIS8_EEEEEclEv = comdat any

$_ZN5boost3_bi5list0C2Ev = comdat any

$_ZN5boost3_bi5list1INS_17reference_wrapperIKN8std_msgs7String_ISaIvEEEEEEclIN3ros17SerializedMessageEPFSC_RS7_ENS0_5list0EEET_NS0_4typeISH_EERT0_RT1_l = comdat any

$_ZN5boost3_bi9unwrapperIPFN3ros17SerializedMessageERKN8std_msgs7String_ISaIvEEEEE6unwrapERSB_l = comdat any

$_ZNK5boost3_bi5list0ixIKN8std_msgs7String_ISaIvEEEEERT_RKNS_17reference_wrapperIS8_EE = comdat any

$_ZNK5boost17reference_wrapperIKN8std_msgs7String_ISaIvEEEE3getEv = comdat any

$_ZN5boost6detail8function13basic_vtable0IN3ros17SerializedMessageEE9assign_toINS_3_bi6bind_tIS4_PFS4_RKN8std_msgs7String_ISaIvEEEENS7_5list1INS_17reference_wrapperISD_EEEEEEEEbT_RNS1_15function_bufferENS1_16function_obj_tagE = comdat any

$_ZN5boost6detail8function16has_empty_targetEz = comdat any

$_ZN5boost9addressofINS_3_bi6bind_tIN3ros17SerializedMessageEPFS4_RKN8std_msgs7String_ISaIvEEEENS1_5list1INS_17reference_wrapperIS9_EEEEEEEEPT_RSI_ = comdat any

$_ZN5boost6detail8function13basic_vtable0IN3ros17SerializedMessageEE14assign_functorINS_3_bi6bind_tIS4_PFS4_RKN8std_msgs7String_ISaIvEEEENS7_5list1INS_17reference_wrapperISD_EEEEEEEEvT_RNS1_15function_bufferEN4mpl_5bool_ILb1EEE = comdat any

$_ZN5boost6detail14addressof_implINS_3_bi6bind_tIN3ros17SerializedMessageEPFS5_RKN8std_msgs7String_ISaIvEEEENS2_5list1INS_17reference_wrapperISA_EEEEEEE1fERSI_l = comdat any

$_ZN5boost6detail13addr_impl_refINS_3_bi6bind_tIN3ros17SerializedMessageEPFS5_RKN8std_msgs7String_ISaIvEEEENS2_5list1INS_17reference_wrapperISA_EEEEEEEC2ERSI_ = comdat any

$_ZNK5boost6detail13addr_impl_refINS_3_bi6bind_tIN3ros17SerializedMessageEPFS5_RKN8std_msgs7String_ISaIvEEEENS2_5list1INS_17reference_wrapperISA_EEEEEEEcvRSI_Ev = comdat any

$_ZN5boost9function0IN3ros17SerializedMessageEED2Ev = comdat any

$_ZN5boost9function0IN3ros17SerializedMessageEE5clearEv = comdat any

$_ZNK5boost9function0IN3ros17SerializedMessageEE10get_vtableEv = comdat any

$_ZN5boost6detail8function13basic_vtable0IN3ros17SerializedMessageEE5clearERNS1_15function_bufferE = comdat any

$_ZZNK3ros9Publisher7publishIN8std_msgs7String_ISaIvEEEEEvRKT_E3loc = comdat any

$_ZZNK3ros9Publisher7publishIN8std_msgs7String_ISaIvEEEEEvRKT_E3loc_0 = comdat any

$_ZZNK3ros9Publisher7publishIN8std_msgs7String_ISaIvEEEEEvRKT_E3loc_1 = comdat any

$_ZZNK3ros9Publisher7publishIN8std_msgs7String_ISaIvEEEEEvRKT_E3loc_2 = comdat any

$_ZZNK3ros9Publisher7publishIN8std_msgs7String_ISaIvEEEEEvRKT_E3loc_3 = comdat any

$_ZZNK3ros9Publisher7publishIN8std_msgs7String_ISaIvEEEEEvRKT_E3loc_4 = comdat any

$_ZZNK3ros9Publisher7publishIN8std_msgs7String_ISaIvEEEEEvRKT_E3loc_5 = comdat any

$_ZZNK3ros9Publisher7publishIN8std_msgs7String_ISaIvEEEEEvRKT_E3loc_6 = comdat any

$_ZZNK3ros9Publisher7publishIN8std_msgs7String_ISaIvEEEEEvRKT_E3loc_7 = comdat any

$_ZTVN5boost6detail18sp_counted_impl_pdIPhNS_21checked_array_deleterIhEEEE = comdat any

$_ZTSN5boost6detail18sp_counted_impl_pdIPhNS_21checked_array_deleterIhEEEE = comdat any

$_ZTSN5boost6detail15sp_counted_baseE = comdat any

$_ZTIN5boost6detail15sp_counted_baseE = comdat any

$_ZTIN5boost6detail18sp_counted_impl_pdIPhNS_21checked_array_deleterIhEEEE = comdat any

$_ZTVN5boost6detail15sp_counted_baseE = comdat any

$_ZTSN5boost21checked_array_deleterIhEE = comdat any

$_ZTIN5boost21checked_array_deleterIhEE = comdat any

$_ZZN5boost9function0IN3ros17SerializedMessageEE9assign_toINS_3_bi6bind_tIS2_PFS2_RKN8std_msgs7String_ISaIvEEEENS5_5list1INS_17reference_wrapperISB_EEEEEEEEvT_E13stored_vtable = comdat any

$_ZTSN5boost3_bi6bind_tIN3ros17SerializedMessageEPFS3_RKN8std_msgs7String_ISaIvEEEENS0_5list1INS_17reference_wrapperIS8_EEEEEE = comdat any

$_ZTIN5boost3_bi6bind_tIN3ros17SerializedMessageEPFS3_RKN8std_msgs7String_ISaIvEEEENS0_5list1INS_17reference_wrapperIS8_EEEEEE = comdat any

@_ZStL8__ioinit = internal global %"class.std::ios_base::Init" zeroinitializer, align 1
@__dso_handle = external global i8
@_ZN12_GLOBAL__N_12_1E = internal global %"struct.boost::arg" zeroinitializer, align 1
@_ZN12_GLOBAL__N_12_2E = internal global %"struct.boost::arg.0" zeroinitializer, align 1
@_ZN12_GLOBAL__N_12_3E = internal global %"struct.boost::arg.2" zeroinitializer, align 1
@_ZN12_GLOBAL__N_12_4E = internal global %"struct.boost::arg.4" zeroinitializer, align 1
@_ZN12_GLOBAL__N_12_5E = internal global %"struct.boost::arg.6" zeroinitializer, align 1
@_ZN12_GLOBAL__N_12_6E = internal global %"struct.boost::arg.8" zeroinitializer, align 1
@_ZN12_GLOBAL__N_12_7E = internal global %"struct.boost::arg.10" zeroinitializer, align 1
@_ZN12_GLOBAL__N_12_8E = internal global %"struct.boost::arg.12" zeroinitializer, align 1
@_ZN12_GLOBAL__N_12_9E = internal global %"struct.boost::arg.14" zeroinitializer, align 1
@.str = private unnamed_addr constant [7 x i8] c"talker\00", align 1
@.str10 = private unnamed_addr constant [8 x i8] c"chatter\00", align 1
@.str11 = private unnamed_addr constant [13 x i8] c"hello world \00", align 1
@.str12 = private unnamed_addr constant [33 x i8] c"992ce8a1687cec8c8bd883ec73ca41d1\00", align 1
@.str13 = private unnamed_addr constant [16 x i8] c"std_msgs/String\00", align 1
@.str14 = private unnamed_addr constant [13 x i8] c"string data\0A\00", align 1
@_ZN3ros7console13g_initializedE = external global i8
@_ZZNK3ros9Publisher7publishIN8std_msgs7String_ISaIvEEEEEvRKT_E3loc = linkonce_odr global %"struct.ros::console::LogLocation" { i8 0, i8 0, i32 5, %"class.log4cxx::Logger"* null }, comdat, align 8
@.str15 = private unnamed_addr constant [20 x i8] c"ros.unknown_package\00", align 1
@.str16 = private unnamed_addr constant [40 x i8] c"/opt/ros/groovy/include/ros/publisher.h\00", align 1
@__PRETTY_FUNCTION__._ZNK3ros9Publisher7publishIN8std_msgs7String_ISaIvEEEEEvRKT_ = private unnamed_addr constant [93 x i8] c"void ros::Publisher::publish(const M &) const [M = std_msgs::String_<std::allocator<void> >]\00", align 1
@.str17 = private unnamed_addr constant [62 x i8] c"ASSERTION FAILED\0A\09file = %s\0A\09line = %d\0A\09cond = %s\0A\09message = \00", align 1
@.str18 = private unnamed_addr constant [6 x i8] c"false\00", align 1
@_ZZNK3ros9Publisher7publishIN8std_msgs7String_ISaIvEEEEEvRKT_E3loc_0 = linkonce_odr global %"struct.ros::console::LogLocation" { i8 0, i8 0, i32 5, %"class.log4cxx::Logger"* null }, comdat, align 8
@.str19 = private unnamed_addr constant [42 x i8] c"Call to publish() on an invalid Publisher\00", align 1
@_ZZNK3ros9Publisher7publishIN8std_msgs7String_ISaIvEEEEEvRKT_E3loc_1 = linkonce_odr global %"struct.ros::console::LogLocation" { i8 0, i8 0, i32 5, %"class.log4cxx::Logger"* null }, comdat, align 8
@.str20 = private unnamed_addr constant [2 x i8] c"\0A\00", align 1
@_ZZNK3ros9Publisher7publishIN8std_msgs7String_ISaIvEEEEEvRKT_E3loc_2 = linkonce_odr global %"struct.ros::console::LogLocation" { i8 0, i8 0, i32 5, %"class.log4cxx::Logger"* null }, comdat, align 8
@_ZZNK3ros9Publisher7publishIN8std_msgs7String_ISaIvEEEEEvRKT_E3loc_3 = linkonce_odr global %"struct.ros::console::LogLocation" { i8 0, i8 0, i32 5, %"class.log4cxx::Logger"* null }, comdat, align 8
@.str21 = private unnamed_addr constant [55 x i8] c"Call to publish() on an invalid Publisher (topic [%s])\00", align 1
@_ZZNK3ros9Publisher7publishIN8std_msgs7String_ISaIvEEEEEvRKT_E3loc_4 = linkonce_odr global %"struct.ros::console::LogLocation" { i8 0, i8 0, i32 5, %"class.log4cxx::Logger"* null }, comdat, align 8
@.str22 = private unnamed_addr constant [2 x i8] c"*\00", align 1
@_ZZNK3ros9Publisher7publishIN8std_msgs7String_ISaIvEEEEEvRKT_E3loc_5 = linkonce_odr global %"struct.ros::console::LogLocation" { i8 0, i8 0, i32 5, %"class.log4cxx::Logger"* null }, comdat, align 8
@.str23 = private unnamed_addr constant [112 x i8] c"impl_->md5sum_ == \22*\22 || std::string(mt::md5sum<M>(message)) == \22*\22 || impl_->md5sum_ == mt::md5sum<M>(message)\00", align 1
@_ZZNK3ros9Publisher7publishIN8std_msgs7String_ISaIvEEEEEvRKT_E3loc_6 = linkonce_odr global %"struct.ros::console::LogLocation" { i8 0, i8 0, i32 5, %"class.log4cxx::Logger"* null }, comdat, align 8
@.str24 = private unnamed_addr constant [75 x i8] c"Trying to publish message of type [%s/%s] on a publisher with type [%s/%s]\00", align 1
@_ZZNK3ros9Publisher7publishIN8std_msgs7String_ISaIvEEEEEvRKT_E3loc_7 = linkonce_odr global %"struct.ros::console::LogLocation" { i8 0, i8 0, i32 5, %"class.log4cxx::Logger"* null }, comdat, align 8
@.str25 = private unnamed_addr constant [8 x i8] c"px != 0\00", align 1
@.str26 = private unnamed_addr constant [44 x i8] c"/usr/include/boost/smart_ptr/shared_ptr.hpp\00", align 1
@__PRETTY_FUNCTION__._ZNK5boost10shared_ptrIN3ros9Publisher4ImplEEptEv = private unnamed_addr constant [90 x i8] c"T *boost::shared_ptr<ros::Publisher::Impl>::operator->() const [Y = ros::Publisher::Impl]\00", align 1
@_ZTVN5boost6detail18sp_counted_impl_pdIPhNS_21checked_array_deleterIhEEEE = linkonce_odr unnamed_addr constant [7 x i8*] [i8* null, i8* bitcast ({ i8*, i8*, i8* }* @_ZTIN5boost6detail18sp_counted_impl_pdIPhNS_21checked_array_deleterIhEEEE to i8*), i8* bitcast (void (%"class.boost::detail::sp_counted_impl_pd"*)* @_ZN5boost6detail18sp_counted_impl_pdIPhNS_21checked_array_deleterIhEEED2Ev to i8*), i8* bitcast (void (%"class.boost::detail::sp_counted_impl_pd"*)* @_ZN5boost6detail18sp_counted_impl_pdIPhNS_21checked_array_deleterIhEEED0Ev to i8*), i8* bitcast (void (%"class.boost::detail::sp_counted_impl_pd"*)* @_ZN5boost6detail18sp_counted_impl_pdIPhNS_21checked_array_deleterIhEEE7disposeEv to i8*), i8* bitcast (void (%"class.boost::detail::sp_counted_base"*)* @_ZN5boost6detail15sp_counted_base7destroyEv to i8*), i8* bitcast (i8* (%"class.boost::detail::sp_counted_impl_pd"*, %"class.std::type_info"*)* @_ZN5boost6detail18sp_counted_impl_pdIPhNS_21checked_array_deleterIhEEE11get_deleterERKSt9type_info to i8*)], comdat, align 8
@_ZTVN10__cxxabiv120__si_class_type_infoE = external global i8*
@_ZTSN5boost6detail18sp_counted_impl_pdIPhNS_21checked_array_deleterIhEEEE = linkonce_odr constant [70 x i8] c"N5boost6detail18sp_counted_impl_pdIPhNS_21checked_array_deleterIhEEEE\00", comdat
@_ZTVN10__cxxabiv117__class_type_infoE = external global i8*
@_ZTSN5boost6detail15sp_counted_baseE = linkonce_odr constant [33 x i8] c"N5boost6detail15sp_counted_baseE\00", comdat
@_ZTIN5boost6detail15sp_counted_baseE = linkonce_odr constant { i8*, i8* } { i8* bitcast (i8** getelementptr inbounds (i8** @_ZTVN10__cxxabiv117__class_type_infoE, i64 2) to i8*), i8* getelementptr inbounds ([33 x i8]* @_ZTSN5boost6detail15sp_counted_baseE, i32 0, i32 0) }, comdat
@_ZTIN5boost6detail18sp_counted_impl_pdIPhNS_21checked_array_deleterIhEEEE = linkonce_odr constant { i8*, i8*, i8* } { i8* bitcast (i8** getelementptr inbounds (i8** @_ZTVN10__cxxabiv120__si_class_type_infoE, i64 2) to i8*), i8* getelementptr inbounds ([70 x i8]* @_ZTSN5boost6detail18sp_counted_impl_pdIPhNS_21checked_array_deleterIhEEEE, i32 0, i32 0), i8* bitcast ({ i8*, i8* }* @_ZTIN5boost6detail15sp_counted_baseE to i8*) }, comdat
@_ZTVN5boost6detail15sp_counted_baseE = linkonce_odr unnamed_addr constant [7 x i8*] [i8* null, i8* bitcast ({ i8*, i8* }* @_ZTIN5boost6detail15sp_counted_baseE to i8*), i8* bitcast (void (%"class.boost::detail::sp_counted_base"*)* @_ZN5boost6detail15sp_counted_baseD2Ev to i8*), i8* bitcast (void (%"class.boost::detail::sp_counted_base"*)* @_ZN5boost6detail15sp_counted_baseD0Ev to i8*), i8* bitcast (void ()* @__cxa_pure_virtual to i8*), i8* bitcast (void (%"class.boost::detail::sp_counted_base"*)* @_ZN5boost6detail15sp_counted_base7destroyEv to i8*), i8* bitcast (void ()* @__cxa_pure_virtual to i8*)], comdat, align 8
@_ZTSN5boost21checked_array_deleterIhEE = linkonce_odr constant [35 x i8] c"N5boost21checked_array_deleterIhEE\00", comdat
@_ZTIN5boost21checked_array_deleterIhEE = linkonce_odr constant { i8*, i8* } { i8* bitcast (i8** getelementptr inbounds (i8** @_ZTVN10__cxxabiv117__class_type_infoE, i64 2) to i8*), i8* getelementptr inbounds ([35 x i8]* @_ZTSN5boost21checked_array_deleterIhEE, i32 0, i32 0) }, comdat
@.str27 = private unnamed_addr constant [18 x i8] c"p == 0 || p != px\00", align 1
@.str28 = private unnamed_addr constant [46 x i8] c"/usr/include/boost/smart_ptr/shared_array.hpp\00", align 1
@__PRETTY_FUNCTION__._ZN5boost12shared_arrayIhE5resetEPh = private unnamed_addr constant [72 x i8] c"void boost::shared_array<unsigned char>::reset(T *) [T = unsigned char]\00", align 1
@_ZZN5boost9function0IN3ros17SerializedMessageEE9assign_toINS_3_bi6bind_tIS2_PFS2_RKN8std_msgs7String_ISaIvEEEENS5_5list1INS_17reference_wrapperISB_EEEEEEEEvT_E13stored_vtable = linkonce_odr global %"struct.boost::detail::function::basic_vtable0" { %"struct.boost::detail::function::vtable_base" { void (%"union.boost::detail::function::function_buffer"*, %"union.boost::detail::function::function_buffer"*, i32)* @_ZN5boost6detail8function15functor_managerINS_3_bi6bind_tIN3ros17SerializedMessageEPFS6_RKN8std_msgs7String_ISaIvEEEENS3_5list1INS_17reference_wrapperISB_EEEEEEE6manageERKNS1_15function_bufferERSL_NS1_30functor_manager_operation_typeE }, void (%"class.ros::SerializedMessage"*, %"union.boost::detail::function::function_buffer"*)* @_ZN5boost6detail8function21function_obj_invoker0INS_3_bi6bind_tIN3ros17SerializedMessageEPFS6_RKN8std_msgs7String_ISaIvEEEENS3_5list1INS_17reference_wrapperISB_EEEEEES6_E6invokeERNS1_15function_bufferE }, comdat, align 8
@_ZTSN5boost3_bi6bind_tIN3ros17SerializedMessageEPFS3_RKN8std_msgs7String_ISaIvEEEENS0_5list1INS_17reference_wrapperIS8_EEEEEE = linkonce_odr constant [122 x i8] c"N5boost3_bi6bind_tIN3ros17SerializedMessageEPFS3_RKN8std_msgs7String_ISaIvEEEENS0_5list1INS_17reference_wrapperIS8_EEEEEE\00", comdat
@_ZTIN5boost3_bi6bind_tIN3ros17SerializedMessageEPFS3_RKN8std_msgs7String_ISaIvEEEENS0_5list1INS_17reference_wrapperIS8_EEEEEE = linkonce_odr constant { i8*, i8* } { i8* bitcast (i8** getelementptr inbounds (i8** @_ZTVN10__cxxabiv117__class_type_infoE, i64 2) to i8*), i8* getelementptr inbounds ([122 x i8]* @_ZTSN5boost3_bi6bind_tIN3ros17SerializedMessageEPFS3_RKN8std_msgs7String_ISaIvEEEENS0_5list1INS_17reference_wrapperIS8_EEEEEE, i32 0, i32 0) }, comdat
@llvm.global_ctors = appending global [1 x { i32, void ()*, i8* }] [{ i32, void ()*, i8* } { i32 65535, void ()* @_GLOBAL__sub_I_talker.cpp, i8* null }]

define internal void @__cxx_global_var_init() section ".text.startup" {
entry:
  call void @_ZNSt8ios_base4InitC1Ev(%"class.std::ios_base::Init"* @_ZStL8__ioinit), !dbg !7536
  %0 = call i32 @__cxa_atexit(void (i8*)* bitcast (void (%"class.std::ios_base::Init"*)* @_ZNSt8ios_base4InitD1Ev to void (i8*)*), i8* getelementptr inbounds (%"class.std::ios_base::Init"* @_ZStL8__ioinit, i32 0, i32 0), i8* @__dso_handle) #1, !dbg !7536
  ret void, !dbg !7536
}

declare void @_ZNSt8ios_base4InitC1Ev(%"class.std::ios_base::Init"*) #0

declare void @_ZNSt8ios_base4InitD1Ev(%"class.std::ios_base::Init"*) #0

; Function Attrs: nounwind
declare i32 @__cxa_atexit(void (i8*)*, i8*, i8*) #1

define internal void @__cxx_global_var_init1() section ".text.startup" {
entry:
  call void @_ZN5boost3argILi1EEC2Ev(%"struct.boost::arg"* @_ZN12_GLOBAL__N_12_1E), !dbg !7537
  ret void, !dbg !7537
}

; Function Attrs: nounwind uwtable
define linkonce_odr void @_ZN5boost3argILi1EEC2Ev(%"struct.boost::arg"* %this) unnamed_addr #2 comdat align 2 {
entry:
  %this.addr = alloca %"struct.boost::arg"*, align 8
  store %"struct.boost::arg"* %this, %"struct.boost::arg"** %this.addr, align 8
  call void @llvm.dbg.declare(metadata %"struct.boost::arg"** %this.addr, metadata !7538, metadata !7540), !dbg !7541
  %this1 = load %"struct.boost::arg"** %this.addr
  ret void, !dbg !7542
}

define internal void @__cxx_global_var_init2() section ".text.startup" {
entry:
  call void @_ZN5boost3argILi2EEC2Ev(%"struct.boost::arg.0"* @_ZN12_GLOBAL__N_12_2E), !dbg !7543
  ret void, !dbg !7543
}

; Function Attrs: nounwind uwtable
define linkonce_odr void @_ZN5boost3argILi2EEC2Ev(%"struct.boost::arg.0"* %this) unnamed_addr #2 comdat align 2 {
entry:
  %this.addr = alloca %"struct.boost::arg.0"*, align 8
  store %"struct.boost::arg.0"* %this, %"struct.boost::arg.0"** %this.addr, align 8
  call void @llvm.dbg.declare(metadata %"struct.boost::arg.0"** %this.addr, metadata !7544, metadata !7540), !dbg !7546
  %this1 = load %"struct.boost::arg.0"** %this.addr
  ret void, !dbg !7547
}

define internal void @__cxx_global_var_init3() section ".text.startup" {
entry:
  call void @_ZN5boost3argILi3EEC2Ev(%"struct.boost::arg.2"* @_ZN12_GLOBAL__N_12_3E), !dbg !7548
  ret void, !dbg !7548
}

; Function Attrs: nounwind uwtable
define linkonce_odr void @_ZN5boost3argILi3EEC2Ev(%"struct.boost::arg.2"* %this) unnamed_addr #2 comdat align 2 {
entry:
  %this.addr = alloca %"struct.boost::arg.2"*, align 8
  store %"struct.boost::arg.2"* %this, %"struct.boost::arg.2"** %this.addr, align 8
  call void @llvm.dbg.declare(metadata %"struct.boost::arg.2"** %this.addr, metadata !7549, metadata !7540), !dbg !7551
  %this1 = load %"struct.boost::arg.2"** %this.addr
  ret void, !dbg !7552
}

define internal void @__cxx_global_var_init4() section ".text.startup" {
entry:
  call void @_ZN5boost3argILi4EEC2Ev(%"struct.boost::arg.4"* @_ZN12_GLOBAL__N_12_4E), !dbg !7553
  ret void, !dbg !7553
}

; Function Attrs: nounwind uwtable
define linkonce_odr void @_ZN5boost3argILi4EEC2Ev(%"struct.boost::arg.4"* %this) unnamed_addr #2 comdat align 2 {
entry:
  %this.addr = alloca %"struct.boost::arg.4"*, align 8
  store %"struct.boost::arg.4"* %this, %"struct.boost::arg.4"** %this.addr, align 8
  call void @llvm.dbg.declare(metadata %"struct.boost::arg.4"** %this.addr, metadata !7554, metadata !7540), !dbg !7556
  %this1 = load %"struct.boost::arg.4"** %this.addr
  ret void, !dbg !7557
}

define internal void @__cxx_global_var_init5() section ".text.startup" {
entry:
  call void @_ZN5boost3argILi5EEC2Ev(%"struct.boost::arg.6"* @_ZN12_GLOBAL__N_12_5E), !dbg !7558
  ret void, !dbg !7558
}

; Function Attrs: nounwind uwtable
define linkonce_odr void @_ZN5boost3argILi5EEC2Ev(%"struct.boost::arg.6"* %this) unnamed_addr #2 comdat align 2 {
entry:
  %this.addr = alloca %"struct.boost::arg.6"*, align 8
  store %"struct.boost::arg.6"* %this, %"struct.boost::arg.6"** %this.addr, align 8
  call void @llvm.dbg.declare(metadata %"struct.boost::arg.6"** %this.addr, metadata !7559, metadata !7540), !dbg !7561
  %this1 = load %"struct.boost::arg.6"** %this.addr
  ret void, !dbg !7562
}

define internal void @__cxx_global_var_init6() section ".text.startup" {
entry:
  call void @_ZN5boost3argILi6EEC2Ev(%"struct.boost::arg.8"* @_ZN12_GLOBAL__N_12_6E), !dbg !7563
  ret void, !dbg !7563
}

; Function Attrs: nounwind uwtable
define linkonce_odr void @_ZN5boost3argILi6EEC2Ev(%"struct.boost::arg.8"* %this) unnamed_addr #2 comdat align 2 {
entry:
  %this.addr = alloca %"struct.boost::arg.8"*, align 8
  store %"struct.boost::arg.8"* %this, %"struct.boost::arg.8"** %this.addr, align 8
  call void @llvm.dbg.declare(metadata %"struct.boost::arg.8"** %this.addr, metadata !7564, metadata !7540), !dbg !7566
  %this1 = load %"struct.boost::arg.8"** %this.addr
  ret void, !dbg !7567
}

define internal void @__cxx_global_var_init7() section ".text.startup" {
entry:
  call void @_ZN5boost3argILi7EEC2Ev(%"struct.boost::arg.10"* @_ZN12_GLOBAL__N_12_7E), !dbg !7568
  ret void, !dbg !7568
}

; Function Attrs: nounwind uwtable
define linkonce_odr void @_ZN5boost3argILi7EEC2Ev(%"struct.boost::arg.10"* %this) unnamed_addr #2 comdat align 2 {
entry:
  %this.addr = alloca %"struct.boost::arg.10"*, align 8
  store %"struct.boost::arg.10"* %this, %"struct.boost::arg.10"** %this.addr, align 8
  call void @llvm.dbg.declare(metadata %"struct.boost::arg.10"** %this.addr, metadata !7569, metadata !7540), !dbg !7571
  %this1 = load %"struct.boost::arg.10"** %this.addr
  ret void, !dbg !7572
}

define internal void @__cxx_global_var_init8() section ".text.startup" {
entry:
  call void @_ZN5boost3argILi8EEC2Ev(%"struct.boost::arg.12"* @_ZN12_GLOBAL__N_12_8E), !dbg !7573
  ret void, !dbg !7573
}

; Function Attrs: nounwind uwtable
define linkonce_odr void @_ZN5boost3argILi8EEC2Ev(%"struct.boost::arg.12"* %this) unnamed_addr #2 comdat align 2 {
entry:
  %this.addr = alloca %"struct.boost::arg.12"*, align 8
  store %"struct.boost::arg.12"* %this, %"struct.boost::arg.12"** %this.addr, align 8
  call void @llvm.dbg.declare(metadata %"struct.boost::arg.12"** %this.addr, metadata !7574, metadata !7540), !dbg !7576
  %this1 = load %"struct.boost::arg.12"** %this.addr
  ret void, !dbg !7577
}

define internal void @__cxx_global_var_init9() section ".text.startup" {
entry:
  call void @_ZN5boost3argILi9EEC2Ev(%"struct.boost::arg.14"* @_ZN12_GLOBAL__N_12_9E), !dbg !7578
  ret void, !dbg !7578
}

; Function Attrs: nounwind uwtable
define linkonce_odr void @_ZN5boost3argILi9EEC2Ev(%"struct.boost::arg.14"* %this) unnamed_addr #2 comdat align 2 {
entry:
  %this.addr = alloca %"struct.boost::arg.14"*, align 8
  store %"struct.boost::arg.14"* %this, %"struct.boost::arg.14"** %this.addr, align 8
  call void @llvm.dbg.declare(metadata %"struct.boost::arg.14"** %this.addr, metadata !7579, metadata !7540), !dbg !7581
  %this1 = load %"struct.boost::arg.14"** %this.addr
  ret void, !dbg !7582
}

; Function Attrs: uwtable
define i32 @main(i32 %argc, i8** %argv) #3 {
entry:
  %retval = alloca i32, align 4
  %argc.addr = alloca i32, align 4
  %argv.addr = alloca i8**, align 8
  %ref.tmp = alloca %"class.std::basic_string", align 8
  %ref.tmp1 = alloca %"class.std::allocator", align 1
  %exn.slot = alloca i8*
  %ehselector.slot = alloca i32
  %n = alloca %"class.ros::NodeHandle", align 8
  %ref.tmp6 = alloca %"class.std::basic_string", align 8
  %ref.tmp7 = alloca %"class.std::map", align 8
  %chatter_pub = alloca %"class.ros::Publisher", align 8
  %ref.tmp17 = alloca %"class.std::basic_string", align 8
  %ref.tmp18 = alloca %"class.std::allocator", align 1
  %loop_rate = alloca %"class.ros::Rate", align 4
  %count = alloca i32, align 4
  %msg = alloca %"struct.std_msgs::String_", align 8
  %ss = alloca %"class.std::basic_stringstream", align 8
  %ref.tmp41 = alloca %"class.std::basic_string", align 8
  %cleanup.dest.slot = alloca i32
  store i32 0, i32* %retval
  store i32 %argc, i32* %argc.addr, align 4
  call void @llvm.dbg.declare(metadata i32* %argc.addr, metadata !7583, metadata !7540), !dbg !7584
  store i8** %argv, i8*** %argv.addr, align 8
  call void @llvm.dbg.declare(metadata i8*** %argv.addr, metadata !7585, metadata !7540), !dbg !7586
  %0 = load i8*** %argv.addr, align 8, !dbg !7587
  call void @_ZNSaIcEC1Ev(%"class.std::allocator"* %ref.tmp1) #1, !dbg !7588
  invoke void @_ZNSsC1EPKcRKSaIcE(%"class.std::basic_string"* %ref.tmp, i8* getelementptr inbounds ([7 x i8]* @.str, i32 0, i32 0), %"class.std::allocator"* dereferenceable(1) %ref.tmp1)
          to label %invoke.cont unwind label %lpad, !dbg !7588

invoke.cont:                                      ; preds = %entry
  invoke void @_ZN3ros4initERiPPcRKSsj(i32* dereferenceable(4) %argc.addr, i8** %0, %"class.std::basic_string"* dereferenceable(8) %ref.tmp, i32 0)
          to label %invoke.cont3 unwind label %lpad2, !dbg !7589

invoke.cont3:                                     ; preds = %invoke.cont
  invoke void @_ZNSsD1Ev(%"class.std::basic_string"* %ref.tmp)
          to label %invoke.cont4 unwind label %lpad, !dbg !7591

invoke.cont4:                                     ; preds = %invoke.cont3
  call void @_ZNSaIcED1Ev(%"class.std::allocator"* %ref.tmp1) #1, !dbg !7593
  call void @llvm.dbg.declare(metadata %"class.ros::NodeHandle"* %n, metadata !7595, metadata !7540), !dbg !7596
  call void @_ZNSsC1Ev(%"class.std::basic_string"* %ref.tmp6), !dbg !7596
  invoke void @_ZNSt3mapISsSsSt4lessISsESaISt4pairIKSsSsEEEC2Ev(%"class.std::map"* %ref.tmp7)
          to label %invoke.cont9 unwind label %lpad8, !dbg !7596

invoke.cont9:                                     ; preds = %invoke.cont4
  invoke void @_ZN3ros10NodeHandleC1ERKSsRKSt3mapISsSsSt4lessISsESaISt4pairIS1_SsEEE(%"class.ros::NodeHandle"* %n, %"class.std::basic_string"* dereferenceable(8) %ref.tmp6, %"class.std::map"* dereferenceable(48) %ref.tmp7)
          to label %invoke.cont11 unwind label %lpad10, !dbg !7597

invoke.cont11:                                    ; preds = %invoke.cont9
  invoke void @_ZNSt3mapISsSsSt4lessISsESaISt4pairIKSsSsEEED2Ev(%"class.std::map"* %ref.tmp7)
          to label %invoke.cont12 unwind label %lpad8, !dbg !7598

invoke.cont12:                                    ; preds = %invoke.cont11
  call void @_ZNSsD1Ev(%"class.std::basic_string"* %ref.tmp6), !dbg !7599
  call void @llvm.dbg.declare(metadata %"class.ros::Publisher"* %chatter_pub, metadata !7601, metadata !7540), !dbg !7602
  call void @_ZNSaIcEC1Ev(%"class.std::allocator"* %ref.tmp18) #1, !dbg !7603
  invoke void @_ZNSsC1EPKcRKSaIcE(%"class.std::basic_string"* %ref.tmp17, i8* getelementptr inbounds ([8 x i8]* @.str10, i32 0, i32 0), %"class.std::allocator"* dereferenceable(1) %ref.tmp18)
          to label %invoke.cont20 unwind label %lpad19, !dbg !7603

invoke.cont20:                                    ; preds = %invoke.cont12
  invoke void @_ZN3ros10NodeHandle9advertiseIN8std_msgs7String_ISaIvEEEEENS_9PublisherERKSsjb(%"class.ros::Publisher"* sret %chatter_pub, %"class.ros::NodeHandle"* %n, %"class.std::basic_string"* dereferenceable(8) %ref.tmp17, i32 1000, i1 zeroext false)
          to label %invoke.cont22 unwind label %lpad21, !dbg !7604

invoke.cont22:                                    ; preds = %invoke.cont20
  invoke void @_ZNSsD1Ev(%"class.std::basic_string"* %ref.tmp17)
          to label %invoke.cont23 unwind label %lpad19, !dbg !7605

invoke.cont23:                                    ; preds = %invoke.cont22
  call void @_ZNSaIcED1Ev(%"class.std::allocator"* %ref.tmp18) #1, !dbg !7606
  call void @llvm.dbg.declare(metadata %"class.ros::Rate"* %loop_rate, metadata !7607, metadata !7540), !dbg !7608
  invoke void @_ZN3ros4RateC1Ed(%"class.ros::Rate"* %loop_rate, double 1.000000e+01)
          to label %invoke.cont28 unwind label %lpad27, !dbg !7608

invoke.cont28:                                    ; preds = %invoke.cont23
  call void @llvm.dbg.declare(metadata i32* %count, metadata !7609, metadata !7540), !dbg !7610
  store i32 0, i32* %count, align 4, !dbg !7610
  br label %while.cond, !dbg !7611

while.cond:                                       ; preds = %invoke.cont56, %invoke.cont28
  %call = invoke zeroext i1 @_ZN3ros2okEv()
          to label %invoke.cont30 unwind label %lpad29, !dbg !7612

invoke.cont30:                                    ; preds = %while.cond
  br i1 %call, label %while.body, label %while.end, !dbg !7614

while.body:                                       ; preds = %invoke.cont30
  call void @llvm.dbg.declare(metadata %"struct.std_msgs::String_"* %msg, metadata !7615, metadata !7540), !dbg !7618
  invoke void @_ZN8std_msgs7String_ISaIvEEC2Ev(%"struct.std_msgs::String_"* %msg)
          to label %invoke.cont31 unwind label %lpad29, !dbg !7618

invoke.cont31:                                    ; preds = %while.body
  call void @llvm.dbg.declare(metadata %"class.std::basic_stringstream"* %ss, metadata !7619, metadata !7540), !dbg !7621
  %call34 = invoke i32 @_ZStorSt13_Ios_OpenmodeS_(i32 16, i32 8)
          to label %invoke.cont33 unwind label %lpad32, !dbg !7621

invoke.cont33:                                    ; preds = %invoke.cont31
  invoke void @_ZNSt18basic_stringstreamIcSt11char_traitsIcESaIcEEC1ESt13_Ios_Openmode(%"class.std::basic_stringstream"* %ss, i32 %call34)
          to label %invoke.cont35 unwind label %lpad32, !dbg !7622

invoke.cont35:                                    ; preds = %invoke.cont33
  %1 = bitcast %"class.std::basic_stringstream"* %ss to i8*, !dbg !7624
  %add.ptr = getelementptr inbounds i8* %1, i64 16, !dbg !7624
  %2 = bitcast i8* %add.ptr to %"class.std::basic_ostream"*, !dbg !7624
  %call38 = invoke dereferenceable(272) %"class.std::basic_ostream"* @_ZStlsISt11char_traitsIcEERSt13basic_ostreamIcT_ES5_PKc(%"class.std::basic_ostream"* dereferenceable(272) %2, i8* getelementptr inbounds ([13 x i8]* @.str11, i32 0, i32 0))
          to label %invoke.cont37 unwind label %lpad36, !dbg !7625

invoke.cont37:                                    ; preds = %invoke.cont35
  %3 = load i32* %count, align 4, !dbg !7626
  %call40 = invoke dereferenceable(272) %"class.std::basic_ostream"* @_ZNSolsEi(%"class.std::basic_ostream"* %call38, i32 %3)
          to label %invoke.cont39 unwind label %lpad36, !dbg !7627

invoke.cont39:                                    ; preds = %invoke.cont37
  %data = getelementptr inbounds %"struct.std_msgs::String_"* %msg, i32 0, i32 0, !dbg !7628
  invoke void @_ZNKSt18basic_stringstreamIcSt11char_traitsIcESaIcEE3strEv(%"class.std::basic_string"* sret %ref.tmp41, %"class.std::basic_stringstream"* %ss)
          to label %invoke.cont42 unwind label %lpad36, !dbg !7629

invoke.cont42:                                    ; preds = %invoke.cont39
  %call45 = invoke dereferenceable(8) %"class.std::basic_string"* @_ZNSsaSERKSs(%"class.std::basic_string"* %data, %"class.std::basic_string"* dereferenceable(8) %ref.tmp41)
          to label %invoke.cont44 unwind label %lpad43, !dbg !7630

invoke.cont44:                                    ; preds = %invoke.cont42
  invoke void @_ZNSsD1Ev(%"class.std::basic_string"* %ref.tmp41)
          to label %invoke.cont46 unwind label %lpad36, !dbg !7631

invoke.cont46:                                    ; preds = %invoke.cont44
  invoke void @_ZNK3ros9Publisher7publishIN8std_msgs7String_ISaIvEEEEEvRKT_(%"class.ros::Publisher"* %chatter_pub, %"struct.std_msgs::String_"* dereferenceable(24) %msg)
          to label %invoke.cont49 unwind label %lpad36, !dbg !7633

invoke.cont49:                                    ; preds = %invoke.cont46
  invoke void @_ZN3ros8spinOnceEv()
          to label %invoke.cont50 unwind label %lpad36, !dbg !7634

invoke.cont50:                                    ; preds = %invoke.cont49
  %call52 = invoke zeroext i1 @_ZN3ros4Rate5sleepEv(%"class.ros::Rate"* %loop_rate)
          to label %invoke.cont51 unwind label %lpad36, !dbg !7635

invoke.cont51:                                    ; preds = %invoke.cont50
  %4 = load i32* %count, align 4, !dbg !7636
  %inc = add nsw i32 %4, 1, !dbg !7636
  store i32 %inc, i32* %count, align 4, !dbg !7636
  invoke void @_ZNSt18basic_stringstreamIcSt11char_traitsIcESaIcEED1Ev(%"class.std::basic_stringstream"* %ss)
          to label %invoke.cont53 unwind label %lpad32, !dbg !7637

invoke.cont53:                                    ; preds = %invoke.cont51
  invoke void @_ZN8std_msgs7String_ISaIvEED2Ev(%"struct.std_msgs::String_"* %msg)
          to label %invoke.cont56 unwind label %lpad29, !dbg !7638

invoke.cont56:                                    ; preds = %invoke.cont53
  br label %while.cond, !dbg !7611

lpad:                                             ; preds = %invoke.cont3, %entry
  %5 = landingpad { i8*, i32 } personality i8* bitcast (i32 (...)* @__gxx_personality_v0 to i8*)
          cleanup, !dbg !7639
  %6 = extractvalue { i8*, i32 } %5, 0, !dbg !7639
  store i8* %6, i8** %exn.slot, !dbg !7639
  %7 = extractvalue { i8*, i32 } %5, 1, !dbg !7639
  store i32 %7, i32* %ehselector.slot, !dbg !7639
  br label %ehcleanup, !dbg !7639

lpad2:                                            ; preds = %invoke.cont
  %8 = landingpad { i8*, i32 } personality i8* bitcast (i32 (...)* @__gxx_personality_v0 to i8*)
          cleanup, !dbg !7639
  %9 = extractvalue { i8*, i32 } %8, 0, !dbg !7639
  store i8* %9, i8** %exn.slot, !dbg !7639
  %10 = extractvalue { i8*, i32 } %8, 1, !dbg !7639
  store i32 %10, i32* %ehselector.slot, !dbg !7639
  invoke void @_ZNSsD1Ev(%"class.std::basic_string"* %ref.tmp)
          to label %invoke.cont5 unwind label %terminate.lpad, !dbg !7640

invoke.cont5:                                     ; preds = %lpad2
  br label %ehcleanup, !dbg !7641

ehcleanup:                                        ; preds = %invoke.cont5, %lpad
  call void @_ZNSaIcED1Ev(%"class.std::allocator"* %ref.tmp1) #1, !dbg !7642
  br label %eh.resume, !dbg !7642

lpad8:                                            ; preds = %invoke.cont11, %invoke.cont4
  %11 = landingpad { i8*, i32 } personality i8* bitcast (i32 (...)* @__gxx_personality_v0 to i8*)
          cleanup, !dbg !7644
  %12 = extractvalue { i8*, i32 } %11, 0, !dbg !7644
  store i8* %12, i8** %exn.slot, !dbg !7644
  %13 = extractvalue { i8*, i32 } %11, 1, !dbg !7644
  store i32 %13, i32* %ehselector.slot, !dbg !7644
  br label %ehcleanup15, !dbg !7644

lpad10:                                           ; preds = %invoke.cont9
  %14 = landingpad { i8*, i32 } personality i8* bitcast (i32 (...)* @__gxx_personality_v0 to i8*)
          cleanup, !dbg !7639
  %15 = extractvalue { i8*, i32 } %14, 0, !dbg !7639
  store i8* %15, i8** %exn.slot, !dbg !7639
  %16 = extractvalue { i8*, i32 } %14, 1, !dbg !7639
  store i32 %16, i32* %ehselector.slot, !dbg !7639
  invoke void @_ZNSt3mapISsSsSt4lessISsESaISt4pairIKSsSsEEED2Ev(%"class.std::map"* %ref.tmp7)
          to label %invoke.cont14 unwind label %terminate.lpad, !dbg !7596

invoke.cont14:                                    ; preds = %lpad10
  br label %ehcleanup15, !dbg !7646

ehcleanup15:                                      ; preds = %invoke.cont14, %lpad8
  invoke void @_ZNSsD1Ev(%"class.std::basic_string"* %ref.tmp6)
          to label %invoke.cont16 unwind label %terminate.lpad, !dbg !7648

invoke.cont16:                                    ; preds = %ehcleanup15
  br label %eh.resume, !dbg !7650

lpad19:                                           ; preds = %invoke.cont22, %invoke.cont12
  %17 = landingpad { i8*, i32 } personality i8* bitcast (i32 (...)* @__gxx_personality_v0 to i8*)
          cleanup, !dbg !7639
  %18 = extractvalue { i8*, i32 } %17, 0, !dbg !7639
  store i8* %18, i8** %exn.slot, !dbg !7639
  %19 = extractvalue { i8*, i32 } %17, 1, !dbg !7639
  store i32 %19, i32* %ehselector.slot, !dbg !7639
  br label %ehcleanup26, !dbg !7639

lpad21:                                           ; preds = %invoke.cont20
  %20 = landingpad { i8*, i32 } personality i8* bitcast (i32 (...)* @__gxx_personality_v0 to i8*)
          cleanup, !dbg !7639
  %21 = extractvalue { i8*, i32 } %20, 0, !dbg !7639
  store i8* %21, i8** %exn.slot, !dbg !7639
  %22 = extractvalue { i8*, i32 } %20, 1, !dbg !7639
  store i32 %22, i32* %ehselector.slot, !dbg !7639
  invoke void @_ZNSsD1Ev(%"class.std::basic_string"* %ref.tmp17)
          to label %invoke.cont25 unwind label %terminate.lpad, !dbg !7652

invoke.cont25:                                    ; preds = %lpad21
  br label %ehcleanup26, !dbg !7653

ehcleanup26:                                      ; preds = %invoke.cont25, %lpad19
  call void @_ZNSaIcED1Ev(%"class.std::allocator"* %ref.tmp18) #1, !dbg !7654
  br label %ehcleanup66, !dbg !7654

lpad27:                                           ; preds = %while.end, %invoke.cont23
  %23 = landingpad { i8*, i32 } personality i8* bitcast (i32 (...)* @__gxx_personality_v0 to i8*)
          cleanup, !dbg !7656
  %24 = extractvalue { i8*, i32 } %23, 0, !dbg !7656
  store i8* %24, i8** %exn.slot, !dbg !7656
  %25 = extractvalue { i8*, i32 } %23, 1, !dbg !7656
  store i32 %25, i32* %ehselector.slot, !dbg !7656
  br label %ehcleanup64, !dbg !7656

lpad29:                                           ; preds = %invoke.cont53, %while.body, %while.cond
  %26 = landingpad { i8*, i32 } personality i8* bitcast (i32 (...)* @__gxx_personality_v0 to i8*)
          cleanup, !dbg !7639
  %27 = extractvalue { i8*, i32 } %26, 0, !dbg !7639
  store i8* %27, i8** %exn.slot, !dbg !7639
  %28 = extractvalue { i8*, i32 } %26, 1, !dbg !7639
  store i32 %28, i32* %ehselector.slot, !dbg !7639
  br label %ehcleanup60, !dbg !7639

lpad32:                                           ; preds = %invoke.cont51, %invoke.cont33, %invoke.cont31
  %29 = landingpad { i8*, i32 } personality i8* bitcast (i32 (...)* @__gxx_personality_v0 to i8*)
          cleanup, !dbg !7657
  %30 = extractvalue { i8*, i32 } %29, 0, !dbg !7657
  store i8* %30, i8** %exn.slot, !dbg !7657
  %31 = extractvalue { i8*, i32 } %29, 1, !dbg !7657
  store i32 %31, i32* %ehselector.slot, !dbg !7657
  br label %ehcleanup57, !dbg !7657

lpad36:                                           ; preds = %invoke.cont50, %invoke.cont49, %invoke.cont46, %invoke.cont44, %invoke.cont39, %invoke.cont37, %invoke.cont35
  %32 = landingpad { i8*, i32 } personality i8* bitcast (i32 (...)* @__gxx_personality_v0 to i8*)
          cleanup, !dbg !7659
  %33 = extractvalue { i8*, i32 } %32, 0, !dbg !7659
  store i8* %33, i8** %exn.slot, !dbg !7659
  %34 = extractvalue { i8*, i32 } %32, 1, !dbg !7659
  store i32 %34, i32* %ehselector.slot, !dbg !7659
  br label %ehcleanup54, !dbg !7659

lpad43:                                           ; preds = %invoke.cont42
  %35 = landingpad { i8*, i32 } personality i8* bitcast (i32 (...)* @__gxx_personality_v0 to i8*)
          cleanup, !dbg !7659
  %36 = extractvalue { i8*, i32 } %35, 0, !dbg !7659
  store i8* %36, i8** %exn.slot, !dbg !7659
  %37 = extractvalue { i8*, i32 } %35, 1, !dbg !7659
  store i32 %37, i32* %ehselector.slot, !dbg !7659
  invoke void @_ZNSsD1Ev(%"class.std::basic_string"* %ref.tmp41)
          to label %invoke.cont48 unwind label %terminate.lpad, !dbg !7660

invoke.cont48:                                    ; preds = %lpad43
  br label %ehcleanup54, !dbg !7661

ehcleanup54:                                      ; preds = %invoke.cont48, %lpad36
  invoke void @_ZNSt18basic_stringstreamIcSt11char_traitsIcESaIcEED1Ev(%"class.std::basic_stringstream"* %ss)
          to label %invoke.cont55 unwind label %terminate.lpad, !dbg !7637

invoke.cont55:                                    ; preds = %ehcleanup54
  br label %ehcleanup57, !dbg !7663

ehcleanup57:                                      ; preds = %invoke.cont55, %lpad32
  invoke void @_ZN8std_msgs7String_ISaIvEED2Ev(%"struct.std_msgs::String_"* %msg)
          to label %invoke.cont58 unwind label %terminate.lpad, !dbg !7664

invoke.cont58:                                    ; preds = %ehcleanup57
  br label %ehcleanup60, !dbg !7665

while.end:                                        ; preds = %invoke.cont30
  store i32 0, i32* %retval, !dbg !7666
  store i32 1, i32* %cleanup.dest.slot
  invoke void @_ZN3ros4RateD2Ev(%"class.ros::Rate"* %loop_rate)
          to label %invoke.cont59 unwind label %lpad27, !dbg !7639

invoke.cont59:                                    ; preds = %while.end
  invoke void @_ZN3ros9PublisherD1Ev(%"class.ros::Publisher"* %chatter_pub)
          to label %invoke.cont63 unwind label %lpad62, !dbg !7667

ehcleanup60:                                      ; preds = %invoke.cont58, %lpad29
  invoke void @_ZN3ros4RateD2Ev(%"class.ros::Rate"* %loop_rate)
          to label %invoke.cont61 unwind label %terminate.lpad, !dbg !7668

invoke.cont61:                                    ; preds = %ehcleanup60
  br label %ehcleanup64, !dbg !7669

invoke.cont63:                                    ; preds = %invoke.cont59
  call void @_ZN3ros10NodeHandleD1Ev(%"class.ros::NodeHandle"* %n), !dbg !7670
  %38 = load i32* %retval, !dbg !7670
  ret i32 %38, !dbg !7670

lpad62:                                           ; preds = %invoke.cont59
  %39 = landingpad { i8*, i32 } personality i8* bitcast (i32 (...)* @__gxx_personality_v0 to i8*)
          cleanup, !dbg !7671
  %40 = extractvalue { i8*, i32 } %39, 0, !dbg !7671
  store i8* %40, i8** %exn.slot, !dbg !7671
  %41 = extractvalue { i8*, i32 } %39, 1, !dbg !7671
  store i32 %41, i32* %ehselector.slot, !dbg !7671
  br label %ehcleanup66, !dbg !7671

ehcleanup64:                                      ; preds = %invoke.cont61, %lpad27
  invoke void @_ZN3ros9PublisherD1Ev(%"class.ros::Publisher"* %chatter_pub)
          to label %invoke.cont65 unwind label %terminate.lpad, !dbg !7672

invoke.cont65:                                    ; preds = %ehcleanup64
  br label %ehcleanup66, !dbg !7674

ehcleanup66:                                      ; preds = %invoke.cont65, %lpad62, %ehcleanup26
  invoke void @_ZN3ros10NodeHandleD1Ev(%"class.ros::NodeHandle"* %n)
          to label %invoke.cont67 unwind label %terminate.lpad, !dbg !7676

invoke.cont67:                                    ; preds = %ehcleanup66
  br label %eh.resume, !dbg !7678

eh.resume:                                        ; preds = %invoke.cont67, %invoke.cont16, %ehcleanup
  %exn = load i8** %exn.slot, !dbg !7680
  %sel = load i32* %ehselector.slot, !dbg !7680
  %lpad.val = insertvalue { i8*, i32 } undef, i8* %exn, 0, !dbg !7680
  %lpad.val68 = insertvalue { i8*, i32 } %lpad.val, i32 %sel, 1, !dbg !7680
  resume { i8*, i32 } %lpad.val68, !dbg !7680

terminate.lpad:                                   ; preds = %ehcleanup66, %ehcleanup64, %ehcleanup60, %ehcleanup57, %ehcleanup54, %lpad43, %lpad21, %ehcleanup15, %lpad10, %lpad2
  %42 = landingpad { i8*, i32 } personality i8* bitcast (i32 (...)* @__gxx_personality_v0 to i8*)
          catch i8* null, !dbg !7681
  %43 = extractvalue { i8*, i32 } %42, 0, !dbg !7681
  call void @__clang_call_terminate(i8* %43) #13, !dbg !7681
  unreachable, !dbg !7681
}

; Function Attrs: nounwind readnone
declare void @llvm.dbg.declare(metadata, metadata, metadata) #4

declare void @_ZN3ros4initERiPPcRKSsj(i32* dereferenceable(4), i8**, %"class.std::basic_string"* dereferenceable(8), i32) #0

; Function Attrs: nounwind
declare void @_ZNSaIcEC1Ev(%"class.std::allocator"*) #5

declare void @_ZNSsC1EPKcRKSaIcE(%"class.std::basic_string"*, i8*, %"class.std::allocator"* dereferenceable(1)) #0

declare i32 @__gxx_personality_v0(...)

declare void @_ZNSsD1Ev(%"class.std::basic_string"*) #0

; Function Attrs: noinline noreturn nounwind
define linkonce_odr hidden void @__clang_call_terminate(i8*) #6 comdat {
  %2 = call i8* @__cxa_begin_catch(i8* %0) #1
  call void @_ZSt9terminatev() #13
  unreachable
}

declare i8* @__cxa_begin_catch(i8*)

declare void @_ZSt9terminatev()

; Function Attrs: nounwind
declare void @_ZNSaIcED1Ev(%"class.std::allocator"*) #5

declare void @_ZNSsC1Ev(%"class.std::basic_string"*) #0

; Function Attrs: uwtable
define linkonce_odr void @_ZNSt3mapISsSsSt4lessISsESaISt4pairIKSsSsEEEC2Ev(%"class.std::map"* %this) unnamed_addr #3 comdat align 2 {
entry:
  %this.addr = alloca %"class.std::map"*, align 8
  store %"class.std::map"* %this, %"class.std::map"** %this.addr, align 8
  call void @llvm.dbg.declare(metadata %"class.std::map"** %this.addr, metadata !7682, metadata !7540), !dbg !7683
  %this1 = load %"class.std::map"** %this.addr
  %_M_t = getelementptr inbounds %"class.std::map"* %this1, i32 0, i32 0, !dbg !7684
  call void @_ZNSt8_Rb_treeISsSt4pairIKSsSsESt10_Select1stIS2_ESt4lessISsESaIS2_EEC2Ev(%"class.std::_Rb_tree"* %_M_t), !dbg !7684
  ret void, !dbg !7685
}

declare void @_ZN3ros10NodeHandleC1ERKSsRKSt3mapISsSsSt4lessISsESaISt4pairIS1_SsEEE(%"class.ros::NodeHandle"*, %"class.std::basic_string"* dereferenceable(8), %"class.std::map"* dereferenceable(48)) #0

; Function Attrs: inlinehint uwtable
define linkonce_odr void @_ZNSt3mapISsSsSt4lessISsESaISt4pairIKSsSsEEED2Ev(%"class.std::map"* %this) unnamed_addr #7 comdat align 2 {
entry:
  %this.addr = alloca %"class.std::map"*, align 8
  store %"class.std::map"* %this, %"class.std::map"** %this.addr, align 8
  call void @llvm.dbg.declare(metadata %"class.std::map"** %this.addr, metadata !7686, metadata !7540), !dbg !7687
  %this1 = load %"class.std::map"** %this.addr
  %_M_t = getelementptr inbounds %"class.std::map"* %this1, i32 0, i32 0, !dbg !7688
  call void @_ZNSt8_Rb_treeISsSt4pairIKSsSsESt10_Select1stIS2_ESt4lessISsESaIS2_EED2Ev(%"class.std::_Rb_tree"* %_M_t), !dbg !7688
  ret void, !dbg !7690
}

; Function Attrs: uwtable
define linkonce_odr void @_ZN3ros10NodeHandle9advertiseIN8std_msgs7String_ISaIvEEEEENS_9PublisherERKSsjb(%"class.ros::Publisher"* noalias sret %agg.result, %"class.ros::NodeHandle"* %this, %"class.std::basic_string"* dereferenceable(8) %topic, i32 %queue_size, i1 zeroext %latch) #3 comdat align 2 {
entry:
  %this.addr = alloca %"class.ros::NodeHandle"*, align 8
  %topic.addr = alloca %"class.std::basic_string"*, align 8
  %queue_size.addr = alloca i32, align 4
  %latch.addr = alloca i8, align 1
  %ops = alloca %"struct.ros::AdvertiseOptions", align 8
  %ref.tmp = alloca %"class.boost::function", align 8
  %exn.slot = alloca i8*
  %ehselector.slot = alloca i32
  %ref.tmp2 = alloca %"class.boost::function", align 8
  %cleanup.dest.slot = alloca i32
  store %"class.ros::NodeHandle"* %this, %"class.ros::NodeHandle"** %this.addr, align 8
  call void @llvm.dbg.declare(metadata %"class.ros::NodeHandle"** %this.addr, metadata !7691, metadata !7540), !dbg !7692
  store %"class.std::basic_string"* %topic, %"class.std::basic_string"** %topic.addr, align 8
  call void @llvm.dbg.declare(metadata %"class.std::basic_string"** %topic.addr, metadata !7693, metadata !7540), !dbg !7695
  store i32 %queue_size, i32* %queue_size.addr, align 4
  call void @llvm.dbg.declare(metadata i32* %queue_size.addr, metadata !7696, metadata !7540), !dbg !7697
  %frombool = zext i1 %latch to i8
  store i8 %frombool, i8* %latch.addr, align 1
  call void @llvm.dbg.declare(metadata i8* %latch.addr, metadata !7698, metadata !7540), !dbg !7699
  %this1 = load %"class.ros::NodeHandle"** %this.addr
  call void @llvm.dbg.declare(metadata %"struct.ros::AdvertiseOptions"* %ops, metadata !7700, metadata !7540), !dbg !7701
  call void @_ZN3ros16AdvertiseOptionsC2Ev(%"struct.ros::AdvertiseOptions"* %ops), !dbg !7701
  %0 = load %"class.std::basic_string"** %topic.addr, align 8, !dbg !7702
  %1 = load i32* %queue_size.addr, align 4, !dbg !7703
  invoke void @_ZN5boost8functionIFvRKN3ros25SingleSubscriberPublisherEEEC2Ev(%"class.boost::function"* %ref.tmp)
          to label %invoke.cont unwind label %lpad, !dbg !7704

invoke.cont:                                      ; preds = %entry
  invoke void @_ZN5boost8functionIFvRKN3ros25SingleSubscriberPublisherEEEC2Ev(%"class.boost::function"* %ref.tmp2)
          to label %invoke.cont4 unwind label %lpad3, !dbg !7705

invoke.cont4:                                     ; preds = %invoke.cont
  invoke void @_ZN3ros16AdvertiseOptions4initIN8std_msgs7String_ISaIvEEEEEvRKSsjRKN5boost8functionIFvRKNS_25SingleSubscriberPublisherEEEESG_(%"struct.ros::AdvertiseOptions"* %ops, %"class.std::basic_string"* dereferenceable(8) %0, i32 %1, %"class.boost::function"* dereferenceable(32) %ref.tmp, %"class.boost::function"* dereferenceable(32) %ref.tmp2)
          to label %invoke.cont6 unwind label %lpad5, !dbg !7707

invoke.cont6:                                     ; preds = %invoke.cont4
  invoke void @_ZN5boost8functionIFvRKN3ros25SingleSubscriberPublisherEEED2Ev(%"class.boost::function"* %ref.tmp2)
          to label %invoke.cont7 unwind label %lpad3, !dbg !7709

invoke.cont7:                                     ; preds = %invoke.cont6
  invoke void @_ZN5boost8functionIFvRKN3ros25SingleSubscriberPublisherEEED2Ev(%"class.boost::function"* %ref.tmp)
          to label %invoke.cont9 unwind label %lpad, !dbg !7711

invoke.cont9:                                     ; preds = %invoke.cont7
  %2 = load i8* %latch.addr, align 1, !dbg !7713
  %tobool = trunc i8 %2 to i1, !dbg !7713
  %latch11 = getelementptr inbounds %"struct.ros::AdvertiseOptions"* %ops, i32 0, i32 10, !dbg !7714
  %frombool12 = zext i1 %tobool to i8, !dbg !7715
  store i8 %frombool12, i8* %latch11, align 1, !dbg !7715
  invoke void @_ZN3ros10NodeHandle9advertiseERNS_16AdvertiseOptionsE(%"class.ros::Publisher"* sret %agg.result, %"class.ros::NodeHandle"* %this1, %"struct.ros::AdvertiseOptions"* dereferenceable(136) %ops)
          to label %invoke.cont13 unwind label %lpad, !dbg !7716

invoke.cont13:                                    ; preds = %invoke.cont9
  store i32 1, i32* %cleanup.dest.slot
  call void @_ZN3ros16AdvertiseOptionsD2Ev(%"struct.ros::AdvertiseOptions"* %ops), !dbg !7717
  ret void, !dbg !7717

lpad:                                             ; preds = %invoke.cont9, %invoke.cont7, %entry
  %3 = landingpad { i8*, i32 } personality i8* bitcast (i32 (...)* @__gxx_personality_v0 to i8*)
          cleanup, !dbg !7718
  %4 = extractvalue { i8*, i32 } %3, 0, !dbg !7718
  store i8* %4, i8** %exn.slot, !dbg !7718
  %5 = extractvalue { i8*, i32 } %3, 1, !dbg !7718
  store i32 %5, i32* %ehselector.slot, !dbg !7718
  br label %ehcleanup14, !dbg !7718

lpad3:                                            ; preds = %invoke.cont6, %invoke.cont
  %6 = landingpad { i8*, i32 } personality i8* bitcast (i32 (...)* @__gxx_personality_v0 to i8*)
          cleanup, !dbg !7721
  %7 = extractvalue { i8*, i32 } %6, 0, !dbg !7721
  store i8* %7, i8** %exn.slot, !dbg !7721
  %8 = extractvalue { i8*, i32 } %6, 1, !dbg !7721
  store i32 %8, i32* %ehselector.slot, !dbg !7721
  br label %ehcleanup, !dbg !7721

lpad5:                                            ; preds = %invoke.cont4
  %9 = landingpad { i8*, i32 } personality i8* bitcast (i32 (...)* @__gxx_personality_v0 to i8*)
          cleanup, !dbg !7717
  %10 = extractvalue { i8*, i32 } %9, 0, !dbg !7717
  store i8* %10, i8** %exn.slot, !dbg !7717
  %11 = extractvalue { i8*, i32 } %9, 1, !dbg !7717
  store i32 %11, i32* %ehselector.slot, !dbg !7717
  invoke void @_ZN5boost8functionIFvRKN3ros25SingleSubscriberPublisherEEED2Ev(%"class.boost::function"* %ref.tmp2)
          to label %invoke.cont8 unwind label %terminate.lpad, !dbg !7704

invoke.cont8:                                     ; preds = %lpad5
  br label %ehcleanup, !dbg !7724

ehcleanup:                                        ; preds = %invoke.cont8, %lpad3
  invoke void @_ZN5boost8functionIFvRKN3ros25SingleSubscriberPublisherEEED2Ev(%"class.boost::function"* %ref.tmp)
          to label %invoke.cont10 unwind label %terminate.lpad, !dbg !7726

invoke.cont10:                                    ; preds = %ehcleanup
  br label %ehcleanup14, !dbg !7729

ehcleanup14:                                      ; preds = %invoke.cont10, %lpad
  invoke void @_ZN3ros16AdvertiseOptionsD2Ev(%"struct.ros::AdvertiseOptions"* %ops)
          to label %invoke.cont15 unwind label %terminate.lpad, !dbg !7717

invoke.cont15:                                    ; preds = %ehcleanup14
  br label %eh.resume, !dbg !7731

eh.resume:                                        ; preds = %invoke.cont15
  %exn = load i8** %exn.slot, !dbg !7732
  %sel = load i32* %ehselector.slot, !dbg !7732
  %lpad.val = insertvalue { i8*, i32 } undef, i8* %exn, 0, !dbg !7732
  %lpad.val16 = insertvalue { i8*, i32 } %lpad.val, i32 %sel, 1, !dbg !7732
  resume { i8*, i32 } %lpad.val16, !dbg !7732

terminate.lpad:                                   ; preds = %ehcleanup14, %ehcleanup, %lpad5
  %12 = landingpad { i8*, i32 } personality i8* bitcast (i32 (...)* @__gxx_personality_v0 to i8*)
          catch i8* null, !dbg !7733
  %13 = extractvalue { i8*, i32 } %12, 0, !dbg !7733
  call void @__clang_call_terminate(i8* %13) #13, !dbg !7733
  unreachable, !dbg !7733
}

declare void @_ZN3ros4RateC1Ed(%"class.ros::Rate"*, double) #0

declare zeroext i1 @_ZN3ros2okEv() #0

; Function Attrs: uwtable
define linkonce_odr void @_ZN8std_msgs7String_ISaIvEEC2Ev(%"struct.std_msgs::String_"* %this) unnamed_addr #3 comdat align 2 {
entry:
  %this.addr = alloca %"struct.std_msgs::String_"*, align 8
  %exn.slot = alloca i8*
  %ehselector.slot = alloca i32
  store %"struct.std_msgs::String_"* %this, %"struct.std_msgs::String_"** %this.addr, align 8
  call void @llvm.dbg.declare(metadata %"struct.std_msgs::String_"** %this.addr, metadata !7736, metadata !7540), !dbg !7738
  %this1 = load %"struct.std_msgs::String_"** %this.addr
  %data = getelementptr inbounds %"struct.std_msgs::String_"* %this1, i32 0, i32 0, !dbg !7739
  call void @_ZNSsC1Ev(%"class.std::basic_string"* %data), !dbg !7739
  %__connection_header = getelementptr inbounds %"struct.std_msgs::String_"* %this1, i32 0, i32 1, !dbg !7740
  invoke void @_ZN5boost10shared_ptrISt3mapISsSsSt4lessISsESaISt4pairIKSsSsEEEEC2Ev(%"class.boost::shared_ptr.21"* %__connection_header)
          to label %invoke.cont unwind label %lpad, !dbg !7740

invoke.cont:                                      ; preds = %entry
  ret void, !dbg !7741

lpad:                                             ; preds = %entry
  %0 = landingpad { i8*, i32 } personality i8* bitcast (i32 (...)* @__gxx_personality_v0 to i8*)
          cleanup, !dbg !7741
  %1 = extractvalue { i8*, i32 } %0, 0, !dbg !7741
  store i8* %1, i8** %exn.slot, !dbg !7741
  %2 = extractvalue { i8*, i32 } %0, 1, !dbg !7741
  store i32 %2, i32* %ehselector.slot, !dbg !7741
  invoke void @_ZNSsD1Ev(%"class.std::basic_string"* %data)
          to label %invoke.cont2 unwind label %terminate.lpad, !dbg !7742

invoke.cont2:                                     ; preds = %lpad
  br label %eh.resume, !dbg !7744

eh.resume:                                        ; preds = %invoke.cont2
  %exn = load i8** %exn.slot, !dbg !7746
  %sel = load i32* %ehselector.slot, !dbg !7746
  %lpad.val = insertvalue { i8*, i32 } undef, i8* %exn, 0, !dbg !7746
  %lpad.val3 = insertvalue { i8*, i32 } %lpad.val, i32 %sel, 1, !dbg !7746
  resume { i8*, i32 } %lpad.val3, !dbg !7746

terminate.lpad:                                   ; preds = %lpad
  %3 = landingpad { i8*, i32 } personality i8* bitcast (i32 (...)* @__gxx_personality_v0 to i8*)
          catch i8* null, !dbg !7748
  %4 = extractvalue { i8*, i32 } %3, 0, !dbg !7748
  call void @__clang_call_terminate(i8* %4) #13, !dbg !7748
  unreachable, !dbg !7748
}

; Function Attrs: inlinehint nounwind uwtable
define linkonce_odr i32 @_ZStorSt13_Ios_OpenmodeS_(i32 %__a, i32 %__b) #8 comdat {
entry:
  %__a.addr = alloca i32, align 4
  %__b.addr = alloca i32, align 4
  store i32 %__a, i32* %__a.addr, align 4
  call void @llvm.dbg.declare(metadata i32* %__a.addr, metadata !7750, metadata !7540), !dbg !7752
  store i32 %__b, i32* %__b.addr, align 4
  call void @llvm.dbg.declare(metadata i32* %__b.addr, metadata !7753, metadata !7540), !dbg !7754
  %0 = load i32* %__a.addr, align 4, !dbg !7755
  %1 = load i32* %__b.addr, align 4, !dbg !7756
  %or = or i32 %0, %1, !dbg !7757
  ret i32 %or, !dbg !7758
}

declare void @_ZNSt18basic_stringstreamIcSt11char_traitsIcESaIcEEC1ESt13_Ios_Openmode(%"class.std::basic_stringstream"*, i32) #0

declare dereferenceable(272) %"class.std::basic_ostream"* @_ZStlsISt11char_traitsIcEERSt13basic_ostreamIcT_ES5_PKc(%"class.std::basic_ostream"* dereferenceable(272), i8*) #0

declare dereferenceable(272) %"class.std::basic_ostream"* @_ZNSolsEi(%"class.std::basic_ostream"*, i32) #0

declare dereferenceable(8) %"class.std::basic_string"* @_ZNSsaSERKSs(%"class.std::basic_string"*, %"class.std::basic_string"* dereferenceable(8)) #0

declare void @_ZNKSt18basic_stringstreamIcSt11char_traitsIcESaIcEE3strEv(%"class.std::basic_string"* sret, %"class.std::basic_stringstream"*) #0

; Function Attrs: uwtable
define linkonce_odr void @_ZNK3ros9Publisher7publishIN8std_msgs7String_ISaIvEEEEEvRKT_(%"class.ros::Publisher"* %this, %"struct.std_msgs::String_"* dereferenceable(24) %message) #3 comdat align 2 {
entry:
  %this.addr = alloca %"class.ros::Publisher"*, align 8
  %message.addr = alloca %"struct.std_msgs::String_"*, align 8
  %ref.tmp = alloca %"class.std::basic_string", align 8
  %ref.tmp8 = alloca %"class.std::allocator", align 1
  %exn.slot = alloca i8*
  %ehselector.slot = alloca i32
  %enabled = alloca i8, align 1
  %ref.tmp31 = alloca %"class.std::basic_string", align 8
  %ref.tmp32 = alloca %"class.std::allocator", align 1
  %enabled45 = alloca i8, align 1
  %ref.tmp64 = alloca %"class.std::basic_string", align 8
  %ref.tmp65 = alloca %"class.std::allocator", align 1
  %enabled78 = alloca i8, align 1
  %ref.tmp104 = alloca %"class.std::basic_string", align 8
  %ref.tmp105 = alloca %"class.std::allocator", align 1
  %enabled118 = alloca i8, align 1
  %ref.tmp137 = alloca %"class.std::basic_string", align 8
  %ref.tmp138 = alloca %"class.std::allocator", align 1
  %enabled151 = alloca i8, align 1
  %ref.tmp173 = alloca %"class.std::basic_string", align 8
  %ref.tmp174 = alloca %"class.std::allocator", align 1
  %enabled187 = alloca i8, align 1
  %ref.tmp202 = alloca %"class.std::basic_string", align 8
  %ref.tmp204 = alloca %"class.std::allocator", align 1
  %cleanup.cond = alloca i1
  %cleanup.cond207 = alloca i1
  %ref.tmp244 = alloca %"class.std::basic_string", align 8
  %ref.tmp245 = alloca %"class.std::allocator", align 1
  %enabled258 = alloca i8, align 1
  %ref.tmp277 = alloca %"class.std::basic_string", align 8
  %ref.tmp278 = alloca %"class.std::allocator", align 1
  %enabled291 = alloca i8, align 1
  %ref.tmp319 = alloca %"class.std::basic_string", align 8
  %ref.tmp320 = alloca %"class.std::allocator", align 1
  %enabled333 = alloca i8, align 1
  %m = alloca %"class.ros::SerializedMessage", align 8
  %ref.tmp344 = alloca %"class.boost::function.34", align 8
  %agg.tmp = alloca %"class.boost::_bi::bind_t", align 8
  %agg.tmp345 = alloca %"class.boost::reference_wrapper", align 8
  store %"class.ros::Publisher"* %this, %"class.ros::Publisher"** %this.addr, align 8
  call void @llvm.dbg.declare(metadata %"class.ros::Publisher"** %this.addr, metadata !7759, metadata !7540), !dbg !7761
  store %"struct.std_msgs::String_"* %message, %"struct.std_msgs::String_"** %message.addr, align 8
  call void @llvm.dbg.declare(metadata %"struct.std_msgs::String_"** %message.addr, metadata !7762, metadata !7540), !dbg !7763
  %this1 = load %"class.ros::Publisher"** %this.addr
  %impl_ = getelementptr inbounds %"class.ros::Publisher"* %this1, i32 0, i32 0, !dbg !7764
  %call = call zeroext i1 @_ZNK5boost10shared_ptrIN3ros9Publisher4ImplEEntEv(%"class.boost::shared_ptr"* %impl_), !dbg !7766
  br i1 %call, label %if.then, label %if.end88, !dbg !7767

if.then:                                          ; preds = %entry
  br label %do.body, !dbg !7768

do.body:                                          ; preds = %if.then
  br label %do.body2, !dbg !7770

do.body2:                                         ; preds = %do.body
  br label %do.body3, !dbg !7775

do.body3:                                         ; preds = %do.body2
  %0 = load i8* @_ZN3ros7console13g_initializedE, align 1, !dbg !7778
  %tobool = trunc i8 %0 to i1, !dbg !7778
  %lnot = xor i1 %tobool, true, !dbg !7778
  br i1 %lnot, label %if.then4, label %if.end, !dbg !7782

if.then4:                                         ; preds = %do.body3
  call void @_ZN3ros7console10initializeEv(), !dbg !7783
  br label %if.end, !dbg !7783

if.end:                                           ; preds = %if.then4, %do.body3
  br label %do.end, !dbg !7786

do.end:                                           ; preds = %if.end
  %1 = load i8* getelementptr inbounds (%"struct.ros::console::LogLocation"* @_ZZNK3ros9Publisher7publishIN8std_msgs7String_ISaIvEEEEEvRKT_E3loc, i32 0, i32 0), align 1, !dbg !7789
  %tobool5 = trunc i8 %1 to i1, !dbg !7789
  %lnot6 = xor i1 %tobool5, true, !dbg !7789
  br i1 %lnot6, label %if.then7, label %if.end13, !dbg !7792

if.then7:                                         ; preds = %do.end
  call void @_ZNSaIcEC1Ev(%"class.std::allocator"* %ref.tmp8) #1, !dbg !7793
  invoke void @_ZNSsC1EPKcRKSaIcE(%"class.std::basic_string"* %ref.tmp, i8* getelementptr inbounds ([20 x i8]* @.str15, i32 0, i32 0), %"class.std::allocator"* dereferenceable(1) %ref.tmp8)
          to label %invoke.cont unwind label %lpad, !dbg !7793

invoke.cont:                                      ; preds = %if.then7
  invoke void @_ZN3ros7console21initializeLogLocationEPNS0_11LogLocationERKSsNS0_6levels5LevelE(%"struct.ros::console::LogLocation"* @_ZZNK3ros9Publisher7publishIN8std_msgs7String_ISaIvEEEEEvRKT_E3loc, %"class.std::basic_string"* dereferenceable(8) %ref.tmp, i32 4)
          to label %invoke.cont10 unwind label %lpad9, !dbg !7796

invoke.cont10:                                    ; preds = %invoke.cont
  invoke void @_ZNSsD1Ev(%"class.std::basic_string"* %ref.tmp)
          to label %invoke.cont11 unwind label %lpad, !dbg !7798

invoke.cont11:                                    ; preds = %invoke.cont10
  call void @_ZNSaIcED1Ev(%"class.std::allocator"* %ref.tmp8) #1, !dbg !7800
  br label %if.end13, !dbg !7800

lpad:                                             ; preds = %invoke.cont10, %if.then7
  %2 = landingpad { i8*, i32 } personality i8* bitcast (i32 (...)* @__gxx_personality_v0 to i8*)
          cleanup, !dbg !7802
  %3 = extractvalue { i8*, i32 } %2, 0, !dbg !7802
  store i8* %3, i8** %exn.slot, !dbg !7802
  %4 = extractvalue { i8*, i32 } %2, 1, !dbg !7802
  store i32 %4, i32* %ehselector.slot, !dbg !7802
  br label %ehcleanup, !dbg !7802

lpad9:                                            ; preds = %invoke.cont
  %5 = landingpad { i8*, i32 } personality i8* bitcast (i32 (...)* @__gxx_personality_v0 to i8*)
          cleanup, !dbg !7802
  %6 = extractvalue { i8*, i32 } %5, 0, !dbg !7802
  store i8* %6, i8** %exn.slot, !dbg !7802
  %7 = extractvalue { i8*, i32 } %5, 1, !dbg !7802
  store i32 %7, i32* %ehselector.slot, !dbg !7802
  invoke void @_ZNSsD1Ev(%"class.std::basic_string"* %ref.tmp)
          to label %invoke.cont12 unwind label %terminate.lpad, !dbg !7803

invoke.cont12:                                    ; preds = %lpad9
  br label %ehcleanup, !dbg !7804

ehcleanup:                                        ; preds = %invoke.cont12, %lpad
  call void @_ZNSaIcED1Ev(%"class.std::allocator"* %ref.tmp8) #1, !dbg !7806
  br label %eh.resume, !dbg !7806

if.end13:                                         ; preds = %invoke.cont11, %do.end
  %8 = load i32* getelementptr inbounds (%"struct.ros::console::LogLocation"* @_ZZNK3ros9Publisher7publishIN8std_msgs7String_ISaIvEEEEEvRKT_E3loc, i32 0, i32 2), align 4, !dbg !7808
  %cmp = icmp ne i32 %8, 4, !dbg !7808
  br i1 %cmp, label %if.then14, label %if.end15, !dbg !7792

if.then14:                                        ; preds = %if.end13
  call void @_ZN3ros7console19setLogLocationLevelEPNS0_11LogLocationENS0_6levels5LevelE(%"struct.ros::console::LogLocation"* @_ZZNK3ros9Publisher7publishIN8std_msgs7String_ISaIvEEEEEvRKT_E3loc, i32 4), !dbg !7812
  call void @_ZN3ros7console23checkLogLocationEnabledEPNS0_11LogLocationE(%"struct.ros::console::LogLocation"* @_ZZNK3ros9Publisher7publishIN8std_msgs7String_ISaIvEEEEEvRKT_E3loc), !dbg !7812
  br label %if.end15, !dbg !7812

if.end15:                                         ; preds = %if.then14, %if.end13
  call void @llvm.dbg.declare(metadata i8* %enabled, metadata !7815, metadata !7540), !dbg !7792
  %9 = load i8* getelementptr inbounds (%"struct.ros::console::LogLocation"* @_ZZNK3ros9Publisher7publishIN8std_msgs7String_ISaIvEEEEEvRKT_E3loc, i32 0, i32 1), align 1, !dbg !7816
  %tobool16 = trunc i8 %9 to i1, !dbg !7816
  br i1 %tobool16, label %land.rhs, label %land.end, !dbg !7816

land.rhs:                                         ; preds = %if.end15
  br label %land.end

land.end:                                         ; preds = %land.rhs, %if.end15
  %10 = phi i1 [ false, %if.end15 ], [ true, %land.rhs ]
  %frombool = zext i1 %10 to i8, !dbg !7819
  store i8 %frombool, i8* %enabled, align 1, !dbg !7819
  %11 = load i8* %enabled, align 1, !dbg !7821
  %tobool17 = trunc i8 %11 to i1, !dbg !7821
  br i1 %tobool17, label %if.then18, label %if.end19, !dbg !7792

if.then18:                                        ; preds = %land.end
  %12 = load %"class.log4cxx::Logger"** getelementptr inbounds (%"struct.ros::console::LogLocation"* @_ZZNK3ros9Publisher7publishIN8std_msgs7String_ISaIvEEEEEvRKT_E3loc, i32 0, i32 3), align 8, !dbg !7823
  %13 = load i32* getelementptr inbounds (%"struct.ros::console::LogLocation"* @_ZZNK3ros9Publisher7publishIN8std_msgs7String_ISaIvEEEEEvRKT_E3loc, i32 0, i32 2), align 4, !dbg !7823
  call void (%"class.ros::console::FilterBase"*, %"class.log4cxx::Logger"*, i32, i8*, i32, i8*, i8*, ...)* @_ZN3ros7console5printEPNS0_10FilterBaseEPN7log4cxx6LoggerENS0_6levels5LevelEPKciS9_S9_z(%"class.ros::console::FilterBase"* null, %"class.log4cxx::Logger"* %12, i32 %13, i8* getelementptr inbounds ([40 x i8]* @.str16, i32 0, i32 0), i32 102, i8* getelementptr inbounds ([93 x i8]* @__PRETTY_FUNCTION__._ZNK3ros9Publisher7publishIN8std_msgs7String_ISaIvEEEEEvRKT_, i32 0, i32 0), i8* getelementptr inbounds ([62 x i8]* @.str17, i32 0, i32 0), i8* getelementptr inbounds ([40 x i8]* @.str16, i32 0, i32 0), i32 102, i8* getelementptr inbounds ([6 x i8]* @.str18, i32 0, i32 0)), !dbg !7823
  br label %if.end19, !dbg !7823

if.end19:                                         ; preds = %if.then18, %land.end
  br label %do.end20, !dbg !7826

do.end20:                                         ; preds = %if.end19
  br label %do.body21, !dbg !7829

do.body21:                                        ; preds = %do.end20
  br label %do.body22, !dbg !7831

do.body22:                                        ; preds = %do.body21
  %14 = load i8* @_ZN3ros7console13g_initializedE, align 1, !dbg !7834
  %tobool23 = trunc i8 %14 to i1, !dbg !7834
  %lnot24 = xor i1 %tobool23, true, !dbg !7834
  br i1 %lnot24, label %if.then25, label %if.end26, !dbg !7838

if.then25:                                        ; preds = %do.body22
  call void @_ZN3ros7console10initializeEv(), !dbg !7839
  br label %if.end26, !dbg !7839

if.end26:                                         ; preds = %if.then25, %do.body22
  br label %do.end27, !dbg !7842

do.end27:                                         ; preds = %if.end26
  %15 = load i8* getelementptr inbounds (%"struct.ros::console::LogLocation"* @_ZZNK3ros9Publisher7publishIN8std_msgs7String_ISaIvEEEEEvRKT_E3loc_0, i32 0, i32 0), align 1, !dbg !7845
  %tobool28 = trunc i8 %15 to i1, !dbg !7845
  %lnot29 = xor i1 %tobool28, true, !dbg !7845
  br i1 %lnot29, label %if.then30, label %if.end41, !dbg !7848

if.then30:                                        ; preds = %do.end27
  call void @_ZNSaIcEC1Ev(%"class.std::allocator"* %ref.tmp32) #1, !dbg !7849
  invoke void @_ZNSsC1EPKcRKSaIcE(%"class.std::basic_string"* %ref.tmp31, i8* getelementptr inbounds ([20 x i8]* @.str15, i32 0, i32 0), %"class.std::allocator"* dereferenceable(1) %ref.tmp32)
          to label %invoke.cont34 unwind label %lpad33, !dbg !7849

invoke.cont34:                                    ; preds = %if.then30
  invoke void @_ZN3ros7console21initializeLogLocationEPNS0_11LogLocationERKSsNS0_6levels5LevelE(%"struct.ros::console::LogLocation"* @_ZZNK3ros9Publisher7publishIN8std_msgs7String_ISaIvEEEEEvRKT_E3loc_0, %"class.std::basic_string"* dereferenceable(8) %ref.tmp31, i32 4)
          to label %invoke.cont36 unwind label %lpad35, !dbg !7852

invoke.cont36:                                    ; preds = %invoke.cont34
  invoke void @_ZNSsD1Ev(%"class.std::basic_string"* %ref.tmp31)
          to label %invoke.cont37 unwind label %lpad33, !dbg !7854

invoke.cont37:                                    ; preds = %invoke.cont36
  call void @_ZNSaIcED1Ev(%"class.std::allocator"* %ref.tmp32) #1, !dbg !7856
  br label %if.end41, !dbg !7856

lpad33:                                           ; preds = %invoke.cont36, %if.then30
  %16 = landingpad { i8*, i32 } personality i8* bitcast (i32 (...)* @__gxx_personality_v0 to i8*)
          cleanup, !dbg !7858
  %17 = extractvalue { i8*, i32 } %16, 0, !dbg !7858
  store i8* %17, i8** %exn.slot, !dbg !7858
  %18 = extractvalue { i8*, i32 } %16, 1, !dbg !7858
  store i32 %18, i32* %ehselector.slot, !dbg !7858
  br label %ehcleanup40, !dbg !7858

lpad35:                                           ; preds = %invoke.cont34
  %19 = landingpad { i8*, i32 } personality i8* bitcast (i32 (...)* @__gxx_personality_v0 to i8*)
          cleanup, !dbg !7858
  %20 = extractvalue { i8*, i32 } %19, 0, !dbg !7858
  store i8* %20, i8** %exn.slot, !dbg !7858
  %21 = extractvalue { i8*, i32 } %19, 1, !dbg !7858
  store i32 %21, i32* %ehselector.slot, !dbg !7858
  invoke void @_ZNSsD1Ev(%"class.std::basic_string"* %ref.tmp31)
          to label %invoke.cont39 unwind label %terminate.lpad, !dbg !7859

invoke.cont39:                                    ; preds = %lpad35
  br label %ehcleanup40, !dbg !7860

ehcleanup40:                                      ; preds = %invoke.cont39, %lpad33
  call void @_ZNSaIcED1Ev(%"class.std::allocator"* %ref.tmp32) #1, !dbg !7862
  br label %eh.resume, !dbg !7862

if.end41:                                         ; preds = %invoke.cont37, %do.end27
  %22 = load i32* getelementptr inbounds (%"struct.ros::console::LogLocation"* @_ZZNK3ros9Publisher7publishIN8std_msgs7String_ISaIvEEEEEvRKT_E3loc_0, i32 0, i32 2), align 4, !dbg !7864
  %cmp42 = icmp ne i32 %22, 4, !dbg !7864
  br i1 %cmp42, label %if.then43, label %if.end44, !dbg !7848

if.then43:                                        ; preds = %if.end41
  call void @_ZN3ros7console19setLogLocationLevelEPNS0_11LogLocationENS0_6levels5LevelE(%"struct.ros::console::LogLocation"* @_ZZNK3ros9Publisher7publishIN8std_msgs7String_ISaIvEEEEEvRKT_E3loc_0, i32 4), !dbg !7868
  call void @_ZN3ros7console23checkLogLocationEnabledEPNS0_11LogLocationE(%"struct.ros::console::LogLocation"* @_ZZNK3ros9Publisher7publishIN8std_msgs7String_ISaIvEEEEEvRKT_E3loc_0), !dbg !7868
  br label %if.end44, !dbg !7868

if.end44:                                         ; preds = %if.then43, %if.end41
  call void @llvm.dbg.declare(metadata i8* %enabled45, metadata !7871, metadata !7540), !dbg !7848
  %23 = load i8* getelementptr inbounds (%"struct.ros::console::LogLocation"* @_ZZNK3ros9Publisher7publishIN8std_msgs7String_ISaIvEEEEEvRKT_E3loc_0, i32 0, i32 1), align 1, !dbg !7872
  %tobool46 = trunc i8 %23 to i1, !dbg !7872
  br i1 %tobool46, label %land.rhs47, label %land.end48, !dbg !7872

land.rhs47:                                       ; preds = %if.end44
  br label %land.end48

land.end48:                                       ; preds = %land.rhs47, %if.end44
  %24 = phi i1 [ false, %if.end44 ], [ true, %land.rhs47 ]
  %frombool49 = zext i1 %24 to i8, !dbg !7875
  store i8 %frombool49, i8* %enabled45, align 1, !dbg !7875
  %25 = load i8* %enabled45, align 1, !dbg !7877
  %tobool50 = trunc i8 %25 to i1, !dbg !7877
  br i1 %tobool50, label %if.then51, label %if.end52, !dbg !7848

if.then51:                                        ; preds = %land.end48
  %26 = load %"class.log4cxx::Logger"** getelementptr inbounds (%"struct.ros::console::LogLocation"* @_ZZNK3ros9Publisher7publishIN8std_msgs7String_ISaIvEEEEEvRKT_E3loc_0, i32 0, i32 3), align 8, !dbg !7879
  %27 = load i32* getelementptr inbounds (%"struct.ros::console::LogLocation"* @_ZZNK3ros9Publisher7publishIN8std_msgs7String_ISaIvEEEEEvRKT_E3loc_0, i32 0, i32 2), align 4, !dbg !7879
  call void (%"class.ros::console::FilterBase"*, %"class.log4cxx::Logger"*, i32, i8*, i32, i8*, i8*, ...)* @_ZN3ros7console5printEPNS0_10FilterBaseEPN7log4cxx6LoggerENS0_6levels5LevelEPKciS9_S9_z(%"class.ros::console::FilterBase"* null, %"class.log4cxx::Logger"* %26, i32 %27, i8* getelementptr inbounds ([40 x i8]* @.str16, i32 0, i32 0), i32 102, i8* getelementptr inbounds ([93 x i8]* @__PRETTY_FUNCTION__._ZNK3ros9Publisher7publishIN8std_msgs7String_ISaIvEEEEEvRKT_, i32 0, i32 0), i8* getelementptr inbounds ([42 x i8]* @.str19, i32 0, i32 0)), !dbg !7879
  br label %if.end52, !dbg !7879

if.end52:                                         ; preds = %if.then51, %land.end48
  br label %do.end53, !dbg !7882

do.end53:                                         ; preds = %if.end52
  br label %do.body54, !dbg !7885

do.body54:                                        ; preds = %do.end53
  br label %do.body55, !dbg !7887

do.body55:                                        ; preds = %do.body54
  %28 = load i8* @_ZN3ros7console13g_initializedE, align 1, !dbg !7890
  %tobool56 = trunc i8 %28 to i1, !dbg !7890
  %lnot57 = xor i1 %tobool56, true, !dbg !7890
  br i1 %lnot57, label %if.then58, label %if.end59, !dbg !7894

if.then58:                                        ; preds = %do.body55
  call void @_ZN3ros7console10initializeEv(), !dbg !7895
  br label %if.end59, !dbg !7895

if.end59:                                         ; preds = %if.then58, %do.body55
  br label %do.end60, !dbg !7898

do.end60:                                         ; preds = %if.end59
  %29 = load i8* getelementptr inbounds (%"struct.ros::console::LogLocation"* @_ZZNK3ros9Publisher7publishIN8std_msgs7String_ISaIvEEEEEvRKT_E3loc_1, i32 0, i32 0), align 1, !dbg !7901
  %tobool61 = trunc i8 %29 to i1, !dbg !7901
  %lnot62 = xor i1 %tobool61, true, !dbg !7901
  br i1 %lnot62, label %if.then63, label %if.end74, !dbg !7904

if.then63:                                        ; preds = %do.end60
  call void @_ZNSaIcEC1Ev(%"class.std::allocator"* %ref.tmp65) #1, !dbg !7905
  invoke void @_ZNSsC1EPKcRKSaIcE(%"class.std::basic_string"* %ref.tmp64, i8* getelementptr inbounds ([20 x i8]* @.str15, i32 0, i32 0), %"class.std::allocator"* dereferenceable(1) %ref.tmp65)
          to label %invoke.cont67 unwind label %lpad66, !dbg !7905

invoke.cont67:                                    ; preds = %if.then63
  invoke void @_ZN3ros7console21initializeLogLocationEPNS0_11LogLocationERKSsNS0_6levels5LevelE(%"struct.ros::console::LogLocation"* @_ZZNK3ros9Publisher7publishIN8std_msgs7String_ISaIvEEEEEvRKT_E3loc_1, %"class.std::basic_string"* dereferenceable(8) %ref.tmp64, i32 4)
          to label %invoke.cont69 unwind label %lpad68, !dbg !7908

invoke.cont69:                                    ; preds = %invoke.cont67
  invoke void @_ZNSsD1Ev(%"class.std::basic_string"* %ref.tmp64)
          to label %invoke.cont70 unwind label %lpad66, !dbg !7910

invoke.cont70:                                    ; preds = %invoke.cont69
  call void @_ZNSaIcED1Ev(%"class.std::allocator"* %ref.tmp65) #1, !dbg !7912
  br label %if.end74, !dbg !7912

lpad66:                                           ; preds = %invoke.cont69, %if.then63
  %30 = landingpad { i8*, i32 } personality i8* bitcast (i32 (...)* @__gxx_personality_v0 to i8*)
          cleanup, !dbg !7914
  %31 = extractvalue { i8*, i32 } %30, 0, !dbg !7914
  store i8* %31, i8** %exn.slot, !dbg !7914
  %32 = extractvalue { i8*, i32 } %30, 1, !dbg !7914
  store i32 %32, i32* %ehselector.slot, !dbg !7914
  br label %ehcleanup73, !dbg !7914

lpad68:                                           ; preds = %invoke.cont67
  %33 = landingpad { i8*, i32 } personality i8* bitcast (i32 (...)* @__gxx_personality_v0 to i8*)
          cleanup, !dbg !7914
  %34 = extractvalue { i8*, i32 } %33, 0, !dbg !7914
  store i8* %34, i8** %exn.slot, !dbg !7914
  %35 = extractvalue { i8*, i32 } %33, 1, !dbg !7914
  store i32 %35, i32* %ehselector.slot, !dbg !7914
  invoke void @_ZNSsD1Ev(%"class.std::basic_string"* %ref.tmp64)
          to label %invoke.cont72 unwind label %terminate.lpad, !dbg !7915

invoke.cont72:                                    ; preds = %lpad68
  br label %ehcleanup73, !dbg !7916

ehcleanup73:                                      ; preds = %invoke.cont72, %lpad66
  call void @_ZNSaIcED1Ev(%"class.std::allocator"* %ref.tmp65) #1, !dbg !7918
  br label %eh.resume, !dbg !7918

if.end74:                                         ; preds = %invoke.cont70, %do.end60
  %36 = load i32* getelementptr inbounds (%"struct.ros::console::LogLocation"* @_ZZNK3ros9Publisher7publishIN8std_msgs7String_ISaIvEEEEEvRKT_E3loc_1, i32 0, i32 2), align 4, !dbg !7920
  %cmp75 = icmp ne i32 %36, 4, !dbg !7920
  br i1 %cmp75, label %if.then76, label %if.end77, !dbg !7904

if.then76:                                        ; preds = %if.end74
  call void @_ZN3ros7console19setLogLocationLevelEPNS0_11LogLocationENS0_6levels5LevelE(%"struct.ros::console::LogLocation"* @_ZZNK3ros9Publisher7publishIN8std_msgs7String_ISaIvEEEEEvRKT_E3loc_1, i32 4), !dbg !7924
  call void @_ZN3ros7console23checkLogLocationEnabledEPNS0_11LogLocationE(%"struct.ros::console::LogLocation"* @_ZZNK3ros9Publisher7publishIN8std_msgs7String_ISaIvEEEEEvRKT_E3loc_1), !dbg !7924
  br label %if.end77, !dbg !7924

if.end77:                                         ; preds = %if.then76, %if.end74
  call void @llvm.dbg.declare(metadata i8* %enabled78, metadata !7927, metadata !7540), !dbg !7904
  %37 = load i8* getelementptr inbounds (%"struct.ros::console::LogLocation"* @_ZZNK3ros9Publisher7publishIN8std_msgs7String_ISaIvEEEEEvRKT_E3loc_1, i32 0, i32 1), align 1, !dbg !7928
  %tobool79 = trunc i8 %37 to i1, !dbg !7928
  br i1 %tobool79, label %land.rhs80, label %land.end81, !dbg !7928

land.rhs80:                                       ; preds = %if.end77
  br label %land.end81

land.end81:                                       ; preds = %land.rhs80, %if.end77
  %38 = phi i1 [ false, %if.end77 ], [ true, %land.rhs80 ]
  %frombool82 = zext i1 %38 to i8, !dbg !7931
  store i8 %frombool82, i8* %enabled78, align 1, !dbg !7931
  %39 = load i8* %enabled78, align 1, !dbg !7933
  %tobool83 = trunc i8 %39 to i1, !dbg !7933
  br i1 %tobool83, label %if.then84, label %if.end85, !dbg !7904

if.then84:                                        ; preds = %land.end81
  %40 = load %"class.log4cxx::Logger"** getelementptr inbounds (%"struct.ros::console::LogLocation"* @_ZZNK3ros9Publisher7publishIN8std_msgs7String_ISaIvEEEEEvRKT_E3loc_1, i32 0, i32 3), align 8, !dbg !7935
  %41 = load i32* getelementptr inbounds (%"struct.ros::console::LogLocation"* @_ZZNK3ros9Publisher7publishIN8std_msgs7String_ISaIvEEEEEvRKT_E3loc_1, i32 0, i32 2), align 4, !dbg !7935
  call void (%"class.ros::console::FilterBase"*, %"class.log4cxx::Logger"*, i32, i8*, i32, i8*, i8*, ...)* @_ZN3ros7console5printEPNS0_10FilterBaseEPN7log4cxx6LoggerENS0_6levels5LevelEPKciS9_S9_z(%"class.ros::console::FilterBase"* null, %"class.log4cxx::Logger"* %40, i32 %41, i8* getelementptr inbounds ([40 x i8]* @.str16, i32 0, i32 0), i32 102, i8* getelementptr inbounds ([93 x i8]* @__PRETTY_FUNCTION__._ZNK3ros9Publisher7publishIN8std_msgs7String_ISaIvEEEEEvRKT_, i32 0, i32 0), i8* getelementptr inbounds ([2 x i8]* @.str20, i32 0, i32 0)), !dbg !7935
  br label %if.end85, !dbg !7935

if.end85:                                         ; preds = %if.then84, %land.end81
  br label %do.end86, !dbg !7938

do.end86:                                         ; preds = %if.end85
  call void asm sideeffect "int $$3", "~{dirflag},~{fpsr},~{flags}"() #1, !dbg !7941, !srcloc !7943
  br label %do.end87, !dbg !7944

do.end87:                                         ; preds = %do.end86
  br label %return, !dbg !7945

if.end88:                                         ; preds = %entry
  %impl_89 = getelementptr inbounds %"class.ros::Publisher"* %this1, i32 0, i32 0, !dbg !7946
  %call90 = call %"class.ros::Publisher::Impl"* @_ZNK5boost10shared_ptrIN3ros9Publisher4ImplEEptEv(%"class.boost::shared_ptr"* %impl_89), !dbg !7946
  %call91 = call zeroext i1 @_ZNK3ros9Publisher4Impl7isValidEv(%"class.ros::Publisher::Impl"* %call90), !dbg !7946
  br i1 %call91, label %if.end197, label %if.then92, !dbg !7948

if.then92:                                        ; preds = %if.end88
  br label %do.body93, !dbg !7949

do.body93:                                        ; preds = %if.then92
  br label %do.body94, !dbg !7951

do.body94:                                        ; preds = %do.body93
  br label %do.body95, !dbg !7956

do.body95:                                        ; preds = %do.body94
  %42 = load i8* @_ZN3ros7console13g_initializedE, align 1, !dbg !7959
  %tobool96 = trunc i8 %42 to i1, !dbg !7959
  %lnot97 = xor i1 %tobool96, true, !dbg !7959
  br i1 %lnot97, label %if.then98, label %if.end99, !dbg !7963

if.then98:                                        ; preds = %do.body95
  call void @_ZN3ros7console10initializeEv(), !dbg !7964
  br label %if.end99, !dbg !7964

if.end99:                                         ; preds = %if.then98, %do.body95
  br label %do.end100, !dbg !7967

do.end100:                                        ; preds = %if.end99
  %43 = load i8* getelementptr inbounds (%"struct.ros::console::LogLocation"* @_ZZNK3ros9Publisher7publishIN8std_msgs7String_ISaIvEEEEEvRKT_E3loc_2, i32 0, i32 0), align 1, !dbg !7970
  %tobool101 = trunc i8 %43 to i1, !dbg !7970
  %lnot102 = xor i1 %tobool101, true, !dbg !7970
  br i1 %lnot102, label %if.then103, label %if.end114, !dbg !7973

if.then103:                                       ; preds = %do.end100
  call void @_ZNSaIcEC1Ev(%"class.std::allocator"* %ref.tmp105) #1, !dbg !7974
  invoke void @_ZNSsC1EPKcRKSaIcE(%"class.std::basic_string"* %ref.tmp104, i8* getelementptr inbounds ([20 x i8]* @.str15, i32 0, i32 0), %"class.std::allocator"* dereferenceable(1) %ref.tmp105)
          to label %invoke.cont107 unwind label %lpad106, !dbg !7974

invoke.cont107:                                   ; preds = %if.then103
  invoke void @_ZN3ros7console21initializeLogLocationEPNS0_11LogLocationERKSsNS0_6levels5LevelE(%"struct.ros::console::LogLocation"* @_ZZNK3ros9Publisher7publishIN8std_msgs7String_ISaIvEEEEEvRKT_E3loc_2, %"class.std::basic_string"* dereferenceable(8) %ref.tmp104, i32 4)
          to label %invoke.cont109 unwind label %lpad108, !dbg !7977

invoke.cont109:                                   ; preds = %invoke.cont107
  invoke void @_ZNSsD1Ev(%"class.std::basic_string"* %ref.tmp104)
          to label %invoke.cont110 unwind label %lpad106, !dbg !7979

invoke.cont110:                                   ; preds = %invoke.cont109
  call void @_ZNSaIcED1Ev(%"class.std::allocator"* %ref.tmp105) #1, !dbg !7981
  br label %if.end114, !dbg !7981

lpad106:                                          ; preds = %invoke.cont109, %if.then103
  %44 = landingpad { i8*, i32 } personality i8* bitcast (i32 (...)* @__gxx_personality_v0 to i8*)
          cleanup, !dbg !7983
  %45 = extractvalue { i8*, i32 } %44, 0, !dbg !7983
  store i8* %45, i8** %exn.slot, !dbg !7983
  %46 = extractvalue { i8*, i32 } %44, 1, !dbg !7983
  store i32 %46, i32* %ehselector.slot, !dbg !7983
  br label %ehcleanup113, !dbg !7983

lpad108:                                          ; preds = %invoke.cont107
  %47 = landingpad { i8*, i32 } personality i8* bitcast (i32 (...)* @__gxx_personality_v0 to i8*)
          cleanup, !dbg !7983
  %48 = extractvalue { i8*, i32 } %47, 0, !dbg !7983
  store i8* %48, i8** %exn.slot, !dbg !7983
  %49 = extractvalue { i8*, i32 } %47, 1, !dbg !7983
  store i32 %49, i32* %ehselector.slot, !dbg !7983
  invoke void @_ZNSsD1Ev(%"class.std::basic_string"* %ref.tmp104)
          to label %invoke.cont112 unwind label %terminate.lpad, !dbg !7984

invoke.cont112:                                   ; preds = %lpad108
  br label %ehcleanup113, !dbg !7985

ehcleanup113:                                     ; preds = %invoke.cont112, %lpad106
  call void @_ZNSaIcED1Ev(%"class.std::allocator"* %ref.tmp105) #1, !dbg !7987
  br label %eh.resume, !dbg !7987

if.end114:                                        ; preds = %invoke.cont110, %do.end100
  %50 = load i32* getelementptr inbounds (%"struct.ros::console::LogLocation"* @_ZZNK3ros9Publisher7publishIN8std_msgs7String_ISaIvEEEEEvRKT_E3loc_2, i32 0, i32 2), align 4, !dbg !7989
  %cmp115 = icmp ne i32 %50, 4, !dbg !7989
  br i1 %cmp115, label %if.then116, label %if.end117, !dbg !7973

if.then116:                                       ; preds = %if.end114
  call void @_ZN3ros7console19setLogLocationLevelEPNS0_11LogLocationENS0_6levels5LevelE(%"struct.ros::console::LogLocation"* @_ZZNK3ros9Publisher7publishIN8std_msgs7String_ISaIvEEEEEvRKT_E3loc_2, i32 4), !dbg !7993
  call void @_ZN3ros7console23checkLogLocationEnabledEPNS0_11LogLocationE(%"struct.ros::console::LogLocation"* @_ZZNK3ros9Publisher7publishIN8std_msgs7String_ISaIvEEEEEvRKT_E3loc_2), !dbg !7993
  br label %if.end117, !dbg !7993

if.end117:                                        ; preds = %if.then116, %if.end114
  call void @llvm.dbg.declare(metadata i8* %enabled118, metadata !7996, metadata !7540), !dbg !7973
  %51 = load i8* getelementptr inbounds (%"struct.ros::console::LogLocation"* @_ZZNK3ros9Publisher7publishIN8std_msgs7String_ISaIvEEEEEvRKT_E3loc_2, i32 0, i32 1), align 1, !dbg !7997
  %tobool119 = trunc i8 %51 to i1, !dbg !7997
  br i1 %tobool119, label %land.rhs120, label %land.end121, !dbg !7997

land.rhs120:                                      ; preds = %if.end117
  br label %land.end121

land.end121:                                      ; preds = %land.rhs120, %if.end117
  %52 = phi i1 [ false, %if.end117 ], [ true, %land.rhs120 ]
  %frombool122 = zext i1 %52 to i8, !dbg !8000
  store i8 %frombool122, i8* %enabled118, align 1, !dbg !8000
  %53 = load i8* %enabled118, align 1, !dbg !8002
  %tobool123 = trunc i8 %53 to i1, !dbg !8002
  br i1 %tobool123, label %if.then124, label %if.end125, !dbg !7973

if.then124:                                       ; preds = %land.end121
  %54 = load %"class.log4cxx::Logger"** getelementptr inbounds (%"struct.ros::console::LogLocation"* @_ZZNK3ros9Publisher7publishIN8std_msgs7String_ISaIvEEEEEvRKT_E3loc_2, i32 0, i32 3), align 8, !dbg !8004
  %55 = load i32* getelementptr inbounds (%"struct.ros::console::LogLocation"* @_ZZNK3ros9Publisher7publishIN8std_msgs7String_ISaIvEEEEEvRKT_E3loc_2, i32 0, i32 2), align 4, !dbg !8004
  call void (%"class.ros::console::FilterBase"*, %"class.log4cxx::Logger"*, i32, i8*, i32, i8*, i8*, ...)* @_ZN3ros7console5printEPNS0_10FilterBaseEPN7log4cxx6LoggerENS0_6levels5LevelEPKciS9_S9_z(%"class.ros::console::FilterBase"* null, %"class.log4cxx::Logger"* %54, i32 %55, i8* getelementptr inbounds ([40 x i8]* @.str16, i32 0, i32 0), i32 108, i8* getelementptr inbounds ([93 x i8]* @__PRETTY_FUNCTION__._ZNK3ros9Publisher7publishIN8std_msgs7String_ISaIvEEEEEvRKT_, i32 0, i32 0), i8* getelementptr inbounds ([62 x i8]* @.str17, i32 0, i32 0), i8* getelementptr inbounds ([40 x i8]* @.str16, i32 0, i32 0), i32 108, i8* getelementptr inbounds ([6 x i8]* @.str18, i32 0, i32 0)), !dbg !8004
  br label %if.end125, !dbg !8004

if.end125:                                        ; preds = %if.then124, %land.end121
  br label %do.end126, !dbg !8007

do.end126:                                        ; preds = %if.end125
  br label %do.body127, !dbg !8010

do.body127:                                       ; preds = %do.end126
  br label %do.body128, !dbg !8012

do.body128:                                       ; preds = %do.body127
  %56 = load i8* @_ZN3ros7console13g_initializedE, align 1, !dbg !8015
  %tobool129 = trunc i8 %56 to i1, !dbg !8015
  %lnot130 = xor i1 %tobool129, true, !dbg !8015
  br i1 %lnot130, label %if.then131, label %if.end132, !dbg !8019

if.then131:                                       ; preds = %do.body128
  call void @_ZN3ros7console10initializeEv(), !dbg !8020
  br label %if.end132, !dbg !8020

if.end132:                                        ; preds = %if.then131, %do.body128
  br label %do.end133, !dbg !8023

do.end133:                                        ; preds = %if.end132
  %57 = load i8* getelementptr inbounds (%"struct.ros::console::LogLocation"* @_ZZNK3ros9Publisher7publishIN8std_msgs7String_ISaIvEEEEEvRKT_E3loc_3, i32 0, i32 0), align 1, !dbg !8026
  %tobool134 = trunc i8 %57 to i1, !dbg !8026
  %lnot135 = xor i1 %tobool134, true, !dbg !8026
  br i1 %lnot135, label %if.then136, label %if.end147, !dbg !8029

if.then136:                                       ; preds = %do.end133
  call void @_ZNSaIcEC1Ev(%"class.std::allocator"* %ref.tmp138) #1, !dbg !8030
  invoke void @_ZNSsC1EPKcRKSaIcE(%"class.std::basic_string"* %ref.tmp137, i8* getelementptr inbounds ([20 x i8]* @.str15, i32 0, i32 0), %"class.std::allocator"* dereferenceable(1) %ref.tmp138)
          to label %invoke.cont140 unwind label %lpad139, !dbg !8030

invoke.cont140:                                   ; preds = %if.then136
  invoke void @_ZN3ros7console21initializeLogLocationEPNS0_11LogLocationERKSsNS0_6levels5LevelE(%"struct.ros::console::LogLocation"* @_ZZNK3ros9Publisher7publishIN8std_msgs7String_ISaIvEEEEEvRKT_E3loc_3, %"class.std::basic_string"* dereferenceable(8) %ref.tmp137, i32 4)
          to label %invoke.cont142 unwind label %lpad141, !dbg !8033

invoke.cont142:                                   ; preds = %invoke.cont140
  invoke void @_ZNSsD1Ev(%"class.std::basic_string"* %ref.tmp137)
          to label %invoke.cont143 unwind label %lpad139, !dbg !8035

invoke.cont143:                                   ; preds = %invoke.cont142
  call void @_ZNSaIcED1Ev(%"class.std::allocator"* %ref.tmp138) #1, !dbg !8037
  br label %if.end147, !dbg !8037

lpad139:                                          ; preds = %invoke.cont142, %if.then136
  %58 = landingpad { i8*, i32 } personality i8* bitcast (i32 (...)* @__gxx_personality_v0 to i8*)
          cleanup, !dbg !8039
  %59 = extractvalue { i8*, i32 } %58, 0, !dbg !8039
  store i8* %59, i8** %exn.slot, !dbg !8039
  %60 = extractvalue { i8*, i32 } %58, 1, !dbg !8039
  store i32 %60, i32* %ehselector.slot, !dbg !8039
  br label %ehcleanup146, !dbg !8039

lpad141:                                          ; preds = %invoke.cont140
  %61 = landingpad { i8*, i32 } personality i8* bitcast (i32 (...)* @__gxx_personality_v0 to i8*)
          cleanup, !dbg !8039
  %62 = extractvalue { i8*, i32 } %61, 0, !dbg !8039
  store i8* %62, i8** %exn.slot, !dbg !8039
  %63 = extractvalue { i8*, i32 } %61, 1, !dbg !8039
  store i32 %63, i32* %ehselector.slot, !dbg !8039
  invoke void @_ZNSsD1Ev(%"class.std::basic_string"* %ref.tmp137)
          to label %invoke.cont145 unwind label %terminate.lpad, !dbg !8040

invoke.cont145:                                   ; preds = %lpad141
  br label %ehcleanup146, !dbg !8041

ehcleanup146:                                     ; preds = %invoke.cont145, %lpad139
  call void @_ZNSaIcED1Ev(%"class.std::allocator"* %ref.tmp138) #1, !dbg !8043
  br label %eh.resume, !dbg !8043

if.end147:                                        ; preds = %invoke.cont143, %do.end133
  %64 = load i32* getelementptr inbounds (%"struct.ros::console::LogLocation"* @_ZZNK3ros9Publisher7publishIN8std_msgs7String_ISaIvEEEEEvRKT_E3loc_3, i32 0, i32 2), align 4, !dbg !8045
  %cmp148 = icmp ne i32 %64, 4, !dbg !8045
  br i1 %cmp148, label %if.then149, label %if.end150, !dbg !8029

if.then149:                                       ; preds = %if.end147
  call void @_ZN3ros7console19setLogLocationLevelEPNS0_11LogLocationENS0_6levels5LevelE(%"struct.ros::console::LogLocation"* @_ZZNK3ros9Publisher7publishIN8std_msgs7String_ISaIvEEEEEvRKT_E3loc_3, i32 4), !dbg !8049
  call void @_ZN3ros7console23checkLogLocationEnabledEPNS0_11LogLocationE(%"struct.ros::console::LogLocation"* @_ZZNK3ros9Publisher7publishIN8std_msgs7String_ISaIvEEEEEvRKT_E3loc_3), !dbg !8049
  br label %if.end150, !dbg !8049

if.end150:                                        ; preds = %if.then149, %if.end147
  call void @llvm.dbg.declare(metadata i8* %enabled151, metadata !8052, metadata !7540), !dbg !8029
  %65 = load i8* getelementptr inbounds (%"struct.ros::console::LogLocation"* @_ZZNK3ros9Publisher7publishIN8std_msgs7String_ISaIvEEEEEvRKT_E3loc_3, i32 0, i32 1), align 1, !dbg !8053
  %tobool152 = trunc i8 %65 to i1, !dbg !8053
  br i1 %tobool152, label %land.rhs153, label %land.end154, !dbg !8053

land.rhs153:                                      ; preds = %if.end150
  br label %land.end154

land.end154:                                      ; preds = %land.rhs153, %if.end150
  %66 = phi i1 [ false, %if.end150 ], [ true, %land.rhs153 ]
  %frombool155 = zext i1 %66 to i8, !dbg !8056
  store i8 %frombool155, i8* %enabled151, align 1, !dbg !8056
  %67 = load i8* %enabled151, align 1, !dbg !8058
  %tobool156 = trunc i8 %67 to i1, !dbg !8058
  br i1 %tobool156, label %if.then157, label %if.end161, !dbg !8029

if.then157:                                       ; preds = %land.end154
  %68 = load %"class.log4cxx::Logger"** getelementptr inbounds (%"struct.ros::console::LogLocation"* @_ZZNK3ros9Publisher7publishIN8std_msgs7String_ISaIvEEEEEvRKT_E3loc_3, i32 0, i32 3), align 8, !dbg !8060
  %69 = load i32* getelementptr inbounds (%"struct.ros::console::LogLocation"* @_ZZNK3ros9Publisher7publishIN8std_msgs7String_ISaIvEEEEEvRKT_E3loc_3, i32 0, i32 2), align 4, !dbg !8060
  %impl_158 = getelementptr inbounds %"class.ros::Publisher"* %this1, i32 0, i32 0, !dbg !8060
  %call159 = call %"class.ros::Publisher::Impl"* @_ZNK5boost10shared_ptrIN3ros9Publisher4ImplEEptEv(%"class.boost::shared_ptr"* %impl_158), !dbg !8060
  %topic_ = getelementptr inbounds %"class.ros::Publisher::Impl"* %call159, i32 0, i32 0, !dbg !8060
  %call160 = call i8* @_ZNKSs5c_strEv(%"class.std::basic_string"* %topic_), !dbg !8060
  call void (%"class.ros::console::FilterBase"*, %"class.log4cxx::Logger"*, i32, i8*, i32, i8*, i8*, ...)* @_ZN3ros7console5printEPNS0_10FilterBaseEPN7log4cxx6LoggerENS0_6levels5LevelEPKciS9_S9_z(%"class.ros::console::FilterBase"* null, %"class.log4cxx::Logger"* %68, i32 %69, i8* getelementptr inbounds ([40 x i8]* @.str16, i32 0, i32 0), i32 108, i8* getelementptr inbounds ([93 x i8]* @__PRETTY_FUNCTION__._ZNK3ros9Publisher7publishIN8std_msgs7String_ISaIvEEEEEvRKT_, i32 0, i32 0), i8* getelementptr inbounds ([55 x i8]* @.str21, i32 0, i32 0), i8* %call160), !dbg !8060
  br label %if.end161, !dbg !8060

if.end161:                                        ; preds = %if.then157, %land.end154
  br label %do.end162, !dbg !8063

do.end162:                                        ; preds = %if.end161
  br label %do.body163, !dbg !8066

do.body163:                                       ; preds = %do.end162
  br label %do.body164, !dbg !8068

do.body164:                                       ; preds = %do.body163
  %70 = load i8* @_ZN3ros7console13g_initializedE, align 1, !dbg !8071
  %tobool165 = trunc i8 %70 to i1, !dbg !8071
  %lnot166 = xor i1 %tobool165, true, !dbg !8071
  br i1 %lnot166, label %if.then167, label %if.end168, !dbg !8075

if.then167:                                       ; preds = %do.body164
  call void @_ZN3ros7console10initializeEv(), !dbg !8076
  br label %if.end168, !dbg !8076

if.end168:                                        ; preds = %if.then167, %do.body164
  br label %do.end169, !dbg !8079

do.end169:                                        ; preds = %if.end168
  %71 = load i8* getelementptr inbounds (%"struct.ros::console::LogLocation"* @_ZZNK3ros9Publisher7publishIN8std_msgs7String_ISaIvEEEEEvRKT_E3loc_4, i32 0, i32 0), align 1, !dbg !8082
  %tobool170 = trunc i8 %71 to i1, !dbg !8082
  %lnot171 = xor i1 %tobool170, true, !dbg !8082
  br i1 %lnot171, label %if.then172, label %if.end183, !dbg !8085

if.then172:                                       ; preds = %do.end169
  call void @_ZNSaIcEC1Ev(%"class.std::allocator"* %ref.tmp174) #1, !dbg !8086
  invoke void @_ZNSsC1EPKcRKSaIcE(%"class.std::basic_string"* %ref.tmp173, i8* getelementptr inbounds ([20 x i8]* @.str15, i32 0, i32 0), %"class.std::allocator"* dereferenceable(1) %ref.tmp174)
          to label %invoke.cont176 unwind label %lpad175, !dbg !8086

invoke.cont176:                                   ; preds = %if.then172
  invoke void @_ZN3ros7console21initializeLogLocationEPNS0_11LogLocationERKSsNS0_6levels5LevelE(%"struct.ros::console::LogLocation"* @_ZZNK3ros9Publisher7publishIN8std_msgs7String_ISaIvEEEEEvRKT_E3loc_4, %"class.std::basic_string"* dereferenceable(8) %ref.tmp173, i32 4)
          to label %invoke.cont178 unwind label %lpad177, !dbg !8089

invoke.cont178:                                   ; preds = %invoke.cont176
  invoke void @_ZNSsD1Ev(%"class.std::basic_string"* %ref.tmp173)
          to label %invoke.cont179 unwind label %lpad175, !dbg !8091

invoke.cont179:                                   ; preds = %invoke.cont178
  call void @_ZNSaIcED1Ev(%"class.std::allocator"* %ref.tmp174) #1, !dbg !8093
  br label %if.end183, !dbg !8093

lpad175:                                          ; preds = %invoke.cont178, %if.then172
  %72 = landingpad { i8*, i32 } personality i8* bitcast (i32 (...)* @__gxx_personality_v0 to i8*)
          cleanup, !dbg !8095
  %73 = extractvalue { i8*, i32 } %72, 0, !dbg !8095
  store i8* %73, i8** %exn.slot, !dbg !8095
  %74 = extractvalue { i8*, i32 } %72, 1, !dbg !8095
  store i32 %74, i32* %ehselector.slot, !dbg !8095
  br label %ehcleanup182, !dbg !8095

lpad177:                                          ; preds = %invoke.cont176
  %75 = landingpad { i8*, i32 } personality i8* bitcast (i32 (...)* @__gxx_personality_v0 to i8*)
          cleanup, !dbg !8095
  %76 = extractvalue { i8*, i32 } %75, 0, !dbg !8095
  store i8* %76, i8** %exn.slot, !dbg !8095
  %77 = extractvalue { i8*, i32 } %75, 1, !dbg !8095
  store i32 %77, i32* %ehselector.slot, !dbg !8095
  invoke void @_ZNSsD1Ev(%"class.std::basic_string"* %ref.tmp173)
          to label %invoke.cont181 unwind label %terminate.lpad, !dbg !8096

invoke.cont181:                                   ; preds = %lpad177
  br label %ehcleanup182, !dbg !8097

ehcleanup182:                                     ; preds = %invoke.cont181, %lpad175
  call void @_ZNSaIcED1Ev(%"class.std::allocator"* %ref.tmp174) #1, !dbg !8099
  br label %eh.resume, !dbg !8099

if.end183:                                        ; preds = %invoke.cont179, %do.end169
  %78 = load i32* getelementptr inbounds (%"struct.ros::console::LogLocation"* @_ZZNK3ros9Publisher7publishIN8std_msgs7String_ISaIvEEEEEvRKT_E3loc_4, i32 0, i32 2), align 4, !dbg !8101
  %cmp184 = icmp ne i32 %78, 4, !dbg !8101
  br i1 %cmp184, label %if.then185, label %if.end186, !dbg !8085

if.then185:                                       ; preds = %if.end183
  call void @_ZN3ros7console19setLogLocationLevelEPNS0_11LogLocationENS0_6levels5LevelE(%"struct.ros::console::LogLocation"* @_ZZNK3ros9Publisher7publishIN8std_msgs7String_ISaIvEEEEEvRKT_E3loc_4, i32 4), !dbg !8105
  call void @_ZN3ros7console23checkLogLocationEnabledEPNS0_11LogLocationE(%"struct.ros::console::LogLocation"* @_ZZNK3ros9Publisher7publishIN8std_msgs7String_ISaIvEEEEEvRKT_E3loc_4), !dbg !8105
  br label %if.end186, !dbg !8105

if.end186:                                        ; preds = %if.then185, %if.end183
  call void @llvm.dbg.declare(metadata i8* %enabled187, metadata !8108, metadata !7540), !dbg !8085
  %79 = load i8* getelementptr inbounds (%"struct.ros::console::LogLocation"* @_ZZNK3ros9Publisher7publishIN8std_msgs7String_ISaIvEEEEEvRKT_E3loc_4, i32 0, i32 1), align 1, !dbg !8109
  %tobool188 = trunc i8 %79 to i1, !dbg !8109
  br i1 %tobool188, label %land.rhs189, label %land.end190, !dbg !8109

land.rhs189:                                      ; preds = %if.end186
  br label %land.end190

land.end190:                                      ; preds = %land.rhs189, %if.end186
  %80 = phi i1 [ false, %if.end186 ], [ true, %land.rhs189 ]
  %frombool191 = zext i1 %80 to i8, !dbg !8112
  store i8 %frombool191, i8* %enabled187, align 1, !dbg !8112
  %81 = load i8* %enabled187, align 1, !dbg !8114
  %tobool192 = trunc i8 %81 to i1, !dbg !8114
  br i1 %tobool192, label %if.then193, label %if.end194, !dbg !8085

if.then193:                                       ; preds = %land.end190
  %82 = load %"class.log4cxx::Logger"** getelementptr inbounds (%"struct.ros::console::LogLocation"* @_ZZNK3ros9Publisher7publishIN8std_msgs7String_ISaIvEEEEEvRKT_E3loc_4, i32 0, i32 3), align 8, !dbg !8116
  %83 = load i32* getelementptr inbounds (%"struct.ros::console::LogLocation"* @_ZZNK3ros9Publisher7publishIN8std_msgs7String_ISaIvEEEEEvRKT_E3loc_4, i32 0, i32 2), align 4, !dbg !8116
  call void (%"class.ros::console::FilterBase"*, %"class.log4cxx::Logger"*, i32, i8*, i32, i8*, i8*, ...)* @_ZN3ros7console5printEPNS0_10FilterBaseEPN7log4cxx6LoggerENS0_6levels5LevelEPKciS9_S9_z(%"class.ros::console::FilterBase"* null, %"class.log4cxx::Logger"* %82, i32 %83, i8* getelementptr inbounds ([40 x i8]* @.str16, i32 0, i32 0), i32 108, i8* getelementptr inbounds ([93 x i8]* @__PRETTY_FUNCTION__._ZNK3ros9Publisher7publishIN8std_msgs7String_ISaIvEEEEEvRKT_, i32 0, i32 0), i8* getelementptr inbounds ([2 x i8]* @.str20, i32 0, i32 0)), !dbg !8116
  br label %if.end194, !dbg !8116

if.end194:                                        ; preds = %if.then193, %land.end190
  br label %do.end195, !dbg !8119

do.end195:                                        ; preds = %if.end194
  call void asm sideeffect "int $$3", "~{dirflag},~{fpsr},~{flags}"() #1, !dbg !8122, !srcloc !8124
  br label %do.end196, !dbg !8125

do.end196:                                        ; preds = %do.end195
  br label %return, !dbg !8126

if.end197:                                        ; preds = %if.end88
  br label %do.body198, !dbg !8127

do.body198:                                       ; preds = %if.end197
  %impl_199 = getelementptr inbounds %"class.ros::Publisher"* %this1, i32 0, i32 0, !dbg !8128
  %call200 = call %"class.ros::Publisher::Impl"* @_ZNK5boost10shared_ptrIN3ros9Publisher4ImplEEptEv(%"class.boost::shared_ptr"* %impl_199), !dbg !8128
  %md5sum_ = getelementptr inbounds %"class.ros::Publisher::Impl"* %call200, i32 0, i32 1, !dbg !8128
  %call201 = call zeroext i1 @_ZSteqIcSt11char_traitsIcESaIcEEbRKSbIT_T0_T1_EPKS3_(%"class.std::basic_string"* dereferenceable(8) %md5sum_, i8* getelementptr inbounds ([2 x i8]* @.str22, i32 0, i32 0)), !dbg !8128
  store i1 false, i1* %cleanup.cond
  store i1 false, i1* %cleanup.cond207
  br i1 %call201, label %lor.end, label %lor.lhs.false, !dbg !8132

lor.lhs.false:                                    ; preds = %do.body198
  %84 = load %"struct.std_msgs::String_"** %message.addr, align 8, !dbg !8133
  %call203 = call i8* @_ZN3ros14message_traits6md5sumIN8std_msgs7String_ISaIvEEEEEPKcRKT_(%"struct.std_msgs::String_"* dereferenceable(24) %84), !dbg !8133
  call void @_ZNSaIcEC1Ev(%"class.std::allocator"* %ref.tmp204) #1, !dbg !8133
  store i1 true, i1* %cleanup.cond, !dbg !8133
  invoke void @_ZNSsC1EPKcRKSaIcE(%"class.std::basic_string"* %ref.tmp202, i8* %call203, %"class.std::allocator"* dereferenceable(1) %ref.tmp204)
          to label %invoke.cont206 unwind label %lpad205, !dbg !8133

invoke.cont206:                                   ; preds = %lor.lhs.false
  store i1 true, i1* %cleanup.cond207, !dbg !8135
  %call210 = invoke zeroext i1 @_ZSteqIcSt11char_traitsIcESaIcEEbRKSbIT_T0_T1_EPKS3_(%"class.std::basic_string"* dereferenceable(8) %ref.tmp202, i8* getelementptr inbounds ([2 x i8]* @.str22, i32 0, i32 0))
          to label %invoke.cont209 unwind label %lpad208, !dbg !8135

invoke.cont209:                                   ; preds = %invoke.cont206
  br i1 %call210, label %lor.end, label %lor.rhs, !dbg !8137

lor.rhs:                                          ; preds = %invoke.cont209
  %impl_211 = getelementptr inbounds %"class.ros::Publisher"* %this1, i32 0, i32 0, !dbg !8139
  %call213 = invoke %"class.ros::Publisher::Impl"* @_ZNK5boost10shared_ptrIN3ros9Publisher4ImplEEptEv(%"class.boost::shared_ptr"* %impl_211)
          to label %invoke.cont212 unwind label %lpad208, !dbg !8139

invoke.cont212:                                   ; preds = %lor.rhs
  %md5sum_214 = getelementptr inbounds %"class.ros::Publisher::Impl"* %call213, i32 0, i32 1, !dbg !8141
  %85 = load %"struct.std_msgs::String_"** %message.addr, align 8, !dbg !8141
  %call216 = invoke i8* @_ZN3ros14message_traits6md5sumIN8std_msgs7String_ISaIvEEEEEPKcRKT_(%"struct.std_msgs::String_"* dereferenceable(24) %85)
          to label %invoke.cont215 unwind label %lpad208, !dbg !8141

invoke.cont215:                                   ; preds = %invoke.cont212
  %call218 = invoke zeroext i1 @_ZSteqIcSt11char_traitsIcESaIcEEbRKSbIT_T0_T1_EPKS3_(%"class.std::basic_string"* dereferenceable(8) %md5sum_214, i8* %call216)
          to label %invoke.cont217 unwind label %lpad208, !dbg !8143

invoke.cont217:                                   ; preds = %invoke.cont215
  br label %lor.end, !dbg !8145

lor.end:                                          ; preds = %invoke.cont217, %invoke.cont209, %do.body198
  %86 = phi i1 [ true, %invoke.cont209 ], [ true, %do.body198 ], [ %call218, %invoke.cont217 ]
  %lnot219 = xor i1 %86, true, !dbg !8147
  %cleanup.is_active = load i1* %cleanup.cond207, !dbg !8147
  br i1 %cleanup.is_active, label %cleanup.action, label %cleanup.done, !dbg !8147

cleanup.action:                                   ; preds = %lor.end
  invoke void @_ZNSsD1Ev(%"class.std::basic_string"* %ref.tmp202)
          to label %invoke.cont220 unwind label %lpad205, !dbg !8151

invoke.cont220:                                   ; preds = %cleanup.action
  br label %cleanup.done, !dbg !8153

cleanup.done:                                     ; preds = %invoke.cont220, %lor.end
  %cleanup.is_active226 = load i1* %cleanup.cond, !dbg !8155
  br i1 %cleanup.is_active226, label %cleanup.action227, label %cleanup.done228, !dbg !8155

cleanup.action227:                                ; preds = %cleanup.done
  call void @_ZNSaIcED1Ev(%"class.std::allocator"* %ref.tmp204) #1, !dbg !8158
  br label %cleanup.done228, !dbg !8158

cleanup.done228:                                  ; preds = %cleanup.action227, %cleanup.done
  br i1 %lnot219, label %if.then233, label %if.end342, !dbg !8160

if.then233:                                       ; preds = %cleanup.done228
  br label %do.body234, !dbg !8163

do.body234:                                       ; preds = %if.then233
  br label %do.body235, !dbg !8166

do.body235:                                       ; preds = %do.body234
  %87 = load i8* @_ZN3ros7console13g_initializedE, align 1, !dbg !8169
  %tobool236 = trunc i8 %87 to i1, !dbg !8169
  %lnot237 = xor i1 %tobool236, true, !dbg !8169
  br i1 %lnot237, label %if.then238, label %if.end239, !dbg !8173

if.then238:                                       ; preds = %do.body235
  call void @_ZN3ros7console10initializeEv(), !dbg !8174
  br label %if.end239, !dbg !8174

lpad205:                                          ; preds = %cleanup.action, %lor.lhs.false
  %88 = landingpad { i8*, i32 } personality i8* bitcast (i32 (...)* @__gxx_personality_v0 to i8*)
          cleanup, !dbg !8177
  %89 = extractvalue { i8*, i32 } %88, 0, !dbg !8177
  store i8* %89, i8** %exn.slot, !dbg !8177
  %90 = extractvalue { i8*, i32 } %88, 1, !dbg !8177
  store i32 %90, i32* %ehselector.slot, !dbg !8177
  br label %ehcleanup229, !dbg !8177

lpad208:                                          ; preds = %invoke.cont215, %invoke.cont212, %lor.rhs, %invoke.cont206
  %91 = landingpad { i8*, i32 } personality i8* bitcast (i32 (...)* @__gxx_personality_v0 to i8*)
          cleanup, !dbg !8177
  %92 = extractvalue { i8*, i32 } %91, 0, !dbg !8177
  store i8* %92, i8** %exn.slot, !dbg !8177
  %93 = extractvalue { i8*, i32 } %91, 1, !dbg !8177
  store i32 %93, i32* %ehselector.slot, !dbg !8177
  %cleanup.is_active222 = load i1* %cleanup.cond207, !dbg !8132
  br i1 %cleanup.is_active222, label %cleanup.action223, label %cleanup.done225, !dbg !8132

cleanup.action223:                                ; preds = %lpad208
  invoke void @_ZNSsD1Ev(%"class.std::basic_string"* %ref.tmp202)
          to label %invoke.cont224 unwind label %terminate.lpad, !dbg !8178

invoke.cont224:                                   ; preds = %cleanup.action223
  br label %cleanup.done225, !dbg !8180

cleanup.done225:                                  ; preds = %invoke.cont224, %lpad208
  br label %ehcleanup229, !dbg !8182

ehcleanup229:                                     ; preds = %cleanup.done225, %lpad205
  %cleanup.is_active230 = load i1* %cleanup.cond, !dbg !8185
  br i1 %cleanup.is_active230, label %cleanup.action231, label %cleanup.done232, !dbg !8185

cleanup.action231:                                ; preds = %ehcleanup229
  call void @_ZNSaIcED1Ev(%"class.std::allocator"* %ref.tmp204) #1, !dbg !8187
  br label %cleanup.done232, !dbg !8187

cleanup.done232:                                  ; preds = %cleanup.action231, %ehcleanup229
  br label %eh.resume, !dbg !8189

if.end239:                                        ; preds = %if.then238, %do.body235
  br label %do.end240, !dbg !8192

do.end240:                                        ; preds = %if.end239
  %94 = load i8* getelementptr inbounds (%"struct.ros::console::LogLocation"* @_ZZNK3ros9Publisher7publishIN8std_msgs7String_ISaIvEEEEEvRKT_E3loc_5, i32 0, i32 0), align 1, !dbg !8195
  %tobool241 = trunc i8 %94 to i1, !dbg !8195
  %lnot242 = xor i1 %tobool241, true, !dbg !8195
  br i1 %lnot242, label %if.then243, label %if.end254, !dbg !8198

if.then243:                                       ; preds = %do.end240
  call void @_ZNSaIcEC1Ev(%"class.std::allocator"* %ref.tmp245) #1, !dbg !8199
  invoke void @_ZNSsC1EPKcRKSaIcE(%"class.std::basic_string"* %ref.tmp244, i8* getelementptr inbounds ([20 x i8]* @.str15, i32 0, i32 0), %"class.std::allocator"* dereferenceable(1) %ref.tmp245)
          to label %invoke.cont247 unwind label %lpad246, !dbg !8199

invoke.cont247:                                   ; preds = %if.then243
  invoke void @_ZN3ros7console21initializeLogLocationEPNS0_11LogLocationERKSsNS0_6levels5LevelE(%"struct.ros::console::LogLocation"* @_ZZNK3ros9Publisher7publishIN8std_msgs7String_ISaIvEEEEEvRKT_E3loc_5, %"class.std::basic_string"* dereferenceable(8) %ref.tmp244, i32 4)
          to label %invoke.cont249 unwind label %lpad248, !dbg !8202

invoke.cont249:                                   ; preds = %invoke.cont247
  invoke void @_ZNSsD1Ev(%"class.std::basic_string"* %ref.tmp244)
          to label %invoke.cont250 unwind label %lpad246, !dbg !8204

invoke.cont250:                                   ; preds = %invoke.cont249
  call void @_ZNSaIcED1Ev(%"class.std::allocator"* %ref.tmp245) #1, !dbg !8206
  br label %if.end254, !dbg !8206

lpad246:                                          ; preds = %invoke.cont249, %if.then243
  %95 = landingpad { i8*, i32 } personality i8* bitcast (i32 (...)* @__gxx_personality_v0 to i8*)
          cleanup, !dbg !8208
  %96 = extractvalue { i8*, i32 } %95, 0, !dbg !8208
  store i8* %96, i8** %exn.slot, !dbg !8208
  %97 = extractvalue { i8*, i32 } %95, 1, !dbg !8208
  store i32 %97, i32* %ehselector.slot, !dbg !8208
  br label %ehcleanup253, !dbg !8208

lpad248:                                          ; preds = %invoke.cont247
  %98 = landingpad { i8*, i32 } personality i8* bitcast (i32 (...)* @__gxx_personality_v0 to i8*)
          cleanup, !dbg !8208
  %99 = extractvalue { i8*, i32 } %98, 0, !dbg !8208
  store i8* %99, i8** %exn.slot, !dbg !8208
  %100 = extractvalue { i8*, i32 } %98, 1, !dbg !8208
  store i32 %100, i32* %ehselector.slot, !dbg !8208
  invoke void @_ZNSsD1Ev(%"class.std::basic_string"* %ref.tmp244)
          to label %invoke.cont252 unwind label %terminate.lpad, !dbg !8209

invoke.cont252:                                   ; preds = %lpad248
  br label %ehcleanup253, !dbg !8210

ehcleanup253:                                     ; preds = %invoke.cont252, %lpad246
  call void @_ZNSaIcED1Ev(%"class.std::allocator"* %ref.tmp245) #1, !dbg !8212
  br label %eh.resume, !dbg !8212

if.end254:                                        ; preds = %invoke.cont250, %do.end240
  %101 = load i32* getelementptr inbounds (%"struct.ros::console::LogLocation"* @_ZZNK3ros9Publisher7publishIN8std_msgs7String_ISaIvEEEEEvRKT_E3loc_5, i32 0, i32 2), align 4, !dbg !8214
  %cmp255 = icmp ne i32 %101, 4, !dbg !8214
  br i1 %cmp255, label %if.then256, label %if.end257, !dbg !8198

if.then256:                                       ; preds = %if.end254
  call void @_ZN3ros7console19setLogLocationLevelEPNS0_11LogLocationENS0_6levels5LevelE(%"struct.ros::console::LogLocation"* @_ZZNK3ros9Publisher7publishIN8std_msgs7String_ISaIvEEEEEvRKT_E3loc_5, i32 4), !dbg !8218
  call void @_ZN3ros7console23checkLogLocationEnabledEPNS0_11LogLocationE(%"struct.ros::console::LogLocation"* @_ZZNK3ros9Publisher7publishIN8std_msgs7String_ISaIvEEEEEvRKT_E3loc_5), !dbg !8218
  br label %if.end257, !dbg !8218

if.end257:                                        ; preds = %if.then256, %if.end254
  call void @llvm.dbg.declare(metadata i8* %enabled258, metadata !8221, metadata !7540), !dbg !8198
  %102 = load i8* getelementptr inbounds (%"struct.ros::console::LogLocation"* @_ZZNK3ros9Publisher7publishIN8std_msgs7String_ISaIvEEEEEvRKT_E3loc_5, i32 0, i32 1), align 1, !dbg !8222
  %tobool259 = trunc i8 %102 to i1, !dbg !8222
  br i1 %tobool259, label %land.rhs260, label %land.end261, !dbg !8222

land.rhs260:                                      ; preds = %if.end257
  br label %land.end261

land.end261:                                      ; preds = %land.rhs260, %if.end257
  %103 = phi i1 [ false, %if.end257 ], [ true, %land.rhs260 ]
  %frombool262 = zext i1 %103 to i8, !dbg !8225
  store i8 %frombool262, i8* %enabled258, align 1, !dbg !8225
  %104 = load i8* %enabled258, align 1, !dbg !8227
  %tobool263 = trunc i8 %104 to i1, !dbg !8227
  br i1 %tobool263, label %if.then264, label %if.end265, !dbg !8198

if.then264:                                       ; preds = %land.end261
  %105 = load %"class.log4cxx::Logger"** getelementptr inbounds (%"struct.ros::console::LogLocation"* @_ZZNK3ros9Publisher7publishIN8std_msgs7String_ISaIvEEEEEvRKT_E3loc_5, i32 0, i32 3), align 8, !dbg !8229
  %106 = load i32* getelementptr inbounds (%"struct.ros::console::LogLocation"* @_ZZNK3ros9Publisher7publishIN8std_msgs7String_ISaIvEEEEEvRKT_E3loc_5, i32 0, i32 2), align 4, !dbg !8229
  call void (%"class.ros::console::FilterBase"*, %"class.log4cxx::Logger"*, i32, i8*, i32, i8*, i8*, ...)* @_ZN3ros7console5printEPNS0_10FilterBaseEPN7log4cxx6LoggerENS0_6levels5LevelEPKciS9_S9_z(%"class.ros::console::FilterBase"* null, %"class.log4cxx::Logger"* %105, i32 %106, i8* getelementptr inbounds ([40 x i8]* @.str16, i32 0, i32 0), i32 115, i8* getelementptr inbounds ([93 x i8]* @__PRETTY_FUNCTION__._ZNK3ros9Publisher7publishIN8std_msgs7String_ISaIvEEEEEvRKT_, i32 0, i32 0), i8* getelementptr inbounds ([62 x i8]* @.str17, i32 0, i32 0), i8* getelementptr inbounds ([40 x i8]* @.str16, i32 0, i32 0), i32 115, i8* getelementptr inbounds ([112 x i8]* @.str23, i32 0, i32 0)), !dbg !8229
  br label %if.end265, !dbg !8229

if.end265:                                        ; preds = %if.then264, %land.end261
  br label %do.end266, !dbg !8232

do.end266:                                        ; preds = %if.end265
  br label %do.body267, !dbg !8235

do.body267:                                       ; preds = %do.end266
  br label %do.body268, !dbg !8237

do.body268:                                       ; preds = %do.body267
  %107 = load i8* @_ZN3ros7console13g_initializedE, align 1, !dbg !8240
  %tobool269 = trunc i8 %107 to i1, !dbg !8240
  %lnot270 = xor i1 %tobool269, true, !dbg !8240
  br i1 %lnot270, label %if.then271, label %if.end272, !dbg !8244

if.then271:                                       ; preds = %do.body268
  call void @_ZN3ros7console10initializeEv(), !dbg !8245
  br label %if.end272, !dbg !8245

if.end272:                                        ; preds = %if.then271, %do.body268
  br label %do.end273, !dbg !8248

do.end273:                                        ; preds = %if.end272
  %108 = load i8* getelementptr inbounds (%"struct.ros::console::LogLocation"* @_ZZNK3ros9Publisher7publishIN8std_msgs7String_ISaIvEEEEEvRKT_E3loc_6, i32 0, i32 0), align 1, !dbg !8251
  %tobool274 = trunc i8 %108 to i1, !dbg !8251
  %lnot275 = xor i1 %tobool274, true, !dbg !8251
  br i1 %lnot275, label %if.then276, label %if.end287, !dbg !8254

if.then276:                                       ; preds = %do.end273
  call void @_ZNSaIcEC1Ev(%"class.std::allocator"* %ref.tmp278) #1, !dbg !8255
  invoke void @_ZNSsC1EPKcRKSaIcE(%"class.std::basic_string"* %ref.tmp277, i8* getelementptr inbounds ([20 x i8]* @.str15, i32 0, i32 0), %"class.std::allocator"* dereferenceable(1) %ref.tmp278)
          to label %invoke.cont280 unwind label %lpad279, !dbg !8255

invoke.cont280:                                   ; preds = %if.then276
  invoke void @_ZN3ros7console21initializeLogLocationEPNS0_11LogLocationERKSsNS0_6levels5LevelE(%"struct.ros::console::LogLocation"* @_ZZNK3ros9Publisher7publishIN8std_msgs7String_ISaIvEEEEEvRKT_E3loc_6, %"class.std::basic_string"* dereferenceable(8) %ref.tmp277, i32 4)
          to label %invoke.cont282 unwind label %lpad281, !dbg !8258

invoke.cont282:                                   ; preds = %invoke.cont280
  invoke void @_ZNSsD1Ev(%"class.std::basic_string"* %ref.tmp277)
          to label %invoke.cont283 unwind label %lpad279, !dbg !8260

invoke.cont283:                                   ; preds = %invoke.cont282
  call void @_ZNSaIcED1Ev(%"class.std::allocator"* %ref.tmp278) #1, !dbg !8262
  br label %if.end287, !dbg !8262

lpad279:                                          ; preds = %invoke.cont282, %if.then276
  %109 = landingpad { i8*, i32 } personality i8* bitcast (i32 (...)* @__gxx_personality_v0 to i8*)
          cleanup, !dbg !8264
  %110 = extractvalue { i8*, i32 } %109, 0, !dbg !8264
  store i8* %110, i8** %exn.slot, !dbg !8264
  %111 = extractvalue { i8*, i32 } %109, 1, !dbg !8264
  store i32 %111, i32* %ehselector.slot, !dbg !8264
  br label %ehcleanup286, !dbg !8264

lpad281:                                          ; preds = %invoke.cont280
  %112 = landingpad { i8*, i32 } personality i8* bitcast (i32 (...)* @__gxx_personality_v0 to i8*)
          cleanup, !dbg !8264
  %113 = extractvalue { i8*, i32 } %112, 0, !dbg !8264
  store i8* %113, i8** %exn.slot, !dbg !8264
  %114 = extractvalue { i8*, i32 } %112, 1, !dbg !8264
  store i32 %114, i32* %ehselector.slot, !dbg !8264
  invoke void @_ZNSsD1Ev(%"class.std::basic_string"* %ref.tmp277)
          to label %invoke.cont285 unwind label %terminate.lpad, !dbg !8265

invoke.cont285:                                   ; preds = %lpad281
  br label %ehcleanup286, !dbg !8266

ehcleanup286:                                     ; preds = %invoke.cont285, %lpad279
  call void @_ZNSaIcED1Ev(%"class.std::allocator"* %ref.tmp278) #1, !dbg !8268
  br label %eh.resume, !dbg !8268

if.end287:                                        ; preds = %invoke.cont283, %do.end273
  %115 = load i32* getelementptr inbounds (%"struct.ros::console::LogLocation"* @_ZZNK3ros9Publisher7publishIN8std_msgs7String_ISaIvEEEEEvRKT_E3loc_6, i32 0, i32 2), align 4, !dbg !8270
  %cmp288 = icmp ne i32 %115, 4, !dbg !8270
  br i1 %cmp288, label %if.then289, label %if.end290, !dbg !8254

if.then289:                                       ; preds = %if.end287
  call void @_ZN3ros7console19setLogLocationLevelEPNS0_11LogLocationENS0_6levels5LevelE(%"struct.ros::console::LogLocation"* @_ZZNK3ros9Publisher7publishIN8std_msgs7String_ISaIvEEEEEvRKT_E3loc_6, i32 4), !dbg !8274
  call void @_ZN3ros7console23checkLogLocationEnabledEPNS0_11LogLocationE(%"struct.ros::console::LogLocation"* @_ZZNK3ros9Publisher7publishIN8std_msgs7String_ISaIvEEEEEvRKT_E3loc_6), !dbg !8274
  br label %if.end290, !dbg !8274

if.end290:                                        ; preds = %if.then289, %if.end287
  call void @llvm.dbg.declare(metadata i8* %enabled291, metadata !8277, metadata !7540), !dbg !8254
  %116 = load i8* getelementptr inbounds (%"struct.ros::console::LogLocation"* @_ZZNK3ros9Publisher7publishIN8std_msgs7String_ISaIvEEEEEvRKT_E3loc_6, i32 0, i32 1), align 1, !dbg !8278
  %tobool292 = trunc i8 %116 to i1, !dbg !8278
  br i1 %tobool292, label %land.rhs293, label %land.end294, !dbg !8278

land.rhs293:                                      ; preds = %if.end290
  br label %land.end294

land.end294:                                      ; preds = %land.rhs293, %if.end290
  %117 = phi i1 [ false, %if.end290 ], [ true, %land.rhs293 ]
  %frombool295 = zext i1 %117 to i8, !dbg !8281
  store i8 %frombool295, i8* %enabled291, align 1, !dbg !8281
  %118 = load i8* %enabled291, align 1, !dbg !8283
  %tobool296 = trunc i8 %118 to i1, !dbg !8283
  br i1 %tobool296, label %if.then297, label %if.end307, !dbg !8254

if.then297:                                       ; preds = %land.end294
  %119 = load %"class.log4cxx::Logger"** getelementptr inbounds (%"struct.ros::console::LogLocation"* @_ZZNK3ros9Publisher7publishIN8std_msgs7String_ISaIvEEEEEvRKT_E3loc_6, i32 0, i32 3), align 8, !dbg !8285
  %120 = load i32* getelementptr inbounds (%"struct.ros::console::LogLocation"* @_ZZNK3ros9Publisher7publishIN8std_msgs7String_ISaIvEEEEEvRKT_E3loc_6, i32 0, i32 2), align 4, !dbg !8285
  %121 = load %"struct.std_msgs::String_"** %message.addr, align 8, !dbg !8285
  %call298 = call i8* @_ZN3ros14message_traits8datatypeIN8std_msgs7String_ISaIvEEEEEPKcRKT_(%"struct.std_msgs::String_"* dereferenceable(24) %121), !dbg !8285
  %122 = load %"struct.std_msgs::String_"** %message.addr, align 8, !dbg !8285
  %call299 = call i8* @_ZN3ros14message_traits6md5sumIN8std_msgs7String_ISaIvEEEEEPKcRKT_(%"struct.std_msgs::String_"* dereferenceable(24) %122), !dbg !8285
  %impl_300 = getelementptr inbounds %"class.ros::Publisher"* %this1, i32 0, i32 0, !dbg !8285
  %call301 = call %"class.ros::Publisher::Impl"* @_ZNK5boost10shared_ptrIN3ros9Publisher4ImplEEptEv(%"class.boost::shared_ptr"* %impl_300), !dbg !8285
  %datatype_ = getelementptr inbounds %"class.ros::Publisher::Impl"* %call301, i32 0, i32 2, !dbg !8285
  %call302 = call i8* @_ZNKSs5c_strEv(%"class.std::basic_string"* %datatype_), !dbg !8285
  %impl_303 = getelementptr inbounds %"class.ros::Publisher"* %this1, i32 0, i32 0, !dbg !8285
  %call304 = call %"class.ros::Publisher::Impl"* @_ZNK5boost10shared_ptrIN3ros9Publisher4ImplEEptEv(%"class.boost::shared_ptr"* %impl_303), !dbg !8285
  %md5sum_305 = getelementptr inbounds %"class.ros::Publisher::Impl"* %call304, i32 0, i32 1, !dbg !8285
  %call306 = call i8* @_ZNKSs5c_strEv(%"class.std::basic_string"* %md5sum_305), !dbg !8285
  call void (%"class.ros::console::FilterBase"*, %"class.log4cxx::Logger"*, i32, i8*, i32, i8*, i8*, ...)* @_ZN3ros7console5printEPNS0_10FilterBaseEPN7log4cxx6LoggerENS0_6levels5LevelEPKciS9_S9_z(%"class.ros::console::FilterBase"* null, %"class.log4cxx::Logger"* %119, i32 %120, i8* getelementptr inbounds ([40 x i8]* @.str16, i32 0, i32 0), i32 115, i8* getelementptr inbounds ([93 x i8]* @__PRETTY_FUNCTION__._ZNK3ros9Publisher7publishIN8std_msgs7String_ISaIvEEEEEvRKT_, i32 0, i32 0), i8* getelementptr inbounds ([75 x i8]* @.str24, i32 0, i32 0), i8* %call298, i8* %call299, i8* %call302, i8* %call306), !dbg !8285
  br label %if.end307, !dbg !8285

if.end307:                                        ; preds = %if.then297, %land.end294
  br label %do.end308, !dbg !8288

do.end308:                                        ; preds = %if.end307
  br label %do.body309, !dbg !8291

do.body309:                                       ; preds = %do.end308
  br label %do.body310, !dbg !8293

do.body310:                                       ; preds = %do.body309
  %123 = load i8* @_ZN3ros7console13g_initializedE, align 1, !dbg !8296
  %tobool311 = trunc i8 %123 to i1, !dbg !8296
  %lnot312 = xor i1 %tobool311, true, !dbg !8296
  br i1 %lnot312, label %if.then313, label %if.end314, !dbg !8300

if.then313:                                       ; preds = %do.body310
  call void @_ZN3ros7console10initializeEv(), !dbg !8301
  br label %if.end314, !dbg !8301

if.end314:                                        ; preds = %if.then313, %do.body310
  br label %do.end315, !dbg !8304

do.end315:                                        ; preds = %if.end314
  %124 = load i8* getelementptr inbounds (%"struct.ros::console::LogLocation"* @_ZZNK3ros9Publisher7publishIN8std_msgs7String_ISaIvEEEEEvRKT_E3loc_7, i32 0, i32 0), align 1, !dbg !8307
  %tobool316 = trunc i8 %124 to i1, !dbg !8307
  %lnot317 = xor i1 %tobool316, true, !dbg !8307
  br i1 %lnot317, label %if.then318, label %if.end329, !dbg !8310

if.then318:                                       ; preds = %do.end315
  call void @_ZNSaIcEC1Ev(%"class.std::allocator"* %ref.tmp320) #1, !dbg !8311
  invoke void @_ZNSsC1EPKcRKSaIcE(%"class.std::basic_string"* %ref.tmp319, i8* getelementptr inbounds ([20 x i8]* @.str15, i32 0, i32 0), %"class.std::allocator"* dereferenceable(1) %ref.tmp320)
          to label %invoke.cont322 unwind label %lpad321, !dbg !8311

invoke.cont322:                                   ; preds = %if.then318
  invoke void @_ZN3ros7console21initializeLogLocationEPNS0_11LogLocationERKSsNS0_6levels5LevelE(%"struct.ros::console::LogLocation"* @_ZZNK3ros9Publisher7publishIN8std_msgs7String_ISaIvEEEEEvRKT_E3loc_7, %"class.std::basic_string"* dereferenceable(8) %ref.tmp319, i32 4)
          to label %invoke.cont324 unwind label %lpad323, !dbg !8314

invoke.cont324:                                   ; preds = %invoke.cont322
  invoke void @_ZNSsD1Ev(%"class.std::basic_string"* %ref.tmp319)
          to label %invoke.cont325 unwind label %lpad321, !dbg !8316

invoke.cont325:                                   ; preds = %invoke.cont324
  call void @_ZNSaIcED1Ev(%"class.std::allocator"* %ref.tmp320) #1, !dbg !8318
  br label %if.end329, !dbg !8318

lpad321:                                          ; preds = %invoke.cont324, %if.then318
  %125 = landingpad { i8*, i32 } personality i8* bitcast (i32 (...)* @__gxx_personality_v0 to i8*)
          cleanup, !dbg !8320
  %126 = extractvalue { i8*, i32 } %125, 0, !dbg !8320
  store i8* %126, i8** %exn.slot, !dbg !8320
  %127 = extractvalue { i8*, i32 } %125, 1, !dbg !8320
  store i32 %127, i32* %ehselector.slot, !dbg !8320
  br label %ehcleanup328, !dbg !8320

lpad323:                                          ; preds = %invoke.cont322
  %128 = landingpad { i8*, i32 } personality i8* bitcast (i32 (...)* @__gxx_personality_v0 to i8*)
          cleanup, !dbg !8320
  %129 = extractvalue { i8*, i32 } %128, 0, !dbg !8320
  store i8* %129, i8** %exn.slot, !dbg !8320
  %130 = extractvalue { i8*, i32 } %128, 1, !dbg !8320
  store i32 %130, i32* %ehselector.slot, !dbg !8320
  invoke void @_ZNSsD1Ev(%"class.std::basic_string"* %ref.tmp319)
          to label %invoke.cont327 unwind label %terminate.lpad, !dbg !8321

invoke.cont327:                                   ; preds = %lpad323
  br label %ehcleanup328, !dbg !8322

ehcleanup328:                                     ; preds = %invoke.cont327, %lpad321
  call void @_ZNSaIcED1Ev(%"class.std::allocator"* %ref.tmp320) #1, !dbg !8324
  br label %eh.resume, !dbg !8324

if.end329:                                        ; preds = %invoke.cont325, %do.end315
  %131 = load i32* getelementptr inbounds (%"struct.ros::console::LogLocation"* @_ZZNK3ros9Publisher7publishIN8std_msgs7String_ISaIvEEEEEvRKT_E3loc_7, i32 0, i32 2), align 4, !dbg !8326
  %cmp330 = icmp ne i32 %131, 4, !dbg !8326
  br i1 %cmp330, label %if.then331, label %if.end332, !dbg !8310

if.then331:                                       ; preds = %if.end329
  call void @_ZN3ros7console19setLogLocationLevelEPNS0_11LogLocationENS0_6levels5LevelE(%"struct.ros::console::LogLocation"* @_ZZNK3ros9Publisher7publishIN8std_msgs7String_ISaIvEEEEEvRKT_E3loc_7, i32 4), !dbg !8330
  call void @_ZN3ros7console23checkLogLocationEnabledEPNS0_11LogLocationE(%"struct.ros::console::LogLocation"* @_ZZNK3ros9Publisher7publishIN8std_msgs7String_ISaIvEEEEEvRKT_E3loc_7), !dbg !8330
  br label %if.end332, !dbg !8330

if.end332:                                        ; preds = %if.then331, %if.end329
  call void @llvm.dbg.declare(metadata i8* %enabled333, metadata !8333, metadata !7540), !dbg !8310
  %132 = load i8* getelementptr inbounds (%"struct.ros::console::LogLocation"* @_ZZNK3ros9Publisher7publishIN8std_msgs7String_ISaIvEEEEEvRKT_E3loc_7, i32 0, i32 1), align 1, !dbg !8334
  %tobool334 = trunc i8 %132 to i1, !dbg !8334
  br i1 %tobool334, label %land.rhs335, label %land.end336, !dbg !8334

land.rhs335:                                      ; preds = %if.end332
  br label %land.end336

land.end336:                                      ; preds = %land.rhs335, %if.end332
  %133 = phi i1 [ false, %if.end332 ], [ true, %land.rhs335 ]
  %frombool337 = zext i1 %133 to i8, !dbg !8337
  store i8 %frombool337, i8* %enabled333, align 1, !dbg !8337
  %134 = load i8* %enabled333, align 1, !dbg !8339
  %tobool338 = trunc i8 %134 to i1, !dbg !8339
  br i1 %tobool338, label %if.then339, label %if.end340, !dbg !8310

if.then339:                                       ; preds = %land.end336
  %135 = load %"class.log4cxx::Logger"** getelementptr inbounds (%"struct.ros::console::LogLocation"* @_ZZNK3ros9Publisher7publishIN8std_msgs7String_ISaIvEEEEEvRKT_E3loc_7, i32 0, i32 3), align 8, !dbg !8341
  %136 = load i32* getelementptr inbounds (%"struct.ros::console::LogLocation"* @_ZZNK3ros9Publisher7publishIN8std_msgs7String_ISaIvEEEEEvRKT_E3loc_7, i32 0, i32 2), align 4, !dbg !8341
  call void (%"class.ros::console::FilterBase"*, %"class.log4cxx::Logger"*, i32, i8*, i32, i8*, i8*, ...)* @_ZN3ros7console5printEPNS0_10FilterBaseEPN7log4cxx6LoggerENS0_6levels5LevelEPKciS9_S9_z(%"class.ros::console::FilterBase"* null, %"class.log4cxx::Logger"* %135, i32 %136, i8* getelementptr inbounds ([40 x i8]* @.str16, i32 0, i32 0), i32 115, i8* getelementptr inbounds ([93 x i8]* @__PRETTY_FUNCTION__._ZNK3ros9Publisher7publishIN8std_msgs7String_ISaIvEEEEEvRKT_, i32 0, i32 0), i8* getelementptr inbounds ([2 x i8]* @.str20, i32 0, i32 0)), !dbg !8341
  br label %if.end340, !dbg !8341

if.end340:                                        ; preds = %if.then339, %land.end336
  br label %do.end341, !dbg !8344

do.end341:                                        ; preds = %if.end340
  call void asm sideeffect "int $$3", "~{dirflag},~{fpsr},~{flags}"() #1, !dbg !8347, !srcloc !8349
  br label %if.end342, !dbg !8347

if.end342:                                        ; preds = %do.end341, %cleanup.done228
  br label %do.end343, !dbg !8350

do.end343:                                        ; preds = %if.end342
  call void @llvm.dbg.declare(metadata %"class.ros::SerializedMessage"* %m, metadata !8353, metadata !7540), !dbg !8354
  call void @_ZN3ros17SerializedMessageC2Ev(%"class.ros::SerializedMessage"* %m), !dbg !8354
  %137 = load %"struct.std_msgs::String_"** %message.addr, align 8, !dbg !8355
  %call348 = invoke %"struct.std_msgs::String_"* @_ZN5boost3refIKN8std_msgs7String_ISaIvEEEEEKNS_17reference_wrapperIT_EERS7_(%"struct.std_msgs::String_"* dereferenceable(24) %137)
          to label %invoke.cont347 unwind label %lpad346, !dbg !8356

invoke.cont347:                                   ; preds = %do.end343
  %coerce.dive = getelementptr %"class.boost::reference_wrapper"* %agg.tmp345, i32 0, i32 0, !dbg !8357
  store %"struct.std_msgs::String_"* %call348, %"struct.std_msgs::String_"** %coerce.dive, !dbg !8357
  %coerce.dive349 = getelementptr %"class.boost::reference_wrapper"* %agg.tmp345, i32 0, i32 0, !dbg !8359
  %138 = load %"struct.std_msgs::String_"** %coerce.dive349, !dbg !8359
  %call351 = invoke { void (%"class.ros::SerializedMessage"*, %"struct.std_msgs::String_"*)*, %"struct.std_msgs::String_"* } @_ZN5boost4bindIN3ros17SerializedMessageERKN8std_msgs7String_ISaIvEEENS_17reference_wrapperIS7_EEEENS_3_bi6bind_tIT_PFSD_T0_ENSB_9list_av_1IT1_E4typeEEESG_SI_(void (%"class.ros::SerializedMessage"*, %"struct.std_msgs::String_"*)* @_ZN3ros13serialization16serializeMessageIN8std_msgs7String_ISaIvEEEEENS_17SerializedMessageERKT_, %"struct.std_msgs::String_"* %138)
          to label %invoke.cont350 unwind label %lpad346, !dbg !8359

invoke.cont350:                                   ; preds = %invoke.cont347
  %139 = bitcast %"class.boost::_bi::bind_t"* %agg.tmp to { void (%"class.ros::SerializedMessage"*, %"struct.std_msgs::String_"*)*, %"struct.std_msgs::String_"* }*, !dbg !8360
  %140 = getelementptr { void (%"class.ros::SerializedMessage"*, %"struct.std_msgs::String_"*)*, %"struct.std_msgs::String_"* }* %139, i32 0, i32 0, !dbg !8360
  %141 = extractvalue { void (%"class.ros::SerializedMessage"*, %"struct.std_msgs::String_"*)*, %"struct.std_msgs::String_"* } %call351, 0, !dbg !8360
  store void (%"class.ros::SerializedMessage"*, %"struct.std_msgs::String_"*)* %141, void (%"class.ros::SerializedMessage"*, %"struct.std_msgs::String_"*)** %140, align 1, !dbg !8360
  %142 = getelementptr { void (%"class.ros::SerializedMessage"*, %"struct.std_msgs::String_"*)*, %"struct.std_msgs::String_"* }* %139, i32 0, i32 1, !dbg !8360
  %143 = extractvalue { void (%"class.ros::SerializedMessage"*, %"struct.std_msgs::String_"*)*, %"struct.std_msgs::String_"* } %call351, 1, !dbg !8360
  store %"struct.std_msgs::String_"* %143, %"struct.std_msgs::String_"** %142, align 1, !dbg !8360
  %144 = bitcast %"class.boost::_bi::bind_t"* %agg.tmp to { void (%"class.ros::SerializedMessage"*, %"struct.std_msgs::String_"*)*, %"struct.std_msgs::String_"* }*, !dbg !8360
  %145 = getelementptr { void (%"class.ros::SerializedMessage"*, %"struct.std_msgs::String_"*)*, %"struct.std_msgs::String_"* }* %144, i32 0, i32 0, !dbg !8360
  %146 = load void (%"class.ros::SerializedMessage"*, %"struct.std_msgs::String_"*)** %145, align 1, !dbg !8360
  %147 = getelementptr { void (%"class.ros::SerializedMessage"*, %"struct.std_msgs::String_"*)*, %"struct.std_msgs::String_"* }* %144, i32 0, i32 1, !dbg !8360
  %148 = load %"struct.std_msgs::String_"** %147, align 1, !dbg !8360
  invoke void @_ZN5boost8functionIFN3ros17SerializedMessageEvEEC2INS_3_bi6bind_tIS2_PFS2_RKN8std_msgs7String_ISaIvEEEENS6_5list1INS_17reference_wrapperISC_EEEEEEEET_NS_11enable_if_cIXsr5boost11type_traits7ice_notIXsr11is_integralISL_EE5valueEEE5valueEiE4typeE(%"class.boost::function.34"* %ref.tmp344, void (%"class.ros::SerializedMessage"*, %"struct.std_msgs::String_"*)* %146, %"struct.std_msgs::String_"* %148, i32 0)
          to label %invoke.cont352 unwind label %lpad346, !dbg !8360

invoke.cont352:                                   ; preds = %invoke.cont350
  invoke void @_ZNK3ros9Publisher7publishERKN5boost8functionIFNS_17SerializedMessageEvEEERS3_(%"class.ros::Publisher"* %this1, %"class.boost::function.34"* dereferenceable(32) %ref.tmp344, %"class.ros::SerializedMessage"* dereferenceable(56) %m)
          to label %invoke.cont354 unwind label %lpad353, !dbg !8362

invoke.cont354:                                   ; preds = %invoke.cont352
  invoke void @_ZN5boost8functionIFN3ros17SerializedMessageEvEED2Ev(%"class.boost::function.34"* %ref.tmp344)
          to label %invoke.cont355 unwind label %lpad346, !dbg !8364

invoke.cont355:                                   ; preds = %invoke.cont354
  call void @_ZN3ros17SerializedMessageD2Ev(%"class.ros::SerializedMessage"* %m), !dbg !8366
  br label %return, !dbg !8366

return:                                           ; preds = %invoke.cont355, %do.end196, %do.end87
  ret void, !dbg !8367

lpad346:                                          ; preds = %invoke.cont354, %invoke.cont350, %invoke.cont347, %do.end343
  %149 = landingpad { i8*, i32 } personality i8* bitcast (i32 (...)* @__gxx_personality_v0 to i8*)
          cleanup, !dbg !8366
  %150 = extractvalue { i8*, i32 } %149, 0, !dbg !8366
  store i8* %150, i8** %exn.slot, !dbg !8366
  %151 = extractvalue { i8*, i32 } %149, 1, !dbg !8366
  store i32 %151, i32* %ehselector.slot, !dbg !8366
  br label %ehcleanup358, !dbg !8366

lpad353:                                          ; preds = %invoke.cont352
  %152 = landingpad { i8*, i32 } personality i8* bitcast (i32 (...)* @__gxx_personality_v0 to i8*)
          cleanup, !dbg !8366
  %153 = extractvalue { i8*, i32 } %152, 0, !dbg !8366
  store i8* %153, i8** %exn.slot, !dbg !8366
  %154 = extractvalue { i8*, i32 } %152, 1, !dbg !8366
  store i32 %154, i32* %ehselector.slot, !dbg !8366
  invoke void @_ZN5boost8functionIFN3ros17SerializedMessageEvEED2Ev(%"class.boost::function.34"* %ref.tmp344)
          to label %invoke.cont357 unwind label %terminate.lpad, !dbg !8368

invoke.cont357:                                   ; preds = %lpad353
  br label %ehcleanup358, !dbg !8369

ehcleanup358:                                     ; preds = %invoke.cont357, %lpad346
  invoke void @_ZN3ros17SerializedMessageD2Ev(%"class.ros::SerializedMessage"* %m)
          to label %invoke.cont359 unwind label %terminate.lpad, !dbg !8371

invoke.cont359:                                   ; preds = %ehcleanup358
  br label %eh.resume, !dbg !8372

eh.resume:                                        ; preds = %invoke.cont359, %ehcleanup328, %ehcleanup286, %ehcleanup253, %cleanup.done232, %ehcleanup182, %ehcleanup146, %ehcleanup113, %ehcleanup73, %ehcleanup40, %ehcleanup
  %exn = load i8** %exn.slot, !dbg !8373
  %sel = load i32* %ehselector.slot, !dbg !8373
  %lpad.val = insertvalue { i8*, i32 } undef, i8* %exn, 0, !dbg !8373
  %lpad.val360 = insertvalue { i8*, i32 } %lpad.val, i32 %sel, 1, !dbg !8373
  resume { i8*, i32 } %lpad.val360, !dbg !8373

terminate.lpad:                                   ; preds = %ehcleanup358, %lpad353, %lpad323, %lpad281, %lpad248, %cleanup.action223, %lpad177, %lpad141, %lpad108, %lpad68, %lpad35, %lpad9
  %155 = landingpad { i8*, i32 } personality i8* bitcast (i32 (...)* @__gxx_personality_v0 to i8*)
          catch i8* null, !dbg !8377
  %156 = extractvalue { i8*, i32 } %155, 0, !dbg !8377
  call void @__clang_call_terminate(i8* %156) #13, !dbg !8377
  unreachable, !dbg !8377
}

declare void @_ZN3ros8spinOnceEv() #0

declare zeroext i1 @_ZN3ros4Rate5sleepEv(%"class.ros::Rate"*) #0

declare void @_ZNSt18basic_stringstreamIcSt11char_traitsIcESaIcEED1Ev(%"class.std::basic_stringstream"*) #0

; Function Attrs: inlinehint uwtable
define linkonce_odr void @_ZN8std_msgs7String_ISaIvEED2Ev(%"struct.std_msgs::String_"* %this) unnamed_addr #7 comdat align 2 {
entry:
  %this.addr = alloca %"struct.std_msgs::String_"*, align 8
  %exn.slot = alloca i8*
  %ehselector.slot = alloca i32
  store %"struct.std_msgs::String_"* %this, %"struct.std_msgs::String_"** %this.addr, align 8
  call void @llvm.dbg.declare(metadata %"struct.std_msgs::String_"** %this.addr, metadata !8381, metadata !7540), !dbg !8382
  %this1 = load %"struct.std_msgs::String_"** %this.addr
  %__connection_header = getelementptr inbounds %"struct.std_msgs::String_"* %this1, i32 0, i32 1, !dbg !8383
  invoke void @_ZN5boost10shared_ptrISt3mapISsSsSt4lessISsESaISt4pairIKSsSsEEEED2Ev(%"class.boost::shared_ptr.21"* %__connection_header)
          to label %invoke.cont unwind label %lpad, !dbg !8383

invoke.cont:                                      ; preds = %entry
  %data = getelementptr inbounds %"struct.std_msgs::String_"* %this1, i32 0, i32 0, !dbg !8385
  call void @_ZNSsD1Ev(%"class.std::basic_string"* %data), !dbg !8385
  ret void, !dbg !8387

lpad:                                             ; preds = %entry
  %0 = landingpad { i8*, i32 } personality i8* bitcast (i32 (...)* @__gxx_personality_v0 to i8*)
          cleanup, !dbg !8388
  %1 = extractvalue { i8*, i32 } %0, 0, !dbg !8388
  store i8* %1, i8** %exn.slot, !dbg !8388
  %2 = extractvalue { i8*, i32 } %0, 1, !dbg !8388
  store i32 %2, i32* %ehselector.slot, !dbg !8388
  %data2 = getelementptr inbounds %"struct.std_msgs::String_"* %this1, i32 0, i32 0, !dbg !8383
  invoke void @_ZNSsD1Ev(%"class.std::basic_string"* %data2)
          to label %invoke.cont3 unwind label %terminate.lpad, !dbg !8383

invoke.cont3:                                     ; preds = %lpad
  br label %eh.resume, !dbg !8390

eh.resume:                                        ; preds = %invoke.cont3
  %exn = load i8** %exn.slot, !dbg !8392
  %sel = load i32* %ehselector.slot, !dbg !8392
  %lpad.val = insertvalue { i8*, i32 } undef, i8* %exn, 0, !dbg !8392
  %lpad.val4 = insertvalue { i8*, i32 } %lpad.val, i32 %sel, 1, !dbg !8392
  resume { i8*, i32 } %lpad.val4, !dbg !8392

terminate.lpad:                                   ; preds = %lpad
  %3 = landingpad { i8*, i32 } personality i8* bitcast (i32 (...)* @__gxx_personality_v0 to i8*)
          catch i8* null, !dbg !8394
  %4 = extractvalue { i8*, i32 } %3, 0, !dbg !8394
  call void @__clang_call_terminate(i8* %4) #13, !dbg !8394
  unreachable, !dbg !8394
}

; Function Attrs: inlinehint uwtable
define linkonce_odr void @_ZN3ros4RateD2Ev(%"class.ros::Rate"* %this) unnamed_addr #7 comdat align 2 {
entry:
  %this.addr = alloca %"class.ros::Rate"*, align 8
  %exn.slot = alloca i8*
  %ehselector.slot = alloca i32
  store %"class.ros::Rate"* %this, %"class.ros::Rate"** %this.addr, align 8
  call void @llvm.dbg.declare(metadata %"class.ros::Rate"** %this.addr, metadata !8396, metadata !7540), !dbg !8398
  %this1 = load %"class.ros::Rate"** %this.addr
  %actual_cycle_time_ = getelementptr inbounds %"class.ros::Rate"* %this1, i32 0, i32 2, !dbg !8399
  invoke void @_ZN3ros8DurationD2Ev(%"class.ros::Duration"* %actual_cycle_time_)
          to label %invoke.cont unwind label %lpad, !dbg !8399

invoke.cont:                                      ; preds = %entry
  %expected_cycle_time_ = getelementptr inbounds %"class.ros::Rate"* %this1, i32 0, i32 1, !dbg !8401
  invoke void @_ZN3ros8DurationD2Ev(%"class.ros::Duration"* %expected_cycle_time_)
          to label %invoke.cont3 unwind label %lpad2, !dbg !8401

invoke.cont3:                                     ; preds = %invoke.cont
  %start_ = getelementptr inbounds %"class.ros::Rate"* %this1, i32 0, i32 0, !dbg !8403
  call void @_ZN3ros4TimeD2Ev(%"class.ros::Time"* %start_), !dbg !8403
  ret void, !dbg !8405

lpad:                                             ; preds = %entry
  %0 = landingpad { i8*, i32 } personality i8* bitcast (i32 (...)* @__gxx_personality_v0 to i8*)
          cleanup, !dbg !8406
  %1 = extractvalue { i8*, i32 } %0, 0, !dbg !8406
  store i8* %1, i8** %exn.slot, !dbg !8406
  %2 = extractvalue { i8*, i32 } %0, 1, !dbg !8406
  store i32 %2, i32* %ehselector.slot, !dbg !8406
  %expected_cycle_time_4 = getelementptr inbounds %"class.ros::Rate"* %this1, i32 0, i32 1, !dbg !8399
  invoke void @_ZN3ros8DurationD2Ev(%"class.ros::Duration"* %expected_cycle_time_4)
          to label %invoke.cont5 unwind label %terminate.lpad, !dbg !8399

lpad2:                                            ; preds = %invoke.cont
  %3 = landingpad { i8*, i32 } personality i8* bitcast (i32 (...)* @__gxx_personality_v0 to i8*)
          cleanup, !dbg !8408
  %4 = extractvalue { i8*, i32 } %3, 0, !dbg !8408
  store i8* %4, i8** %exn.slot, !dbg !8408
  %5 = extractvalue { i8*, i32 } %3, 1, !dbg !8408
  store i32 %5, i32* %ehselector.slot, !dbg !8408
  br label %ehcleanup, !dbg !8408

invoke.cont5:                                     ; preds = %lpad
  br label %ehcleanup, !dbg !8410

ehcleanup:                                        ; preds = %invoke.cont5, %lpad2
  %start_6 = getelementptr inbounds %"class.ros::Rate"* %this1, i32 0, i32 0, !dbg !8412
  invoke void @_ZN3ros4TimeD2Ev(%"class.ros::Time"* %start_6)
          to label %invoke.cont7 unwind label %terminate.lpad, !dbg !8412

invoke.cont7:                                     ; preds = %ehcleanup
  br label %eh.resume, !dbg !8415

eh.resume:                                        ; preds = %invoke.cont7
  %exn = load i8** %exn.slot, !dbg !8417
  %sel = load i32* %ehselector.slot, !dbg !8417
  %lpad.val = insertvalue { i8*, i32 } undef, i8* %exn, 0, !dbg !8417
  %lpad.val8 = insertvalue { i8*, i32 } %lpad.val, i32 %sel, 1, !dbg !8417
  resume { i8*, i32 } %lpad.val8, !dbg !8417

terminate.lpad:                                   ; preds = %ehcleanup, %lpad
  %6 = landingpad { i8*, i32 } personality i8* bitcast (i32 (...)* @__gxx_personality_v0 to i8*)
          catch i8* null, !dbg !8419
  %7 = extractvalue { i8*, i32 } %6, 0, !dbg !8419
  call void @__clang_call_terminate(i8* %7) #13, !dbg !8419
  unreachable, !dbg !8419
}

declare void @_ZN3ros9PublisherD1Ev(%"class.ros::Publisher"*) #0

declare void @_ZN3ros10NodeHandleD1Ev(%"class.ros::NodeHandle"*) #0

; Function Attrs: uwtable
define linkonce_odr void @_ZNSt8_Rb_treeISsSt4pairIKSsSsESt10_Select1stIS2_ESt4lessISsESaIS2_EED2Ev(%"class.std::_Rb_tree"* %this) unnamed_addr #3 comdat align 2 {
entry:
  %this.addr = alloca %"class.std::_Rb_tree"*, align 8
  %exn.slot = alloca i8*
  %ehselector.slot = alloca i32
  store %"class.std::_Rb_tree"* %this, %"class.std::_Rb_tree"** %this.addr, align 8
  call void @llvm.dbg.declare(metadata %"class.std::_Rb_tree"** %this.addr, metadata !8422, metadata !7540), !dbg !8424
  %this1 = load %"class.std::_Rb_tree"** %this.addr
  %call = invoke %"struct.std::_Rb_tree_node"* @_ZNSt8_Rb_treeISsSt4pairIKSsSsESt10_Select1stIS2_ESt4lessISsESaIS2_EE8_M_beginEv(%"class.std::_Rb_tree"* %this1)
          to label %invoke.cont unwind label %lpad, !dbg !8425

invoke.cont:                                      ; preds = %entry
  invoke void @_ZNSt8_Rb_treeISsSt4pairIKSsSsESt10_Select1stIS2_ESt4lessISsESaIS2_EE8_M_eraseEPSt13_Rb_tree_nodeIS2_E(%"class.std::_Rb_tree"* %this1, %"struct.std::_Rb_tree_node"* %call)
          to label %invoke.cont2 unwind label %lpad, !dbg !8427

invoke.cont2:                                     ; preds = %invoke.cont
  %_M_impl = getelementptr inbounds %"class.std::_Rb_tree"* %this1, i32 0, i32 0, !dbg !8429
  call void @_ZNSt8_Rb_treeISsSt4pairIKSsSsESt10_Select1stIS2_ESt4lessISsESaIS2_EE13_Rb_tree_implIS6_Lb0EED2Ev(%"struct.std::_Rb_tree<std::basic_string<char>, std::pair<const std::basic_string<char>, std::basic_string<char> >, std::_Select1st<std::pair<const std::basic_string<char>, std::basic_string<char> > >, std::less<std::basic_string<char> >, std::allocator<std::pair<const std::basic_string<char>, std::basic_string<char> > > >::_Rb_tree_impl"* %_M_impl) #1, !dbg !8429
  ret void, !dbg !8431

lpad:                                             ; preds = %invoke.cont, %entry
  %0 = landingpad { i8*, i32 } personality i8* bitcast (i32 (...)* @__gxx_personality_v0 to i8*)
          cleanup, !dbg !8432
  %1 = extractvalue { i8*, i32 } %0, 0, !dbg !8432
  store i8* %1, i8** %exn.slot, !dbg !8432
  %2 = extractvalue { i8*, i32 } %0, 1, !dbg !8432
  store i32 %2, i32* %ehselector.slot, !dbg !8432
  %_M_impl3 = getelementptr inbounds %"class.std::_Rb_tree"* %this1, i32 0, i32 0, !dbg !8432
  call void @_ZNSt8_Rb_treeISsSt4pairIKSsSsESt10_Select1stIS2_ESt4lessISsESaIS2_EE13_Rb_tree_implIS6_Lb0EED2Ev(%"struct.std::_Rb_tree<std::basic_string<char>, std::pair<const std::basic_string<char>, std::basic_string<char> >, std::_Select1st<std::pair<const std::basic_string<char>, std::basic_string<char> > >, std::less<std::basic_string<char> >, std::allocator<std::pair<const std::basic_string<char>, std::basic_string<char> > > >::_Rb_tree_impl"* %_M_impl3) #1, !dbg !8432
  br label %eh.resume, !dbg !8432

eh.resume:                                        ; preds = %lpad
  %exn = load i8** %exn.slot, !dbg !8435
  %sel = load i32* %ehselector.slot, !dbg !8435
  %lpad.val = insertvalue { i8*, i32 } undef, i8* %exn, 0, !dbg !8435
  %lpad.val4 = insertvalue { i8*, i32 } %lpad.val, i32 %sel, 1, !dbg !8435
  resume { i8*, i32 } %lpad.val4, !dbg !8435
}

; Function Attrs: uwtable
define linkonce_odr void @_ZNSt8_Rb_treeISsSt4pairIKSsSsESt10_Select1stIS2_ESt4lessISsESaIS2_EE8_M_eraseEPSt13_Rb_tree_nodeIS2_E(%"class.std::_Rb_tree"* %this, %"struct.std::_Rb_tree_node"* %__x) #3 comdat align 2 {
entry:
  %this.addr = alloca %"class.std::_Rb_tree"*, align 8
  %__x.addr = alloca %"struct.std::_Rb_tree_node"*, align 8
  %__y = alloca %"struct.std::_Rb_tree_node"*, align 8
  store %"class.std::_Rb_tree"* %this, %"class.std::_Rb_tree"** %this.addr, align 8
  call void @llvm.dbg.declare(metadata %"class.std::_Rb_tree"** %this.addr, metadata !8437, metadata !7540), !dbg !8438
  store %"struct.std::_Rb_tree_node"* %__x, %"struct.std::_Rb_tree_node"** %__x.addr, align 8
  call void @llvm.dbg.declare(metadata %"struct.std::_Rb_tree_node"** %__x.addr, metadata !8439, metadata !7540), !dbg !8441
  %this1 = load %"class.std::_Rb_tree"** %this.addr
  br label %while.cond, !dbg !8442

while.cond:                                       ; preds = %while.body, %entry
  %0 = load %"struct.std::_Rb_tree_node"** %__x.addr, align 8, !dbg !8443
  %cmp = icmp ne %"struct.std::_Rb_tree_node"* %0, null, !dbg !8446
  br i1 %cmp, label %while.body, label %while.end, !dbg !8442

while.body:                                       ; preds = %while.cond
  %1 = load %"struct.std::_Rb_tree_node"** %__x.addr, align 8, !dbg !8447
  %2 = bitcast %"struct.std::_Rb_tree_node"* %1 to %"struct.std::_Rb_tree_node_base"*, !dbg !8447
  %call = call %"struct.std::_Rb_tree_node"* @_ZNSt8_Rb_treeISsSt4pairIKSsSsESt10_Select1stIS2_ESt4lessISsESaIS2_EE8_S_rightEPSt18_Rb_tree_node_base(%"struct.std::_Rb_tree_node_base"* %2), !dbg !8449
  call void @_ZNSt8_Rb_treeISsSt4pairIKSsSsESt10_Select1stIS2_ESt4lessISsESaIS2_EE8_M_eraseEPSt13_Rb_tree_nodeIS2_E(%"class.std::_Rb_tree"* %this1, %"struct.std::_Rb_tree_node"* %call), !dbg !8450
  call void @llvm.dbg.declare(metadata %"struct.std::_Rb_tree_node"** %__y, metadata !8451, metadata !7540), !dbg !8452
  %3 = load %"struct.std::_Rb_tree_node"** %__x.addr, align 8, !dbg !8453
  %4 = bitcast %"struct.std::_Rb_tree_node"* %3 to %"struct.std::_Rb_tree_node_base"*, !dbg !8453
  %call2 = call %"struct.std::_Rb_tree_node"* @_ZNSt8_Rb_treeISsSt4pairIKSsSsESt10_Select1stIS2_ESt4lessISsESaIS2_EE7_S_leftEPSt18_Rb_tree_node_base(%"struct.std::_Rb_tree_node_base"* %4), !dbg !8454
  store %"struct.std::_Rb_tree_node"* %call2, %"struct.std::_Rb_tree_node"** %__y, align 8, !dbg !8452
  %5 = load %"struct.std::_Rb_tree_node"** %__x.addr, align 8, !dbg !8455
  call void @_ZNSt8_Rb_treeISsSt4pairIKSsSsESt10_Select1stIS2_ESt4lessISsESaIS2_EE15_M_destroy_nodeEPSt13_Rb_tree_nodeIS2_E(%"class.std::_Rb_tree"* %this1, %"struct.std::_Rb_tree_node"* %5), !dbg !8456
  %6 = load %"struct.std::_Rb_tree_node"** %__y, align 8, !dbg !8457
  store %"struct.std::_Rb_tree_node"* %6, %"struct.std::_Rb_tree_node"** %__x.addr, align 8, !dbg !8458
  br label %while.cond, !dbg !8442

while.end:                                        ; preds = %while.cond
  ret void, !dbg !8459
}

; Function Attrs: nounwind uwtable
define linkonce_odr %"struct.std::_Rb_tree_node"* @_ZNSt8_Rb_treeISsSt4pairIKSsSsESt10_Select1stIS2_ESt4lessISsESaIS2_EE8_M_beginEv(%"class.std::_Rb_tree"* %this) #2 comdat align 2 {
entry:
  %this.addr = alloca %"class.std::_Rb_tree"*, align 8
  store %"class.std::_Rb_tree"* %this, %"class.std::_Rb_tree"** %this.addr, align 8
  call void @llvm.dbg.declare(metadata %"class.std::_Rb_tree"** %this.addr, metadata !8460, metadata !7540), !dbg !8461
  %this1 = load %"class.std::_Rb_tree"** %this.addr
  %_M_impl = getelementptr inbounds %"class.std::_Rb_tree"* %this1, i32 0, i32 0, !dbg !8462
  %_M_header = getelementptr inbounds %"struct.std::_Rb_tree<std::basic_string<char>, std::pair<const std::basic_string<char>, std::basic_string<char> >, std::_Select1st<std::pair<const std::basic_string<char>, std::basic_string<char> > >, std::less<std::basic_string<char> >, std::allocator<std::pair<const std::basic_string<char>, std::basic_string<char> > > >::_Rb_tree_impl"* %_M_impl, i32 0, i32 1, !dbg !8463
  %_M_parent = getelementptr inbounds %"struct.std::_Rb_tree_node_base"* %_M_header, i32 0, i32 1, !dbg !8464
  %0 = load %"struct.std::_Rb_tree_node_base"** %_M_parent, align 8, !dbg !8464
  %1 = bitcast %"struct.std::_Rb_tree_node_base"* %0 to %"struct.std::_Rb_tree_node"*, !dbg !8465
  ret %"struct.std::_Rb_tree_node"* %1, !dbg !8466
}

; Function Attrs: inlinehint nounwind uwtable
define linkonce_odr void @_ZNSt8_Rb_treeISsSt4pairIKSsSsESt10_Select1stIS2_ESt4lessISsESaIS2_EE13_Rb_tree_implIS6_Lb0EED2Ev(%"struct.std::_Rb_tree<std::basic_string<char>, std::pair<const std::basic_string<char>, std::basic_string<char> >, std::_Select1st<std::pair<const std::basic_string<char>, std::basic_string<char> > >, std::less<std::basic_string<char> >, std::allocator<std::pair<const std::basic_string<char>, std::basic_string<char> > > >::_Rb_tree_impl"* %this) unnamed_addr #8 comdat align 2 {
entry:
  %this.addr = alloca %"struct.std::_Rb_tree<std::basic_string<char>, std::pair<const std::basic_string<char>, std::basic_string<char> >, std::_Select1st<std::pair<const std::basic_string<char>, std::basic_string<char> > >, std::less<std::basic_string<char> >, std::allocator<std::pair<const std::basic_string<char>, std::basic_string<char> > > >::_Rb_tree_impl"*, align 8
  store %"struct.std::_Rb_tree<std::basic_string<char>, std::pair<const std::basic_string<char>, std::basic_string<char> >, std::_Select1st<std::pair<const std::basic_string<char>, std::basic_string<char> > >, std::less<std::basic_string<char> >, std::allocator<std::pair<const std::basic_string<char>, std::basic_string<char> > > >::_Rb_tree_impl"* %this, %"struct.std::_Rb_tree<std::basic_string<char>, std::pair<const std::basic_string<char>, std::basic_string<char> >, std::_Select1st<std::pair<const std::basic_string<char>, std::basic_string<char> > >, std::less<std::basic_string<char> >, std::allocator<std::pair<const std::basic_string<char>, std::basic_string<char> > > >::_Rb_tree_impl"** %this.addr, align 8
  call void @llvm.dbg.declare(metadata %"struct.std::_Rb_tree<std::basic_string<char>, std::pair<const std::basic_string<char>, std::basic_string<char> >, std::_Select1st<std::pair<const std::basic_string<char>, std::basic_string<char> > >, std::less<std::basic_string<char> >, std::allocator<std::pair<const std::basic_string<char>, std::basic_string<char> > > >::_Rb_tree_impl"** %this.addr, metadata !8467, metadata !7540), !dbg !8469
  %this1 = load %"struct.std::_Rb_tree<std::basic_string<char>, std::pair<const std::basic_string<char>, std::basic_string<char> >, std::_Select1st<std::pair<const std::basic_string<char>, std::basic_string<char> > >, std::less<std::basic_string<char> >, std::allocator<std::pair<const std::basic_string<char>, std::basic_string<char> > > >::_Rb_tree_impl"** %this.addr
  %0 = bitcast %"struct.std::_Rb_tree<std::basic_string<char>, std::pair<const std::basic_string<char>, std::basic_string<char> >, std::_Select1st<std::pair<const std::basic_string<char>, std::basic_string<char> > >, std::less<std::basic_string<char> >, std::allocator<std::pair<const std::basic_string<char>, std::basic_string<char> > > >::_Rb_tree_impl"* %this1 to %"class.std::allocator.16"*, !dbg !8470
  call void @_ZNSaISt13_Rb_tree_nodeISt4pairIKSsSsEEED2Ev(%"class.std::allocator.16"* %0) #1, !dbg !8470
  ret void, !dbg !8472
}

; Function Attrs: nounwind uwtable
define linkonce_odr %"struct.std::_Rb_tree_node"* @_ZNSt8_Rb_treeISsSt4pairIKSsSsESt10_Select1stIS2_ESt4lessISsESaIS2_EE8_S_rightEPSt18_Rb_tree_node_base(%"struct.std::_Rb_tree_node_base"* %__x) #2 comdat align 2 {
entry:
  %__x.addr = alloca %"struct.std::_Rb_tree_node_base"*, align 8
  store %"struct.std::_Rb_tree_node_base"* %__x, %"struct.std::_Rb_tree_node_base"** %__x.addr, align 8
  call void @llvm.dbg.declare(metadata %"struct.std::_Rb_tree_node_base"** %__x.addr, metadata !8473, metadata !7540), !dbg !8474
  %0 = load %"struct.std::_Rb_tree_node_base"** %__x.addr, align 8, !dbg !8475
  %_M_right = getelementptr inbounds %"struct.std::_Rb_tree_node_base"* %0, i32 0, i32 3, !dbg !8476
  %1 = load %"struct.std::_Rb_tree_node_base"** %_M_right, align 8, !dbg !8476
  %2 = bitcast %"struct.std::_Rb_tree_node_base"* %1 to %"struct.std::_Rb_tree_node"*, !dbg !8477
  ret %"struct.std::_Rb_tree_node"* %2, !dbg !8478
}

; Function Attrs: nounwind uwtable
define linkonce_odr %"struct.std::_Rb_tree_node"* @_ZNSt8_Rb_treeISsSt4pairIKSsSsESt10_Select1stIS2_ESt4lessISsESaIS2_EE7_S_leftEPSt18_Rb_tree_node_base(%"struct.std::_Rb_tree_node_base"* %__x) #2 comdat align 2 {
entry:
  %__x.addr = alloca %"struct.std::_Rb_tree_node_base"*, align 8
  store %"struct.std::_Rb_tree_node_base"* %__x, %"struct.std::_Rb_tree_node_base"** %__x.addr, align 8
  call void @llvm.dbg.declare(metadata %"struct.std::_Rb_tree_node_base"** %__x.addr, metadata !8479, metadata !7540), !dbg !8480
  %0 = load %"struct.std::_Rb_tree_node_base"** %__x.addr, align 8, !dbg !8481
  %_M_left = getelementptr inbounds %"struct.std::_Rb_tree_node_base"* %0, i32 0, i32 2, !dbg !8482
  %1 = load %"struct.std::_Rb_tree_node_base"** %_M_left, align 8, !dbg !8482
  %2 = bitcast %"struct.std::_Rb_tree_node_base"* %1 to %"struct.std::_Rb_tree_node"*, !dbg !8483
  ret %"struct.std::_Rb_tree_node"* %2, !dbg !8484
}

; Function Attrs: uwtable
define linkonce_odr void @_ZNSt8_Rb_treeISsSt4pairIKSsSsESt10_Select1stIS2_ESt4lessISsESaIS2_EE15_M_destroy_nodeEPSt13_Rb_tree_nodeIS2_E(%"class.std::_Rb_tree"* %this, %"struct.std::_Rb_tree_node"* %__p) #3 comdat align 2 {
entry:
  %this.addr = alloca %"class.std::_Rb_tree"*, align 8
  %__p.addr = alloca %"struct.std::_Rb_tree_node"*, align 8
  %temp.lvalue = alloca %"class.std::allocator.22", align 1
  %exn.slot = alloca i8*
  %ehselector.slot = alloca i32
  store %"class.std::_Rb_tree"* %this, %"class.std::_Rb_tree"** %this.addr, align 8
  call void @llvm.dbg.declare(metadata %"class.std::_Rb_tree"** %this.addr, metadata !8485, metadata !7540), !dbg !8486
  store %"struct.std::_Rb_tree_node"* %__p, %"struct.std::_Rb_tree_node"** %__p.addr, align 8
  call void @llvm.dbg.declare(metadata %"struct.std::_Rb_tree_node"** %__p.addr, metadata !8487, metadata !7540), !dbg !8488
  %this1 = load %"class.std::_Rb_tree"** %this.addr
  call void @_ZNKSt8_Rb_treeISsSt4pairIKSsSsESt10_Select1stIS2_ESt4lessISsESaIS2_EE13get_allocatorEv(%"class.std::allocator.22"* sret %temp.lvalue, %"class.std::_Rb_tree"* %this1), !dbg !8489
  %0 = bitcast %"class.std::allocator.22"* %temp.lvalue to %"class.__gnu_cxx::new_allocator.23"*, !dbg !8489
  %1 = load %"struct.std::_Rb_tree_node"** %__p.addr, align 8, !dbg !8490
  %_M_value_field = getelementptr inbounds %"struct.std::_Rb_tree_node"* %1, i32 0, i32 1, !dbg !8491
  %call = invoke %"struct.std::pair"* @_ZSt11__addressofISt4pairIKSsSsEEPT_RS3_(%"struct.std::pair"* dereferenceable(16) %_M_value_field)
          to label %invoke.cont unwind label %lpad, !dbg !8492

invoke.cont:                                      ; preds = %entry
  invoke void @_ZN9__gnu_cxx13new_allocatorISt4pairIKSsSsEE7destroyEPS3_(%"class.__gnu_cxx::new_allocator.23"* %0, %"struct.std::pair"* %call)
          to label %invoke.cont2 unwind label %lpad, !dbg !8493

invoke.cont2:                                     ; preds = %invoke.cont
  call void @_ZNSaISt4pairIKSsSsEED2Ev(%"class.std::allocator.22"* %temp.lvalue) #1, !dbg !8495
  %2 = load %"struct.std::_Rb_tree_node"** %__p.addr, align 8, !dbg !8497
  call void @_ZNSt8_Rb_treeISsSt4pairIKSsSsESt10_Select1stIS2_ESt4lessISsESaIS2_EE11_M_put_nodeEPSt13_Rb_tree_nodeIS2_E(%"class.std::_Rb_tree"* %this1, %"struct.std::_Rb_tree_node"* %2), !dbg !8498
  ret void, !dbg !8499

lpad:                                             ; preds = %invoke.cont, %entry
  %3 = landingpad { i8*, i32 } personality i8* bitcast (i32 (...)* @__gxx_personality_v0 to i8*)
          cleanup, !dbg !8499
  %4 = extractvalue { i8*, i32 } %3, 0, !dbg !8499
  store i8* %4, i8** %exn.slot, !dbg !8499
  %5 = extractvalue { i8*, i32 } %3, 1, !dbg !8499
  store i32 %5, i32* %ehselector.slot, !dbg !8499
  call void @_ZNSaISt4pairIKSsSsEED2Ev(%"class.std::allocator.22"* %temp.lvalue) #1, !dbg !8489
  br label %eh.resume, !dbg !8489

eh.resume:                                        ; preds = %lpad
  %exn = load i8** %exn.slot, !dbg !8500
  %sel = load i32* %ehselector.slot, !dbg !8500
  %lpad.val = insertvalue { i8*, i32 } undef, i8* %exn, 0, !dbg !8500
  %lpad.val3 = insertvalue { i8*, i32 } %lpad.val, i32 %sel, 1, !dbg !8500
  resume { i8*, i32 } %lpad.val3, !dbg !8500
}

; Function Attrs: uwtable
define linkonce_odr void @_ZNKSt8_Rb_treeISsSt4pairIKSsSsESt10_Select1stIS2_ESt4lessISsESaIS2_EE13get_allocatorEv(%"class.std::allocator.22"* noalias sret %agg.result, %"class.std::_Rb_tree"* %this) #3 comdat align 2 {
entry:
  %this.addr = alloca %"class.std::_Rb_tree"*, align 8
  store %"class.std::_Rb_tree"* %this, %"class.std::_Rb_tree"** %this.addr, align 8
  call void @llvm.dbg.declare(metadata %"class.std::_Rb_tree"** %this.addr, metadata !8502, metadata !7540), !dbg !8504
  %this1 = load %"class.std::_Rb_tree"** %this.addr
  %call = call dereferenceable(1) %"class.std::allocator.16"* @_ZNKSt8_Rb_treeISsSt4pairIKSsSsESt10_Select1stIS2_ESt4lessISsESaIS2_EE21_M_get_Node_allocatorEv(%"class.std::_Rb_tree"* %this1), !dbg !8505
  call void @_ZNSaISt4pairIKSsSsEEC2ISt13_Rb_tree_nodeIS1_EEERKSaIT_E(%"class.std::allocator.22"* %agg.result, %"class.std::allocator.16"* dereferenceable(1) %call) #1, !dbg !8506
  ret void, !dbg !8507
}

; Function Attrs: uwtable
define linkonce_odr void @_ZN9__gnu_cxx13new_allocatorISt4pairIKSsSsEE7destroyEPS3_(%"class.__gnu_cxx::new_allocator.23"* %this, %"struct.std::pair"* %__p) #3 comdat align 2 {
entry:
  %this.addr = alloca %"class.__gnu_cxx::new_allocator.23"*, align 8
  %__p.addr = alloca %"struct.std::pair"*, align 8
  store %"class.__gnu_cxx::new_allocator.23"* %this, %"class.__gnu_cxx::new_allocator.23"** %this.addr, align 8
  call void @llvm.dbg.declare(metadata %"class.__gnu_cxx::new_allocator.23"** %this.addr, metadata !8508, metadata !7540), !dbg !8510
  store %"struct.std::pair"* %__p, %"struct.std::pair"** %__p.addr, align 8
  call void @llvm.dbg.declare(metadata %"struct.std::pair"** %__p.addr, metadata !8511, metadata !7540), !dbg !8513
  %this1 = load %"class.__gnu_cxx::new_allocator.23"** %this.addr
  %0 = load %"struct.std::pair"** %__p.addr, align 8, !dbg !8514
  call void @_ZNSt4pairIKSsSsED2Ev(%"struct.std::pair"* %0), !dbg !8514
  ret void, !dbg !8515
}

; Function Attrs: inlinehint nounwind uwtable
define linkonce_odr %"struct.std::pair"* @_ZSt11__addressofISt4pairIKSsSsEEPT_RS3_(%"struct.std::pair"* dereferenceable(16) %__r) #8 comdat {
entry:
  %__r.addr = alloca %"struct.std::pair"*, align 8
  store %"struct.std::pair"* %__r, %"struct.std::pair"** %__r.addr, align 8
  call void @llvm.dbg.declare(metadata %"struct.std::pair"** %__r.addr, metadata !8516, metadata !7540), !dbg !8518
  %0 = load %"struct.std::pair"** %__r.addr, align 8, !dbg !8519
  %1 = bitcast %"struct.std::pair"* %0 to i8*, !dbg !8520
  %2 = bitcast i8* %1 to %"struct.std::pair"*, !dbg !8521
  ret %"struct.std::pair"* %2, !dbg !8522
}

; Function Attrs: nounwind uwtable
define linkonce_odr void @_ZNSaISt4pairIKSsSsEED2Ev(%"class.std::allocator.22"* %this) unnamed_addr #2 comdat align 2 {
entry:
  %this.addr = alloca %"class.std::allocator.22"*, align 8
  store %"class.std::allocator.22"* %this, %"class.std::allocator.22"** %this.addr, align 8
  call void @llvm.dbg.declare(metadata %"class.std::allocator.22"** %this.addr, metadata !8523, metadata !7540), !dbg !8525
  %this1 = load %"class.std::allocator.22"** %this.addr
  %0 = bitcast %"class.std::allocator.22"* %this1 to %"class.__gnu_cxx::new_allocator.23"*, !dbg !8526
  call void @_ZN9__gnu_cxx13new_allocatorISt4pairIKSsSsEED2Ev(%"class.__gnu_cxx::new_allocator.23"* %0) #1, !dbg !8526
  ret void, !dbg !8528
}

; Function Attrs: uwtable
define linkonce_odr void @_ZNSt8_Rb_treeISsSt4pairIKSsSsESt10_Select1stIS2_ESt4lessISsESaIS2_EE11_M_put_nodeEPSt13_Rb_tree_nodeIS2_E(%"class.std::_Rb_tree"* %this, %"struct.std::_Rb_tree_node"* %__p) #3 comdat align 2 {
entry:
  %this.addr = alloca %"class.std::_Rb_tree"*, align 8
  %__p.addr = alloca %"struct.std::_Rb_tree_node"*, align 8
  store %"class.std::_Rb_tree"* %this, %"class.std::_Rb_tree"** %this.addr, align 8
  call void @llvm.dbg.declare(metadata %"class.std::_Rb_tree"** %this.addr, metadata !8529, metadata !7540), !dbg !8530
  store %"struct.std::_Rb_tree_node"* %__p, %"struct.std::_Rb_tree_node"** %__p.addr, align 8
  call void @llvm.dbg.declare(metadata %"struct.std::_Rb_tree_node"** %__p.addr, metadata !8531, metadata !7540), !dbg !8532
  %this1 = load %"class.std::_Rb_tree"** %this.addr
  %_M_impl = getelementptr inbounds %"class.std::_Rb_tree"* %this1, i32 0, i32 0, !dbg !8533
  %0 = bitcast %"struct.std::_Rb_tree<std::basic_string<char>, std::pair<const std::basic_string<char>, std::basic_string<char> >, std::_Select1st<std::pair<const std::basic_string<char>, std::basic_string<char> > >, std::less<std::basic_string<char> >, std::allocator<std::pair<const std::basic_string<char>, std::basic_string<char> > > >::_Rb_tree_impl"* %_M_impl to %"class.std::allocator.16"*, !dbg !8533
  %1 = bitcast %"class.std::allocator.16"* %0 to %"class.__gnu_cxx::new_allocator.17"*, !dbg !8533
  %2 = load %"struct.std::_Rb_tree_node"** %__p.addr, align 8, !dbg !8534
  call void @_ZN9__gnu_cxx13new_allocatorISt13_Rb_tree_nodeISt4pairIKSsSsEEE10deallocateEPS5_m(%"class.__gnu_cxx::new_allocator.17"* %1, %"struct.std::_Rb_tree_node"* %2, i64 1), !dbg !8533
  ret void, !dbg !8535
}

; Function Attrs: nounwind uwtable
define linkonce_odr dereferenceable(1) %"class.std::allocator.16"* @_ZNKSt8_Rb_treeISsSt4pairIKSsSsESt10_Select1stIS2_ESt4lessISsESaIS2_EE21_M_get_Node_allocatorEv(%"class.std::_Rb_tree"* %this) #2 comdat align 2 {
entry:
  %this.addr = alloca %"class.std::_Rb_tree"*, align 8
  store %"class.std::_Rb_tree"* %this, %"class.std::_Rb_tree"** %this.addr, align 8
  call void @llvm.dbg.declare(metadata %"class.std::_Rb_tree"** %this.addr, metadata !8536, metadata !7540), !dbg !8537
  %this1 = load %"class.std::_Rb_tree"** %this.addr
  %_M_impl = getelementptr inbounds %"class.std::_Rb_tree"* %this1, i32 0, i32 0, !dbg !8538
  %0 = bitcast %"struct.std::_Rb_tree<std::basic_string<char>, std::pair<const std::basic_string<char>, std::basic_string<char> >, std::_Select1st<std::pair<const std::basic_string<char>, std::basic_string<char> > >, std::less<std::basic_string<char> >, std::allocator<std::pair<const std::basic_string<char>, std::basic_string<char> > > >::_Rb_tree_impl"* %_M_impl to %"class.std::allocator.16"*, !dbg !8539
  ret %"class.std::allocator.16"* %0, !dbg !8540
}

; Function Attrs: nounwind uwtable
define linkonce_odr void @_ZNSaISt4pairIKSsSsEEC2ISt13_Rb_tree_nodeIS1_EEERKSaIT_E(%"class.std::allocator.22"* %this, %"class.std::allocator.16"* dereferenceable(1)) unnamed_addr #2 comdat align 2 {
entry:
  %this.addr = alloca %"class.std::allocator.22"*, align 8
  %.addr = alloca %"class.std::allocator.16"*, align 8
  store %"class.std::allocator.22"* %this, %"class.std::allocator.22"** %this.addr, align 8
  call void @llvm.dbg.declare(metadata %"class.std::allocator.22"** %this.addr, metadata !8541, metadata !7540), !dbg !8542
  store %"class.std::allocator.16"* %0, %"class.std::allocator.16"** %.addr, align 8
  call void @llvm.dbg.declare(metadata %"class.std::allocator.16"** %.addr, metadata !8543, metadata !7540), !dbg !8545
  %this1 = load %"class.std::allocator.22"** %this.addr
  %1 = bitcast %"class.std::allocator.22"* %this1 to %"class.__gnu_cxx::new_allocator.23"*, !dbg !8546
  call void @_ZN9__gnu_cxx13new_allocatorISt4pairIKSsSsEEC2Ev(%"class.__gnu_cxx::new_allocator.23"* %1) #1, !dbg !8547
  ret void, !dbg !8548
}

; Function Attrs: nounwind uwtable
define linkonce_odr void @_ZN9__gnu_cxx13new_allocatorISt4pairIKSsSsEEC2Ev(%"class.__gnu_cxx::new_allocator.23"* %this) unnamed_addr #2 comdat align 2 {
entry:
  %this.addr = alloca %"class.__gnu_cxx::new_allocator.23"*, align 8
  store %"class.__gnu_cxx::new_allocator.23"* %this, %"class.__gnu_cxx::new_allocator.23"** %this.addr, align 8
  call void @llvm.dbg.declare(metadata %"class.__gnu_cxx::new_allocator.23"** %this.addr, metadata !8549, metadata !7540), !dbg !8550
  %this1 = load %"class.__gnu_cxx::new_allocator.23"** %this.addr
  ret void, !dbg !8551
}

; Function Attrs: inlinehint uwtable
define linkonce_odr void @_ZNSt4pairIKSsSsED2Ev(%"struct.std::pair"* %this) unnamed_addr #7 comdat align 2 {
entry:
  %this.addr = alloca %"struct.std::pair"*, align 8
  %exn.slot = alloca i8*
  %ehselector.slot = alloca i32
  store %"struct.std::pair"* %this, %"struct.std::pair"** %this.addr, align 8
  call void @llvm.dbg.declare(metadata %"struct.std::pair"** %this.addr, metadata !8552, metadata !7540), !dbg !8553
  %this1 = load %"struct.std::pair"** %this.addr
  %second = getelementptr inbounds %"struct.std::pair"* %this1, i32 0, i32 1, !dbg !8554
  invoke void @_ZNSsD1Ev(%"class.std::basic_string"* %second)
          to label %invoke.cont unwind label %lpad, !dbg !8554

invoke.cont:                                      ; preds = %entry
  %first = getelementptr inbounds %"struct.std::pair"* %this1, i32 0, i32 0, !dbg !8556
  call void @_ZNSsD1Ev(%"class.std::basic_string"* %first), !dbg !8556
  ret void, !dbg !8558

lpad:                                             ; preds = %entry
  %0 = landingpad { i8*, i32 } personality i8* bitcast (i32 (...)* @__gxx_personality_v0 to i8*)
          cleanup, !dbg !8559
  %1 = extractvalue { i8*, i32 } %0, 0, !dbg !8559
  store i8* %1, i8** %exn.slot, !dbg !8559
  %2 = extractvalue { i8*, i32 } %0, 1, !dbg !8559
  store i32 %2, i32* %ehselector.slot, !dbg !8559
  %first2 = getelementptr inbounds %"struct.std::pair"* %this1, i32 0, i32 0, !dbg !8554
  invoke void @_ZNSsD1Ev(%"class.std::basic_string"* %first2)
          to label %invoke.cont3 unwind label %terminate.lpad, !dbg !8554

invoke.cont3:                                     ; preds = %lpad
  br label %eh.resume, !dbg !8561

eh.resume:                                        ; preds = %invoke.cont3
  %exn = load i8** %exn.slot, !dbg !8563
  %sel = load i32* %ehselector.slot, !dbg !8563
  %lpad.val = insertvalue { i8*, i32 } undef, i8* %exn, 0, !dbg !8563
  %lpad.val4 = insertvalue { i8*, i32 } %lpad.val, i32 %sel, 1, !dbg !8563
  resume { i8*, i32 } %lpad.val4, !dbg !8563

terminate.lpad:                                   ; preds = %lpad
  %3 = landingpad { i8*, i32 } personality i8* bitcast (i32 (...)* @__gxx_personality_v0 to i8*)
          catch i8* null, !dbg !8565
  %4 = extractvalue { i8*, i32 } %3, 0, !dbg !8565
  call void @__clang_call_terminate(i8* %4) #13, !dbg !8565
  unreachable, !dbg !8565
}

; Function Attrs: nounwind uwtable
define linkonce_odr void @_ZN9__gnu_cxx13new_allocatorISt4pairIKSsSsEED2Ev(%"class.__gnu_cxx::new_allocator.23"* %this) unnamed_addr #2 comdat align 2 {
entry:
  %this.addr = alloca %"class.__gnu_cxx::new_allocator.23"*, align 8
  store %"class.__gnu_cxx::new_allocator.23"* %this, %"class.__gnu_cxx::new_allocator.23"** %this.addr, align 8
  call void @llvm.dbg.declare(metadata %"class.__gnu_cxx::new_allocator.23"** %this.addr, metadata !8567, metadata !7540), !dbg !8568
  %this1 = load %"class.__gnu_cxx::new_allocator.23"** %this.addr
  ret void, !dbg !8569
}

; Function Attrs: nounwind uwtable
define linkonce_odr void @_ZN9__gnu_cxx13new_allocatorISt13_Rb_tree_nodeISt4pairIKSsSsEEE10deallocateEPS5_m(%"class.__gnu_cxx::new_allocator.17"* %this, %"struct.std::_Rb_tree_node"* %__p, i64) #2 comdat align 2 {
entry:
  %this.addr = alloca %"class.__gnu_cxx::new_allocator.17"*, align 8
  %__p.addr = alloca %"struct.std::_Rb_tree_node"*, align 8
  %.addr = alloca i64, align 8
  store %"class.__gnu_cxx::new_allocator.17"* %this, %"class.__gnu_cxx::new_allocator.17"** %this.addr, align 8
  call void @llvm.dbg.declare(metadata %"class.__gnu_cxx::new_allocator.17"** %this.addr, metadata !8570, metadata !7540), !dbg !8572
  store %"struct.std::_Rb_tree_node"* %__p, %"struct.std::_Rb_tree_node"** %__p.addr, align 8
  call void @llvm.dbg.declare(metadata %"struct.std::_Rb_tree_node"** %__p.addr, metadata !8573, metadata !7540), !dbg !8574
  store i64 %0, i64* %.addr, align 8
  call void @llvm.dbg.declare(metadata i64* %.addr, metadata !8575, metadata !7540), !dbg !8576
  %this1 = load %"class.__gnu_cxx::new_allocator.17"** %this.addr
  %1 = load %"struct.std::_Rb_tree_node"** %__p.addr, align 8, !dbg !8577
  %2 = bitcast %"struct.std::_Rb_tree_node"* %1 to i8*, !dbg !8577
  call void @_ZdlPv(i8* %2) #1, !dbg !8578
  ret void, !dbg !8579
}

; Function Attrs: nobuiltin nounwind
declare void @_ZdlPv(i8*) #9

; Function Attrs: nounwind uwtable
define linkonce_odr void @_ZNSaISt13_Rb_tree_nodeISt4pairIKSsSsEEED2Ev(%"class.std::allocator.16"* %this) unnamed_addr #2 comdat align 2 {
entry:
  %this.addr = alloca %"class.std::allocator.16"*, align 8
  store %"class.std::allocator.16"* %this, %"class.std::allocator.16"** %this.addr, align 8
  call void @llvm.dbg.declare(metadata %"class.std::allocator.16"** %this.addr, metadata !8580, metadata !7540), !dbg !8582
  %this1 = load %"class.std::allocator.16"** %this.addr
  %0 = bitcast %"class.std::allocator.16"* %this1 to %"class.__gnu_cxx::new_allocator.17"*, !dbg !8583
  call void @_ZN9__gnu_cxx13new_allocatorISt13_Rb_tree_nodeISt4pairIKSsSsEEED2Ev(%"class.__gnu_cxx::new_allocator.17"* %0) #1, !dbg !8583
  ret void, !dbg !8585
}

; Function Attrs: nounwind uwtable
define linkonce_odr void @_ZN9__gnu_cxx13new_allocatorISt13_Rb_tree_nodeISt4pairIKSsSsEEED2Ev(%"class.__gnu_cxx::new_allocator.17"* %this) unnamed_addr #2 comdat align 2 {
entry:
  %this.addr = alloca %"class.__gnu_cxx::new_allocator.17"*, align 8
  store %"class.__gnu_cxx::new_allocator.17"* %this, %"class.__gnu_cxx::new_allocator.17"** %this.addr, align 8
  call void @llvm.dbg.declare(metadata %"class.__gnu_cxx::new_allocator.17"** %this.addr, metadata !8586, metadata !7540), !dbg !8587
  %this1 = load %"class.__gnu_cxx::new_allocator.17"** %this.addr
  ret void, !dbg !8588
}

; Function Attrs: inlinehint uwtable
define linkonce_odr void @_ZN5boost10shared_ptrISt3mapISsSsSt4lessISsESaISt4pairIKSsSsEEEED2Ev(%"class.boost::shared_ptr.21"* %this) unnamed_addr #7 comdat align 2 {
entry:
  %this.addr = alloca %"class.boost::shared_ptr.21"*, align 8
  store %"class.boost::shared_ptr.21"* %this, %"class.boost::shared_ptr.21"** %this.addr, align 8
  call void @llvm.dbg.declare(metadata %"class.boost::shared_ptr.21"** %this.addr, metadata !8589, metadata !7540), !dbg !8591
  %this1 = load %"class.boost::shared_ptr.21"** %this.addr
  %pn = getelementptr inbounds %"class.boost::shared_ptr.21"* %this1, i32 0, i32 1, !dbg !8592
  call void @_ZN5boost6detail12shared_countD2Ev(%"class.boost::detail::shared_count"* %pn), !dbg !8592
  ret void, !dbg !8594
}

; Function Attrs: uwtable
define linkonce_odr void @_ZN5boost6detail12shared_countD2Ev(%"class.boost::detail::shared_count"* %this) unnamed_addr #3 comdat align 2 {
entry:
  %this.addr = alloca %"class.boost::detail::shared_count"*, align 8
  store %"class.boost::detail::shared_count"* %this, %"class.boost::detail::shared_count"** %this.addr, align 8
  call void @llvm.dbg.declare(metadata %"class.boost::detail::shared_count"** %this.addr, metadata !8595, metadata !7540), !dbg !8597
  %this1 = load %"class.boost::detail::shared_count"** %this.addr
  %pi_ = getelementptr inbounds %"class.boost::detail::shared_count"* %this1, i32 0, i32 0, !dbg !8598
  %0 = load %"class.boost::detail::sp_counted_base"** %pi_, align 8, !dbg !8598
  %cmp = icmp ne %"class.boost::detail::sp_counted_base"* %0, null, !dbg !8601
  br i1 %cmp, label %if.then, label %if.end, !dbg !8602

if.then:                                          ; preds = %entry
  %pi_2 = getelementptr inbounds %"class.boost::detail::shared_count"* %this1, i32 0, i32 0, !dbg !8603
  %1 = load %"class.boost::detail::sp_counted_base"** %pi_2, align 8, !dbg !8603
  call void @_ZN5boost6detail15sp_counted_base7releaseEv(%"class.boost::detail::sp_counted_base"* %1), !dbg !8603
  br label %if.end, !dbg !8603

if.end:                                           ; preds = %if.then, %entry
  ret void, !dbg !8605
}

; Function Attrs: uwtable
define linkonce_odr void @_ZN5boost6detail15sp_counted_base7releaseEv(%"class.boost::detail::sp_counted_base"* %this) #3 comdat align 2 {
entry:
  %this.addr = alloca %"class.boost::detail::sp_counted_base"*, align 8
  store %"class.boost::detail::sp_counted_base"* %this, %"class.boost::detail::sp_counted_base"** %this.addr, align 8
  call void @llvm.dbg.declare(metadata %"class.boost::detail::sp_counted_base"** %this.addr, metadata !8606, metadata !7540), !dbg !8607
  %this1 = load %"class.boost::detail::sp_counted_base"** %this.addr
  %use_count_ = getelementptr inbounds %"class.boost::detail::sp_counted_base"* %this1, i32 0, i32 1, !dbg !8608
  %call = call i32 @_ZN5boost6detail23atomic_exchange_and_addEPii(i32* %use_count_, i32 -1), !dbg !8610
  %cmp = icmp eq i32 %call, 1, !dbg !8611
  br i1 %cmp, label %if.then, label %if.end, !dbg !8612

if.then:                                          ; preds = %entry
  %0 = bitcast %"class.boost::detail::sp_counted_base"* %this1 to void (%"class.boost::detail::sp_counted_base"*)***, !dbg !8613
  %vtable = load void (%"class.boost::detail::sp_counted_base"*)*** %0, !dbg !8613
  %vfn = getelementptr inbounds void (%"class.boost::detail::sp_counted_base"*)** %vtable, i64 2, !dbg !8613
  %1 = load void (%"class.boost::detail::sp_counted_base"*)** %vfn, !dbg !8613
  call void %1(%"class.boost::detail::sp_counted_base"* %this1), !dbg !8613
  call void @_ZN5boost6detail15sp_counted_base12weak_releaseEv(%"class.boost::detail::sp_counted_base"* %this1), !dbg !8615
  br label %if.end, !dbg !8616

if.end:                                           ; preds = %if.then, %entry
  ret void, !dbg !8617
}

; Function Attrs: inlinehint nounwind uwtable
define linkonce_odr i32 @_ZN5boost6detail23atomic_exchange_and_addEPii(i32* %pw, i32 %dv) #8 comdat {
entry:
  %pw.addr = alloca i32*, align 8
  %dv.addr = alloca i32, align 4
  %r = alloca i32, align 4
  store i32* %pw, i32** %pw.addr, align 8
  call void @llvm.dbg.declare(metadata i32** %pw.addr, metadata !8618, metadata !7540), !dbg !8619
  store i32 %dv, i32* %dv.addr, align 4
  call void @llvm.dbg.declare(metadata i32* %dv.addr, metadata !8620, metadata !7540), !dbg !8621
  call void @llvm.dbg.declare(metadata i32* %r, metadata !8622, metadata !7540), !dbg !8623
  %0 = load i32** %pw.addr, align 8, !dbg !8624
  %1 = load i32** %pw.addr, align 8, !dbg !8625
  %2 = load i32* %dv.addr, align 4, !dbg !8626
  %3 = call i32 asm sideeffect "lock\0A\09xadd $1, $0", "=*m,=r,*m,1,~{memory},~{cc},~{dirflag},~{fpsr},~{flags}"(i32* %0, i32* %1, i32 %2) #1, !dbg !8627, !srcloc !8628
  store i32 %3, i32* %r, align 4, !dbg !8627
  %4 = load i32* %r, align 4, !dbg !8629
  ret i32 %4, !dbg !8630
}

; Function Attrs: uwtable
define linkonce_odr void @_ZN5boost6detail15sp_counted_base12weak_releaseEv(%"class.boost::detail::sp_counted_base"* %this) #3 comdat align 2 {
entry:
  %this.addr = alloca %"class.boost::detail::sp_counted_base"*, align 8
  store %"class.boost::detail::sp_counted_base"* %this, %"class.boost::detail::sp_counted_base"** %this.addr, align 8
  call void @llvm.dbg.declare(metadata %"class.boost::detail::sp_counted_base"** %this.addr, metadata !8631, metadata !7540), !dbg !8632
  %this1 = load %"class.boost::detail::sp_counted_base"** %this.addr
  %weak_count_ = getelementptr inbounds %"class.boost::detail::sp_counted_base"* %this1, i32 0, i32 2, !dbg !8633
  %call = call i32 @_ZN5boost6detail23atomic_exchange_and_addEPii(i32* %weak_count_, i32 -1), !dbg !8635
  %cmp = icmp eq i32 %call, 1, !dbg !8636
  br i1 %cmp, label %if.then, label %if.end, !dbg !8637

if.then:                                          ; preds = %entry
  %0 = bitcast %"class.boost::detail::sp_counted_base"* %this1 to void (%"class.boost::detail::sp_counted_base"*)***, !dbg !8638
  %vtable = load void (%"class.boost::detail::sp_counted_base"*)*** %0, !dbg !8638
  %vfn = getelementptr inbounds void (%"class.boost::detail::sp_counted_base"*)** %vtable, i64 3, !dbg !8638
  %1 = load void (%"class.boost::detail::sp_counted_base"*)** %vfn, !dbg !8638
  call void %1(%"class.boost::detail::sp_counted_base"* %this1), !dbg !8638
  br label %if.end, !dbg !8640

if.end:                                           ; preds = %if.then, %entry
  ret void, !dbg !8641
}

; Function Attrs: inlinehint uwtable
define linkonce_odr void @_ZN3ros8DurationD2Ev(%"class.ros::Duration"* %this) unnamed_addr #7 comdat align 2 {
entry:
  %this.addr = alloca %"class.ros::Duration"*, align 8
  store %"class.ros::Duration"* %this, %"class.ros::Duration"** %this.addr, align 8
  call void @llvm.dbg.declare(metadata %"class.ros::Duration"** %this.addr, metadata !8642, metadata !7540), !dbg !8644
  %this1 = load %"class.ros::Duration"** %this.addr
  %0 = bitcast %"class.ros::Duration"* %this1 to %"class.ros::DurationBase"*, !dbg !8645
  call void @_ZN3ros12DurationBaseINS_8DurationEED2Ev(%"class.ros::DurationBase"* %0), !dbg !8645
  ret void, !dbg !8647
}

; Function Attrs: inlinehint uwtable
define linkonce_odr void @_ZN3ros4TimeD2Ev(%"class.ros::Time"* %this) unnamed_addr #7 comdat align 2 {
entry:
  %this.addr = alloca %"class.ros::Time"*, align 8
  store %"class.ros::Time"* %this, %"class.ros::Time"** %this.addr, align 8
  call void @llvm.dbg.declare(metadata %"class.ros::Time"** %this.addr, metadata !8648, metadata !7540), !dbg !8650
  %this1 = load %"class.ros::Time"** %this.addr
  %0 = bitcast %"class.ros::Time"* %this1 to %"class.ros::TimeBase"*, !dbg !8651
  call void @_ZN3ros8TimeBaseINS_4TimeENS_8DurationEED2Ev(%"class.ros::TimeBase"* %0), !dbg !8651
  ret void, !dbg !8653
}

; Function Attrs: nounwind uwtable
define linkonce_odr void @_ZN3ros12DurationBaseINS_8DurationEED2Ev(%"class.ros::DurationBase"* %this) unnamed_addr #2 comdat align 2 {
entry:
  %this.addr = alloca %"class.ros::DurationBase"*, align 8
  store %"class.ros::DurationBase"* %this, %"class.ros::DurationBase"** %this.addr, align 8
  call void @llvm.dbg.declare(metadata %"class.ros::DurationBase"** %this.addr, metadata !8654, metadata !7540), !dbg !8656
  %this1 = load %"class.ros::DurationBase"** %this.addr
  ret void, !dbg !8657
}

; Function Attrs: nounwind uwtable
define linkonce_odr void @_ZN3ros8TimeBaseINS_4TimeENS_8DurationEED2Ev(%"class.ros::TimeBase"* %this) unnamed_addr #2 comdat align 2 {
entry:
  %this.addr = alloca %"class.ros::TimeBase"*, align 8
  store %"class.ros::TimeBase"* %this, %"class.ros::TimeBase"** %this.addr, align 8
  call void @llvm.dbg.declare(metadata %"class.ros::TimeBase"** %this.addr, metadata !8658, metadata !7540), !dbg !8660
  %this1 = load %"class.ros::TimeBase"** %this.addr
  ret void, !dbg !8661
}

; Function Attrs: uwtable
define linkonce_odr void @_ZNSt8_Rb_treeISsSt4pairIKSsSsESt10_Select1stIS2_ESt4lessISsESaIS2_EEC2Ev(%"class.std::_Rb_tree"* %this) unnamed_addr #3 comdat align 2 {
entry:
  %this.addr = alloca %"class.std::_Rb_tree"*, align 8
  store %"class.std::_Rb_tree"* %this, %"class.std::_Rb_tree"** %this.addr, align 8
  call void @llvm.dbg.declare(metadata %"class.std::_Rb_tree"** %this.addr, metadata !8662, metadata !7540), !dbg !8663
  %this1 = load %"class.std::_Rb_tree"** %this.addr
  %_M_impl = getelementptr inbounds %"class.std::_Rb_tree"* %this1, i32 0, i32 0, !dbg !8664
  call void @_ZNSt8_Rb_treeISsSt4pairIKSsSsESt10_Select1stIS2_ESt4lessISsESaIS2_EE13_Rb_tree_implIS6_Lb0EEC2Ev(%"struct.std::_Rb_tree<std::basic_string<char>, std::pair<const std::basic_string<char>, std::basic_string<char> >, std::_Select1st<std::pair<const std::basic_string<char>, std::basic_string<char> > >, std::less<std::basic_string<char> >, std::allocator<std::pair<const std::basic_string<char>, std::basic_string<char> > > >::_Rb_tree_impl"* %_M_impl), !dbg !8664
  ret void, !dbg !8665
}

; Function Attrs: uwtable
define linkonce_odr void @_ZNSt8_Rb_treeISsSt4pairIKSsSsESt10_Select1stIS2_ESt4lessISsESaIS2_EE13_Rb_tree_implIS6_Lb0EEC2Ev(%"struct.std::_Rb_tree<std::basic_string<char>, std::pair<const std::basic_string<char>, std::basic_string<char> >, std::_Select1st<std::pair<const std::basic_string<char>, std::basic_string<char> > >, std::less<std::basic_string<char> >, std::allocator<std::pair<const std::basic_string<char>, std::basic_string<char> > > >::_Rb_tree_impl"* %this) unnamed_addr #3 comdat align 2 {
entry:
  %this.addr = alloca %"struct.std::_Rb_tree<std::basic_string<char>, std::pair<const std::basic_string<char>, std::basic_string<char> >, std::_Select1st<std::pair<const std::basic_string<char>, std::basic_string<char> > >, std::less<std::basic_string<char> >, std::allocator<std::pair<const std::basic_string<char>, std::basic_string<char> > > >::_Rb_tree_impl"*, align 8
  %exn.slot = alloca i8*
  %ehselector.slot = alloca i32
  store %"struct.std::_Rb_tree<std::basic_string<char>, std::pair<const std::basic_string<char>, std::basic_string<char> >, std::_Select1st<std::pair<const std::basic_string<char>, std::basic_string<char> > >, std::less<std::basic_string<char> >, std::allocator<std::pair<const std::basic_string<char>, std::basic_string<char> > > >::_Rb_tree_impl"* %this, %"struct.std::_Rb_tree<std::basic_string<char>, std::pair<const std::basic_string<char>, std::basic_string<char> >, std::_Select1st<std::pair<const std::basic_string<char>, std::basic_string<char> > >, std::less<std::basic_string<char> >, std::allocator<std::pair<const std::basic_string<char>, std::basic_string<char> > > >::_Rb_tree_impl"** %this.addr, align 8
  call void @llvm.dbg.declare(metadata %"struct.std::_Rb_tree<std::basic_string<char>, std::pair<const std::basic_string<char>, std::basic_string<char> >, std::_Select1st<std::pair<const std::basic_string<char>, std::basic_string<char> > >, std::less<std::basic_string<char> >, std::allocator<std::pair<const std::basic_string<char>, std::basic_string<char> > > >::_Rb_tree_impl"** %this.addr, metadata !8666, metadata !7540), !dbg !8667
  %this1 = load %"struct.std::_Rb_tree<std::basic_string<char>, std::pair<const std::basic_string<char>, std::basic_string<char> >, std::_Select1st<std::pair<const std::basic_string<char>, std::basic_string<char> > >, std::less<std::basic_string<char> >, std::allocator<std::pair<const std::basic_string<char>, std::basic_string<char> > > >::_Rb_tree_impl"** %this.addr
  %0 = bitcast %"struct.std::_Rb_tree<std::basic_string<char>, std::pair<const std::basic_string<char>, std::basic_string<char> >, std::_Select1st<std::pair<const std::basic_string<char>, std::basic_string<char> > >, std::less<std::basic_string<char> >, std::allocator<std::pair<const std::basic_string<char>, std::basic_string<char> > > >::_Rb_tree_impl"* %this1 to %"class.std::allocator.16"*, !dbg !8668
  call void @_ZNSaISt13_Rb_tree_nodeISt4pairIKSsSsEEEC2Ev(%"class.std::allocator.16"* %0) #1, !dbg !8669
  %_M_key_compare = getelementptr inbounds %"struct.std::_Rb_tree<std::basic_string<char>, std::pair<const std::basic_string<char>, std::basic_string<char> >, std::_Select1st<std::pair<const std::basic_string<char>, std::basic_string<char> > >, std::less<std::basic_string<char> >, std::allocator<std::pair<const std::basic_string<char>, std::basic_string<char> > > >::_Rb_tree_impl"* %this1, i32 0, i32 0, !dbg !8670
  %_M_header = getelementptr inbounds %"struct.std::_Rb_tree<std::basic_string<char>, std::pair<const std::basic_string<char>, std::basic_string<char> >, std::_Select1st<std::pair<const std::basic_string<char>, std::basic_string<char> > >, std::less<std::basic_string<char> >, std::allocator<std::pair<const std::basic_string<char>, std::basic_string<char> > > >::_Rb_tree_impl"* %this1, i32 0, i32 1, !dbg !8671
  %1 = bitcast %"struct.std::_Rb_tree_node_base"* %_M_header to i8*, !dbg !8671
  call void @llvm.memset.p0i8.i64(i8* %1, i8 0, i64 32, i32 8, i1 false), !dbg !8671
  %_M_node_count = getelementptr inbounds %"struct.std::_Rb_tree<std::basic_string<char>, std::pair<const std::basic_string<char>, std::basic_string<char> >, std::_Select1st<std::pair<const std::basic_string<char>, std::basic_string<char> > >, std::less<std::basic_string<char> >, std::allocator<std::pair<const std::basic_string<char>, std::basic_string<char> > > >::_Rb_tree_impl"* %this1, i32 0, i32 2, !dbg !8672
  store i64 0, i64* %_M_node_count, align 8, !dbg !8672
  invoke void @_ZNSt8_Rb_treeISsSt4pairIKSsSsESt10_Select1stIS2_ESt4lessISsESaIS2_EE13_Rb_tree_implIS6_Lb0EE13_M_initializeEv(%"struct.std::_Rb_tree<std::basic_string<char>, std::pair<const std::basic_string<char>, std::basic_string<char> >, std::_Select1st<std::pair<const std::basic_string<char>, std::basic_string<char> > >, std::less<std::basic_string<char> >, std::allocator<std::pair<const std::basic_string<char>, std::basic_string<char> > > >::_Rb_tree_impl"* %this1)
          to label %invoke.cont unwind label %lpad, !dbg !8673

invoke.cont:                                      ; preds = %entry
  ret void, !dbg !8675

lpad:                                             ; preds = %entry
  %2 = landingpad { i8*, i32 } personality i8* bitcast (i32 (...)* @__gxx_personality_v0 to i8*)
          cleanup, !dbg !8677
  %3 = extractvalue { i8*, i32 } %2, 0, !dbg !8677
  store i8* %3, i8** %exn.slot, !dbg !8677
  %4 = extractvalue { i8*, i32 } %2, 1, !dbg !8677
  store i32 %4, i32* %ehselector.slot, !dbg !8677
  %5 = bitcast %"struct.std::_Rb_tree<std::basic_string<char>, std::pair<const std::basic_string<char>, std::basic_string<char> >, std::_Select1st<std::pair<const std::basic_string<char>, std::basic_string<char> > >, std::less<std::basic_string<char> >, std::allocator<std::pair<const std::basic_string<char>, std::basic_string<char> > > >::_Rb_tree_impl"* %this1 to %"class.std::allocator.16"*, !dbg !8677
  call void @_ZNSaISt13_Rb_tree_nodeISt4pairIKSsSsEEED2Ev(%"class.std::allocator.16"* %5) #1, !dbg !8677
  br label %eh.resume, !dbg !8677

eh.resume:                                        ; preds = %lpad
  %exn = load i8** %exn.slot, !dbg !8679
  %sel = load i32* %ehselector.slot, !dbg !8679
  %lpad.val = insertvalue { i8*, i32 } undef, i8* %exn, 0, !dbg !8679
  %lpad.val2 = insertvalue { i8*, i32 } %lpad.val, i32 %sel, 1, !dbg !8679
  resume { i8*, i32 } %lpad.val2, !dbg !8679
}

; Function Attrs: nounwind uwtable
define linkonce_odr void @_ZNSaISt13_Rb_tree_nodeISt4pairIKSsSsEEEC2Ev(%"class.std::allocator.16"* %this) unnamed_addr #2 comdat align 2 {
entry:
  %this.addr = alloca %"class.std::allocator.16"*, align 8
  store %"class.std::allocator.16"* %this, %"class.std::allocator.16"** %this.addr, align 8
  call void @llvm.dbg.declare(metadata %"class.std::allocator.16"** %this.addr, metadata !8681, metadata !7540), !dbg !8682
  %this1 = load %"class.std::allocator.16"** %this.addr
  %0 = bitcast %"class.std::allocator.16"* %this1 to %"class.__gnu_cxx::new_allocator.17"*, !dbg !8683
  call void @_ZN9__gnu_cxx13new_allocatorISt13_Rb_tree_nodeISt4pairIKSsSsEEEC2Ev(%"class.__gnu_cxx::new_allocator.17"* %0) #1, !dbg !8684
  ret void, !dbg !8685
}

; Function Attrs: nounwind
declare void @llvm.memset.p0i8.i64(i8* nocapture, i8, i64, i32, i1) #1

; Function Attrs: nounwind uwtable
define linkonce_odr void @_ZNSt8_Rb_treeISsSt4pairIKSsSsESt10_Select1stIS2_ESt4lessISsESaIS2_EE13_Rb_tree_implIS6_Lb0EE13_M_initializeEv(%"struct.std::_Rb_tree<std::basic_string<char>, std::pair<const std::basic_string<char>, std::basic_string<char> >, std::_Select1st<std::pair<const std::basic_string<char>, std::basic_string<char> > >, std::less<std::basic_string<char> >, std::allocator<std::pair<const std::basic_string<char>, std::basic_string<char> > > >::_Rb_tree_impl"* %this) #2 comdat align 2 {
entry:
  %this.addr = alloca %"struct.std::_Rb_tree<std::basic_string<char>, std::pair<const std::basic_string<char>, std::basic_string<char> >, std::_Select1st<std::pair<const std::basic_string<char>, std::basic_string<char> > >, std::less<std::basic_string<char> >, std::allocator<std::pair<const std::basic_string<char>, std::basic_string<char> > > >::_Rb_tree_impl"*, align 8
  store %"struct.std::_Rb_tree<std::basic_string<char>, std::pair<const std::basic_string<char>, std::basic_string<char> >, std::_Select1st<std::pair<const std::basic_string<char>, std::basic_string<char> > >, std::less<std::basic_string<char> >, std::allocator<std::pair<const std::basic_string<char>, std::basic_string<char> > > >::_Rb_tree_impl"* %this, %"struct.std::_Rb_tree<std::basic_string<char>, std::pair<const std::basic_string<char>, std::basic_string<char> >, std::_Select1st<std::pair<const std::basic_string<char>, std::basic_string<char> > >, std::less<std::basic_string<char> >, std::allocator<std::pair<const std::basic_string<char>, std::basic_string<char> > > >::_Rb_tree_impl"** %this.addr, align 8
  call void @llvm.dbg.declare(metadata %"struct.std::_Rb_tree<std::basic_string<char>, std::pair<const std::basic_string<char>, std::basic_string<char> >, std::_Select1st<std::pair<const std::basic_string<char>, std::basic_string<char> > >, std::less<std::basic_string<char> >, std::allocator<std::pair<const std::basic_string<char>, std::basic_string<char> > > >::_Rb_tree_impl"** %this.addr, metadata !8686, metadata !7540), !dbg !8687
  %this1 = load %"struct.std::_Rb_tree<std::basic_string<char>, std::pair<const std::basic_string<char>, std::basic_string<char> >, std::_Select1st<std::pair<const std::basic_string<char>, std::basic_string<char> > >, std::less<std::basic_string<char> >, std::allocator<std::pair<const std::basic_string<char>, std::basic_string<char> > > >::_Rb_tree_impl"** %this.addr
  %_M_header = getelementptr inbounds %"struct.std::_Rb_tree<std::basic_string<char>, std::pair<const std::basic_string<char>, std::basic_string<char> >, std::_Select1st<std::pair<const std::basic_string<char>, std::basic_string<char> > >, std::less<std::basic_string<char> >, std::allocator<std::pair<const std::basic_string<char>, std::basic_string<char> > > >::_Rb_tree_impl"* %this1, i32 0, i32 1, !dbg !8688
  %_M_color = getelementptr inbounds %"struct.std::_Rb_tree_node_base"* %_M_header, i32 0, i32 0, !dbg !8689
  store i32 0, i32* %_M_color, align 4, !dbg !8690
  %_M_header2 = getelementptr inbounds %"struct.std::_Rb_tree<std::basic_string<char>, std::pair<const std::basic_string<char>, std::basic_string<char> >, std::_Select1st<std::pair<const std::basic_string<char>, std::basic_string<char> > >, std::less<std::basic_string<char> >, std::allocator<std::pair<const std::basic_string<char>, std::basic_string<char> > > >::_Rb_tree_impl"* %this1, i32 0, i32 1, !dbg !8691
  %_M_parent = getelementptr inbounds %"struct.std::_Rb_tree_node_base"* %_M_header2, i32 0, i32 1, !dbg !8692
  store %"struct.std::_Rb_tree_node_base"* null, %"struct.std::_Rb_tree_node_base"** %_M_parent, align 8, !dbg !8693
  %_M_header3 = getelementptr inbounds %"struct.std::_Rb_tree<std::basic_string<char>, std::pair<const std::basic_string<char>, std::basic_string<char> >, std::_Select1st<std::pair<const std::basic_string<char>, std::basic_string<char> > >, std::less<std::basic_string<char> >, std::allocator<std::pair<const std::basic_string<char>, std::basic_string<char> > > >::_Rb_tree_impl"* %this1, i32 0, i32 1, !dbg !8694
  %_M_header4 = getelementptr inbounds %"struct.std::_Rb_tree<std::basic_string<char>, std::pair<const std::basic_string<char>, std::basic_string<char> >, std::_Select1st<std::pair<const std::basic_string<char>, std::basic_string<char> > >, std::less<std::basic_string<char> >, std::allocator<std::pair<const std::basic_string<char>, std::basic_string<char> > > >::_Rb_tree_impl"* %this1, i32 0, i32 1, !dbg !8695
  %_M_left = getelementptr inbounds %"struct.std::_Rb_tree_node_base"* %_M_header4, i32 0, i32 2, !dbg !8696
  store %"struct.std::_Rb_tree_node_base"* %_M_header3, %"struct.std::_Rb_tree_node_base"** %_M_left, align 8, !dbg !8697
  %_M_header5 = getelementptr inbounds %"struct.std::_Rb_tree<std::basic_string<char>, std::pair<const std::basic_string<char>, std::basic_string<char> >, std::_Select1st<std::pair<const std::basic_string<char>, std::basic_string<char> > >, std::less<std::basic_string<char> >, std::allocator<std::pair<const std::basic_string<char>, std::basic_string<char> > > >::_Rb_tree_impl"* %this1, i32 0, i32 1, !dbg !8698
  %_M_header6 = getelementptr inbounds %"struct.std::_Rb_tree<std::basic_string<char>, std::pair<const std::basic_string<char>, std::basic_string<char> >, std::_Select1st<std::pair<const std::basic_string<char>, std::basic_string<char> > >, std::less<std::basic_string<char> >, std::allocator<std::pair<const std::basic_string<char>, std::basic_string<char> > > >::_Rb_tree_impl"* %this1, i32 0, i32 1, !dbg !8699
  %_M_right = getelementptr inbounds %"struct.std::_Rb_tree_node_base"* %_M_header6, i32 0, i32 3, !dbg !8700
  store %"struct.std::_Rb_tree_node_base"* %_M_header5, %"struct.std::_Rb_tree_node_base"** %_M_right, align 8, !dbg !8701
  ret void, !dbg !8702
}

; Function Attrs: nounwind uwtable
define linkonce_odr void @_ZN9__gnu_cxx13new_allocatorISt13_Rb_tree_nodeISt4pairIKSsSsEEEC2Ev(%"class.__gnu_cxx::new_allocator.17"* %this) unnamed_addr #2 comdat align 2 {
entry:
  %this.addr = alloca %"class.__gnu_cxx::new_allocator.17"*, align 8
  store %"class.__gnu_cxx::new_allocator.17"* %this, %"class.__gnu_cxx::new_allocator.17"** %this.addr, align 8
  call void @llvm.dbg.declare(metadata %"class.__gnu_cxx::new_allocator.17"** %this.addr, metadata !8703, metadata !7540), !dbg !8704
  %this1 = load %"class.__gnu_cxx::new_allocator.17"** %this.addr
  ret void, !dbg !8705
}

; Function Attrs: uwtable
define linkonce_odr void @_ZN3ros16AdvertiseOptionsC2Ev(%"struct.ros::AdvertiseOptions"* %this) unnamed_addr #3 comdat align 2 {
entry:
  %this.addr = alloca %"struct.ros::AdvertiseOptions"*, align 8
  %exn.slot = alloca i8*
  %ehselector.slot = alloca i32
  store %"struct.ros::AdvertiseOptions"* %this, %"struct.ros::AdvertiseOptions"** %this.addr, align 8
  call void @llvm.dbg.declare(metadata %"struct.ros::AdvertiseOptions"** %this.addr, metadata !8706, metadata !7540), !dbg !8708
  %this1 = load %"struct.ros::AdvertiseOptions"** %this.addr
  %topic = getelementptr inbounds %"struct.ros::AdvertiseOptions"* %this1, i32 0, i32 0, !dbg !8709
  call void @_ZNSsC1Ev(%"class.std::basic_string"* %topic), !dbg !8709
  %md5sum = getelementptr inbounds %"struct.ros::AdvertiseOptions"* %this1, i32 0, i32 3, !dbg !8709
  invoke void @_ZNSsC1Ev(%"class.std::basic_string"* %md5sum)
          to label %invoke.cont unwind label %lpad, !dbg !8709

invoke.cont:                                      ; preds = %entry
  %datatype = getelementptr inbounds %"struct.ros::AdvertiseOptions"* %this1, i32 0, i32 4, !dbg !8710
  invoke void @_ZNSsC1Ev(%"class.std::basic_string"* %datatype)
          to label %invoke.cont3 unwind label %lpad2, !dbg !8710

invoke.cont3:                                     ; preds = %invoke.cont
  %message_definition = getelementptr inbounds %"struct.ros::AdvertiseOptions"* %this1, i32 0, i32 5, !dbg !8712
  invoke void @_ZNSsC1Ev(%"class.std::basic_string"* %message_definition)
          to label %invoke.cont5 unwind label %lpad4, !dbg !8712

invoke.cont5:                                     ; preds = %invoke.cont3
  %connect_cb = getelementptr inbounds %"struct.ros::AdvertiseOptions"* %this1, i32 0, i32 6, !dbg !8714
  invoke void @_ZN5boost8functionIFvRKN3ros25SingleSubscriberPublisherEEEC2Ev(%"class.boost::function"* %connect_cb)
          to label %invoke.cont7 unwind label %lpad6, !dbg !8714

invoke.cont7:                                     ; preds = %invoke.cont5
  %disconnect_cb = getelementptr inbounds %"struct.ros::AdvertiseOptions"* %this1, i32 0, i32 7, !dbg !8716
  invoke void @_ZN5boost8functionIFvRKN3ros25SingleSubscriberPublisherEEEC2Ev(%"class.boost::function"* %disconnect_cb)
          to label %invoke.cont9 unwind label %lpad8, !dbg !8716

invoke.cont9:                                     ; preds = %invoke.cont7
  %callback_queue = getelementptr inbounds %"struct.ros::AdvertiseOptions"* %this1, i32 0, i32 8, !dbg !8718
  store %"class.ros::CallbackQueueInterface"* null, %"class.ros::CallbackQueueInterface"** %callback_queue, align 8, !dbg !8718
  %tracked_object = getelementptr inbounds %"struct.ros::AdvertiseOptions"* %this1, i32 0, i32 9, !dbg !8709
  invoke void @_ZN5boost10shared_ptrIKvEC2Ev(%"class.boost::shared_ptr.25"* %tracked_object)
          to label %invoke.cont11 unwind label %lpad10, !dbg !8709

invoke.cont11:                                    ; preds = %invoke.cont9
  %latch = getelementptr inbounds %"struct.ros::AdvertiseOptions"* %this1, i32 0, i32 10, !dbg !8719
  store i8 0, i8* %latch, align 1, !dbg !8719
  ret void, !dbg !8720

lpad:                                             ; preds = %entry
  %0 = landingpad { i8*, i32 } personality i8* bitcast (i32 (...)* @__gxx_personality_v0 to i8*)
          cleanup, !dbg !8720
  %1 = extractvalue { i8*, i32 } %0, 0, !dbg !8720
  store i8* %1, i8** %exn.slot, !dbg !8720
  %2 = extractvalue { i8*, i32 } %0, 1, !dbg !8720
  store i32 %2, i32* %ehselector.slot, !dbg !8720
  br label %ehcleanup20, !dbg !8720

lpad2:                                            ; preds = %invoke.cont
  %3 = landingpad { i8*, i32 } personality i8* bitcast (i32 (...)* @__gxx_personality_v0 to i8*)
          cleanup, !dbg !8720
  %4 = extractvalue { i8*, i32 } %3, 0, !dbg !8720
  store i8* %4, i8** %exn.slot, !dbg !8720
  %5 = extractvalue { i8*, i32 } %3, 1, !dbg !8720
  store i32 %5, i32* %ehselector.slot, !dbg !8720
  br label %ehcleanup18, !dbg !8720

lpad4:                                            ; preds = %invoke.cont3
  %6 = landingpad { i8*, i32 } personality i8* bitcast (i32 (...)* @__gxx_personality_v0 to i8*)
          cleanup, !dbg !8720
  %7 = extractvalue { i8*, i32 } %6, 0, !dbg !8720
  store i8* %7, i8** %exn.slot, !dbg !8720
  %8 = extractvalue { i8*, i32 } %6, 1, !dbg !8720
  store i32 %8, i32* %ehselector.slot, !dbg !8720
  br label %ehcleanup16, !dbg !8720

lpad6:                                            ; preds = %invoke.cont5
  %9 = landingpad { i8*, i32 } personality i8* bitcast (i32 (...)* @__gxx_personality_v0 to i8*)
          cleanup, !dbg !8720
  %10 = extractvalue { i8*, i32 } %9, 0, !dbg !8720
  store i8* %10, i8** %exn.slot, !dbg !8720
  %11 = extractvalue { i8*, i32 } %9, 1, !dbg !8720
  store i32 %11, i32* %ehselector.slot, !dbg !8720
  br label %ehcleanup14, !dbg !8720

lpad8:                                            ; preds = %invoke.cont7
  %12 = landingpad { i8*, i32 } personality i8* bitcast (i32 (...)* @__gxx_personality_v0 to i8*)
          cleanup, !dbg !8720
  %13 = extractvalue { i8*, i32 } %12, 0, !dbg !8720
  store i8* %13, i8** %exn.slot, !dbg !8720
  %14 = extractvalue { i8*, i32 } %12, 1, !dbg !8720
  store i32 %14, i32* %ehselector.slot, !dbg !8720
  br label %ehcleanup, !dbg !8720

lpad10:                                           ; preds = %invoke.cont9
  %15 = landingpad { i8*, i32 } personality i8* bitcast (i32 (...)* @__gxx_personality_v0 to i8*)
          cleanup, !dbg !8720
  %16 = extractvalue { i8*, i32 } %15, 0, !dbg !8720
  store i8* %16, i8** %exn.slot, !dbg !8720
  %17 = extractvalue { i8*, i32 } %15, 1, !dbg !8720
  store i32 %17, i32* %ehselector.slot, !dbg !8720
  invoke void @_ZN5boost8functionIFvRKN3ros25SingleSubscriberPublisherEEED2Ev(%"class.boost::function"* %disconnect_cb)
          to label %invoke.cont12 unwind label %terminate.lpad, !dbg !8721

invoke.cont12:                                    ; preds = %lpad10
  br label %ehcleanup, !dbg !8723

ehcleanup:                                        ; preds = %invoke.cont12, %lpad8
  invoke void @_ZN5boost8functionIFvRKN3ros25SingleSubscriberPublisherEEED2Ev(%"class.boost::function"* %connect_cb)
          to label %invoke.cont13 unwind label %terminate.lpad, !dbg !8725

invoke.cont13:                                    ; preds = %ehcleanup
  br label %ehcleanup14, !dbg !8728

ehcleanup14:                                      ; preds = %invoke.cont13, %lpad6
  invoke void @_ZNSsD1Ev(%"class.std::basic_string"* %message_definition)
          to label %invoke.cont15 unwind label %terminate.lpad, !dbg !8730

invoke.cont15:                                    ; preds = %ehcleanup14
  br label %ehcleanup16, !dbg !8733

ehcleanup16:                                      ; preds = %invoke.cont15, %lpad4
  invoke void @_ZNSsD1Ev(%"class.std::basic_string"* %datatype)
          to label %invoke.cont17 unwind label %terminate.lpad, !dbg !8735

invoke.cont17:                                    ; preds = %ehcleanup16
  br label %ehcleanup18, !dbg !8738

ehcleanup18:                                      ; preds = %invoke.cont17, %lpad2
  invoke void @_ZNSsD1Ev(%"class.std::basic_string"* %md5sum)
          to label %invoke.cont19 unwind label %terminate.lpad, !dbg !8740

invoke.cont19:                                    ; preds = %ehcleanup18
  br label %ehcleanup20, !dbg !8743

ehcleanup20:                                      ; preds = %invoke.cont19, %lpad
  invoke void @_ZNSsD1Ev(%"class.std::basic_string"* %topic)
          to label %invoke.cont21 unwind label %terminate.lpad, !dbg !8745

invoke.cont21:                                    ; preds = %ehcleanup20
  br label %eh.resume, !dbg !8748

eh.resume:                                        ; preds = %invoke.cont21
  %exn = load i8** %exn.slot, !dbg !8750
  %sel = load i32* %ehselector.slot, !dbg !8750
  %lpad.val = insertvalue { i8*, i32 } undef, i8* %exn, 0, !dbg !8750
  %lpad.val22 = insertvalue { i8*, i32 } %lpad.val, i32 %sel, 1, !dbg !8750
  resume { i8*, i32 } %lpad.val22, !dbg !8750

terminate.lpad:                                   ; preds = %ehcleanup20, %ehcleanup18, %ehcleanup16, %ehcleanup14, %ehcleanup, %lpad10
  %18 = landingpad { i8*, i32 } personality i8* bitcast (i32 (...)* @__gxx_personality_v0 to i8*)
          catch i8* null, !dbg !8752
  %19 = extractvalue { i8*, i32 } %18, 0, !dbg !8752
  call void @__clang_call_terminate(i8* %19) #13, !dbg !8752
  unreachable, !dbg !8752
}

; Function Attrs: uwtable
define linkonce_odr void @_ZN3ros16AdvertiseOptions4initIN8std_msgs7String_ISaIvEEEEEvRKSsjRKN5boost8functionIFvRKNS_25SingleSubscriberPublisherEEEESG_(%"struct.ros::AdvertiseOptions"* %this, %"class.std::basic_string"* dereferenceable(8) %_topic, i32 %_queue_size, %"class.boost::function"* dereferenceable(32) %_connect_cb, %"class.boost::function"* dereferenceable(32) %_disconnect_cb) #3 comdat align 2 {
entry:
  %this.addr = alloca %"struct.ros::AdvertiseOptions"*, align 8
  %_topic.addr = alloca %"class.std::basic_string"*, align 8
  %_queue_size.addr = alloca i32, align 4
  %_connect_cb.addr = alloca %"class.boost::function"*, align 8
  %_disconnect_cb.addr = alloca %"class.boost::function"*, align 8
  store %"struct.ros::AdvertiseOptions"* %this, %"struct.ros::AdvertiseOptions"** %this.addr, align 8
  call void @llvm.dbg.declare(metadata %"struct.ros::AdvertiseOptions"** %this.addr, metadata !8759, metadata !7540), !dbg !8760
  store %"class.std::basic_string"* %_topic, %"class.std::basic_string"** %_topic.addr, align 8
  call void @llvm.dbg.declare(metadata %"class.std::basic_string"** %_topic.addr, metadata !8761, metadata !7540), !dbg !8763
  store i32 %_queue_size, i32* %_queue_size.addr, align 4
  call void @llvm.dbg.declare(metadata i32* %_queue_size.addr, metadata !8764, metadata !7540), !dbg !8765
  store %"class.boost::function"* %_connect_cb, %"class.boost::function"** %_connect_cb.addr, align 8
  call void @llvm.dbg.declare(metadata %"class.boost::function"** %_connect_cb.addr, metadata !8766, metadata !7540), !dbg !8767
  store %"class.boost::function"* %_disconnect_cb, %"class.boost::function"** %_disconnect_cb.addr, align 8
  call void @llvm.dbg.declare(metadata %"class.boost::function"** %_disconnect_cb.addr, metadata !8768, metadata !7540), !dbg !8769
  %this1 = load %"struct.ros::AdvertiseOptions"** %this.addr
  %topic = getelementptr inbounds %"struct.ros::AdvertiseOptions"* %this1, i32 0, i32 0, !dbg !8770
  %0 = load %"class.std::basic_string"** %_topic.addr, align 8, !dbg !8771
  %call = call dereferenceable(8) %"class.std::basic_string"* @_ZNSsaSERKSs(%"class.std::basic_string"* %topic, %"class.std::basic_string"* dereferenceable(8) %0), !dbg !8772
  %1 = load i32* %_queue_size.addr, align 4, !dbg !8773
  %queue_size = getelementptr inbounds %"struct.ros::AdvertiseOptions"* %this1, i32 0, i32 1, !dbg !8774
  store i32 %1, i32* %queue_size, align 4, !dbg !8775
  %connect_cb = getelementptr inbounds %"struct.ros::AdvertiseOptions"* %this1, i32 0, i32 6, !dbg !8776
  %2 = load %"class.boost::function"** %_connect_cb.addr, align 8, !dbg !8777
  %call2 = call dereferenceable(32) %"class.boost::function"* @_ZN5boost8functionIFvRKN3ros25SingleSubscriberPublisherEEEaSERKS6_(%"class.boost::function"* %connect_cb, %"class.boost::function"* dereferenceable(32) %2), !dbg !8778
  %disconnect_cb = getelementptr inbounds %"struct.ros::AdvertiseOptions"* %this1, i32 0, i32 7, !dbg !8779
  %3 = load %"class.boost::function"** %_disconnect_cb.addr, align 8, !dbg !8780
  %call3 = call dereferenceable(32) %"class.boost::function"* @_ZN5boost8functionIFvRKN3ros25SingleSubscriberPublisherEEEaSERKS6_(%"class.boost::function"* %disconnect_cb, %"class.boost::function"* dereferenceable(32) %3), !dbg !8781
  %md5sum = getelementptr inbounds %"struct.ros::AdvertiseOptions"* %this1, i32 0, i32 3, !dbg !8782
  %call4 = call i8* @_ZN3ros14message_traits6md5sumIN8std_msgs7String_ISaIvEEEEEPKcv(), !dbg !8783
  %call5 = call dereferenceable(8) %"class.std::basic_string"* @_ZNSsaSEPKc(%"class.std::basic_string"* %md5sum, i8* %call4), !dbg !8784
  %datatype = getelementptr inbounds %"struct.ros::AdvertiseOptions"* %this1, i32 0, i32 4, !dbg !8785
  %call6 = call i8* @_ZN3ros14message_traits8datatypeIN8std_msgs7String_ISaIvEEEEEPKcv(), !dbg !8786
  %call7 = call dereferenceable(8) %"class.std::basic_string"* @_ZNSsaSEPKc(%"class.std::basic_string"* %datatype, i8* %call6), !dbg !8787
  %message_definition = getelementptr inbounds %"struct.ros::AdvertiseOptions"* %this1, i32 0, i32 5, !dbg !8788
  %call8 = call i8* @_ZN3ros14message_traits10definitionIN8std_msgs7String_ISaIvEEEEEPKcv(), !dbg !8789
  %call9 = call dereferenceable(8) %"class.std::basic_string"* @_ZNSsaSEPKc(%"class.std::basic_string"* %message_definition, i8* %call8), !dbg !8790
  %call10 = call zeroext i1 @_ZN3ros14message_traits9hasHeaderIN8std_msgs7String_ISaIvEEEEEbv(), !dbg !8791
  %has_header = getelementptr inbounds %"struct.ros::AdvertiseOptions"* %this1, i32 0, i32 11, !dbg !8792
  %frombool = zext i1 %call10 to i8, !dbg !8793
  store i8 %frombool, i8* %has_header, align 1, !dbg !8793
  ret void, !dbg !8794
}

; Function Attrs: nounwind uwtable
define linkonce_odr void @_ZN5boost8functionIFvRKN3ros25SingleSubscriberPublisherEEEC2Ev(%"class.boost::function"* %this) unnamed_addr #2 comdat align 2 {
entry:
  %this.addr = alloca %"class.boost::function"*, align 8
  store %"class.boost::function"* %this, %"class.boost::function"** %this.addr, align 8
  call void @llvm.dbg.declare(metadata %"class.boost::function"** %this.addr, metadata !8795, metadata !7540), !dbg !8797
  %this1 = load %"class.boost::function"** %this.addr
  %0 = bitcast %"class.boost::function"* %this1 to %"class.boost::function1"*, !dbg !8798
  call void @_ZN5boost9function1IvRKN3ros25SingleSubscriberPublisherEEC2Ev(%"class.boost::function1"* %0), !dbg !8799
  ret void, !dbg !8800
}

; Function Attrs: inlinehint uwtable
define linkonce_odr void @_ZN5boost8functionIFvRKN3ros25SingleSubscriberPublisherEEED2Ev(%"class.boost::function"* %this) unnamed_addr #7 comdat align 2 {
entry:
  %this.addr = alloca %"class.boost::function"*, align 8
  store %"class.boost::function"* %this, %"class.boost::function"** %this.addr, align 8
  call void @llvm.dbg.declare(metadata %"class.boost::function"** %this.addr, metadata !8801, metadata !7540), !dbg !8802
  %this1 = load %"class.boost::function"** %this.addr
  %0 = bitcast %"class.boost::function"* %this1 to %"class.boost::function1"*, !dbg !8803
  call void @_ZN5boost9function1IvRKN3ros25SingleSubscriberPublisherEED2Ev(%"class.boost::function1"* %0), !dbg !8803
  ret void, !dbg !8805
}

declare void @_ZN3ros10NodeHandle9advertiseERNS_16AdvertiseOptionsE(%"class.ros::Publisher"* sret, %"class.ros::NodeHandle"*, %"struct.ros::AdvertiseOptions"* dereferenceable(136)) #0

; Function Attrs: inlinehint uwtable
define linkonce_odr void @_ZN3ros16AdvertiseOptionsD2Ev(%"struct.ros::AdvertiseOptions"* %this) unnamed_addr #7 comdat align 2 {
entry:
  %this.addr = alloca %"struct.ros::AdvertiseOptions"*, align 8
  %exn.slot = alloca i8*
  %ehselector.slot = alloca i32
  store %"struct.ros::AdvertiseOptions"* %this, %"struct.ros::AdvertiseOptions"** %this.addr, align 8
  call void @llvm.dbg.declare(metadata %"struct.ros::AdvertiseOptions"** %this.addr, metadata !8806, metadata !7540), !dbg !8807
  %this1 = load %"struct.ros::AdvertiseOptions"** %this.addr
  %tracked_object = getelementptr inbounds %"struct.ros::AdvertiseOptions"* %this1, i32 0, i32 9, !dbg !8808
  invoke void @_ZN5boost10shared_ptrIKvED2Ev(%"class.boost::shared_ptr.25"* %tracked_object)
          to label %invoke.cont unwind label %lpad, !dbg !8808

invoke.cont:                                      ; preds = %entry
  %disconnect_cb = getelementptr inbounds %"struct.ros::AdvertiseOptions"* %this1, i32 0, i32 7, !dbg !8810
  invoke void @_ZN5boost8functionIFvRKN3ros25SingleSubscriberPublisherEEED2Ev(%"class.boost::function"* %disconnect_cb)
          to label %invoke.cont3 unwind label %lpad2, !dbg !8810

invoke.cont3:                                     ; preds = %invoke.cont
  %connect_cb = getelementptr inbounds %"struct.ros::AdvertiseOptions"* %this1, i32 0, i32 6, !dbg !8812
  invoke void @_ZN5boost8functionIFvRKN3ros25SingleSubscriberPublisherEEED2Ev(%"class.boost::function"* %connect_cb)
          to label %invoke.cont7 unwind label %lpad6, !dbg !8812

invoke.cont7:                                     ; preds = %invoke.cont3
  %message_definition = getelementptr inbounds %"struct.ros::AdvertiseOptions"* %this1, i32 0, i32 5, !dbg !8814
  invoke void @_ZNSsD1Ev(%"class.std::basic_string"* %message_definition)
          to label %invoke.cont11 unwind label %lpad10, !dbg !8814

invoke.cont11:                                    ; preds = %invoke.cont7
  %datatype = getelementptr inbounds %"struct.ros::AdvertiseOptions"* %this1, i32 0, i32 4, !dbg !8816
  invoke void @_ZNSsD1Ev(%"class.std::basic_string"* %datatype)
          to label %invoke.cont16 unwind label %lpad15, !dbg !8816

invoke.cont16:                                    ; preds = %invoke.cont11
  %md5sum = getelementptr inbounds %"struct.ros::AdvertiseOptions"* %this1, i32 0, i32 3, !dbg !8818
  invoke void @_ZNSsD1Ev(%"class.std::basic_string"* %md5sum)
          to label %invoke.cont21 unwind label %lpad20, !dbg !8818

invoke.cont21:                                    ; preds = %invoke.cont16
  %topic = getelementptr inbounds %"struct.ros::AdvertiseOptions"* %this1, i32 0, i32 0, !dbg !8820
  call void @_ZNSsD1Ev(%"class.std::basic_string"* %topic), !dbg !8820
  ret void, !dbg !8822

lpad:                                             ; preds = %entry
  %0 = landingpad { i8*, i32 } personality i8* bitcast (i32 (...)* @__gxx_personality_v0 to i8*)
          cleanup, !dbg !8823
  %1 = extractvalue { i8*, i32 } %0, 0, !dbg !8823
  store i8* %1, i8** %exn.slot, !dbg !8823
  %2 = extractvalue { i8*, i32 } %0, 1, !dbg !8823
  store i32 %2, i32* %ehselector.slot, !dbg !8823
  %disconnect_cb4 = getelementptr inbounds %"struct.ros::AdvertiseOptions"* %this1, i32 0, i32 7, !dbg !8808
  invoke void @_ZN5boost8functionIFvRKN3ros25SingleSubscriberPublisherEEED2Ev(%"class.boost::function"* %disconnect_cb4)
          to label %invoke.cont5 unwind label %terminate.lpad, !dbg !8808

lpad2:                                            ; preds = %invoke.cont
  %3 = landingpad { i8*, i32 } personality i8* bitcast (i32 (...)* @__gxx_personality_v0 to i8*)
          cleanup, !dbg !8825
  %4 = extractvalue { i8*, i32 } %3, 0, !dbg !8825
  store i8* %4, i8** %exn.slot, !dbg !8825
  %5 = extractvalue { i8*, i32 } %3, 1, !dbg !8825
  store i32 %5, i32* %ehselector.slot, !dbg !8825
  br label %ehcleanup, !dbg !8825

invoke.cont5:                                     ; preds = %lpad
  br label %ehcleanup, !dbg !8827

lpad6:                                            ; preds = %invoke.cont3
  %6 = landingpad { i8*, i32 } personality i8* bitcast (i32 (...)* @__gxx_personality_v0 to i8*)
          cleanup, !dbg !8829
  %7 = extractvalue { i8*, i32 } %6, 0, !dbg !8829
  store i8* %7, i8** %exn.slot, !dbg !8829
  %8 = extractvalue { i8*, i32 } %6, 1, !dbg !8829
  store i32 %8, i32* %ehselector.slot, !dbg !8829
  br label %ehcleanup12, !dbg !8829

ehcleanup:                                        ; preds = %invoke.cont5, %lpad2
  %connect_cb8 = getelementptr inbounds %"struct.ros::AdvertiseOptions"* %this1, i32 0, i32 6, !dbg !8831
  invoke void @_ZN5boost8functionIFvRKN3ros25SingleSubscriberPublisherEEED2Ev(%"class.boost::function"* %connect_cb8)
          to label %invoke.cont9 unwind label %terminate.lpad, !dbg !8831

invoke.cont9:                                     ; preds = %ehcleanup
  br label %ehcleanup12, !dbg !8834

lpad10:                                           ; preds = %invoke.cont7
  %9 = landingpad { i8*, i32 } personality i8* bitcast (i32 (...)* @__gxx_personality_v0 to i8*)
          cleanup, !dbg !8836
  %10 = extractvalue { i8*, i32 } %9, 0, !dbg !8836
  store i8* %10, i8** %exn.slot, !dbg !8836
  %11 = extractvalue { i8*, i32 } %9, 1, !dbg !8836
  store i32 %11, i32* %ehselector.slot, !dbg !8836
  br label %ehcleanup17, !dbg !8836

ehcleanup12:                                      ; preds = %invoke.cont9, %lpad6
  %message_definition13 = getelementptr inbounds %"struct.ros::AdvertiseOptions"* %this1, i32 0, i32 5, !dbg !8838
  invoke void @_ZNSsD1Ev(%"class.std::basic_string"* %message_definition13)
          to label %invoke.cont14 unwind label %terminate.lpad, !dbg !8838

invoke.cont14:                                    ; preds = %ehcleanup12
  br label %ehcleanup17, !dbg !8841

lpad15:                                           ; preds = %invoke.cont11
  %12 = landingpad { i8*, i32 } personality i8* bitcast (i32 (...)* @__gxx_personality_v0 to i8*)
          cleanup, !dbg !8843
  %13 = extractvalue { i8*, i32 } %12, 0, !dbg !8843
  store i8* %13, i8** %exn.slot, !dbg !8843
  %14 = extractvalue { i8*, i32 } %12, 1, !dbg !8843
  store i32 %14, i32* %ehselector.slot, !dbg !8843
  br label %ehcleanup22, !dbg !8843

ehcleanup17:                                      ; preds = %invoke.cont14, %lpad10
  %datatype18 = getelementptr inbounds %"struct.ros::AdvertiseOptions"* %this1, i32 0, i32 4, !dbg !8845
  invoke void @_ZNSsD1Ev(%"class.std::basic_string"* %datatype18)
          to label %invoke.cont19 unwind label %terminate.lpad, !dbg !8845

invoke.cont19:                                    ; preds = %ehcleanup17
  br label %ehcleanup22, !dbg !8848

lpad20:                                           ; preds = %invoke.cont16
  %15 = landingpad { i8*, i32 } personality i8* bitcast (i32 (...)* @__gxx_personality_v0 to i8*)
          cleanup, !dbg !8850
  %16 = extractvalue { i8*, i32 } %15, 0, !dbg !8850
  store i8* %16, i8** %exn.slot, !dbg !8850
  %17 = extractvalue { i8*, i32 } %15, 1, !dbg !8850
  store i32 %17, i32* %ehselector.slot, !dbg !8850
  br label %ehcleanup25, !dbg !8850

ehcleanup22:                                      ; preds = %invoke.cont19, %lpad15
  %md5sum23 = getelementptr inbounds %"struct.ros::AdvertiseOptions"* %this1, i32 0, i32 3, !dbg !8852
  invoke void @_ZNSsD1Ev(%"class.std::basic_string"* %md5sum23)
          to label %invoke.cont24 unwind label %terminate.lpad, !dbg !8852

invoke.cont24:                                    ; preds = %ehcleanup22
  br label %ehcleanup25, !dbg !8855

ehcleanup25:                                      ; preds = %invoke.cont24, %lpad20
  %topic26 = getelementptr inbounds %"struct.ros::AdvertiseOptions"* %this1, i32 0, i32 0, !dbg !8857
  invoke void @_ZNSsD1Ev(%"class.std::basic_string"* %topic26)
          to label %invoke.cont27 unwind label %terminate.lpad, !dbg !8857

invoke.cont27:                                    ; preds = %ehcleanup25
  br label %eh.resume, !dbg !8860

eh.resume:                                        ; preds = %invoke.cont27
  %exn = load i8** %exn.slot, !dbg !8862
  %sel = load i32* %ehselector.slot, !dbg !8862
  %lpad.val = insertvalue { i8*, i32 } undef, i8* %exn, 0, !dbg !8862
  %lpad.val28 = insertvalue { i8*, i32 } %lpad.val, i32 %sel, 1, !dbg !8862
  resume { i8*, i32 } %lpad.val28, !dbg !8862

terminate.lpad:                                   ; preds = %ehcleanup25, %ehcleanup22, %ehcleanup17, %ehcleanup12, %ehcleanup, %lpad
  %18 = landingpad { i8*, i32 } personality i8* bitcast (i32 (...)* @__gxx_personality_v0 to i8*)
          catch i8* null, !dbg !8864
  %19 = extractvalue { i8*, i32 } %18, 0, !dbg !8864
  call void @__clang_call_terminate(i8* %19) #13, !dbg !8864
  unreachable, !dbg !8864
}

; Function Attrs: uwtable
define linkonce_odr void @_ZN5boost10shared_ptrIKvEC2Ev(%"class.boost::shared_ptr.25"* %this) unnamed_addr #3 comdat align 2 {
entry:
  %this.addr = alloca %"class.boost::shared_ptr.25"*, align 8
  store %"class.boost::shared_ptr.25"* %this, %"class.boost::shared_ptr.25"** %this.addr, align 8
  call void @llvm.dbg.declare(metadata %"class.boost::shared_ptr.25"** %this.addr, metadata !8871, metadata !7540), !dbg !8873
  %this1 = load %"class.boost::shared_ptr.25"** %this.addr
  %px = getelementptr inbounds %"class.boost::shared_ptr.25"* %this1, i32 0, i32 0, !dbg !8874
  store i8* null, i8** %px, align 8, !dbg !8874
  %pn = getelementptr inbounds %"class.boost::shared_ptr.25"* %this1, i32 0, i32 1, !dbg !8875
  call void @_ZN5boost6detail12shared_countC2Ev(%"class.boost::detail::shared_count"* %pn), !dbg !8875
  ret void, !dbg !8876
}

; Function Attrs: nounwind uwtable
define linkonce_odr void @_ZN5boost6detail12shared_countC2Ev(%"class.boost::detail::shared_count"* %this) unnamed_addr #2 comdat align 2 {
entry:
  %this.addr = alloca %"class.boost::detail::shared_count"*, align 8
  store %"class.boost::detail::shared_count"* %this, %"class.boost::detail::shared_count"** %this.addr, align 8
  call void @llvm.dbg.declare(metadata %"class.boost::detail::shared_count"** %this.addr, metadata !8877, metadata !7540), !dbg !8878
  %this1 = load %"class.boost::detail::shared_count"** %this.addr
  %pi_ = getelementptr inbounds %"class.boost::detail::shared_count"* %this1, i32 0, i32 0, !dbg !8879
  store %"class.boost::detail::sp_counted_base"* null, %"class.boost::detail::sp_counted_base"** %pi_, align 8, !dbg !8879
  ret void, !dbg !8880
}

; Function Attrs: uwtable
define linkonce_odr dereferenceable(32) %"class.boost::function"* @_ZN5boost8functionIFvRKN3ros25SingleSubscriberPublisherEEEaSERKS6_(%"class.boost::function"* %this, %"class.boost::function"* dereferenceable(32) %f) #3 comdat align 2 {
entry:
  %this.addr = alloca %"class.boost::function"*, align 8
  %f.addr = alloca %"class.boost::function"*, align 8
  %temp.lvalue = alloca %"class.boost::function", align 8
  %exn.slot = alloca i8*
  %ehselector.slot = alloca i32
  store %"class.boost::function"* %this, %"class.boost::function"** %this.addr, align 8
  call void @llvm.dbg.declare(metadata %"class.boost::function"** %this.addr, metadata !8881, metadata !7540), !dbg !8882
  store %"class.boost::function"* %f, %"class.boost::function"** %f.addr, align 8
  call void @llvm.dbg.declare(metadata %"class.boost::function"** %f.addr, metadata !8883, metadata !7540), !dbg !8884
  %this1 = load %"class.boost::function"** %this.addr
  %0 = load %"class.boost::function"** %f.addr, align 8, !dbg !8885
  call void @_ZN5boost8functionIFvRKN3ros25SingleSubscriberPublisherEEEC2ERKS6_(%"class.boost::function"* %temp.lvalue, %"class.boost::function"* dereferenceable(32) %0), !dbg !8886
  %1 = bitcast %"class.boost::function"* %temp.lvalue to %"class.boost::function1"*, !dbg !8886
  %2 = bitcast %"class.boost::function"* %this1 to %"class.boost::function1"*, !dbg !8887
  invoke void @_ZN5boost9function1IvRKN3ros25SingleSubscriberPublisherEE4swapERS5_(%"class.boost::function1"* %1, %"class.boost::function1"* dereferenceable(32) %2)
          to label %invoke.cont unwind label %lpad, !dbg !8886

invoke.cont:                                      ; preds = %entry
  call void @_ZN5boost8functionIFvRKN3ros25SingleSubscriberPublisherEEED2Ev(%"class.boost::function"* %temp.lvalue), !dbg !8888
  ret %"class.boost::function"* %this1, !dbg !8890

lpad:                                             ; preds = %entry
  %3 = landingpad { i8*, i32 } personality i8* bitcast (i32 (...)* @__gxx_personality_v0 to i8*)
          cleanup, !dbg !8891
  %4 = extractvalue { i8*, i32 } %3, 0, !dbg !8891
  store i8* %4, i8** %exn.slot, !dbg !8891
  %5 = extractvalue { i8*, i32 } %3, 1, !dbg !8891
  store i32 %5, i32* %ehselector.slot, !dbg !8891
  invoke void @_ZN5boost8functionIFvRKN3ros25SingleSubscriberPublisherEEED2Ev(%"class.boost::function"* %temp.lvalue)
          to label %invoke.cont2 unwind label %terminate.lpad, !dbg !8886

