; ModuleID = 'no_ros_instrument.cpp'
target datalayout = "e-m:o-i64:64-f80:128-n8:16:32:64-S128"
target triple = "x86_64-apple-macosx10.10.0"

%"class.std::__1::basic_ostream" = type { i32 (...)**, %"class.std::__1::basic_ios" }
%"class.std::__1::basic_ios" = type { %"class.std::__1::ios_base", %"class.std::__1::basic_ostream"*, i32 }
%"class.std::__1::ios_base" = type { i32 (...)**, i32, i64, i64, i32, i32, i8*, i8*, void (i32, %"class.std::__1::ios_base"*, i32)**, i32*, i64, i64, i64*, i64, i64, i8**, i64, i64 }
%"class.std::__1::locale::id" = type { %"struct.std::__1::once_flag", i32 }
%"struct.std::__1::once_flag" = type { i64 }
%"class.std::__1::__libcpp_compressed_pair_imp" = type { %"struct.std::__1::basic_string<char, std::__1::char_traits<char>, std::__1::allocator<char> >::__rep" }
%"struct.std::__1::basic_string<char, std::__1::char_traits<char>, std::__1::allocator<char> >::__rep" = type { %union.anon }
%union.anon = type { %"struct.std::__1::basic_string<char, std::__1::char_traits<char>, std::__1::allocator<char> >::__long" }
%"struct.std::__1::basic_string<char, std::__1::char_traits<char>, std::__1::allocator<char> >::__long" = type { i64, i64, i8* }
%"class.std::__1::__compressed_pair" = type { %"class.std::__1::__libcpp_compressed_pair_imp" }
%"class.std::__1::basic_string" = type { %"class.std::__1::__compressed_pair" }
%"class.std::__1::basic_stringstream" = type { %"class.std::__1::basic_iostream.base", %"class.std::__1::basic_stringbuf", %"class.std::__1::basic_ios" }
%"class.std::__1::basic_iostream.base" = type { %"class.std::__1::basic_istream.base", %"class.std::__1::basic_ostream.base" }
%"class.std::__1::basic_istream.base" = type { i32 (...)**, i64 }
%"class.std::__1::basic_ostream.base" = type { i32 (...)** }
%"class.std::__1::basic_stringbuf" = type { %"class.std::__1::basic_streambuf", %"class.std::__1::basic_string", i8*, i32 }
%"class.std::__1::basic_streambuf" = type { i32 (...)**, %"class.std::__1::locale", i8*, i8*, i8*, i8*, i8*, i8* }
%"class.std::__1::locale" = type { %"class.std::__1::locale::__imp"* }
%"class.std::__1::locale::__imp" = type opaque
%"class.std::__1::allocator" = type { i8 }
%"class.std::__1::basic_istream" = type { i32 (...)**, i64, %"class.std::__1::basic_ios" }
%"class.std::__1::basic_iostream" = type { %"class.std::__1::basic_istream.base", %"class.std::__1::basic_ostream.base", %"class.std::__1::basic_ios" }
%"class.std::__1::__basic_string_common" = type { i8 }
%"struct.std::__1::basic_string<char, std::__1::char_traits<char>, std::__1::allocator<char> >::__raw" = type { [3 x i64] }
%"struct.std::__1::basic_string<char, std::__1::char_traits<char>, std::__1::allocator<char> >::__short" = type { %union.anon.0, [23 x i8] }
%union.anon.0 = type { i8 }
%"struct.std::__1::integral_constant" = type { i8 }
%"struct.std::__1::__has_max_size" = type { i8 }
%"struct.std::__1::random_access_iterator_tag" = type { i8 }
%"class.std::__1::ctype" = type { %"class.std::__1::locale::facet", i32*, i8 }
%"class.std::__1::locale::facet" = type { %"class.std::__1::__shared_count" }
%"class.std::__1::__shared_count" = type { i32 (...)**, i64 }
%"class.std::__1::ostreambuf_iterator" = type { %"class.std::__1::basic_streambuf"* }
%"class.std::__1::basic_ostream<char, std::__1::char_traits<char> >::sentry" = type { i8, %"class.std::__1::basic_ostream"* }
%"struct.std::__1::iterator" = type { i8 }
%"struct.std::__1::nullptr_t" = type { i8* }
%"class.std::__1::fpos" = type { %union.__mbstate_t, i64 }
%union.__mbstate_t = type { i64, [120 x i8] }
%"struct.std::__1::__less" = type { i8 }

@.str = private unnamed_addr constant [2 x i8] c",\00", align 1
@.str1 = private unnamed_addr constant [8 x i8] c",comp1,\00", align 1
@.str2 = private unnamed_addr constant [10 x i8] c",thresh1,\00", align 1
@.str3 = private unnamed_addr constant [7 x i8] c",res1,\00", align 1
@_ZNSt3__14coutE = external global %"class.std::__1::basic_ostream"
@.str4 = private unnamed_addr constant [23 x i8] c"threshold_information:\00", align 1
@.str5 = private unnamed_addr constant [5 x i8] c"asdf\00", align 1
@_ZNSt3__15ctypeIcE2idE = external global %"class.std::__1::locale::id"
@_ZTVNSt3__118basic_stringstreamIcNS_11char_traitsIcEENS_9allocatorIcEEEE = linkonce_odr unnamed_addr constant [15 x i8*] [i8* inttoptr (i64 128 to i8*), i8* null, i8* bitcast ({ i8*, i8*, i8* }* @_ZTINSt3__118basic_stringstreamIcNS_11char_traitsIcEENS_9allocatorIcEEEE to i8*), i8* bitcast (void (%"class.std::__1::basic_stringstream"*)* @_ZNSt3__118basic_stringstreamIcNS_11char_traitsIcEENS_9allocatorIcEEED1Ev to i8*), i8* bitcast (void (%"class.std::__1::basic_stringstream"*)* @_ZNSt3__118basic_stringstreamIcNS_11char_traitsIcEENS_9allocatorIcEEED0Ev to i8*), i8* inttoptr (i64 112 to i8*), i8* inttoptr (i64 -16 to i8*), i8* bitcast ({ i8*, i8*, i8* }* @_ZTINSt3__118basic_stringstreamIcNS_11char_traitsIcEENS_9allocatorIcEEEE to i8*), i8* bitcast (void (%"class.std::__1::basic_stringstream"*)* @_ZThn16_NSt3__118basic_stringstreamIcNS_11char_traitsIcEENS_9allocatorIcEEED1Ev to i8*), i8* bitcast (void (%"class.std::__1::basic_stringstream"*)* @_ZThn16_NSt3__118basic_stringstreamIcNS_11char_traitsIcEENS_9allocatorIcEEED0Ev to i8*), i8* inttoptr (i64 -128 to i8*), i8* inttoptr (i64 -128 to i8*), i8* bitcast ({ i8*, i8*, i8* }* @_ZTINSt3__118basic_stringstreamIcNS_11char_traitsIcEENS_9allocatorIcEEEE to i8*), i8* bitcast (void (%"class.std::__1::basic_stringstream"*)* @_ZTv0_n24_NSt3__118basic_stringstreamIcNS_11char_traitsIcEENS_9allocatorIcEEED1Ev to i8*), i8* bitcast (void (%"class.std::__1::basic_stringstream"*)* @_ZTv0_n24_NSt3__118basic_stringstreamIcNS_11char_traitsIcEENS_9allocatorIcEEED0Ev to i8*)]
@_ZTTNSt3__118basic_stringstreamIcNS_11char_traitsIcEENS_9allocatorIcEEEE = linkonce_odr unnamed_addr constant [10 x i8*] [i8* bitcast (i8** getelementptr inbounds ([15 x i8*]* @_ZTVNSt3__118basic_stringstreamIcNS_11char_traitsIcEENS_9allocatorIcEEEE, i64 0, i64 3) to i8*), i8* bitcast (i8** getelementptr inbounds ([15 x i8*]* @_ZTCNSt3__118basic_stringstreamIcNS_11char_traitsIcEENS_9allocatorIcEEEE0_NS_14basic_iostreamIcS2_EE, i64 0, i64 3) to i8*), i8* bitcast (i8** getelementptr inbounds ([10 x i8*]* @_ZTCNSt3__118basic_stringstreamIcNS_11char_traitsIcEENS_9allocatorIcEEEE0_NS_13basic_istreamIcS2_EE, i64 0, i64 3) to i8*), i8* bitcast (i8** getelementptr inbounds ([10 x i8*]* @_ZTCNSt3__118basic_stringstreamIcNS_11char_traitsIcEENS_9allocatorIcEEEE0_NS_13basic_istreamIcS2_EE, i64 0, i64 8) to i8*), i8* bitcast (i8** getelementptr inbounds ([10 x i8*]* @_ZTCNSt3__118basic_stringstreamIcNS_11char_traitsIcEENS_9allocatorIcEEEE16_NS_13basic_ostreamIcS2_EE, i64 0, i64 3) to i8*), i8* bitcast (i8** getelementptr inbounds ([10 x i8*]* @_ZTCNSt3__118basic_stringstreamIcNS_11char_traitsIcEENS_9allocatorIcEEEE16_NS_13basic_ostreamIcS2_EE, i64 0, i64 8) to i8*), i8* bitcast (i8** getelementptr inbounds ([15 x i8*]* @_ZTCNSt3__118basic_stringstreamIcNS_11char_traitsIcEENS_9allocatorIcEEEE0_NS_14basic_iostreamIcS2_EE, i64 0, i64 13) to i8*), i8* bitcast (i8** getelementptr inbounds ([15 x i8*]* @_ZTCNSt3__118basic_stringstreamIcNS_11char_traitsIcEENS_9allocatorIcEEEE0_NS_14basic_iostreamIcS2_EE, i64 0, i64 8) to i8*), i8* bitcast (i8** getelementptr inbounds ([15 x i8*]* @_ZTVNSt3__118basic_stringstreamIcNS_11char_traitsIcEENS_9allocatorIcEEEE, i64 0, i64 13) to i8*), i8* bitcast (i8** getelementptr inbounds ([15 x i8*]* @_ZTVNSt3__118basic_stringstreamIcNS_11char_traitsIcEENS_9allocatorIcEEEE, i64 0, i64 8) to i8*)]
@_ZTCNSt3__118basic_stringstreamIcNS_11char_traitsIcEENS_9allocatorIcEEEE0_NS_14basic_iostreamIcS2_EE = linkonce_odr unnamed_addr constant [15 x i8*] [i8* inttoptr (i64 128 to i8*), i8* null, i8* bitcast (i8** @_ZTINSt3__114basic_iostreamIcNS_11char_traitsIcEEEE to i8*), i8* bitcast (void (%"class.std::__1::basic_iostream"*)* @_ZNSt3__114basic_iostreamIcNS_11char_traitsIcEEED1Ev to i8*), i8* bitcast (void (%"class.std::__1::basic_iostream"*)* @_ZNSt3__114basic_iostreamIcNS_11char_traitsIcEEED0Ev to i8*), i8* inttoptr (i64 112 to i8*), i8* inttoptr (i64 -16 to i8*), i8* bitcast (i8** @_ZTINSt3__114basic_iostreamIcNS_11char_traitsIcEEEE to i8*), i8* bitcast (void (%"class.std::__1::basic_iostream"*)* @_ZThn16_NSt3__114basic_iostreamIcNS_11char_traitsIcEEED1Ev to i8*), i8* bitcast (void (%"class.std::__1::basic_iostream"*)* @_ZThn16_NSt3__114basic_iostreamIcNS_11char_traitsIcEEED0Ev to i8*), i8* inttoptr (i64 -128 to i8*), i8* inttoptr (i64 -128 to i8*), i8* bitcast (i8** @_ZTINSt3__114basic_iostreamIcNS_11char_traitsIcEEEE to i8*), i8* bitcast (void (%"class.std::__1::basic_iostream"*)* @_ZTv0_n24_NSt3__114basic_iostreamIcNS_11char_traitsIcEEED1Ev to i8*), i8* bitcast (void (%"class.std::__1::basic_iostream"*)* @_ZTv0_n24_NSt3__114basic_iostreamIcNS_11char_traitsIcEEED0Ev to i8*)]
@_ZTINSt3__114basic_iostreamIcNS_11char_traitsIcEEEE = external constant i8*
@_ZTCNSt3__118basic_stringstreamIcNS_11char_traitsIcEENS_9allocatorIcEEEE0_NS_13basic_istreamIcS2_EE = linkonce_odr unnamed_addr constant [10 x i8*] [i8* inttoptr (i64 128 to i8*), i8* null, i8* bitcast (i8** @_ZTINSt3__113basic_istreamIcNS_11char_traitsIcEEEE to i8*), i8* bitcast (void (%"class.std::__1::basic_istream"*)* @_ZNSt3__113basic_istreamIcNS_11char_traitsIcEEED1Ev to i8*), i8* bitcast (void (%"class.std::__1::basic_istream"*)* @_ZNSt3__113basic_istreamIcNS_11char_traitsIcEEED0Ev to i8*), i8* inttoptr (i64 -128 to i8*), i8* inttoptr (i64 -128 to i8*), i8* bitcast (i8** @_ZTINSt3__113basic_istreamIcNS_11char_traitsIcEEEE to i8*), i8* bitcast (void (%"class.std::__1::basic_istream"*)* @_ZTv0_n24_NSt3__113basic_istreamIcNS_11char_traitsIcEEED1Ev to i8*), i8* bitcast (void (%"class.std::__1::basic_istream"*)* @_ZTv0_n24_NSt3__113basic_istreamIcNS_11char_traitsIcEEED0Ev to i8*)]
@_ZTINSt3__113basic_istreamIcNS_11char_traitsIcEEEE = external constant i8*
@_ZTCNSt3__118basic_stringstreamIcNS_11char_traitsIcEENS_9allocatorIcEEEE16_NS_13basic_ostreamIcS2_EE = linkonce_odr unnamed_addr constant [10 x i8*] [i8* inttoptr (i64 112 to i8*), i8* null, i8* bitcast (i8** @_ZTINSt3__113basic_ostreamIcNS_11char_traitsIcEEEE to i8*), i8* bitcast (void (%"class.std::__1::basic_ostream"*)* @_ZNSt3__113basic_ostreamIcNS_11char_traitsIcEEED1Ev to i8*), i8* bitcast (void (%"class.std::__1::basic_ostream"*)* @_ZNSt3__113basic_ostreamIcNS_11char_traitsIcEEED0Ev to i8*), i8* inttoptr (i64 -112 to i8*), i8* inttoptr (i64 -112 to i8*), i8* bitcast (i8** @_ZTINSt3__113basic_ostreamIcNS_11char_traitsIcEEEE to i8*), i8* bitcast (void (%"class.std::__1::basic_ostream"*)* @_ZTv0_n24_NSt3__113basic_ostreamIcNS_11char_traitsIcEEED1Ev to i8*), i8* bitcast (void (%"class.std::__1::basic_ostream"*)* @_ZTv0_n24_NSt3__113basic_ostreamIcNS_11char_traitsIcEEED0Ev to i8*)]
@_ZTINSt3__113basic_ostreamIcNS_11char_traitsIcEEEE = external constant i8*
@_ZTVN10__cxxabiv120__si_class_type_infoE = external global i8*
@_ZTSNSt3__118basic_stringstreamIcNS_11char_traitsIcEENS_9allocatorIcEEEE = linkonce_odr constant [69 x i8] c"NSt3__118basic_stringstreamIcNS_11char_traitsIcEENS_9allocatorIcEEEE\00"
@_ZTINSt3__118basic_stringstreamIcNS_11char_traitsIcEENS_9allocatorIcEEEE = linkonce_odr constant { i8*, i8*, i8* } { i8* bitcast (i8** getelementptr inbounds (i8** @_ZTVN10__cxxabiv120__si_class_type_infoE, i64 2) to i8*), i8* getelementptr inbounds ([69 x i8]* @_ZTSNSt3__118basic_stringstreamIcNS_11char_traitsIcEENS_9allocatorIcEEEE, i32 0, i32 0), i8* bitcast (i8** @_ZTINSt3__114basic_iostreamIcNS_11char_traitsIcEEEE to i8*) }
@_ZTVNSt3__115basic_stringbufIcNS_11char_traitsIcEENS_9allocatorIcEEEE = linkonce_odr unnamed_addr constant [16 x i8*] [i8* null, i8* bitcast ({ i8*, i8*, i8* }* @_ZTINSt3__115basic_stringbufIcNS_11char_traitsIcEENS_9allocatorIcEEEE to i8*), i8* bitcast (void (%"class.std::__1::basic_stringbuf"*)* @_ZNSt3__115basic_stringbufIcNS_11char_traitsIcEENS_9allocatorIcEEED1Ev to i8*), i8* bitcast (void (%"class.std::__1::basic_stringbuf"*)* @_ZNSt3__115basic_stringbufIcNS_11char_traitsIcEENS_9allocatorIcEEED0Ev to i8*), i8* bitcast (void (%"class.std::__1::basic_streambuf"*, %"class.std::__1::locale"*)* @_ZNSt3__115basic_streambufIcNS_11char_traitsIcEEE5imbueERKNS_6localeE to i8*), i8* bitcast (%"class.std::__1::basic_streambuf"* (%"class.std::__1::basic_streambuf"*, i8*, i64)* @_ZNSt3__115basic_streambufIcNS_11char_traitsIcEEE6setbufEPcl to i8*), i8* bitcast (void (%"class.std::__1::fpos"*, %"class.std::__1::basic_stringbuf"*, i64, i32, i32)* @_ZNSt3__115basic_stringbufIcNS_11char_traitsIcEENS_9allocatorIcEEE7seekoffExNS_8ios_base7seekdirEj to i8*), i8* bitcast (void (%"class.std::__1::fpos"*, %"class.std::__1::basic_stringbuf"*, %"class.std::__1::fpos"*, i32)* @_ZNSt3__115basic_stringbufIcNS_11char_traitsIcEENS_9allocatorIcEEE7seekposENS_4fposI11__mbstate_tEEj to i8*), i8* bitcast (i32 (%"class.std::__1::basic_streambuf"*)* @_ZNSt3__115basic_streambufIcNS_11char_traitsIcEEE4syncEv to i8*), i8* bitcast (i64 (%"class.std::__1::basic_streambuf"*)* @_ZNSt3__115basic_streambufIcNS_11char_traitsIcEEE9showmanycEv to i8*), i8* bitcast (i64 (%"class.std::__1::basic_streambuf"*, i8*, i64)* @_ZNSt3__115basic_streambufIcNS_11char_traitsIcEEE6xsgetnEPcl to i8*), i8* bitcast (i32 (%"class.std::__1::basic_stringbuf"*)* @_ZNSt3__115basic_stringbufIcNS_11char_traitsIcEENS_9allocatorIcEEE9underflowEv to i8*), i8* bitcast (i32 (%"class.std::__1::basic_streambuf"*)* @_ZNSt3__115basic_streambufIcNS_11char_traitsIcEEE5uflowEv to i8*), i8* bitcast (i32 (%"class.std::__1::basic_stringbuf"*, i32)* @_ZNSt3__115basic_stringbufIcNS_11char_traitsIcEENS_9allocatorIcEEE9pbackfailEi to i8*), i8* bitcast (i64 (%"class.std::__1::basic_streambuf"*, i8*, i64)* @_ZNSt3__115basic_streambufIcNS_11char_traitsIcEEE6xsputnEPKcl to i8*), i8* bitcast (i32 (%"class.std::__1::basic_stringbuf"*, i32)* @_ZNSt3__115basic_stringbufIcNS_11char_traitsIcEENS_9allocatorIcEEE8overflowEi to i8*)]
@_ZTSNSt3__115basic_stringbufIcNS_11char_traitsIcEENS_9allocatorIcEEEE = linkonce_odr constant [66 x i8] c"NSt3__115basic_stringbufIcNS_11char_traitsIcEENS_9allocatorIcEEEE\00"
@_ZTINSt3__115basic_streambufIcNS_11char_traitsIcEEEE = external constant i8*
@_ZTINSt3__115basic_stringbufIcNS_11char_traitsIcEENS_9allocatorIcEEEE = linkonce_odr constant { i8*, i8*, i8* } { i8* bitcast (i8** getelementptr inbounds (i8** @_ZTVN10__cxxabiv120__si_class_type_infoE, i64 2) to i8*), i8* getelementptr inbounds ([66 x i8]* @_ZTSNSt3__115basic_stringbufIcNS_11char_traitsIcEENS_9allocatorIcEEEE, i32 0, i32 0), i8* bitcast (i8** @_ZTINSt3__115basic_streambufIcNS_11char_traitsIcEEEE to i8*) }
@_ZTVNSt3__19basic_iosIcNS_11char_traitsIcEEEE = external unnamed_addr constant [4 x i8*]
@_ZTVNSt3__18ios_baseE = external unnamed_addr constant [4 x i8*]

; Function Attrs: ssp uwtable
define void @_Z7log_onePcbddb(i8* %key, i1 zeroext %res, double %c1, double %t1, i1 zeroext %r1) #0 {
  %1 = alloca i8*, align 8
  %2 = alloca %"class.std::__1::__libcpp_compressed_pair_imp"*, align 8
  %3 = alloca %"class.std::__1::__compressed_pair"*, align 8
  %4 = alloca %"class.std::__1::basic_string"*, align 8
  %5 = alloca i8*, align 8
  %6 = alloca i8*, align 8
  %7 = alloca %"class.std::__1::__libcpp_compressed_pair_imp"*, align 8
  %8 = alloca %"class.std::__1::__compressed_pair"*, align 8
  %9 = alloca %"class.std::__1::basic_string"*, align 8
  %10 = alloca %"class.std::__1::__libcpp_compressed_pair_imp"*, align 8
  %11 = alloca %"class.std::__1::__compressed_pair"*, align 8
  %12 = alloca %"class.std::__1::basic_string"*, align 8
  %13 = alloca %"class.std::__1::basic_string"*, align 8
  %14 = alloca %"class.std::__1::basic_string"*, align 8
  %15 = alloca %"class.std::__1::basic_string"*, align 8
  %16 = alloca %"class.std::__1::basic_stringstream"*, align 8
  %17 = alloca %"class.std::__1::__libcpp_compressed_pair_imp"*, align 8
  %18 = alloca %"class.std::__1::__compressed_pair"*, align 8
  %19 = alloca %"class.std::__1::basic_string"*, align 8
  %__a.i.i.i1.i.i.i = alloca [3 x i64]*, align 8
  %__i.i.i.i2.i.i.i = alloca i32, align 4
  %20 = alloca %"class.std::__1::allocator"*, align 8
  %21 = alloca %"class.std::__1::__libcpp_compressed_pair_imp"*, align 8
  %22 = alloca %"class.std::__1::__compressed_pair"*, align 8
  %23 = alloca %"class.std::__1::__compressed_pair"*, align 8
  %24 = alloca %"class.std::__1::basic_string"*, align 8
  %25 = alloca %"class.std::__1::basic_string"*, align 8
  %26 = alloca %"class.std::__1::__libcpp_compressed_pair_imp"*, align 8
  %27 = alloca %"class.std::__1::__compressed_pair"*, align 8
  %28 = alloca %"class.std::__1::basic_string"*, align 8
  %__a.i.i.i.i.i.i = alloca [3 x i64]*, align 8
  %__i.i.i.i.i.i.i = alloca i32, align 4
  %29 = alloca %"class.std::__1::allocator"*, align 8
  %30 = alloca %"class.std::__1::__libcpp_compressed_pair_imp"*, align 8
  %31 = alloca %"class.std::__1::__compressed_pair"*, align 8
  %32 = alloca %"class.std::__1::__compressed_pair"*, align 8
  %33 = alloca %"class.std::__1::basic_string"*, align 8
  %34 = alloca %"class.std::__1::basic_string"*, align 8
  %35 = alloca %"class.std::__1::basic_stringbuf"*, align 8
  %36 = alloca i32, align 4
  %37 = alloca i8*
  %38 = alloca i32
  %39 = alloca %"class.std::__1::basic_string", align 8
  %40 = alloca %"class.std::__1::basic_stringbuf"*, align 8
  %41 = alloca i32, align 4
  %42 = alloca %"class.std::__1::basic_ostream"*, align 8
  %43 = alloca i8**, align 8
  %44 = alloca %"class.std::__1::basic_ios"*, align 8
  %45 = alloca %"class.std::__1::basic_streambuf"*, align 8
  %46 = alloca %"class.std::__1::basic_istream"*, align 8
  %47 = alloca i8**, align 8
  %48 = alloca %"class.std::__1::basic_streambuf"*, align 8
  %49 = alloca %"class.std::__1::basic_iostream"*, align 8
  %50 = alloca i8**, align 8
  %51 = alloca %"class.std::__1::basic_streambuf"*, align 8
  %52 = alloca i8*
  %53 = alloca i32
  %54 = alloca %"class.std::__1::ios_base"*, align 8
  %55 = alloca %"class.std::__1::basic_ios"*, align 8
  %56 = alloca %"class.std::__1::basic_stringstream"*, align 8
  %57 = alloca i32, align 4
  %58 = alloca i8*
  %59 = alloca i32
  %60 = alloca i8*, align 8
  %61 = alloca i8, align 1
  %62 = alloca double, align 8
  %63 = alloca double, align 8
  %64 = alloca i8, align 1
  %ss = alloca %"class.std::__1::basic_stringstream", align 8
  %65 = alloca i8*
  %66 = alloca i32
  %67 = alloca %"class.std::__1::basic_string", align 8
  store i8* %key, i8** %60, align 8
  call void @llvm.dbg.declare(metadata !{i8** %60}, metadata !2554), !dbg !2555
  %68 = zext i1 %res to i8
  store i8 %68, i8* %61, align 1
  call void @llvm.dbg.declare(metadata !{i8* %61}, metadata !2556), !dbg !2555
  store double %c1, double* %62, align 8
  call void @llvm.dbg.declare(metadata !{double* %62}, metadata !2557), !dbg !2555
  store double %t1, double* %63, align 8
  call void @llvm.dbg.declare(metadata !{double* %63}, metadata !2558), !dbg !2555
  %69 = zext i1 %r1 to i8
  store i8 %69, i8* %64, align 1
  call void @llvm.dbg.declare(metadata !{i8* %64}, metadata !2559), !dbg !2555
  call void @llvm.dbg.declare(metadata !{%"class.std::__1::basic_stringstream"* %ss}, metadata !2560), !dbg !2562
  store %"class.std::__1::basic_stringstream"* %ss, %"class.std::__1::basic_stringstream"** %56, align 8
  call void @llvm.dbg.declare(metadata !{%"class.std::__1::basic_stringstream"** %56}, metadata !2563), !dbg !2565
  store i32 24, i32* %57, align 4
  call void @llvm.dbg.declare(metadata !{i32* %57}, metadata !2566), !dbg !2568
  %70 = load %"class.std::__1::basic_stringstream"** %56
  %71 = bitcast %"class.std::__1::basic_stringstream"* %70 to i8*, !dbg !2569
  %72 = getelementptr inbounds i8* %71, i64 128, !dbg !2569
  %73 = bitcast i8* %72 to %"class.std::__1::basic_ios"*, !dbg !2569
  store %"class.std::__1::basic_ios"* %73, %"class.std::__1::basic_ios"** %55, align 8
  call void @llvm.dbg.declare(metadata !{%"class.std::__1::basic_ios"** %55}, metadata !2571), !dbg !2573
  %74 = load %"class.std::__1::basic_ios"** %55
  %75 = bitcast %"class.std::__1::basic_ios"* %74 to %"class.std::__1::ios_base"*, !dbg !2574
  store %"class.std::__1::ios_base"* %75, %"class.std::__1::ios_base"** %54, align 8
  call void @llvm.dbg.declare(metadata !{%"class.std::__1::ios_base"** %54}, metadata !2575), !dbg !2577
  %76 = load %"class.std::__1::ios_base"** %54
  %77 = bitcast %"class.std::__1::ios_base"* %76 to i8***, !dbg !2578
  store i8** getelementptr inbounds ([4 x i8*]* @_ZTVNSt3__18ios_baseE, i64 0, i64 2), i8*** %77, !dbg !2578
  %78 = bitcast %"class.std::__1::basic_ios"* %74 to i8***, !dbg !2574
  store i8** getelementptr inbounds ([4 x i8*]* @_ZTVNSt3__19basic_iosIcNS_11char_traitsIcEEEE, i64 0, i64 2), i8*** %78, !dbg !2574
  %79 = bitcast %"class.std::__1::basic_stringstream"* %70 to i8***, !dbg !2569
  store i8** getelementptr inbounds ([15 x i8*]* @_ZTVNSt3__118basic_stringstreamIcNS_11char_traitsIcEENS_9allocatorIcEEEE, i64 0, i64 3), i8*** %79, !dbg !2569
  %80 = bitcast %"class.std::__1::basic_stringstream"* %70 to i8*, !dbg !2569
  %81 = getelementptr inbounds i8* %80, i64 128, !dbg !2569
  %82 = bitcast i8* %81 to i8***, !dbg !2569
  store i8** getelementptr inbounds ([15 x i8*]* @_ZTVNSt3__118basic_stringstreamIcNS_11char_traitsIcEENS_9allocatorIcEEEE, i64 0, i64 13), i8*** %82, !dbg !2569
  %83 = bitcast %"class.std::__1::basic_stringstream"* %70 to i8*, !dbg !2569
  %84 = getelementptr inbounds i8* %83, i64 16, !dbg !2569
  %85 = bitcast i8* %84 to i8***, !dbg !2569
  store i8** getelementptr inbounds ([15 x i8*]* @_ZTVNSt3__118basic_stringstreamIcNS_11char_traitsIcEENS_9allocatorIcEEEE, i64 0, i64 8), i8*** %85, !dbg !2569
  %86 = bitcast %"class.std::__1::basic_stringstream"* %70 to %"class.std::__1::basic_iostream"*, !dbg !2569
  %87 = getelementptr inbounds %"class.std::__1::basic_stringstream"* %70, i32 0, i32 1, !dbg !2569
  %88 = bitcast %"class.std::__1::basic_stringbuf"* %87 to %"class.std::__1::basic_streambuf"*, !dbg !2569
  store %"class.std::__1::basic_iostream"* %86, %"class.std::__1::basic_iostream"** %49, align 8
  call void @llvm.dbg.declare(metadata !{%"class.std::__1::basic_iostream"** %49}, metadata !2579), !dbg !2581
  store i8** getelementptr inbounds ([10 x i8*]* @_ZTTNSt3__118basic_stringstreamIcNS_11char_traitsIcEENS_9allocatorIcEEEE, i64 0, i64 1), i8*** %50, align 8
  call void @llvm.dbg.declare(metadata !{i8*** %50}, metadata !2582), !dbg !2581
  store %"class.std::__1::basic_streambuf"* %88, %"class.std::__1::basic_streambuf"** %51, align 8
  call void @llvm.dbg.declare(metadata !{%"class.std::__1::basic_streambuf"** %51}, metadata !2583), !dbg !2584
  %89 = load %"class.std::__1::basic_iostream"** %49
  %90 = load i8*** %50
  %91 = bitcast %"class.std::__1::basic_iostream"* %89 to %"class.std::__1::basic_istream"*, !dbg !2585
  %92 = load %"class.std::__1::basic_streambuf"** %51, align 8, !dbg !2585
  %93 = getelementptr inbounds i8** %90, i64 1, !dbg !2585
  store %"class.std::__1::basic_istream"* %91, %"class.std::__1::basic_istream"** %46, align 8
  call void @llvm.dbg.declare(metadata !{%"class.std::__1::basic_istream"** %46}, metadata !2587), !dbg !2589
  store i8** %93, i8*** %47, align 8
  call void @llvm.dbg.declare(metadata !{i8*** %47}, metadata !2590), !dbg !2589
  store %"class.std::__1::basic_streambuf"* %92, %"class.std::__1::basic_streambuf"** %48, align 8
  call void @llvm.dbg.declare(metadata !{%"class.std::__1::basic_streambuf"** %48}, metadata !2591), !dbg !2592
  %94 = load %"class.std::__1::basic_istream"** %46
  %95 = load i8*** %47
  %96 = load i8** %95, !dbg !2593
  %97 = bitcast %"class.std::__1::basic_istream"* %94 to i8**, !dbg !2593
  store i8* %96, i8** %97, !dbg !2593
  %98 = getelementptr inbounds i8** %95, i64 1, !dbg !2593
  %99 = load i8** %98, !dbg !2593
  %100 = bitcast %"class.std::__1::basic_istream"* %94 to i8**, !dbg !2593
  %101 = load i8** %100, !dbg !2593
  %102 = getelementptr i8* %101, i64 -24, !dbg !2593
  %103 = bitcast i8* %102 to i64*, !dbg !2593
  %104 = load i64* %103, !dbg !2593
  %105 = bitcast %"class.std::__1::basic_istream"* %94 to i8*, !dbg !2593
  %106 = getelementptr inbounds i8* %105, i64 %104, !dbg !2593
  %107 = bitcast i8* %106 to i8**, !dbg !2593
  store i8* %99, i8** %107, !dbg !2593
  %108 = getelementptr inbounds %"class.std::__1::basic_istream"* %94, i32 0, i32 1, !dbg !2593
  store i64 0, i64* %108, align 8, !dbg !2593
  %109 = bitcast %"class.std::__1::basic_istream"* %94 to i8**, !dbg !2595
  %110 = load i8** %109, !dbg !2595
  %111 = getelementptr i8* %110, i64 -24, !dbg !2595
  %112 = bitcast i8* %111 to i64*, !dbg !2595
  %113 = load i64* %112, !dbg !2595
  %114 = bitcast %"class.std::__1::basic_istream"* %94 to i8*, !dbg !2595
  %115 = getelementptr inbounds i8* %114, i64 %113, !dbg !2595
  %116 = bitcast i8* %115 to %"class.std::__1::basic_ios"*, !dbg !2595
  %117 = load %"class.std::__1::basic_streambuf"** %48, align 8, !dbg !2595
  store %"class.std::__1::basic_ios"* %116, %"class.std::__1::basic_ios"** %44, align 8
  call void @llvm.dbg.declare(metadata !{%"class.std::__1::basic_ios"** %44}, metadata !2597), !dbg !2598
  store %"class.std::__1::basic_streambuf"* %117, %"class.std::__1::basic_streambuf"** %45, align 8
  call void @llvm.dbg.declare(metadata !{%"class.std::__1::basic_streambuf"** %45}, metadata !2599), !dbg !2600
  %118 = load %"class.std::__1::basic_ios"** %44
  %119 = bitcast %"class.std::__1::basic_ios"* %118 to %"class.std::__1::ios_base"*, !dbg !2601
  %120 = load %"class.std::__1::basic_streambuf"** %45, align 8, !dbg !2601
  %121 = bitcast %"class.std::__1::basic_streambuf"* %120 to i8*, !dbg !2601
  invoke void @_ZNSt3__18ios_base4initEPv(%"class.std::__1::ios_base"* %119, i8* %121)
          to label %_ZNSt3__114basic_iostreamIcNS_11char_traitsIcEEEC2EPNS_15basic_streambufIcS2_EE.exit.i unwind label %258

_ZNSt3__114basic_iostreamIcNS_11char_traitsIcEEEC2EPNS_15basic_streambufIcS2_EE.exit.i: ; preds = %0
  %122 = getelementptr inbounds %"class.std::__1::basic_ios"* %118, i32 0, i32 1, !dbg !2603
  store %"class.std::__1::basic_ostream"* null, %"class.std::__1::basic_ostream"** %122, align 8, !dbg !2603
  %123 = getelementptr inbounds %"class.std::__1::basic_ios"* %118, i32 0, i32 2, !dbg !2604
  store i32 -1, i32* %123, align 4, !dbg !2604
  %124 = bitcast %"class.std::__1::basic_iostream"* %89 to i8*, !dbg !2585
  %125 = getelementptr inbounds i8* %124, i64 16, !dbg !2585
  %126 = bitcast i8* %125 to %"class.std::__1::basic_ostream"*, !dbg !2585
  %127 = getelementptr inbounds i8** %90, i64 3, !dbg !2585
  store %"class.std::__1::basic_ostream"* %126, %"class.std::__1::basic_ostream"** %42, align 8
  call void @llvm.dbg.declare(metadata !{%"class.std::__1::basic_ostream"** %42}, metadata !2605), !dbg !2606
  store i8** %127, i8*** %43, align 8
  call void @llvm.dbg.declare(metadata !{i8*** %43}, metadata !2607), !dbg !2606
  %128 = load %"class.std::__1::basic_ostream"** %42
  %129 = load i8*** %43
  %130 = load i8** %129, !dbg !2608
  %131 = bitcast %"class.std::__1::basic_ostream"* %128 to i8**, !dbg !2608
  store i8* %130, i8** %131, !dbg !2608
  %132 = getelementptr inbounds i8** %129, i64 1, !dbg !2608
  %133 = load i8** %132, !dbg !2608
  %134 = bitcast %"class.std::__1::basic_ostream"* %128 to i8**, !dbg !2608
  %135 = load i8** %134, !dbg !2608
  %136 = getelementptr i8* %135, i64 -24, !dbg !2608
  %137 = bitcast i8* %136 to i64*, !dbg !2608
  %138 = load i64* %137, !dbg !2608
  %139 = bitcast %"class.std::__1::basic_ostream"* %128 to i8*, !dbg !2608
  %140 = getelementptr inbounds i8* %139, i64 %138, !dbg !2608
  %141 = bitcast i8* %140 to i8**, !dbg !2608
  store i8* %133, i8** %141, !dbg !2608
  %142 = load i8** %90, !dbg !2585
  %143 = bitcast %"class.std::__1::basic_iostream"* %89 to i8**, !dbg !2585
  store i8* %142, i8** %143, !dbg !2585
  %144 = getelementptr inbounds i8** %90, i64 5, !dbg !2585
  %145 = load i8** %144, !dbg !2585
  %146 = bitcast %"class.std::__1::basic_iostream"* %89 to i8**, !dbg !2585
  %147 = load i8** %146, !dbg !2585
  %148 = getelementptr i8* %147, i64 -24, !dbg !2585
  %149 = bitcast i8* %148 to i64*, !dbg !2585
  %150 = load i64* %149, !dbg !2585
  %151 = bitcast %"class.std::__1::basic_iostream"* %89 to i8*, !dbg !2585
  %152 = getelementptr inbounds i8* %151, i64 %150, !dbg !2585
  %153 = bitcast i8* %152 to i8**, !dbg !2585
  store i8* %145, i8** %153, !dbg !2585
  %154 = getelementptr inbounds i8** %90, i64 6, !dbg !2585
  %155 = load i8** %154, !dbg !2585
  %156 = bitcast %"class.std::__1::basic_iostream"* %89 to i8*, !dbg !2585
  %157 = getelementptr inbounds i8* %156, i64 16, !dbg !2585
  %158 = bitcast i8* %157 to i8**, !dbg !2585
  store i8* %155, i8** %158, !dbg !2585
  %159 = bitcast %"class.std::__1::basic_stringstream"* %70 to i8***, !dbg !2569
  store i8** getelementptr inbounds ([15 x i8*]* @_ZTVNSt3__118basic_stringstreamIcNS_11char_traitsIcEENS_9allocatorIcEEEE, i64 0, i64 3), i8*** %159, !dbg !2569
  %160 = bitcast %"class.std::__1::basic_stringstream"* %70 to i8*, !dbg !2569
  %161 = getelementptr inbounds i8* %160, i64 128, !dbg !2569
  %162 = bitcast i8* %161 to i8***, !dbg !2569
  store i8** getelementptr inbounds ([15 x i8*]* @_ZTVNSt3__118basic_stringstreamIcNS_11char_traitsIcEENS_9allocatorIcEEEE, i64 0, i64 13), i8*** %162, !dbg !2569
  %163 = bitcast %"class.std::__1::basic_stringstream"* %70 to i8*, !dbg !2569
  %164 = getelementptr inbounds i8* %163, i64 16, !dbg !2569
  %165 = bitcast i8* %164 to i8***, !dbg !2569
  store i8** getelementptr inbounds ([15 x i8*]* @_ZTVNSt3__118basic_stringstreamIcNS_11char_traitsIcEENS_9allocatorIcEEEE, i64 0, i64 8), i8*** %165, !dbg !2569
  %166 = getelementptr inbounds %"class.std::__1::basic_stringstream"* %70, i32 0, i32 1, !dbg !2569
  %167 = load i32* %57, align 4, !dbg !2569
  store %"class.std::__1::basic_stringbuf"* %166, %"class.std::__1::basic_stringbuf"** %40, align 8
  call void @llvm.dbg.declare(metadata !{%"class.std::__1::basic_stringbuf"** %40}, metadata !2610), !dbg !2611
  store i32 %167, i32* %41, align 4
  call void @llvm.dbg.declare(metadata !{i32* %41}, metadata !2612), !dbg !2613
  %168 = load %"class.std::__1::basic_stringbuf"** %40
  %169 = load i32* %41, align 4, !dbg !2614
  store %"class.std::__1::basic_stringbuf"* %168, %"class.std::__1::basic_stringbuf"** %35, align 8
  call void @llvm.dbg.declare(metadata !{%"class.std::__1::basic_stringbuf"** %35}, metadata !2616), !dbg !2617
  store i32 %169, i32* %36, align 4
  call void @llvm.dbg.declare(metadata !{i32* %36}, metadata !2618), !dbg !2619
  %170 = load %"class.std::__1::basic_stringbuf"** %35
  %171 = bitcast %"class.std::__1::basic_stringbuf"* %170 to %"class.std::__1::basic_streambuf"*, !dbg !2620
  invoke void @_ZNSt3__115basic_streambufIcNS_11char_traitsIcEEEC2Ev(%"class.std::__1::basic_streambuf"* %171)
          to label %.noexc.i unwind label %262

.noexc.i:                                         ; preds = %_ZNSt3__114basic_iostreamIcNS_11char_traitsIcEEEC2EPNS_15basic_streambufIcS2_EE.exit.i
  %172 = bitcast %"class.std::__1::basic_stringbuf"* %170 to i8***, !dbg !2620
  store i8** getelementptr inbounds ([16 x i8*]* @_ZTVNSt3__115basic_stringbufIcNS_11char_traitsIcEENS_9allocatorIcEEEE, i64 0, i64 2), i8*** %172, !dbg !2620
  %173 = getelementptr inbounds %"class.std::__1::basic_stringbuf"* %170, i32 0, i32 1, !dbg !2620
  store %"class.std::__1::basic_string"* %173, %"class.std::__1::basic_string"** %34, align 8
  call void @llvm.dbg.declare(metadata !{%"class.std::__1::basic_string"** %34}, metadata !2621), !dbg !2623
  %174 = load %"class.std::__1::basic_string"** %34
  store %"class.std::__1::basic_string"* %174, %"class.std::__1::basic_string"** %33, align 8
  call void @llvm.dbg.declare(metadata !{%"class.std::__1::basic_string"** %33}, metadata !2624), !dbg !2625
  %175 = load %"class.std::__1::basic_string"** %33
  %176 = bitcast %"class.std::__1::basic_string"* %175 to %"class.std::__1::__basic_string_common"*, !dbg !2628
  %177 = getelementptr inbounds %"class.std::__1::basic_string"* %175, i32 0, i32 0, !dbg !2628
  store %"class.std::__1::__compressed_pair"* %177, %"class.std::__1::__compressed_pair"** %32, align 8
  call void @llvm.dbg.declare(metadata !{%"class.std::__1::__compressed_pair"** %32}, metadata !2629), !dbg !2631
  %178 = load %"class.std::__1::__compressed_pair"** %32
  store %"class.std::__1::__compressed_pair"* %178, %"class.std::__1::__compressed_pair"** %31, align 8
  call void @llvm.dbg.declare(metadata !{%"class.std::__1::__compressed_pair"** %31}, metadata !2632), !dbg !2633
  %179 = load %"class.std::__1::__compressed_pair"** %31
  %180 = bitcast %"class.std::__1::__compressed_pair"* %179 to %"class.std::__1::__libcpp_compressed_pair_imp"*, !dbg !2636
  store %"class.std::__1::__libcpp_compressed_pair_imp"* %180, %"class.std::__1::__libcpp_compressed_pair_imp"** %30, align 8
  call void @llvm.dbg.declare(metadata !{%"class.std::__1::__libcpp_compressed_pair_imp"** %30}, metadata !2637), !dbg !2639
  %181 = load %"class.std::__1::__libcpp_compressed_pair_imp"** %30
  %182 = bitcast %"class.std::__1::__libcpp_compressed_pair_imp"* %181 to %"class.std::__1::allocator"*, !dbg !2640
  store %"class.std::__1::allocator"* %182, %"class.std::__1::allocator"** %29, align 8
  call void @llvm.dbg.declare(metadata !{%"class.std::__1::allocator"** %29}, metadata !2641), !dbg !2643
  %183 = load %"class.std::__1::allocator"** %29
  %184 = getelementptr inbounds %"class.std::__1::__libcpp_compressed_pair_imp"* %181, i32 0, i32 0, !dbg !2640
  store %"class.std::__1::basic_string"* %175, %"class.std::__1::basic_string"** %28, align 8
  call void @llvm.dbg.declare(metadata !{%"class.std::__1::basic_string"** %28}, metadata !2644), !dbg !2645
  %185 = load %"class.std::__1::basic_string"** %28
  call void @llvm.dbg.declare(metadata !{[3 x i64]** %__a.i.i.i.i.i.i}, metadata !2648), !dbg !2651
  %186 = getelementptr inbounds %"class.std::__1::basic_string"* %185, i32 0, i32 0, !dbg !2651
  store %"class.std::__1::__compressed_pair"* %186, %"class.std::__1::__compressed_pair"** %27, align 8
  call void @llvm.dbg.declare(metadata !{%"class.std::__1::__compressed_pair"** %27}, metadata !2652), !dbg !2653
  %187 = load %"class.std::__1::__compressed_pair"** %27
  %188 = bitcast %"class.std::__1::__compressed_pair"* %187 to %"class.std::__1::__libcpp_compressed_pair_imp"*, !dbg !2654
  store %"class.std::__1::__libcpp_compressed_pair_imp"* %188, %"class.std::__1::__libcpp_compressed_pair_imp"** %26, align 8
  call void @llvm.dbg.declare(metadata !{%"class.std::__1::__libcpp_compressed_pair_imp"** %26}, metadata !2656), !dbg !2657
  %189 = load %"class.std::__1::__libcpp_compressed_pair_imp"** %26
  %190 = getelementptr inbounds %"class.std::__1::__libcpp_compressed_pair_imp"* %189, i32 0, i32 0, !dbg !2658
  %191 = getelementptr inbounds %"struct.std::__1::basic_string<char, std::__1::char_traits<char>, std::__1::allocator<char> >::__rep"* %190, i32 0, i32 0, !dbg !2651
  %192 = bitcast %union.anon* %191 to %"struct.std::__1::basic_string<char, std::__1::char_traits<char>, std::__1::allocator<char> >::__raw"*, !dbg !2651
  %193 = getelementptr inbounds %"struct.std::__1::basic_string<char, std::__1::char_traits<char>, std::__1::allocator<char> >::__raw"* %192, i32 0, i32 0, !dbg !2651
  store [3 x i64]* %193, [3 x i64]** %__a.i.i.i.i.i.i, align 8, !dbg !2651
  call void @llvm.dbg.declare(metadata !{i32* %__i.i.i.i.i.i.i}, metadata !2659), !dbg !2661
  store i32 0, i32* %__i.i.i.i.i.i.i, align 4, !dbg !2661
  br label %194, !dbg !2661

; <label>:194                                     ; preds = %197, %.noexc.i
  %195 = load i32* %__i.i.i.i.i.i.i, align 4, !dbg !2661
  %196 = icmp ult i32 %195, 3, !dbg !2661
  br i1 %196, label %197, label %_ZNSt3__112basic_stringIcNS_11char_traitsIcEENS_9allocatorIcEEEC1Ev.exit.i.i.i, !dbg !2661

; <label>:197                                     ; preds = %194
  %198 = load i32* %__i.i.i.i.i.i.i, align 4, !dbg !2662
  %199 = zext i32 %198 to i64, !dbg !2662
  %200 = load [3 x i64]** %__a.i.i.i.i.i.i, align 8, !dbg !2662
  %201 = getelementptr inbounds [3 x i64]* %200, i32 0, i64 %199, !dbg !2662
  store i64 0, i64* %201, align 8, !dbg !2662
  %202 = load i32* %__i.i.i.i.i.i.i, align 4, !dbg !2661
  %203 = add i32 %202, 1, !dbg !2661
  store i32 %203, i32* %__i.i.i.i.i.i.i, align 4, !dbg !2661
  br label %194, !dbg !2661

_ZNSt3__112basic_stringIcNS_11char_traitsIcEENS_9allocatorIcEEEC1Ev.exit.i.i.i: ; preds = %194
  %204 = getelementptr inbounds %"class.std::__1::basic_stringbuf"* %170, i32 0, i32 2, !dbg !2620
  store i8* null, i8** %204, align 8, !dbg !2620
  %205 = getelementptr inbounds %"class.std::__1::basic_stringbuf"* %170, i32 0, i32 3, !dbg !2620
  %206 = load i32* %36, align 4, !dbg !2620
  store i32 %206, i32* %205, align 4, !dbg !2620
  store %"class.std::__1::basic_string"* %39, %"class.std::__1::basic_string"** %25, align 8
  call void @llvm.dbg.declare(metadata !{%"class.std::__1::basic_string"** %25}, metadata !2621), !dbg !2663
  %207 = load %"class.std::__1::basic_string"** %25
  store %"class.std::__1::basic_string"* %207, %"class.std::__1::basic_string"** %24, align 8
  call void @llvm.dbg.declare(metadata !{%"class.std::__1::basic_string"** %24}, metadata !2624), !dbg !2666
  %208 = load %"class.std::__1::basic_string"** %24
  %209 = bitcast %"class.std::__1::basic_string"* %208 to %"class.std::__1::__basic_string_common"*, !dbg !2668
  %210 = getelementptr inbounds %"class.std::__1::basic_string"* %208, i32 0, i32 0, !dbg !2668
  store %"class.std::__1::__compressed_pair"* %210, %"class.std::__1::__compressed_pair"** %23, align 8
  call void @llvm.dbg.declare(metadata !{%"class.std::__1::__compressed_pair"** %23}, metadata !2629), !dbg !2669
  %211 = load %"class.std::__1::__compressed_pair"** %23
  store %"class.std::__1::__compressed_pair"* %211, %"class.std::__1::__compressed_pair"** %22, align 8
  call void @llvm.dbg.declare(metadata !{%"class.std::__1::__compressed_pair"** %22}, metadata !2632), !dbg !2670
  %212 = load %"class.std::__1::__compressed_pair"** %22
  %213 = bitcast %"class.std::__1::__compressed_pair"* %212 to %"class.std::__1::__libcpp_compressed_pair_imp"*, !dbg !2672
  store %"class.std::__1::__libcpp_compressed_pair_imp"* %213, %"class.std::__1::__libcpp_compressed_pair_imp"** %21, align 8
  call void @llvm.dbg.declare(metadata !{%"class.std::__1::__libcpp_compressed_pair_imp"** %21}, metadata !2637), !dbg !2673
  %214 = load %"class.std::__1::__libcpp_compressed_pair_imp"** %21
  %215 = bitcast %"class.std::__1::__libcpp_compressed_pair_imp"* %214 to %"class.std::__1::allocator"*, !dbg !2674
  store %"class.std::__1::allocator"* %215, %"class.std::__1::allocator"** %20, align 8
  call void @llvm.dbg.declare(metadata !{%"class.std::__1::allocator"** %20}, metadata !2641), !dbg !2675
  %216 = load %"class.std::__1::allocator"** %20
  %217 = getelementptr inbounds %"class.std::__1::__libcpp_compressed_pair_imp"* %214, i32 0, i32 0, !dbg !2674
  store %"class.std::__1::basic_string"* %208, %"class.std::__1::basic_string"** %19, align 8
  call void @llvm.dbg.declare(metadata !{%"class.std::__1::basic_string"** %19}, metadata !2644), !dbg !2676
  %218 = load %"class.std::__1::basic_string"** %19
  call void @llvm.dbg.declare(metadata !{[3 x i64]** %__a.i.i.i1.i.i.i}, metadata !2648), !dbg !2678
  %219 = getelementptr inbounds %"class.std::__1::basic_string"* %218, i32 0, i32 0, !dbg !2678
  store %"class.std::__1::__compressed_pair"* %219, %"class.std::__1::__compressed_pair"** %18, align 8
  call void @llvm.dbg.declare(metadata !{%"class.std::__1::__compressed_pair"** %18}, metadata !2652), !dbg !2679
  %220 = load %"class.std::__1::__compressed_pair"** %18
  %221 = bitcast %"class.std::__1::__compressed_pair"* %220 to %"class.std::__1::__libcpp_compressed_pair_imp"*, !dbg !2680
  store %"class.std::__1::__libcpp_compressed_pair_imp"* %221, %"class.std::__1::__libcpp_compressed_pair_imp"** %17, align 8
  call void @llvm.dbg.declare(metadata !{%"class.std::__1::__libcpp_compressed_pair_imp"** %17}, metadata !2656), !dbg !2681
  %222 = load %"class.std::__1::__libcpp_compressed_pair_imp"** %17
  %223 = getelementptr inbounds %"class.std::__1::__libcpp_compressed_pair_imp"* %222, i32 0, i32 0, !dbg !2682
  %224 = getelementptr inbounds %"struct.std::__1::basic_string<char, std::__1::char_traits<char>, std::__1::allocator<char> >::__rep"* %223, i32 0, i32 0, !dbg !2678
  %225 = bitcast %union.anon* %224 to %"struct.std::__1::basic_string<char, std::__1::char_traits<char>, std::__1::allocator<char> >::__raw"*, !dbg !2678
  %226 = getelementptr inbounds %"struct.std::__1::basic_string<char, std::__1::char_traits<char>, std::__1::allocator<char> >::__raw"* %225, i32 0, i32 0, !dbg !2678
  store [3 x i64]* %226, [3 x i64]** %__a.i.i.i1.i.i.i, align 8, !dbg !2678
  call void @llvm.dbg.declare(metadata !{i32* %__i.i.i.i2.i.i.i}, metadata !2659), !dbg !2683
  store i32 0, i32* %__i.i.i.i2.i.i.i, align 4, !dbg !2683
  br label %227, !dbg !2683

; <label>:227                                     ; preds = %230, %_ZNSt3__112basic_stringIcNS_11char_traitsIcEENS_9allocatorIcEEEC1Ev.exit.i.i.i
  %228 = load i32* %__i.i.i.i2.i.i.i, align 4, !dbg !2683
  %229 = icmp ult i32 %228, 3, !dbg !2683
  br i1 %229, label %230, label %_ZNSt3__112basic_stringIcNS_11char_traitsIcEENS_9allocatorIcEEEC1Ev.exit3.i.i.i, !dbg !2683

; <label>:230                                     ; preds = %227
  %231 = load i32* %__i.i.i.i2.i.i.i, align 4, !dbg !2684
  %232 = zext i32 %231 to i64, !dbg !2684
  %233 = load [3 x i64]** %__a.i.i.i1.i.i.i, align 8, !dbg !2684
  %234 = getelementptr inbounds [3 x i64]* %233, i32 0, i64 %232, !dbg !2684
  store i64 0, i64* %234, align 8, !dbg !2684
  %235 = load i32* %__i.i.i.i2.i.i.i, align 4, !dbg !2683
  %236 = add i32 %235, 1, !dbg !2683
  store i32 %236, i32* %__i.i.i.i2.i.i.i, align 4, !dbg !2683
  br label %227, !dbg !2683

_ZNSt3__112basic_stringIcNS_11char_traitsIcEENS_9allocatorIcEEEC1Ev.exit3.i.i.i: ; preds = %227
  invoke void @_ZNSt3__115basic_stringbufIcNS_11char_traitsIcEENS_9allocatorIcEEE3strERKNS_12basic_stringIcS2_S4_EE(%"class.std::__1::basic_stringbuf"* %170, %"class.std::__1::basic_string"* %39)
          to label %237 unwind label %242, !dbg !2664

; <label>:237                                     ; preds = %_ZNSt3__112basic_stringIcNS_11char_traitsIcEENS_9allocatorIcEEEC1Ev.exit3.i.i.i
  invoke void @_ZNSt3__112basic_stringIcNS_11char_traitsIcEENS_9allocatorIcEEED1Ev(%"class.std::__1::basic_string"* %39)
          to label %_ZNSt3__118basic_stringstreamIcNS_11char_traitsIcEENS_9allocatorIcEEEC1Ej.exit unwind label %238, !dbg !2664

; <label>:238                                     ; preds = %237
  %239 = landingpad { i8*, i32 } personality i8* bitcast (i32 (...)* @__gxx_personality_v0 to i8*)
          cleanup, !dbg !2685
  %240 = extractvalue { i8*, i32 } %239, 0, !dbg !2685
  store i8* %240, i8** %37, !dbg !2685
  %241 = extractvalue { i8*, i32 } %239, 1, !dbg !2685
  store i32 %241, i32* %38, !dbg !2685
  br label %247, !dbg !2685

; <label>:242                                     ; preds = %_ZNSt3__112basic_stringIcNS_11char_traitsIcEENS_9allocatorIcEEEC1Ev.exit3.i.i.i
  %243 = landingpad { i8*, i32 } personality i8* bitcast (i32 (...)* @__gxx_personality_v0 to i8*)
          cleanup, !dbg !2685
  %244 = extractvalue { i8*, i32 } %243, 0, !dbg !2685
  store i8* %244, i8** %37, !dbg !2685
  %245 = extractvalue { i8*, i32 } %243, 1, !dbg !2685
  store i32 %245, i32* %38, !dbg !2685
  invoke void @_ZNSt3__112basic_stringIcNS_11char_traitsIcEENS_9allocatorIcEEED1Ev(%"class.std::__1::basic_string"* %39)
          to label %246 unwind label %255, !dbg !2685

; <label>:246                                     ; preds = %242
  br label %247, !dbg !2685

; <label>:247                                     ; preds = %246, %238
  invoke void @_ZNSt3__112basic_stringIcNS_11char_traitsIcEENS_9allocatorIcEEED1Ev(%"class.std::__1::basic_string"* %173)
          to label %248 unwind label %255, !dbg !2686

; <label>:248                                     ; preds = %247
  %249 = bitcast %"class.std::__1::basic_stringbuf"* %170 to %"class.std::__1::basic_streambuf"*, !dbg !2686
  invoke void @_ZNSt3__115basic_streambufIcNS_11char_traitsIcEEED2Ev(%"class.std::__1::basic_streambuf"* %249)
          to label %250 unwind label %255, !dbg !2686

; <label>:250                                     ; preds = %248
  %251 = load i8** %37, !dbg !2686
  %252 = load i32* %38, !dbg !2686
  %253 = insertvalue { i8*, i32 } undef, i8* %251, 0, !dbg !2686
  %254 = insertvalue { i8*, i32 } %253, i32 %252, 1, !dbg !2686
  br label %.body.i

; <label>:255                                     ; preds = %248, %247, %242
  %256 = landingpad { i8*, i32 } personality i8* bitcast (i32 (...)* @__gxx_personality_v0 to i8*)
          cleanup
          catch i8* null, !dbg !2685
  %257 = extractvalue { i8*, i32 } %256, 0, !dbg !2685
  call void @__clang_call_terminate(i8* %257) #10, !dbg !2685
  unreachable, !dbg !2685

; <label>:258                                     ; preds = %0
  %259 = landingpad { i8*, i32 } personality i8* bitcast (i32 (...)* @__gxx_personality_v0 to i8*)
          cleanup, !dbg !2687
  %260 = extractvalue { i8*, i32 } %259, 0, !dbg !2687
  store i8* %260, i8** %58, !dbg !2687
  %261 = extractvalue { i8*, i32 } %259, 1, !dbg !2687
  store i32 %261, i32* %59, !dbg !2687
  br label %268, !dbg !2687

; <label>:262                                     ; preds = %_ZNSt3__114basic_iostreamIcNS_11char_traitsIcEEEC2EPNS_15basic_streambufIcS2_EE.exit.i
  %263 = landingpad { i8*, i32 } personality i8* bitcast (i32 (...)* @__gxx_personality_v0 to i8*)
          cleanup, !dbg !2687
  br label %.body.i

.body.i:                                          ; preds = %262, %250
  %eh.lpad-body.i = phi { i8*, i32 } [ %263, %262 ], [ %254, %250 ]
  %264 = extractvalue { i8*, i32 } %eh.lpad-body.i, 0, !dbg !2687
  store i8* %264, i8** %58, !dbg !2687
  %265 = extractvalue { i8*, i32 } %eh.lpad-body.i, 1, !dbg !2687
  store i32 %265, i32* %59, !dbg !2687
  %266 = bitcast %"class.std::__1::basic_stringstream"* %70 to %"class.std::__1::basic_iostream"*, !dbg !2687
  invoke void @_ZNSt3__114basic_iostreamIcNS_11char_traitsIcEEED2Ev(%"class.std::__1::basic_iostream"* %266, i8** getelementptr inbounds ([10 x i8*]* @_ZTTNSt3__118basic_stringstreamIcNS_11char_traitsIcEENS_9allocatorIcEEEE, i64 0, i64 1))
          to label %267 unwind label %277, !dbg !2687

; <label>:267                                     ; preds = %.body.i
  br label %268, !dbg !2687

; <label>:268                                     ; preds = %267, %258
  %269 = bitcast %"class.std::__1::basic_stringstream"* %70 to i8*, !dbg !2687
  %270 = getelementptr inbounds i8* %269, i64 128, !dbg !2687
  %271 = bitcast i8* %270 to %"class.std::__1::basic_ios"*, !dbg !2687
  invoke void @_ZNSt3__19basic_iosIcNS_11char_traitsIcEEED2Ev(%"class.std::__1::basic_ios"* %271)
          to label %272 unwind label %277, !dbg !2687

; <label>:272                                     ; preds = %268
  %273 = load i8** %58, !dbg !2687
  %274 = load i32* %59, !dbg !2687
  %275 = insertvalue { i8*, i32 } undef, i8* %273, 0, !dbg !2687
  %276 = insertvalue { i8*, i32 } %275, i32 %274, 1, !dbg !2687
  resume { i8*, i32 } %276, !dbg !2687

; <label>:277                                     ; preds = %268, %.body.i
  %278 = landingpad { i8*, i32 } personality i8* bitcast (i32 (...)* @__gxx_personality_v0 to i8*)
          catch i8* null, !dbg !2687
  %279 = extractvalue { i8*, i32 } %278, 0, !dbg !2687
  call void @__clang_call_terminate(i8* %279) #10, !dbg !2687
  unreachable, !dbg !2687

_ZNSt3__118basic_stringstreamIcNS_11char_traitsIcEENS_9allocatorIcEEEC1Ej.exit: ; preds = %237
  %280 = bitcast %"class.std::__1::basic_stringstream"* %ss to i8*, !dbg !2688
  %281 = getelementptr inbounds i8* %280, i64 16, !dbg !2688
  %282 = bitcast i8* %281 to %"class.std::__1::basic_ostream"*, !dbg !2688
  %283 = load i8** %60, align 8, !dbg !2688
  %284 = invoke %"class.std::__1::basic_ostream"* @_ZNSt3__1lsINS_11char_traitsIcEEEERNS_13basic_ostreamIcT_EES6_PKc(%"class.std::__1::basic_ostream"* %282, i8* %283)
          to label %285 unwind label %359, !dbg !2688

; <label>:285                                     ; preds = %_ZNSt3__118basic_stringstreamIcNS_11char_traitsIcEENS_9allocatorIcEEEC1Ej.exit
  %286 = invoke %"class.std::__1::basic_ostream"* @_ZNSt3__1lsINS_11char_traitsIcEEEERNS_13basic_ostreamIcT_EES6_PKc(%"class.std::__1::basic_ostream"* %284, i8* getelementptr inbounds ([2 x i8]* @.str, i32 0, i32 0))
          to label %287 unwind label %359, !dbg !2688

; <label>:287                                     ; preds = %285
  %288 = load i8* %61, align 1, !dbg !2688
  %289 = trunc i8 %288 to i1, !dbg !2688
  %290 = invoke %"class.std::__1::basic_ostream"* @_ZNSt3__113basic_ostreamIcNS_11char_traitsIcEEElsEb(%"class.std::__1::basic_ostream"* %286, i1 zeroext %289)
          to label %291 unwind label %359, !dbg !2688

; <label>:291                                     ; preds = %287
  %292 = invoke %"class.std::__1::basic_ostream"* @_ZNSt3__1lsINS_11char_traitsIcEEEERNS_13basic_ostreamIcT_EES6_PKc(%"class.std::__1::basic_ostream"* %290, i8* getelementptr inbounds ([8 x i8]* @.str1, i32 0, i32 0))
          to label %293 unwind label %359, !dbg !2688

; <label>:293                                     ; preds = %291
  %294 = load double* %62, align 8, !dbg !2688
  %295 = invoke %"class.std::__1::basic_ostream"* @_ZNSt3__113basic_ostreamIcNS_11char_traitsIcEEElsEd(%"class.std::__1::basic_ostream"* %292, double %294)
          to label %296 unwind label %359, !dbg !2688

; <label>:296                                     ; preds = %293
  %297 = invoke %"class.std::__1::basic_ostream"* @_ZNSt3__1lsINS_11char_traitsIcEEEERNS_13basic_ostreamIcT_EES6_PKc(%"class.std::__1::basic_ostream"* %295, i8* getelementptr inbounds ([10 x i8]* @.str2, i32 0, i32 0))
          to label %298 unwind label %359, !dbg !2688

; <label>:298                                     ; preds = %296
  %299 = load double* %63, align 8, !dbg !2688
  %300 = invoke %"class.std::__1::basic_ostream"* @_ZNSt3__113basic_ostreamIcNS_11char_traitsIcEEElsEd(%"class.std::__1::basic_ostream"* %297, double %299)
          to label %301 unwind label %359, !dbg !2688

; <label>:301                                     ; preds = %298
  %302 = invoke %"class.std::__1::basic_ostream"* @_ZNSt3__1lsINS_11char_traitsIcEEEERNS_13basic_ostreamIcT_EES6_PKc(%"class.std::__1::basic_ostream"* %300, i8* getelementptr inbounds ([7 x i8]* @.str3, i32 0, i32 0))
          to label %303 unwind label %359, !dbg !2688

; <label>:303                                     ; preds = %301
  %304 = load i8* %64, align 1, !dbg !2688
  %305 = trunc i8 %304 to i1, !dbg !2688
  %306 = invoke %"class.std::__1::basic_ostream"* @_ZNSt3__113basic_ostreamIcNS_11char_traitsIcEEElsEb(%"class.std::__1::basic_ostream"* %302, i1 zeroext %305)
          to label %307 unwind label %359, !dbg !2688

; <label>:307                                     ; preds = %303
  %308 = invoke %"class.std::__1::basic_ostream"* @_ZNSt3__1lsINS_11char_traitsIcEEEERNS_13basic_ostreamIcT_EES6_PKc(%"class.std::__1::basic_ostream"* @_ZNSt3__14coutE, i8* getelementptr inbounds ([23 x i8]* @.str4, i32 0, i32 0))
          to label %309 unwind label %359, !dbg !2689

; <label>:309                                     ; preds = %307
  store %"class.std::__1::basic_stringstream"* %ss, %"class.std::__1::basic_stringstream"** %16, align 8
  call void @llvm.dbg.declare(metadata !{%"class.std::__1::basic_stringstream"** %16}, metadata !2690), !dbg !2692
  %310 = load %"class.std::__1::basic_stringstream"** %16
  %311 = getelementptr inbounds %"class.std::__1::basic_stringstream"* %310, i32 0, i32 1, !dbg !2693
  invoke void @_ZNKSt3__115basic_stringbufIcNS_11char_traitsIcEENS_9allocatorIcEEE3strEv(%"class.std::__1::basic_string"* sret %67, %"class.std::__1::basic_stringbuf"* %311)
          to label %_ZNKSt3__118basic_stringstreamIcNS_11char_traitsIcEENS_9allocatorIcEEE3strEv.exit unwind label %359

_ZNKSt3__118basic_stringstreamIcNS_11char_traitsIcEENS_9allocatorIcEEE3strEv.exit: ; preds = %309
  br label %312, !dbg !2693

; <label>:312                                     ; preds = %_ZNKSt3__118basic_stringstreamIcNS_11char_traitsIcEENS_9allocatorIcEEE3strEv.exit
  store %"class.std::__1::basic_string"* %67, %"class.std::__1::basic_string"** %15, align 8
  call void @llvm.dbg.declare(metadata !{%"class.std::__1::basic_string"** %15}, metadata !2695), !dbg !2697
  %313 = load %"class.std::__1::basic_string"** %15
  store %"class.std::__1::basic_string"* %313, %"class.std::__1::basic_string"** %14, align 8
  call void @llvm.dbg.declare(metadata !{%"class.std::__1::basic_string"** %14}, metadata !2698), !dbg !2699
  %314 = load %"class.std::__1::basic_string"** %14
  store %"class.std::__1::basic_string"* %314, %"class.std::__1::basic_string"** %13, align 8
  call void @llvm.dbg.declare(metadata !{%"class.std::__1::basic_string"** %13}, metadata !2702), !dbg !2703
  %315 = load %"class.std::__1::basic_string"** %13
  store %"class.std::__1::basic_string"* %315, %"class.std::__1::basic_string"** %12, align 8
  call void @llvm.dbg.declare(metadata !{%"class.std::__1::basic_string"** %12}, metadata !2705), !dbg !2706
  %316 = load %"class.std::__1::basic_string"** %12
  %317 = getelementptr inbounds %"class.std::__1::basic_string"* %316, i32 0, i32 0, !dbg !2708
  store %"class.std::__1::__compressed_pair"* %317, %"class.std::__1::__compressed_pair"** %11, align 8
  call void @llvm.dbg.declare(metadata !{%"class.std::__1::__compressed_pair"** %11}, metadata !2709), !dbg !2711
  %318 = load %"class.std::__1::__compressed_pair"** %11
  %319 = bitcast %"class.std::__1::__compressed_pair"* %318 to %"class.std::__1::__libcpp_compressed_pair_imp"*, !dbg !2712
  store %"class.std::__1::__libcpp_compressed_pair_imp"* %319, %"class.std::__1::__libcpp_compressed_pair_imp"** %10, align 8
  call void @llvm.dbg.declare(metadata !{%"class.std::__1::__libcpp_compressed_pair_imp"** %10}, metadata !2714), !dbg !2716
  %320 = load %"class.std::__1::__libcpp_compressed_pair_imp"** %10
  %321 = getelementptr inbounds %"class.std::__1::__libcpp_compressed_pair_imp"* %320, i32 0, i32 0, !dbg !2717
  %322 = getelementptr inbounds %"struct.std::__1::basic_string<char, std::__1::char_traits<char>, std::__1::allocator<char> >::__rep"* %321, i32 0, i32 0, !dbg !2708
  %323 = bitcast %union.anon* %322 to %"struct.std::__1::basic_string<char, std::__1::char_traits<char>, std::__1::allocator<char> >::__short"*, !dbg !2708
  %324 = getelementptr inbounds %"struct.std::__1::basic_string<char, std::__1::char_traits<char>, std::__1::allocator<char> >::__short"* %323, i32 0, i32 0, !dbg !2708
  %325 = bitcast %union.anon.0* %324 to i8*, !dbg !2708
  %326 = load i8* %325, align 1, !dbg !2708
  %327 = zext i8 %326 to i32, !dbg !2708
  %328 = and i32 %327, 1, !dbg !2708
  %329 = icmp ne i32 %328, 0, !dbg !2708
  br i1 %329, label %330, label %341, !dbg !2707

; <label>:330                                     ; preds = %312
  store %"class.std::__1::basic_string"* %315, %"class.std::__1::basic_string"** %4, align 8
  call void @llvm.dbg.declare(metadata !{%"class.std::__1::basic_string"** %4}, metadata !2718), !dbg !2719
  %331 = load %"class.std::__1::basic_string"** %4
  %332 = getelementptr inbounds %"class.std::__1::basic_string"* %331, i32 0, i32 0, !dbg !2720
  store %"class.std::__1::__compressed_pair"* %332, %"class.std::__1::__compressed_pair"** %3, align 8
  call void @llvm.dbg.declare(metadata !{%"class.std::__1::__compressed_pair"** %3}, metadata !2709), !dbg !2722
  %333 = load %"class.std::__1::__compressed_pair"** %3
  %334 = bitcast %"class.std::__1::__compressed_pair"* %333 to %"class.std::__1::__libcpp_compressed_pair_imp"*, !dbg !2723
  store %"class.std::__1::__libcpp_compressed_pair_imp"* %334, %"class.std::__1::__libcpp_compressed_pair_imp"** %2, align 8
  call void @llvm.dbg.declare(metadata !{%"class.std::__1::__libcpp_compressed_pair_imp"** %2}, metadata !2714), !dbg !2724
  %335 = load %"class.std::__1::__libcpp_compressed_pair_imp"** %2
  %336 = getelementptr inbounds %"class.std::__1::__libcpp_compressed_pair_imp"* %335, i32 0, i32 0, !dbg !2725
  %337 = getelementptr inbounds %"struct.std::__1::basic_string<char, std::__1::char_traits<char>, std::__1::allocator<char> >::__rep"* %336, i32 0, i32 0, !dbg !2720
  %338 = bitcast %union.anon* %337 to %"struct.std::__1::basic_string<char, std::__1::char_traits<char>, std::__1::allocator<char> >::__long"*, !dbg !2720
  %339 = getelementptr inbounds %"struct.std::__1::basic_string<char, std::__1::char_traits<char>, std::__1::allocator<char> >::__long"* %338, i32 0, i32 2, !dbg !2720
  %340 = load i8** %339, align 8, !dbg !2720
  br label %_ZNKSt3__112basic_stringIcNS_11char_traitsIcEENS_9allocatorIcEEE5c_strEv.exit, !dbg !2707

; <label>:341                                     ; preds = %312
  store %"class.std::__1::basic_string"* %315, %"class.std::__1::basic_string"** %9, align 8
  call void @llvm.dbg.declare(metadata !{%"class.std::__1::basic_string"** %9}, metadata !2726), !dbg !2727
  %342 = load %"class.std::__1::basic_string"** %9
  %343 = getelementptr inbounds %"class.std::__1::basic_string"* %342, i32 0, i32 0, !dbg !2728
  store %"class.std::__1::__compressed_pair"* %343, %"class.std::__1::__compressed_pair"** %8, align 8
  call void @llvm.dbg.declare(metadata !{%"class.std::__1::__compressed_pair"** %8}, metadata !2709), !dbg !2729
  %344 = load %"class.std::__1::__compressed_pair"** %8
  %345 = bitcast %"class.std::__1::__compressed_pair"* %344 to %"class.std::__1::__libcpp_compressed_pair_imp"*, !dbg !2730
  store %"class.std::__1::__libcpp_compressed_pair_imp"* %345, %"class.std::__1::__libcpp_compressed_pair_imp"** %7, align 8
  call void @llvm.dbg.declare(metadata !{%"class.std::__1::__libcpp_compressed_pair_imp"** %7}, metadata !2714), !dbg !2731
  %346 = load %"class.std::__1::__libcpp_compressed_pair_imp"** %7
  %347 = getelementptr inbounds %"class.std::__1::__libcpp_compressed_pair_imp"* %346, i32 0, i32 0, !dbg !2732
  %348 = getelementptr inbounds %"struct.std::__1::basic_string<char, std::__1::char_traits<char>, std::__1::allocator<char> >::__rep"* %347, i32 0, i32 0, !dbg !2728
  %349 = bitcast %union.anon* %348 to %"struct.std::__1::basic_string<char, std::__1::char_traits<char>, std::__1::allocator<char> >::__short"*, !dbg !2728
  %350 = getelementptr inbounds %"struct.std::__1::basic_string<char, std::__1::char_traits<char>, std::__1::allocator<char> >::__short"* %349, i32 0, i32 1, !dbg !2728
  %351 = getelementptr inbounds [23 x i8]* %350, i32 0, i64 0, !dbg !2728
  store i8* %351, i8** %6, align 8
  call void @llvm.dbg.declare(metadata !{i8** %6}, metadata !2733), !dbg !2734
  %352 = load i8** %6, align 8, !dbg !2735
  store i8* %352, i8** %5, align 8
  call void @llvm.dbg.declare(metadata !{i8** %5}, metadata !2736), !dbg !2738
  %353 = load i8** %5, align 8, !dbg !2739
  br label %_ZNKSt3__112basic_stringIcNS_11char_traitsIcEENS_9allocatorIcEEE5c_strEv.exit, !dbg !2707

_ZNKSt3__112basic_stringIcNS_11char_traitsIcEENS_9allocatorIcEEE5c_strEv.exit: ; preds = %330, %341
  %354 = phi i8* [ %340, %330 ], [ %353, %341 ], !dbg !2707
  store i8* %354, i8** %1, align 8
  call void @llvm.dbg.declare(metadata !{i8** %1}, metadata !2741), !dbg !2742
  %355 = load i8** %1, align 8, !dbg !2744
  %356 = invoke %"class.std::__1::basic_ostream"* @_ZNSt3__1lsINS_11char_traitsIcEEEERNS_13basic_ostreamIcT_EES6_PKc(%"class.std::__1::basic_ostream"* %308, i8* %355)
          to label %357 unwind label %363, !dbg !2689

; <label>:357                                     ; preds = %_ZNKSt3__112basic_stringIcNS_11char_traitsIcEENS_9allocatorIcEEE5c_strEv.exit
  invoke void @_ZNSt3__112basic_stringIcNS_11char_traitsIcEENS_9allocatorIcEEED1Ev(%"class.std::__1::basic_string"* %67)
          to label %358 unwind label %359, !dbg !2689

; <label>:358                                     ; preds = %357
  call void @_ZNSt3__118basic_stringstreamIcNS_11char_traitsIcEENS_9allocatorIcEEED1Ev(%"class.std::__1::basic_stringstream"* %ss), !dbg !2746
  ret void, !dbg !2746

; <label>:359                                     ; preds = %309, %357, %307, %303, %301, %298, %296, %293, %291, %287, %285, %_ZNSt3__118basic_stringstreamIcNS_11char_traitsIcEENS_9allocatorIcEEEC1Ej.exit
  %360 = landingpad { i8*, i32 } personality i8* bitcast (i32 (...)* @__gxx_personality_v0 to i8*)
          cleanup, !dbg !2746
  %361 = extractvalue { i8*, i32 } %360, 0, !dbg !2746
  store i8* %361, i8** %65, !dbg !2746
  %362 = extractvalue { i8*, i32 } %360, 1, !dbg !2746
  store i32 %362, i32* %66, !dbg !2746
  br label %368, !dbg !2746

; <label>:363                                     ; preds = %_ZNKSt3__112basic_stringIcNS_11char_traitsIcEENS_9allocatorIcEEE5c_strEv.exit
  %364 = landingpad { i8*, i32 } personality i8* bitcast (i32 (...)* @__gxx_personality_v0 to i8*)
          cleanup, !dbg !2746
  %365 = extractvalue { i8*, i32 } %364, 0, !dbg !2746
  store i8* %365, i8** %65, !dbg !2746
  %366 = extractvalue { i8*, i32 } %364, 1, !dbg !2746
  store i32 %366, i32* %66, !dbg !2746
  invoke void @_ZNSt3__112basic_stringIcNS_11char_traitsIcEENS_9allocatorIcEEED1Ev(%"class.std::__1::basic_string"* %67)
          to label %367 unwind label %375, !dbg !2746

; <label>:367                                     ; preds = %363
  br label %368, !dbg !2746

; <label>:368                                     ; preds = %367, %359
  invoke void @_ZNSt3__118basic_stringstreamIcNS_11char_traitsIcEENS_9allocatorIcEEED1Ev(%"class.std::__1::basic_stringstream"* %ss)
          to label %369 unwind label %375, !dbg !2746

; <label>:369                                     ; preds = %368
  br label %370, !dbg !2746

; <label>:370                                     ; preds = %369
  %371 = load i8** %65, !dbg !2746
  %372 = load i32* %66, !dbg !2746
  %373 = insertvalue { i8*, i32 } undef, i8* %371, 0, !dbg !2746
  %374 = insertvalue { i8*, i32 } %373, i32 %372, 1, !dbg !2746
  resume { i8*, i32 } %374, !dbg !2746

; <label>:375                                     ; preds = %368, %363
  %376 = landingpad { i8*, i32 } personality i8* bitcast (i32 (...)* @__gxx_personality_v0 to i8*)
          catch i8* null, !dbg !2746
  %377 = extractvalue { i8*, i32 } %376, 0, !dbg !2746
  call void @__clang_call_terminate(i8* %377) #10, !dbg !2746
  unreachable, !dbg !2746
}

; Function Attrs: nounwind readnone
declare void @llvm.dbg.declare(metadata, metadata) #1

; Function Attrs: ssp uwtable
define linkonce_odr %"class.std::__1::basic_ostream"* @_ZNSt3__1lsINS_11char_traitsIcEEEERNS_13basic_ostreamIcT_EES6_PKc(%"class.std::__1::basic_ostream"* %__os, i8* %__str) #0 {
  %1 = alloca i8*, align 8
  %2 = alloca %"class.std::__1::basic_ostream"*, align 8
  %3 = alloca i8*, align 8
  store %"class.std::__1::basic_ostream"* %__os, %"class.std::__1::basic_ostream"** %2, align 8
  call void @llvm.dbg.declare(metadata !{%"class.std::__1::basic_ostream"** %2}, metadata !2747), !dbg !2748
  store i8* %__str, i8** %3, align 8
  call void @llvm.dbg.declare(metadata !{i8** %3}, metadata !2749), !dbg !2748
  %4 = load %"class.std::__1::basic_ostream"** %2, align 8, !dbg !2750
  %5 = load i8** %3, align 8, !dbg !2750
  %6 = load i8** %3, align 8, !dbg !2750
  store i8* %6, i8** %1, align 8
  call void @llvm.dbg.declare(metadata !{i8** %1}, metadata !2752), !dbg !2753
  %7 = load i8** %1, align 8, !dbg !2754
  %8 = call i64 @strlen(i8* %7), !dbg !2754
  %9 = call %"class.std::__1::basic_ostream"* @_ZNSt3__124__put_character_sequenceIcNS_11char_traitsIcEEEERNS_13basic_ostreamIT_T0_EES7_PKS4_m(%"class.std::__1::basic_ostream"* %4, i8* %5, i64 %8), !dbg !2750
  ret %"class.std::__1::basic_ostream"* %9, !dbg !2750
}

declare i32 @__gxx_personality_v0(...)

declare %"class.std::__1::basic_ostream"* @_ZNSt3__113basic_ostreamIcNS_11char_traitsIcEEElsEb(%"class.std::__1::basic_ostream"*, i1 zeroext) #2

declare %"class.std::__1::basic_ostream"* @_ZNSt3__113basic_ostreamIcNS_11char_traitsIcEEElsEd(%"class.std::__1::basic_ostream"*, double) #2

declare void @_ZNSt3__112basic_stringIcNS_11char_traitsIcEENS_9allocatorIcEEED1Ev(%"class.std::__1::basic_string"*) #2

; Function Attrs: noinline noreturn nounwind
define linkonce_odr hidden void @__clang_call_terminate(i8*) #3 {
  %2 = call i8* @__cxa_begin_catch(i8* %0) #6
  call void @_ZSt9terminatev() #10
  unreachable
}

declare i8* @__cxa_begin_catch(i8*)

declare void @_ZSt9terminatev()

; Function Attrs: inlinehint ssp uwtable
define linkonce_odr void @_ZNSt3__118basic_stringstreamIcNS_11char_traitsIcEENS_9allocatorIcEEED1Ev(%"class.std::__1::basic_stringstream"* %this) unnamed_addr #4 align 2 {
  %1 = alloca %"class.std::__1::basic_stringstream"*, align 8
  %2 = alloca i8*
  %3 = alloca i32
  store %"class.std::__1::basic_stringstream"* %this, %"class.std::__1::basic_stringstream"** %1, align 8
  call void @llvm.dbg.declare(metadata !{%"class.std::__1::basic_stringstream"** %1}, metadata !2756), !dbg !2757
  %4 = load %"class.std::__1::basic_stringstream"** %1
  invoke void @_ZNSt3__118basic_stringstreamIcNS_11char_traitsIcEENS_9allocatorIcEEED2Ev(%"class.std::__1::basic_stringstream"* %4, i8** getelementptr inbounds ([10 x i8*]* @_ZTTNSt3__118basic_stringstreamIcNS_11char_traitsIcEENS_9allocatorIcEEEE, i64 0, i64 0))
          to label %5 unwind label %9, !dbg !2758

; <label>:5                                       ; preds = %0
  %6 = bitcast %"class.std::__1::basic_stringstream"* %4 to i8*, !dbg !2758
  %7 = getelementptr inbounds i8* %6, i64 128, !dbg !2758
  %8 = bitcast i8* %7 to %"class.std::__1::basic_ios"*, !dbg !2758
  call void @_ZNSt3__19basic_iosIcNS_11char_traitsIcEEED2Ev(%"class.std::__1::basic_ios"* %8), !dbg !2758
  ret void, !dbg !2758

; <label>:9                                       ; preds = %0
  %10 = landingpad { i8*, i32 } personality i8* bitcast (i32 (...)* @__gxx_personality_v0 to i8*)
          cleanup, !dbg !2758
  %11 = extractvalue { i8*, i32 } %10, 0, !dbg !2758
  store i8* %11, i8** %2, !dbg !2758
  %12 = extractvalue { i8*, i32 } %10, 1, !dbg !2758
  store i32 %12, i32* %3, !dbg !2758
  %13 = bitcast %"class.std::__1::basic_stringstream"* %4 to i8*, !dbg !2758
  %14 = getelementptr inbounds i8* %13, i64 128, !dbg !2758
  %15 = bitcast i8* %14 to %"class.std::__1::basic_ios"*, !dbg !2758
  invoke void @_ZNSt3__19basic_iosIcNS_11char_traitsIcEEED2Ev(%"class.std::__1::basic_ios"* %15)
          to label %16 unwind label %22, !dbg !2758

; <label>:16                                      ; preds = %9
  br label %17, !dbg !2758

; <label>:17                                      ; preds = %16
  %18 = load i8** %2, !dbg !2758
  %19 = load i32* %3, !dbg !2758
  %20 = insertvalue { i8*, i32 } undef, i8* %18, 0, !dbg !2758
  %21 = insertvalue { i8*, i32 } %20, i32 %19, 1, !dbg !2758
  resume { i8*, i32 } %21, !dbg !2758

; <label>:22                                      ; preds = %9
  %23 = landingpad { i8*, i32 } personality i8* bitcast (i32 (...)* @__gxx_personality_v0 to i8*)
          catch i8* null, !dbg !2758
  %24 = extractvalue { i8*, i32 } %23, 0, !dbg !2758
  call void @__clang_call_terminate(i8* %24) #10, !dbg !2758
  unreachable, !dbg !2758
}

; Function Attrs: ssp uwtable
define i32 @main() #0 {
  call void @_Z7log_onePcbddb(i8* getelementptr inbounds ([5 x i8]* @.str5, i32 0, i32 0), i1 zeroext true, double 1.200000e+00, double 2.100000e+00, i1 zeroext false), !dbg !2760
  ret i32 0, !dbg !2761
}

; Function Attrs: ssp uwtable
define linkonce_odr void @_ZNKSt3__115basic_stringbufIcNS_11char_traitsIcEENS_9allocatorIcEEE3strEv(%"class.std::__1::basic_string"* noalias sret %agg.result, %"class.std::__1::basic_stringbuf"* %this) #0 align 2 {
  %1 = alloca %"class.std::__1::__libcpp_compressed_pair_imp"*, align 8
  %2 = alloca %"class.std::__1::__compressed_pair"*, align 8
  %3 = alloca %"class.std::__1::basic_string"*, align 8
  %4 = alloca %"class.std::__1::allocator", align 1
  %5 = alloca %"class.std::__1::basic_string"*, align 8
  %6 = alloca %"class.std::__1::basic_streambuf"*, align 8
  %7 = alloca %"class.std::__1::allocator"*, align 8
  %__t2.i.i.i.i.i4 = alloca %"class.std::__1::allocator", align 1
  %8 = alloca %"class.std::__1::__libcpp_compressed_pair_imp"*, align 8
  %9 = alloca %"class.std::__1::allocator"*, align 8
  %__t2.i.i.i.i5 = alloca %"class.std::__1::allocator", align 1
  %10 = alloca %"class.std::__1::__compressed_pair"*, align 8
  %11 = alloca %"class.std::__1::allocator", align 1
  %__t2.i.i.i6 = alloca %"class.std::__1::allocator", align 1
  %12 = alloca %"class.std::__1::__compressed_pair"*, align 8
  %13 = alloca %"class.std::__1::basic_string"*, align 8
  %14 = alloca i8*, align 8
  %15 = alloca i8*, align 8
  %16 = alloca %"class.std::__1::allocator"*, align 8
  %17 = alloca %"class.std::__1::allocator", align 1
  %18 = alloca %"class.std::__1::basic_string"*, align 8
  %19 = alloca i8*, align 8
  %20 = alloca i8*, align 8
  %21 = alloca %"class.std::__1::allocator"*, align 8
  %22 = alloca %"class.std::__1::basic_streambuf"*, align 8
  %23 = alloca %"class.std::__1::basic_streambuf"*, align 8
  %24 = alloca %"class.std::__1::__libcpp_compressed_pair_imp"*, align 8
  %25 = alloca %"class.std::__1::__compressed_pair"*, align 8
  %26 = alloca %"class.std::__1::basic_string"*, align 8
  %27 = alloca %"class.std::__1::allocator", align 1
  %28 = alloca %"class.std::__1::basic_string"*, align 8
  %29 = alloca %"class.std::__1::basic_streambuf"*, align 8
  %30 = alloca %"class.std::__1::allocator"*, align 8
  %__t2.i.i.i.i.i1 = alloca %"class.std::__1::allocator", align 1
  %31 = alloca %"class.std::__1::__libcpp_compressed_pair_imp"*, align 8
  %32 = alloca %"class.std::__1::allocator"*, align 8
  %__t2.i.i.i.i2 = alloca %"class.std::__1::allocator", align 1
  %33 = alloca %"class.std::__1::__compressed_pair"*, align 8
  %34 = alloca %"class.std::__1::allocator", align 1
  %__t2.i.i.i3 = alloca %"class.std::__1::allocator", align 1
  %35 = alloca %"class.std::__1::__compressed_pair"*, align 8
  %36 = alloca %"class.std::__1::basic_string"*, align 8
  %37 = alloca i8*, align 8
  %38 = alloca i8*, align 8
  %39 = alloca %"class.std::__1::allocator"*, align 8
  %40 = alloca %"class.std::__1::allocator", align 1
  %41 = alloca %"class.std::__1::basic_string"*, align 8
  %42 = alloca i8*, align 8
  %43 = alloca i8*, align 8
  %44 = alloca %"class.std::__1::allocator"*, align 8
  %45 = alloca %"class.std::__1::__libcpp_compressed_pair_imp"*, align 8
  %46 = alloca %"class.std::__1::__compressed_pair"*, align 8
  %47 = alloca %"class.std::__1::basic_string"*, align 8
  %48 = alloca %"class.std::__1::allocator", align 1
  %49 = alloca %"class.std::__1::basic_string"*, align 8
  %50 = alloca %"class.std::__1::__libcpp_compressed_pair_imp"*, align 8
  %51 = alloca %"class.std::__1::__compressed_pair"*, align 8
  %52 = alloca %"class.std::__1::basic_string"*, align 8
  %__a.i.i.i = alloca [3 x i64]*, align 8
  %__i.i.i.i = alloca i32, align 4
  %53 = alloca %"class.std::__1::allocator"*, align 8
  %__t2.i.i.i.i.i = alloca %"class.std::__1::allocator", align 1
  %54 = alloca %"class.std::__1::__libcpp_compressed_pair_imp"*, align 8
  %55 = alloca %"class.std::__1::allocator"*, align 8
  %__t2.i.i.i.i = alloca %"class.std::__1::allocator", align 1
  %56 = alloca %"class.std::__1::__compressed_pair"*, align 8
  %57 = alloca %"class.std::__1::allocator", align 1
  %__t2.i.i.i = alloca %"class.std::__1::allocator", align 1
  %58 = alloca %"class.std::__1::__compressed_pair"*, align 8
  %59 = alloca %"class.std::__1::basic_string"*, align 8
  %60 = alloca %"class.std::__1::allocator"*, align 8
  %61 = alloca %"class.std::__1::allocator", align 1
  %62 = alloca %"class.std::__1::basic_string"*, align 8
  %63 = alloca %"class.std::__1::allocator"*, align 8
  %64 = alloca %"class.std::__1::basic_streambuf"*, align 8
  %65 = alloca %"class.std::__1::basic_stringbuf"*, align 8
  %66 = alloca %"class.std::__1::allocator", align 1
  %67 = alloca %"class.std::__1::allocator", align 1
  %68 = alloca %"class.std::__1::allocator", align 1
  %69 = alloca %"class.std::__1::allocator", align 1
  %70 = alloca %"class.std::__1::allocator", align 1
  %71 = alloca %"class.std::__1::allocator", align 1
  store %"class.std::__1::basic_stringbuf"* %this, %"class.std::__1::basic_stringbuf"** %65, align 8
  call void @llvm.dbg.declare(metadata !{%"class.std::__1::basic_stringbuf"** %65}, metadata !2762), !dbg !2764
  %72 = load %"class.std::__1::basic_stringbuf"** %65
  %73 = getelementptr inbounds %"class.std::__1::basic_stringbuf"* %72, i32 0, i32 3, !dbg !2765
  %74 = load i32* %73, align 4, !dbg !2765
  %75 = and i32 %74, 16, !dbg !2765
  %76 = icmp ne i32 %75, 0, !dbg !2765
  br i1 %76, label %77, label %124, !dbg !2765

; <label>:77                                      ; preds = %0
  %78 = getelementptr inbounds %"class.std::__1::basic_stringbuf"* %72, i32 0, i32 2, !dbg !2767
  %79 = load i8** %78, align 8, !dbg !2767
  %80 = bitcast %"class.std::__1::basic_stringbuf"* %72 to %"class.std::__1::basic_streambuf"*, !dbg !2767
  store %"class.std::__1::basic_streambuf"* %80, %"class.std::__1::basic_streambuf"** %64, align 8
  call void @llvm.dbg.declare(metadata !{%"class.std::__1::basic_streambuf"** %64}, metadata !2770), !dbg !2772
  %81 = load %"class.std::__1::basic_streambuf"** %64
  %82 = getelementptr inbounds %"class.std::__1::basic_streambuf"* %81, i32 0, i32 6, !dbg !2773
  %83 = load i8** %82, align 8, !dbg !2773
  %84 = icmp ult i8* %79, %83, !dbg !2767
  br i1 %84, label %85, label %91, !dbg !2767

; <label>:85                                      ; preds = %77
  %86 = bitcast %"class.std::__1::basic_stringbuf"* %72 to %"class.std::__1::basic_streambuf"*, !dbg !2774
  store %"class.std::__1::basic_streambuf"* %86, %"class.std::__1::basic_streambuf"** %29, align 8
  call void @llvm.dbg.declare(metadata !{%"class.std::__1::basic_streambuf"** %29}, metadata !2770), !dbg !2775
  %87 = load %"class.std::__1::basic_streambuf"** %29
  %88 = getelementptr inbounds %"class.std::__1::basic_streambuf"* %87, i32 0, i32 6, !dbg !2776
  %89 = load i8** %88, align 8, !dbg !2776
  %90 = getelementptr inbounds %"class.std::__1::basic_stringbuf"* %72, i32 0, i32 2, !dbg !2774
  store i8* %89, i8** %90, align 8, !dbg !2774
  br label %91, !dbg !2774

; <label>:91                                      ; preds = %85, %77
  %92 = bitcast %"class.std::__1::basic_stringbuf"* %72 to %"class.std::__1::basic_streambuf"*, !dbg !2777
  store %"class.std::__1::basic_streambuf"* %92, %"class.std::__1::basic_streambuf"** %6, align 8
  call void @llvm.dbg.declare(metadata !{%"class.std::__1::basic_streambuf"** %6}, metadata !2778), !dbg !2779
  %93 = load %"class.std::__1::basic_streambuf"** %6
  %94 = getelementptr inbounds %"class.std::__1::basic_streambuf"* %93, i32 0, i32 5, !dbg !2780
  %95 = load i8** %94, align 8, !dbg !2780
  %96 = getelementptr inbounds %"class.std::__1::basic_stringbuf"* %72, i32 0, i32 2, !dbg !2777
  %97 = load i8** %96, align 8, !dbg !2777
  %98 = getelementptr inbounds %"class.std::__1::basic_stringbuf"* %72, i32 0, i32 1, !dbg !2777
  store %"class.std::__1::basic_string"* %98, %"class.std::__1::basic_string"** %5, align 8
  call void @llvm.dbg.declare(metadata !{%"class.std::__1::basic_string"** %5}, metadata !2782), !dbg !2783
  %99 = load %"class.std::__1::basic_string"** %5
  store %"class.std::__1::basic_string"* %99, %"class.std::__1::basic_string"** %3, align 8
  call void @llvm.dbg.declare(metadata !{%"class.std::__1::basic_string"** %3}, metadata !2784), !dbg !2785
  %100 = load %"class.std::__1::basic_string"** %3
  %101 = getelementptr inbounds %"class.std::__1::basic_string"* %100, i32 0, i32 0, !dbg !2788
  store %"class.std::__1::__compressed_pair"* %101, %"class.std::__1::__compressed_pair"** %2, align 8
  call void @llvm.dbg.declare(metadata !{%"class.std::__1::__compressed_pair"** %2}, metadata !2789), !dbg !2790
  %102 = load %"class.std::__1::__compressed_pair"** %2
  %103 = bitcast %"class.std::__1::__compressed_pair"* %102 to %"class.std::__1::__libcpp_compressed_pair_imp"*, !dbg !2791
  store %"class.std::__1::__libcpp_compressed_pair_imp"* %103, %"class.std::__1::__libcpp_compressed_pair_imp"** %1, align 8
  call void @llvm.dbg.declare(metadata !{%"class.std::__1::__libcpp_compressed_pair_imp"** %1}, metadata !2793), !dbg !2794
  %104 = load %"class.std::__1::__libcpp_compressed_pair_imp"** %1
  %105 = bitcast %"class.std::__1::__libcpp_compressed_pair_imp"* %104 to %"class.std::__1::allocator"*, !dbg !2795
  store %"class.std::__1::basic_string"* %agg.result, %"class.std::__1::basic_string"** %18, align 8
  call void @llvm.dbg.declare(metadata !{%"class.std::__1::basic_string"** %18}, metadata !2796), !dbg !2797
  store i8* %95, i8** %19, align 8
  call void @llvm.dbg.declare(metadata !{i8** %19}, metadata !2798), !dbg !2799
  store i8* %97, i8** %20, align 8
  call void @llvm.dbg.declare(metadata !{i8** %20}, metadata !2800), !dbg !2799
  store %"class.std::__1::allocator"* %66, %"class.std::__1::allocator"** %21, align 8
  call void @llvm.dbg.declare(metadata !{%"class.std::__1::allocator"** %21}, metadata !2801), !dbg !2799
  %106 = load %"class.std::__1::basic_string"** %18
  %107 = load i8** %19, align 8, !dbg !2802
  %108 = load i8** %20, align 8, !dbg !2802
  %109 = load %"class.std::__1::allocator"** %21, !dbg !2802
  store %"class.std::__1::basic_string"* %106, %"class.std::__1::basic_string"** %13, align 8
  call void @llvm.dbg.declare(metadata !{%"class.std::__1::basic_string"** %13}, metadata !2804), !dbg !2805
  store i8* %107, i8** %14, align 8
  call void @llvm.dbg.declare(metadata !{i8** %14}, metadata !2806), !dbg !2807
  store i8* %108, i8** %15, align 8
  call void @llvm.dbg.declare(metadata !{i8** %15}, metadata !2808), !dbg !2807
  store %"class.std::__1::allocator"* %109, %"class.std::__1::allocator"** %16, align 8
  call void @llvm.dbg.declare(metadata !{%"class.std::__1::allocator"** %16}, metadata !2809), !dbg !2807
  %110 = load %"class.std::__1::basic_string"** %13
  %111 = bitcast %"class.std::__1::basic_string"* %110 to %"class.std::__1::__basic_string_common"*, !dbg !2810
  %112 = getelementptr inbounds %"class.std::__1::basic_string"* %110, i32 0, i32 0, !dbg !2810
  %113 = load %"class.std::__1::allocator"** %16, align 8, !dbg !2810
  store %"class.std::__1::__compressed_pair"* %112, %"class.std::__1::__compressed_pair"** %12, align 8
  call void @llvm.dbg.declare(metadata !{%"class.std::__1::__compressed_pair"** %12}, metadata !2811), !dbg !2812
  call void @llvm.dbg.declare(metadata !{%"class.std::__1::allocator"* %__t2.i.i.i6}, metadata !2813), !dbg !2814
  %114 = load %"class.std::__1::__compressed_pair"** %12
  store %"class.std::__1::__compressed_pair"* %114, %"class.std::__1::__compressed_pair"** %10, align 8
  call void @llvm.dbg.declare(metadata !{%"class.std::__1::__compressed_pair"** %10}, metadata !2815), !dbg !2816
  call void @llvm.dbg.declare(metadata !{%"class.std::__1::allocator"* %__t2.i.i.i.i5}, metadata !2818), !dbg !2819
  %115 = load %"class.std::__1::__compressed_pair"** %10
  %116 = bitcast %"class.std::__1::__compressed_pair"* %115 to %"class.std::__1::__libcpp_compressed_pair_imp"*, !dbg !2820
  store %"class.std::__1::allocator"* %__t2.i.i.i.i5, %"class.std::__1::allocator"** %9, align 8
  call void @llvm.dbg.declare(metadata !{%"class.std::__1::allocator"** %9}, metadata !2821), !dbg !2823
  %117 = load %"class.std::__1::allocator"** %9, align 8, !dbg !2825
  store %"class.std::__1::__libcpp_compressed_pair_imp"* %116, %"class.std::__1::__libcpp_compressed_pair_imp"** %8, align 8
  call void @llvm.dbg.declare(metadata !{%"class.std::__1::__libcpp_compressed_pair_imp"** %8}, metadata !2827), !dbg !2828
  call void @llvm.dbg.declare(metadata !{%"class.std::__1::allocator"* %__t2.i.i.i.i.i4}, metadata !2829), !dbg !2830
  %118 = load %"class.std::__1::__libcpp_compressed_pair_imp"** %8
  %119 = bitcast %"class.std::__1::__libcpp_compressed_pair_imp"* %118 to %"class.std::__1::allocator"*, !dbg !2831
  store %"class.std::__1::allocator"* %__t2.i.i.i.i.i4, %"class.std::__1::allocator"** %7, align 8
  call void @llvm.dbg.declare(metadata !{%"class.std::__1::allocator"** %7}, metadata !2821), !dbg !2832
  %120 = load %"class.std::__1::allocator"** %7, align 8, !dbg !2834
  %121 = getelementptr inbounds %"class.std::__1::__libcpp_compressed_pair_imp"* %118, i32 0, i32 0, !dbg !2833
  %122 = load i8** %14, align 8, !dbg !2835
  %123 = load i8** %15, align 8, !dbg !2835
  call void @_ZNSt3__112basic_stringIcNS_11char_traitsIcEENS_9allocatorIcEEE6__initIPcEENS_9enable_ifIXsr21__is_forward_iteratorIT_EE5valueEvE4typeES9_S9_(%"class.std::__1::basic_string"* %110, i8* %122, i8* %123), !dbg !2835
  br label %207, !dbg !2777

; <label>:124                                     ; preds = %0
  %125 = getelementptr inbounds %"class.std::__1::basic_stringbuf"* %72, i32 0, i32 3, !dbg !2837
  %126 = load i32* %125, align 4, !dbg !2837
  %127 = and i32 %126, 8, !dbg !2837
  %128 = icmp ne i32 %127, 0, !dbg !2837
  br i1 %128, label %129, label %164, !dbg !2837

; <label>:129                                     ; preds = %124
  %130 = bitcast %"class.std::__1::basic_stringbuf"* %72 to %"class.std::__1::basic_streambuf"*, !dbg !2839
  store %"class.std::__1::basic_streambuf"* %130, %"class.std::__1::basic_streambuf"** %22, align 8
  call void @llvm.dbg.declare(metadata !{%"class.std::__1::basic_streambuf"** %22}, metadata !2840), !dbg !2841
  %131 = load %"class.std::__1::basic_streambuf"** %22
  %132 = getelementptr inbounds %"class.std::__1::basic_streambuf"* %131, i32 0, i32 2, !dbg !2842
  %133 = load i8** %132, align 8, !dbg !2842
  %134 = bitcast %"class.std::__1::basic_stringbuf"* %72 to %"class.std::__1::basic_streambuf"*, !dbg !2839
  store %"class.std::__1::basic_streambuf"* %134, %"class.std::__1::basic_streambuf"** %23, align 8
  call void @llvm.dbg.declare(metadata !{%"class.std::__1::basic_streambuf"** %23}, metadata !2843), !dbg !2844
  %135 = load %"class.std::__1::basic_streambuf"** %23
  %136 = getelementptr inbounds %"class.std::__1::basic_streambuf"* %135, i32 0, i32 4, !dbg !2845
  %137 = load i8** %136, align 8, !dbg !2845
  %138 = getelementptr inbounds %"class.std::__1::basic_stringbuf"* %72, i32 0, i32 1, !dbg !2839
  store %"class.std::__1::basic_string"* %138, %"class.std::__1::basic_string"** %28, align 8
  call void @llvm.dbg.declare(metadata !{%"class.std::__1::basic_string"** %28}, metadata !2782), !dbg !2847
  %139 = load %"class.std::__1::basic_string"** %28
  store %"class.std::__1::basic_string"* %139, %"class.std::__1::basic_string"** %26, align 8
  call void @llvm.dbg.declare(metadata !{%"class.std::__1::basic_string"** %26}, metadata !2784), !dbg !2848
  %140 = load %"class.std::__1::basic_string"** %26
  %141 = getelementptr inbounds %"class.std::__1::basic_string"* %140, i32 0, i32 0, !dbg !2850
  store %"class.std::__1::__compressed_pair"* %141, %"class.std::__1::__compressed_pair"** %25, align 8
  call void @llvm.dbg.declare(metadata !{%"class.std::__1::__compressed_pair"** %25}, metadata !2789), !dbg !2851
  %142 = load %"class.std::__1::__compressed_pair"** %25
  %143 = bitcast %"class.std::__1::__compressed_pair"* %142 to %"class.std::__1::__libcpp_compressed_pair_imp"*, !dbg !2852
  store %"class.std::__1::__libcpp_compressed_pair_imp"* %143, %"class.std::__1::__libcpp_compressed_pair_imp"** %24, align 8
  call void @llvm.dbg.declare(metadata !{%"class.std::__1::__libcpp_compressed_pair_imp"** %24}, metadata !2793), !dbg !2853
  %144 = load %"class.std::__1::__libcpp_compressed_pair_imp"** %24
  %145 = bitcast %"class.std::__1::__libcpp_compressed_pair_imp"* %144 to %"class.std::__1::allocator"*, !dbg !2854
  store %"class.std::__1::basic_string"* %agg.result, %"class.std::__1::basic_string"** %41, align 8
  call void @llvm.dbg.declare(metadata !{%"class.std::__1::basic_string"** %41}, metadata !2796), !dbg !2855
  store i8* %133, i8** %42, align 8
  call void @llvm.dbg.declare(metadata !{i8** %42}, metadata !2798), !dbg !2856
  store i8* %137, i8** %43, align 8
  call void @llvm.dbg.declare(metadata !{i8** %43}, metadata !2800), !dbg !2856
  store %"class.std::__1::allocator"* %68, %"class.std::__1::allocator"** %44, align 8
  call void @llvm.dbg.declare(metadata !{%"class.std::__1::allocator"** %44}, metadata !2801), !dbg !2856
  %146 = load %"class.std::__1::basic_string"** %41
  %147 = load i8** %42, align 8, !dbg !2857
  %148 = load i8** %43, align 8, !dbg !2857
  %149 = load %"class.std::__1::allocator"** %44, !dbg !2857
  store %"class.std::__1::basic_string"* %146, %"class.std::__1::basic_string"** %36, align 8
  call void @llvm.dbg.declare(metadata !{%"class.std::__1::basic_string"** %36}, metadata !2804), !dbg !2858
  store i8* %147, i8** %37, align 8
  call void @llvm.dbg.declare(metadata !{i8** %37}, metadata !2806), !dbg !2859
  store i8* %148, i8** %38, align 8
  call void @llvm.dbg.declare(metadata !{i8** %38}, metadata !2808), !dbg !2859
  store %"class.std::__1::allocator"* %149, %"class.std::__1::allocator"** %39, align 8
  call void @llvm.dbg.declare(metadata !{%"class.std::__1::allocator"** %39}, metadata !2809), !dbg !2859
  %150 = load %"class.std::__1::basic_string"** %36
  %151 = bitcast %"class.std::__1::basic_string"* %150 to %"class.std::__1::__basic_string_common"*, !dbg !2860
  %152 = getelementptr inbounds %"class.std::__1::basic_string"* %150, i32 0, i32 0, !dbg !2860
  %153 = load %"class.std::__1::allocator"** %39, align 8, !dbg !2860
  store %"class.std::__1::__compressed_pair"* %152, %"class.std::__1::__compressed_pair"** %35, align 8
  call void @llvm.dbg.declare(metadata !{%"class.std::__1::__compressed_pair"** %35}, metadata !2811), !dbg !2861
  call void @llvm.dbg.declare(metadata !{%"class.std::__1::allocator"* %__t2.i.i.i3}, metadata !2813), !dbg !2862
  %154 = load %"class.std::__1::__compressed_pair"** %35
  store %"class.std::__1::__compressed_pair"* %154, %"class.std::__1::__compressed_pair"** %33, align 8
  call void @llvm.dbg.declare(metadata !{%"class.std::__1::__compressed_pair"** %33}, metadata !2815), !dbg !2863
  call void @llvm.dbg.declare(metadata !{%"class.std::__1::allocator"* %__t2.i.i.i.i2}, metadata !2818), !dbg !2865
  %155 = load %"class.std::__1::__compressed_pair"** %33
  %156 = bitcast %"class.std::__1::__compressed_pair"* %155 to %"class.std::__1::__libcpp_compressed_pair_imp"*, !dbg !2866
  store %"class.std::__1::allocator"* %__t2.i.i.i.i2, %"class.std::__1::allocator"** %32, align 8
  call void @llvm.dbg.declare(metadata !{%"class.std::__1::allocator"** %32}, metadata !2821), !dbg !2867
  %157 = load %"class.std::__1::allocator"** %32, align 8, !dbg !2869
  store %"class.std::__1::__libcpp_compressed_pair_imp"* %156, %"class.std::__1::__libcpp_compressed_pair_imp"** %31, align 8
  call void @llvm.dbg.declare(metadata !{%"class.std::__1::__libcpp_compressed_pair_imp"** %31}, metadata !2827), !dbg !2870
  call void @llvm.dbg.declare(metadata !{%"class.std::__1::allocator"* %__t2.i.i.i.i.i1}, metadata !2829), !dbg !2871
  %158 = load %"class.std::__1::__libcpp_compressed_pair_imp"** %31
  %159 = bitcast %"class.std::__1::__libcpp_compressed_pair_imp"* %158 to %"class.std::__1::allocator"*, !dbg !2872
  store %"class.std::__1::allocator"* %__t2.i.i.i.i.i1, %"class.std::__1::allocator"** %30, align 8
  call void @llvm.dbg.declare(metadata !{%"class.std::__1::allocator"** %30}, metadata !2821), !dbg !2873
  %160 = load %"class.std::__1::allocator"** %30, align 8, !dbg !2875
  %161 = getelementptr inbounds %"class.std::__1::__libcpp_compressed_pair_imp"* %158, i32 0, i32 0, !dbg !2874
  %162 = load i8** %37, align 8, !dbg !2876
  %163 = load i8** %38, align 8, !dbg !2876
  call void @_ZNSt3__112basic_stringIcNS_11char_traitsIcEENS_9allocatorIcEEE6__initIPcEENS_9enable_ifIXsr21__is_forward_iteratorIT_EE5valueEvE4typeES9_S9_(%"class.std::__1::basic_string"* %150, i8* %162, i8* %163), !dbg !2876
  br label %207, !dbg !2839

; <label>:164                                     ; preds = %124
  br label %165

; <label>:165                                     ; preds = %164
  %166 = getelementptr inbounds %"class.std::__1::basic_stringbuf"* %72, i32 0, i32 1, !dbg !2877
  store %"class.std::__1::basic_string"* %166, %"class.std::__1::basic_string"** %49, align 8
  call void @llvm.dbg.declare(metadata !{%"class.std::__1::basic_string"** %49}, metadata !2782), !dbg !2878
  %167 = load %"class.std::__1::basic_string"** %49
  store %"class.std::__1::basic_string"* %167, %"class.std::__1::basic_string"** %47, align 8
  call void @llvm.dbg.declare(metadata !{%"class.std::__1::basic_string"** %47}, metadata !2784), !dbg !2879
  %168 = load %"class.std::__1::basic_string"** %47
  %169 = getelementptr inbounds %"class.std::__1::basic_string"* %168, i32 0, i32 0, !dbg !2881
  store %"class.std::__1::__compressed_pair"* %169, %"class.std::__1::__compressed_pair"** %46, align 8
  call void @llvm.dbg.declare(metadata !{%"class.std::__1::__compressed_pair"** %46}, metadata !2789), !dbg !2882
  %170 = load %"class.std::__1::__compressed_pair"** %46
  %171 = bitcast %"class.std::__1::__compressed_pair"* %170 to %"class.std::__1::__libcpp_compressed_pair_imp"*, !dbg !2883
  store %"class.std::__1::__libcpp_compressed_pair_imp"* %171, %"class.std::__1::__libcpp_compressed_pair_imp"** %45, align 8
  call void @llvm.dbg.declare(metadata !{%"class.std::__1::__libcpp_compressed_pair_imp"** %45}, metadata !2793), !dbg !2884
  %172 = load %"class.std::__1::__libcpp_compressed_pair_imp"** %45
  %173 = bitcast %"class.std::__1::__libcpp_compressed_pair_imp"* %172 to %"class.std::__1::allocator"*, !dbg !2885
  store %"class.std::__1::basic_string"* %agg.result, %"class.std::__1::basic_string"** %62, align 8
  call void @llvm.dbg.declare(metadata !{%"class.std::__1::basic_string"** %62}, metadata !2886), !dbg !2887
  store %"class.std::__1::allocator"* %70, %"class.std::__1::allocator"** %63, align 8
  call void @llvm.dbg.declare(metadata !{%"class.std::__1::allocator"** %63}, metadata !2888), !dbg !2889
  %174 = load %"class.std::__1::basic_string"** %62
  %175 = load %"class.std::__1::allocator"** %63, !dbg !2890
  store %"class.std::__1::basic_string"* %174, %"class.std::__1::basic_string"** %59, align 8
  call void @llvm.dbg.declare(metadata !{%"class.std::__1::basic_string"** %59}, metadata !2892), !dbg !2893
  store %"class.std::__1::allocator"* %175, %"class.std::__1::allocator"** %60, align 8
  call void @llvm.dbg.declare(metadata !{%"class.std::__1::allocator"** %60}, metadata !2894), !dbg !2895
  %176 = load %"class.std::__1::basic_string"** %59
  %177 = bitcast %"class.std::__1::basic_string"* %176 to %"class.std::__1::__basic_string_common"*, !dbg !2896
  %178 = getelementptr inbounds %"class.std::__1::basic_string"* %176, i32 0, i32 0, !dbg !2896
  %179 = load %"class.std::__1::allocator"** %60, align 8, !dbg !2896
  store %"class.std::__1::__compressed_pair"* %178, %"class.std::__1::__compressed_pair"** %58, align 8
  call void @llvm.dbg.declare(metadata !{%"class.std::__1::__compressed_pair"** %58}, metadata !2811), !dbg !2897
  call void @llvm.dbg.declare(metadata !{%"class.std::__1::allocator"* %__t2.i.i.i}, metadata !2813), !dbg !2898
  %180 = load %"class.std::__1::__compressed_pair"** %58
  store %"class.std::__1::__compressed_pair"* %180, %"class.std::__1::__compressed_pair"** %56, align 8
  call void @llvm.dbg.declare(metadata !{%"class.std::__1::__compressed_pair"** %56}, metadata !2815), !dbg !2899
  call void @llvm.dbg.declare(metadata !{%"class.std::__1::allocator"* %__t2.i.i.i.i}, metadata !2818), !dbg !2901
  %181 = load %"class.std::__1::__compressed_pair"** %56
  %182 = bitcast %"class.std::__1::__compressed_pair"* %181 to %"class.std::__1::__libcpp_compressed_pair_imp"*, !dbg !2902
  store %"class.std::__1::allocator"* %__t2.i.i.i.i, %"class.std::__1::allocator"** %55, align 8
  call void @llvm.dbg.declare(metadata !{%"class.std::__1::allocator"** %55}, metadata !2821), !dbg !2903
  %183 = load %"class.std::__1::allocator"** %55, align 8, !dbg !2905
  store %"class.std::__1::__libcpp_compressed_pair_imp"* %182, %"class.std::__1::__libcpp_compressed_pair_imp"** %54, align 8
  call void @llvm.dbg.declare(metadata !{%"class.std::__1::__libcpp_compressed_pair_imp"** %54}, metadata !2827), !dbg !2906
  call void @llvm.dbg.declare(metadata !{%"class.std::__1::allocator"* %__t2.i.i.i.i.i}, metadata !2829), !dbg !2907
  %184 = load %"class.std::__1::__libcpp_compressed_pair_imp"** %54
  %185 = bitcast %"class.std::__1::__libcpp_compressed_pair_imp"* %184 to %"class.std::__1::allocator"*, !dbg !2908
  store %"class.std::__1::allocator"* %__t2.i.i.i.i.i, %"class.std::__1::allocator"** %53, align 8
  call void @llvm.dbg.declare(metadata !{%"class.std::__1::allocator"** %53}, metadata !2821), !dbg !2909
  %186 = load %"class.std::__1::allocator"** %53, align 8, !dbg !2911
  %187 = getelementptr inbounds %"class.std::__1::__libcpp_compressed_pair_imp"* %184, i32 0, i32 0, !dbg !2910
  store %"class.std::__1::basic_string"* %176, %"class.std::__1::basic_string"** %52, align 8
  call void @llvm.dbg.declare(metadata !{%"class.std::__1::basic_string"** %52}, metadata !2644), !dbg !2912
  %188 = load %"class.std::__1::basic_string"** %52
  call void @llvm.dbg.declare(metadata !{[3 x i64]** %__a.i.i.i}, metadata !2648), !dbg !2915
  %189 = getelementptr inbounds %"class.std::__1::basic_string"* %188, i32 0, i32 0, !dbg !2915
  store %"class.std::__1::__compressed_pair"* %189, %"class.std::__1::__compressed_pair"** %51, align 8
  call void @llvm.dbg.declare(metadata !{%"class.std::__1::__compressed_pair"** %51}, metadata !2652), !dbg !2916
  %190 = load %"class.std::__1::__compressed_pair"** %51
  %191 = bitcast %"class.std::__1::__compressed_pair"* %190 to %"class.std::__1::__libcpp_compressed_pair_imp"*, !dbg !2917
  store %"class.std::__1::__libcpp_compressed_pair_imp"* %191, %"class.std::__1::__libcpp_compressed_pair_imp"** %50, align 8
  call void @llvm.dbg.declare(metadata !{%"class.std::__1::__libcpp_compressed_pair_imp"** %50}, metadata !2656), !dbg !2918
  %192 = load %"class.std::__1::__libcpp_compressed_pair_imp"** %50
  %193 = getelementptr inbounds %"class.std::__1::__libcpp_compressed_pair_imp"* %192, i32 0, i32 0, !dbg !2919
  %194 = getelementptr inbounds %"struct.std::__1::basic_string<char, std::__1::char_traits<char>, std::__1::allocator<char> >::__rep"* %193, i32 0, i32 0, !dbg !2915
  %195 = bitcast %union.anon* %194 to %"struct.std::__1::basic_string<char, std::__1::char_traits<char>, std::__1::allocator<char> >::__raw"*, !dbg !2915
  %196 = getelementptr inbounds %"struct.std::__1::basic_string<char, std::__1::char_traits<char>, std::__1::allocator<char> >::__raw"* %195, i32 0, i32 0, !dbg !2915
  store [3 x i64]* %196, [3 x i64]** %__a.i.i.i, align 8, !dbg !2915
  call void @llvm.dbg.declare(metadata !{i32* %__i.i.i.i}, metadata !2659), !dbg !2920
  store i32 0, i32* %__i.i.i.i, align 4, !dbg !2920
  br label %197, !dbg !2920

; <label>:197                                     ; preds = %200, %165
  %198 = load i32* %__i.i.i.i, align 4, !dbg !2920
  %199 = icmp ult i32 %198, 3, !dbg !2920
  br i1 %199, label %200, label %_ZNSt3__112basic_stringIcNS_11char_traitsIcEENS_9allocatorIcEEEC1ERKS4_.exit, !dbg !2920

; <label>:200                                     ; preds = %197
  %201 = load i32* %__i.i.i.i, align 4, !dbg !2921
  %202 = zext i32 %201 to i64, !dbg !2921
  %203 = load [3 x i64]** %__a.i.i.i, align 8, !dbg !2921
  %204 = getelementptr inbounds [3 x i64]* %203, i32 0, i64 %202, !dbg !2921
  store i64 0, i64* %204, align 8, !dbg !2921
  %205 = load i32* %__i.i.i.i, align 4, !dbg !2920
  %206 = add i32 %205, 1, !dbg !2920
  store i32 %206, i32* %__i.i.i.i, align 4, !dbg !2920
  br label %197, !dbg !2920

_ZNSt3__112basic_stringIcNS_11char_traitsIcEENS_9allocatorIcEEEC1ERKS4_.exit: ; preds = %197
  br label %207, !dbg !2877

; <label>:207                                     ; preds = %_ZNSt3__112basic_stringIcNS_11char_traitsIcEENS_9allocatorIcEEEC1ERKS4_.exit, %129, %91
  ret void, !dbg !2922
}

; Function Attrs: ssp uwtable
define linkonce_odr void @_ZNSt3__112basic_stringIcNS_11char_traitsIcEENS_9allocatorIcEEE6__initIPcEENS_9enable_ifIXsr21__is_forward_iteratorIT_EE5valueEvE4typeES9_S9_(%"class.std::__1::basic_string"* %this, i8* %__first, i8* %__last) #0 align 2 {
  %1 = alloca %"class.std::__1::__libcpp_compressed_pair_imp"*, align 8
  %2 = alloca %"class.std::__1::__compressed_pair"*, align 8
  %3 = alloca %"class.std::__1::basic_string"*, align 8
  %4 = alloca i64, align 8
  %5 = alloca i8*, align 8
  %6 = alloca i8*, align 8
  %7 = alloca %"class.std::__1::__libcpp_compressed_pair_imp"*, align 8
  %8 = alloca %"class.std::__1::__compressed_pair"*, align 8
  %9 = alloca %"class.std::__1::basic_string"*, align 8
  %10 = alloca i64, align 8
  %11 = alloca i64, align 8
  %12 = alloca %"class.std::__1::__libcpp_compressed_pair_imp"*, align 8
  %13 = alloca %"class.std::__1::__compressed_pair"*, align 8
  %14 = alloca %"class.std::__1::basic_string"*, align 8
  %15 = alloca %"class.std::__1::allocator"*, align 8
  %16 = alloca %"struct.std::__1::integral_constant", align 1
  %17 = alloca %"class.std::__1::allocator"*, align 8
  %18 = alloca %"class.std::__1::allocator"*, align 8
  %19 = alloca %"struct.std::__1::integral_constant", align 1
  %20 = alloca %"struct.std::__1::__has_max_size", align 1
  %21 = alloca i8*
  %22 = alloca i32
  %23 = alloca %"class.std::__1::__libcpp_compressed_pair_imp"*, align 8
  %24 = alloca %"class.std::__1::__compressed_pair"*, align 8
  %25 = alloca %"class.std::__1::basic_string"*, align 8
  %26 = alloca %"class.std::__1::basic_string"*, align 8
  %__m.i = alloca i64, align 8
  %27 = alloca %"class.std::__1::allocator"*, align 8
  %28 = alloca i64, align 8
  %29 = alloca i8*, align 8
  %30 = alloca %"class.std::__1::allocator"*, align 8
  %31 = alloca i64, align 8
  %32 = alloca %"class.std::__1::__libcpp_compressed_pair_imp"*, align 8
  %33 = alloca %"class.std::__1::__compressed_pair"*, align 8
  %34 = alloca %"class.std::__1::basic_string"*, align 8
  %35 = alloca i8*, align 8
  %36 = alloca %"class.std::__1::__libcpp_compressed_pair_imp"*, align 8
  %37 = alloca %"class.std::__1::__compressed_pair"*, align 8
  %38 = alloca %"class.std::__1::basic_string"*, align 8
  %39 = alloca i64, align 8
  %40 = alloca %"class.std::__1::__libcpp_compressed_pair_imp"*, align 8
  %41 = alloca %"class.std::__1::__compressed_pair"*, align 8
  %42 = alloca %"class.std::__1::basic_string"*, align 8
  %43 = alloca i64, align 8
  %44 = alloca i8*, align 8
  %45 = alloca i8*, align 8
  %46 = alloca i8*, align 8
  %47 = alloca i8*, align 8
  %48 = alloca i8*, align 8
  %49 = alloca i8*, align 8
  %50 = alloca i8*, align 8
  %51 = alloca i8*, align 8
  %52 = alloca %"struct.std::__1::random_access_iterator_tag", align 1
  %53 = alloca %"class.std::__1::basic_string"*, align 8
  %54 = alloca i8*, align 8
  %55 = alloca i8*, align 8
  %__sz = alloca i64, align 8
  %__p = alloca i8*, align 8
  %__cap = alloca i64, align 8
  %56 = alloca i8, align 1
  store %"class.std::__1::basic_string"* %this, %"class.std::__1::basic_string"** %53, align 8
  call void @llvm.dbg.declare(metadata !{%"class.std::__1::basic_string"** %53}, metadata !2923), !dbg !2924
  store i8* %__first, i8** %54, align 8
  call void @llvm.dbg.declare(metadata !{i8** %54}, metadata !2925), !dbg !2926
  store i8* %__last, i8** %55, align 8
  call void @llvm.dbg.declare(metadata !{i8** %55}, metadata !2927), !dbg !2926
  %57 = load %"class.std::__1::basic_string"** %53
  call void @llvm.dbg.declare(metadata !{i64* %__sz}, metadata !2928), !dbg !2929
  %58 = load i8** %54, align 8, !dbg !2930
  %59 = load i8** %55, align 8, !dbg !2930
  store i8* %58, i8** %50, align 8
  call void @llvm.dbg.declare(metadata !{i8** %50}, metadata !2931), !dbg !2933
  store i8* %59, i8** %51, align 8
  call void @llvm.dbg.declare(metadata !{i8** %51}, metadata !2934), !dbg !2933
  %60 = load i8** %50, align 8, !dbg !2935
  %61 = load i8** %51, align 8, !dbg !2935
  store i8* %60, i8** %48, align 8
  call void @llvm.dbg.declare(metadata !{i8** %48}, metadata !2937), !dbg !2938
  store i8* %61, i8** %49, align 8
  call void @llvm.dbg.declare(metadata !{i8** %49}, metadata !2939), !dbg !2938
  call void @llvm.dbg.declare(metadata !{null}, metadata !2940), !dbg !2938
  %62 = load i8** %49, align 8, !dbg !2941
  %63 = load i8** %48, align 8, !dbg !2941
  %64 = ptrtoint i8* %62 to i64, !dbg !2941
  %65 = ptrtoint i8* %63 to i64, !dbg !2941
  %66 = sub i64 %64, %65, !dbg !2941
  store i64 %66, i64* %__sz, align 8, !dbg !2930
  %67 = load i64* %__sz, align 8, !dbg !2942
  store %"class.std::__1::basic_string"* %57, %"class.std::__1::basic_string"** %26, align 8
  call void @llvm.dbg.declare(metadata !{%"class.std::__1::basic_string"** %26}, metadata !2944), !dbg !2945
  %68 = load %"class.std::__1::basic_string"** %26
  call void @llvm.dbg.declare(metadata !{i64* %__m.i}, metadata !2946), !dbg !2947
  store %"class.std::__1::basic_string"* %68, %"class.std::__1::basic_string"** %25, align 8
  call void @llvm.dbg.declare(metadata !{%"class.std::__1::basic_string"** %25}, metadata !2784), !dbg !2948
  %69 = load %"class.std::__1::basic_string"** %25
  %70 = getelementptr inbounds %"class.std::__1::basic_string"* %69, i32 0, i32 0, !dbg !2949
  store %"class.std::__1::__compressed_pair"* %70, %"class.std::__1::__compressed_pair"** %24, align 8
  call void @llvm.dbg.declare(metadata !{%"class.std::__1::__compressed_pair"** %24}, metadata !2789), !dbg !2950
  %71 = load %"class.std::__1::__compressed_pair"** %24
  %72 = bitcast %"class.std::__1::__compressed_pair"* %71 to %"class.std::__1::__libcpp_compressed_pair_imp"*, !dbg !2951
  store %"class.std::__1::__libcpp_compressed_pair_imp"* %72, %"class.std::__1::__libcpp_compressed_pair_imp"** %23, align 8
  call void @llvm.dbg.declare(metadata !{%"class.std::__1::__libcpp_compressed_pair_imp"** %23}, metadata !2793), !dbg !2952
  %73 = load %"class.std::__1::__libcpp_compressed_pair_imp"** %23
  %74 = bitcast %"class.std::__1::__libcpp_compressed_pair_imp"* %73 to %"class.std::__1::allocator"*, !dbg !2953
  store %"class.std::__1::allocator"* %74, %"class.std::__1::allocator"** %18, align 8
  call void @llvm.dbg.declare(metadata !{%"class.std::__1::allocator"** %18}, metadata !2954), !dbg !2955
  %75 = bitcast %"struct.std::__1::__has_max_size"* %20 to %"struct.std::__1::integral_constant"*, !dbg !2956
  %76 = load %"class.std::__1::allocator"** %18, align 8, !dbg !2956
  call void @llvm.dbg.declare(metadata !{%"struct.std::__1::integral_constant"* %16}, metadata !2957), !dbg !2958
  store %"class.std::__1::allocator"* %76, %"class.std::__1::allocator"** %17, align 8
  call void @llvm.dbg.declare(metadata !{%"class.std::__1::allocator"** %17}, metadata !2959), !dbg !2958
  %77 = load %"class.std::__1::allocator"** %17, align 8, !dbg !2960
  store %"class.std::__1::allocator"* %77, %"class.std::__1::allocator"** %15, align 8
  call void @llvm.dbg.declare(metadata !{%"class.std::__1::allocator"** %15}, metadata !2961), !dbg !2963
  %78 = load %"class.std::__1::allocator"** %15
  store i64 -1, i64* %__m.i, align 8, !dbg !2947
  %79 = load i64* %__m.i, align 8, !dbg !2964
  %80 = sub i64 %79, 16, !dbg !2964
  %81 = icmp ugt i64 %67, %80, !dbg !2942
  br i1 %81, label %82, label %84, !dbg !2942

; <label>:82                                      ; preds = %0
  %83 = bitcast %"class.std::__1::basic_string"* %57 to %"class.std::__1::__basic_string_common"*, !dbg !2965
  call void @_ZNKSt3__121__basic_string_commonILb1EE20__throw_length_errorEv(%"class.std::__1::__basic_string_common"* %83), !dbg !2965
  br label %84, !dbg !2965

; <label>:84                                      ; preds = %82, %0
  call void @llvm.dbg.declare(metadata !{i8** %__p}, metadata !2966), !dbg !2967
  %85 = load i64* %__sz, align 8, !dbg !2968
  %86 = icmp ult i64 %85, 23, !dbg !2968
  br i1 %86, label %87, label %114, !dbg !2968

; <label>:87                                      ; preds = %84
  %88 = load i64* %__sz, align 8, !dbg !2970
  store %"class.std::__1::basic_string"* %57, %"class.std::__1::basic_string"** %3, align 8
  call void @llvm.dbg.declare(metadata !{%"class.std::__1::basic_string"** %3}, metadata !2972), !dbg !2973
  store i64 %88, i64* %4, align 8
  call void @llvm.dbg.declare(metadata !{i64* %4}, metadata !2974), !dbg !2975
  %89 = load %"class.std::__1::basic_string"** %3
  %90 = load i64* %4, align 8, !dbg !2976
  %91 = shl i64 %90, 1, !dbg !2976
  %92 = trunc i64 %91 to i8, !dbg !2976
  %93 = getelementptr inbounds %"class.std::__1::basic_string"* %89, i32 0, i32 0, !dbg !2976
  store %"class.std::__1::__compressed_pair"* %93, %"class.std::__1::__compressed_pair"** %2, align 8
  call void @llvm.dbg.declare(metadata !{%"class.std::__1::__compressed_pair"** %2}, metadata !2652), !dbg !2978
  %94 = load %"class.std::__1::__compressed_pair"** %2
  %95 = bitcast %"class.std::__1::__compressed_pair"* %94 to %"class.std::__1::__libcpp_compressed_pair_imp"*, !dbg !2979
  store %"class.std::__1::__libcpp_compressed_pair_imp"* %95, %"class.std::__1::__libcpp_compressed_pair_imp"** %1, align 8
  call void @llvm.dbg.declare(metadata !{%"class.std::__1::__libcpp_compressed_pair_imp"** %1}, metadata !2656), !dbg !2980
  %96 = load %"class.std::__1::__libcpp_compressed_pair_imp"** %1
  %97 = getelementptr inbounds %"class.std::__1::__libcpp_compressed_pair_imp"* %96, i32 0, i32 0, !dbg !2981
  %98 = getelementptr inbounds %"struct.std::__1::basic_string<char, std::__1::char_traits<char>, std::__1::allocator<char> >::__rep"* %97, i32 0, i32 0, !dbg !2976
  %99 = bitcast %union.anon* %98 to %"struct.std::__1::basic_string<char, std::__1::char_traits<char>, std::__1::allocator<char> >::__short"*, !dbg !2976
  %100 = getelementptr inbounds %"struct.std::__1::basic_string<char, std::__1::char_traits<char>, std::__1::allocator<char> >::__short"* %99, i32 0, i32 0, !dbg !2976
  %101 = bitcast %union.anon.0* %100 to i8*, !dbg !2976
  store i8 %92, i8* %101, align 1, !dbg !2976
  store %"class.std::__1::basic_string"* %57, %"class.std::__1::basic_string"** %9, align 8
  call void @llvm.dbg.declare(metadata !{%"class.std::__1::basic_string"** %9}, metadata !2982), !dbg !2983
  %102 = load %"class.std::__1::basic_string"** %9
  %103 = getelementptr inbounds %"class.std::__1::basic_string"* %102, i32 0, i32 0, !dbg !2985
  store %"class.std::__1::__compressed_pair"* %103, %"class.std::__1::__compressed_pair"** %8, align 8
  call void @llvm.dbg.declare(metadata !{%"class.std::__1::__compressed_pair"** %8}, metadata !2652), !dbg !2986
  %104 = load %"class.std::__1::__compressed_pair"** %8
  %105 = bitcast %"class.std::__1::__compressed_pair"* %104 to %"class.std::__1::__libcpp_compressed_pair_imp"*, !dbg !2987
  store %"class.std::__1::__libcpp_compressed_pair_imp"* %105, %"class.std::__1::__libcpp_compressed_pair_imp"** %7, align 8
  call void @llvm.dbg.declare(metadata !{%"class.std::__1::__libcpp_compressed_pair_imp"** %7}, metadata !2656), !dbg !2988
  %106 = load %"class.std::__1::__libcpp_compressed_pair_imp"** %7
  %107 = getelementptr inbounds %"class.std::__1::__libcpp_compressed_pair_imp"* %106, i32 0, i32 0, !dbg !2989
  %108 = getelementptr inbounds %"struct.std::__1::basic_string<char, std::__1::char_traits<char>, std::__1::allocator<char> >::__rep"* %107, i32 0, i32 0, !dbg !2985
  %109 = bitcast %union.anon* %108 to %"struct.std::__1::basic_string<char, std::__1::char_traits<char>, std::__1::allocator<char> >::__short"*, !dbg !2985
  %110 = getelementptr inbounds %"struct.std::__1::basic_string<char, std::__1::char_traits<char>, std::__1::allocator<char> >::__short"* %109, i32 0, i32 1, !dbg !2985
  %111 = getelementptr inbounds [23 x i8]* %110, i32 0, i64 0, !dbg !2985
  store i8* %111, i8** %6, align 8
  call void @llvm.dbg.declare(metadata !{i8** %6}, metadata !2990), !dbg !2991
  %112 = load i8** %6, align 8, !dbg !2992
  store i8* %112, i8** %5, align 8
  call void @llvm.dbg.declare(metadata !{i8** %5}, metadata !2994), !dbg !2995
  %113 = load i8** %5, align 8, !dbg !2996
  store i8* %113, i8** %__p, align 8, !dbg !2984
  br label %175, !dbg !2998

; <label>:114                                     ; preds = %84
  call void @llvm.dbg.declare(metadata !{i64* %__cap}, metadata !2999), !dbg !3001
  %115 = load i64* %__sz, align 8, !dbg !3001
  store i64 %115, i64* %11, align 8
  call void @llvm.dbg.declare(metadata !{i64* %11}, metadata !3002), !dbg !3003
  %116 = load i64* %11, align 8, !dbg !3004
  %117 = icmp ult i64 %116, 23, !dbg !3004
  br i1 %117, label %118, label %119, !dbg !3004

; <label>:118                                     ; preds = %114
  br label %_ZNSt3__112basic_stringIcNS_11char_traitsIcEENS_9allocatorIcEEE11__recommendEm.exit, !dbg !3004

; <label>:119                                     ; preds = %114
  %120 = load i64* %11, align 8, !dbg !3006
  %121 = add i64 %120, 1, !dbg !3006
  store i64 %121, i64* %10, align 8
  call void @llvm.dbg.declare(metadata !{i64* %10}, metadata !3007), !dbg !3008
  %122 = load i64* %10, align 8, !dbg !3009
  %123 = add i64 %122, 15, !dbg !3009
  %124 = and i64 %123, -16, !dbg !3009
  br label %_ZNSt3__112basic_stringIcNS_11char_traitsIcEENS_9allocatorIcEEE11__recommendEm.exit, !dbg !3006

_ZNSt3__112basic_stringIcNS_11char_traitsIcEENS_9allocatorIcEEE11__recommendEm.exit: ; preds = %118, %119
  %125 = phi i64 [ 23, %118 ], [ %124, %119 ], !dbg !3006
  %126 = sub i64 %125, 1, !dbg !3006
  store i64 %126, i64* %__cap, align 8, !dbg !3001
  store %"class.std::__1::basic_string"* %57, %"class.std::__1::basic_string"** %14, align 8
  call void @llvm.dbg.declare(metadata !{%"class.std::__1::basic_string"** %14}, metadata !3010), !dbg !3011
  %127 = load %"class.std::__1::basic_string"** %14
  %128 = getelementptr inbounds %"class.std::__1::basic_string"* %127, i32 0, i32 0, !dbg !3013
  store %"class.std::__1::__compressed_pair"* %128, %"class.std::__1::__compressed_pair"** %13, align 8
  call void @llvm.dbg.declare(metadata !{%"class.std::__1::__compressed_pair"** %13}, metadata !3014), !dbg !3015
  %129 = load %"class.std::__1::__compressed_pair"** %13
  %130 = bitcast %"class.std::__1::__compressed_pair"* %129 to %"class.std::__1::__libcpp_compressed_pair_imp"*, !dbg !3016
  store %"class.std::__1::__libcpp_compressed_pair_imp"* %130, %"class.std::__1::__libcpp_compressed_pair_imp"** %12, align 8
  call void @llvm.dbg.declare(metadata !{%"class.std::__1::__libcpp_compressed_pair_imp"** %12}, metadata !3018), !dbg !3019
  %131 = load %"class.std::__1::__libcpp_compressed_pair_imp"** %12
  %132 = bitcast %"class.std::__1::__libcpp_compressed_pair_imp"* %131 to %"class.std::__1::allocator"*, !dbg !3020
  %133 = load i64* %__cap, align 8, !dbg !3012
  %134 = add i64 %133, 1, !dbg !3012
  store %"class.std::__1::allocator"* %132, %"class.std::__1::allocator"** %30, align 8
  call void @llvm.dbg.declare(metadata !{%"class.std::__1::allocator"** %30}, metadata !3021), !dbg !3022
  store i64 %134, i64* %31, align 8
  call void @llvm.dbg.declare(metadata !{i64* %31}, metadata !3023), !dbg !3022
  %135 = load %"class.std::__1::allocator"** %30, align 8, !dbg !3024
  %136 = load i64* %31, align 8, !dbg !3024
  store %"class.std::__1::allocator"* %135, %"class.std::__1::allocator"** %27, align 8
  call void @llvm.dbg.declare(metadata !{%"class.std::__1::allocator"** %27}, metadata !3025), !dbg !3026
  store i64 %136, i64* %28, align 8
  call void @llvm.dbg.declare(metadata !{i64* %28}, metadata !3027), !dbg !3028
  store i8* null, i8** %29, align 8
  call void @llvm.dbg.declare(metadata !{i8** %29}, metadata !3029), !dbg !3028
  %137 = load %"class.std::__1::allocator"** %27
  %138 = load i64* %28, align 8, !dbg !3030
  %139 = call noalias i8* @_Znwm(i64 %138), !dbg !3030
  store i8* %139, i8** %__p, align 8, !dbg !3012
  %140 = load i8** %__p, align 8, !dbg !3031
  store %"class.std::__1::basic_string"* %57, %"class.std::__1::basic_string"** %34, align 8
  call void @llvm.dbg.declare(metadata !{%"class.std::__1::basic_string"** %34}, metadata !3032), !dbg !3033
  store i8* %140, i8** %35, align 8
  call void @llvm.dbg.declare(metadata !{i8** %35}, metadata !3034), !dbg !3035
  %141 = load %"class.std::__1::basic_string"** %34
  %142 = load i8** %35, align 8, !dbg !3036
  %143 = getelementptr inbounds %"class.std::__1::basic_string"* %141, i32 0, i32 0, !dbg !3036
  store %"class.std::__1::__compressed_pair"* %143, %"class.std::__1::__compressed_pair"** %33, align 8
  call void @llvm.dbg.declare(metadata !{%"class.std::__1::__compressed_pair"** %33}, metadata !2652), !dbg !3037
  %144 = load %"class.std::__1::__compressed_pair"** %33
  %145 = bitcast %"class.std::__1::__compressed_pair"* %144 to %"class.std::__1::__libcpp_compressed_pair_imp"*, !dbg !3038
  store %"class.std::__1::__libcpp_compressed_pair_imp"* %145, %"class.std::__1::__libcpp_compressed_pair_imp"** %32, align 8
  call void @llvm.dbg.declare(metadata !{%"class.std::__1::__libcpp_compressed_pair_imp"** %32}, metadata !2656), !dbg !3039
  %146 = load %"class.std::__1::__libcpp_compressed_pair_imp"** %32
  %147 = getelementptr inbounds %"class.std::__1::__libcpp_compressed_pair_imp"* %146, i32 0, i32 0, !dbg !3040
  %148 = getelementptr inbounds %"struct.std::__1::basic_string<char, std::__1::char_traits<char>, std::__1::allocator<char> >::__rep"* %147, i32 0, i32 0, !dbg !3036
  %149 = bitcast %union.anon* %148 to %"struct.std::__1::basic_string<char, std::__1::char_traits<char>, std::__1::allocator<char> >::__long"*, !dbg !3036
  %150 = getelementptr inbounds %"struct.std::__1::basic_string<char, std::__1::char_traits<char>, std::__1::allocator<char> >::__long"* %149, i32 0, i32 2, !dbg !3036
  store i8* %142, i8** %150, align 8, !dbg !3036
  %151 = load i64* %__cap, align 8, !dbg !3041
  %152 = add i64 %151, 1, !dbg !3041
  store %"class.std::__1::basic_string"* %57, %"class.std::__1::basic_string"** %38, align 8
  call void @llvm.dbg.declare(metadata !{%"class.std::__1::basic_string"** %38}, metadata !3042), !dbg !3043
  store i64 %152, i64* %39, align 8
  call void @llvm.dbg.declare(metadata !{i64* %39}, metadata !3044), !dbg !3045
  %153 = load %"class.std::__1::basic_string"** %38
  %154 = load i64* %39, align 8, !dbg !3046
  %155 = or i64 1, %154, !dbg !3046
  %156 = getelementptr inbounds %"class.std::__1::basic_string"* %153, i32 0, i32 0, !dbg !3046
  store %"class.std::__1::__compressed_pair"* %156, %"class.std::__1::__compressed_pair"** %37, align 8
  call void @llvm.dbg.declare(metadata !{%"class.std::__1::__compressed_pair"** %37}, metadata !2652), !dbg !3047
  %157 = load %"class.std::__1::__compressed_pair"** %37
  %158 = bitcast %"class.std::__1::__compressed_pair"* %157 to %"class.std::__1::__libcpp_compressed_pair_imp"*, !dbg !3048
  store %"class.std::__1::__libcpp_compressed_pair_imp"* %158, %"class.std::__1::__libcpp_compressed_pair_imp"** %36, align 8
  call void @llvm.dbg.declare(metadata !{%"class.std::__1::__libcpp_compressed_pair_imp"** %36}, metadata !2656), !dbg !3049
  %159 = load %"class.std::__1::__libcpp_compressed_pair_imp"** %36
  %160 = getelementptr inbounds %"class.std::__1::__libcpp_compressed_pair_imp"* %159, i32 0, i32 0, !dbg !3050
  %161 = getelementptr inbounds %"struct.std::__1::basic_string<char, std::__1::char_traits<char>, std::__1::allocator<char> >::__rep"* %160, i32 0, i32 0, !dbg !3046
  %162 = bitcast %union.anon* %161 to %"struct.std::__1::basic_string<char, std::__1::char_traits<char>, std::__1::allocator<char> >::__long"*, !dbg !3046
  %163 = getelementptr inbounds %"struct.std::__1::basic_string<char, std::__1::char_traits<char>, std::__1::allocator<char> >::__long"* %162, i32 0, i32 0, !dbg !3046
  store i64 %155, i64* %163, align 8, !dbg !3046
  %164 = load i64* %__sz, align 8, !dbg !3051
  store %"class.std::__1::basic_string"* %57, %"class.std::__1::basic_string"** %42, align 8
  call void @llvm.dbg.declare(metadata !{%"class.std::__1::basic_string"** %42}, metadata !3052), !dbg !3053
  store i64 %164, i64* %43, align 8
  call void @llvm.dbg.declare(metadata !{i64* %43}, metadata !3054), !dbg !3055
  %165 = load %"class.std::__1::basic_string"** %42
  %166 = load i64* %43, align 8, !dbg !3056
  %167 = getelementptr inbounds %"class.std::__1::basic_string"* %165, i32 0, i32 0, !dbg !3056
  store %"class.std::__1::__compressed_pair"* %167, %"class.std::__1::__compressed_pair"** %41, align 8
  call void @llvm.dbg.declare(metadata !{%"class.std::__1::__compressed_pair"** %41}, metadata !2652), !dbg !3057
  %168 = load %"class.std::__1::__compressed_pair"** %41
  %169 = bitcast %"class.std::__1::__compressed_pair"* %168 to %"class.std::__1::__libcpp_compressed_pair_imp"*, !dbg !3058
  store %"class.std::__1::__libcpp_compressed_pair_imp"* %169, %"class.std::__1::__libcpp_compressed_pair_imp"** %40, align 8
  call void @llvm.dbg.declare(metadata !{%"class.std::__1::__libcpp_compressed_pair_imp"** %40}, metadata !2656), !dbg !3059
  %170 = load %"class.std::__1::__libcpp_compressed_pair_imp"** %40
  %171 = getelementptr inbounds %"class.std::__1::__libcpp_compressed_pair_imp"* %170, i32 0, i32 0, !dbg !3060
  %172 = getelementptr inbounds %"struct.std::__1::basic_string<char, std::__1::char_traits<char>, std::__1::allocator<char> >::__rep"* %171, i32 0, i32 0, !dbg !3056
  %173 = bitcast %union.anon* %172 to %"struct.std::__1::basic_string<char, std::__1::char_traits<char>, std::__1::allocator<char> >::__long"*, !dbg !3056
  %174 = getelementptr inbounds %"struct.std::__1::basic_string<char, std::__1::char_traits<char>, std::__1::allocator<char> >::__long"* %173, i32 0, i32 1, !dbg !3056
  store i64 %166, i64* %174, align 8, !dbg !3056
  br label %175

; <label>:175                                     ; preds = %_ZNSt3__112basic_stringIcNS_11char_traitsIcEENS_9allocatorIcEEE11__recommendEm.exit, %87
  br label %176, !dbg !3061

; <label>:176                                     ; preds = %186, %175
  %177 = load i8** %54, align 8, !dbg !3061
  %178 = load i8** %55, align 8, !dbg !3061
  %179 = icmp ne i8* %177, %178, !dbg !3061
  br i1 %179, label %180, label %191, !dbg !3061

; <label>:180                                     ; preds = %176
  %181 = load i8** %__p, align 8, !dbg !3063
  %182 = load i8** %54, align 8, !dbg !3063
  store i8* %181, i8** %44, align 8
  call void @llvm.dbg.declare(metadata !{i8** %44}, metadata !3064), !dbg !3065
  store i8* %182, i8** %45, align 8
  call void @llvm.dbg.declare(metadata !{i8** %45}, metadata !3066), !dbg !3065
  %183 = load i8** %45, align 8, !dbg !3067
  %184 = load i8* %183, align 1, !dbg !3067
  %185 = load i8** %44, align 8, !dbg !3067
  store i8 %184, i8* %185, align 1, !dbg !3067
  br label %186, !dbg !3063

; <label>:186                                     ; preds = %180
  %187 = load i8** %54, align 8, !dbg !3061
  %188 = getelementptr inbounds i8* %187, i32 1, !dbg !3061
  store i8* %188, i8** %54, align 8, !dbg !3061
  %189 = load i8** %__p, align 8, !dbg !3061
  %190 = getelementptr inbounds i8* %189, i32 1, !dbg !3061
  store i8* %190, i8** %__p, align 8, !dbg !3061
  br label %176, !dbg !3061

; <label>:191                                     ; preds = %176
  %192 = load i8** %__p, align 8, !dbg !3068
  store i8 0, i8* %56, !dbg !3068
  store i8* %192, i8** %46, align 8
  call void @llvm.dbg.declare(metadata !{i8** %46}, metadata !3064), !dbg !3069
  store i8* %56, i8** %47, align 8
  call void @llvm.dbg.declare(metadata !{i8** %47}, metadata !3066), !dbg !3069
  %193 = load i8** %47, align 8, !dbg !3070
  %194 = load i8* %193, align 1, !dbg !3070
  %195 = load i8** %46, align 8, !dbg !3070
  store i8 %194, i8* %195, align 1, !dbg !3070
  ret void, !dbg !3071
}

declare void @_ZNKSt3__121__basic_string_commonILb1EE20__throw_length_errorEv(%"class.std::__1::__basic_string_common"*) #2

; Function Attrs: nobuiltin
declare noalias i8* @_Znwm(i64) #5

declare void @__cxa_call_unexpected(i8*)

; Function Attrs: ssp uwtable
define linkonce_odr %"class.std::__1::basic_ostream"* @_ZNSt3__124__put_character_sequenceIcNS_11char_traitsIcEEEERNS_13basic_ostreamIT_T0_EES7_PKS4_m(%"class.std::__1::basic_ostream"* %__os, i8* %__str, i64 %__len) #0 {
  %1 = alloca i32, align 4
  %2 = alloca i32, align 4
  %3 = alloca %"class.std::__1::ctype"*, align 8
  %4 = alloca i8, align 1
  %5 = alloca %"class.std::__1::locale"*, align 8
  %6 = alloca %"class.std::__1::basic_ios"*, align 8
  %7 = alloca i8, align 1
  %8 = alloca %"class.std::__1::locale", align 8
  %9 = alloca i8*
  %10 = alloca i32
  %11 = alloca %"class.std::__1::basic_ios"*, align 8
  %12 = alloca %"class.std::__1::ostreambuf_iterator"*, align 8
  %13 = alloca %"class.std::__1::ios_base"*, align 8
  %14 = alloca %"class.std::__1::ios_base"*, align 8
  %15 = alloca i32, align 4
  %16 = alloca %"class.std::__1::basic_ios"*, align 8
  %17 = alloca i32, align 4
  %18 = alloca %"class.std::__1::ios_base"*, align 8
  %19 = alloca %"class.std::__1::basic_ios"*, align 8
  %20 = alloca %"class.std::__1::ostreambuf_iterator"*, align 8
  %21 = alloca %"class.std::__1::basic_ostream"*, align 8
  %22 = alloca i8*
  %23 = alloca i32
  %24 = alloca %"class.std::__1::ostreambuf_iterator"*, align 8
  %25 = alloca %"class.std::__1::basic_ostream"*, align 8
  %26 = alloca %"class.std::__1::basic_ostream<char, std::__1::char_traits<char> >::sentry"*, align 8
  %27 = alloca %"class.std::__1::basic_ostream"*, align 8
  %28 = alloca i8*, align 8
  %29 = alloca i64, align 8
  %__s = alloca %"class.std::__1::basic_ostream<char, std::__1::char_traits<char> >::sentry", align 8
  %30 = alloca i8*
  %31 = alloca i32
  %32 = alloca %"class.std::__1::ostreambuf_iterator", align 8
  %33 = alloca %"class.std::__1::ostreambuf_iterator", align 8
  store %"class.std::__1::basic_ostream"* %__os, %"class.std::__1::basic_ostream"** %27, align 8
  call void @llvm.dbg.declare(metadata !{%"class.std::__1::basic_ostream"** %27}, metadata !3072), !dbg !3073
  store i8* %__str, i8** %28, align 8
  call void @llvm.dbg.declare(metadata !{i8** %28}, metadata !3074), !dbg !3075
  store i64 %__len, i64* %29, align 8
  call void @llvm.dbg.declare(metadata !{i64* %29}, metadata !3076), !dbg !3075
  call void @llvm.dbg.declare(metadata !{%"class.std::__1::basic_ostream<char, std::__1::char_traits<char> >::sentry"* %__s}, metadata !3077), !dbg !3080
  %34 = load %"class.std::__1::basic_ostream"** %27, align 8, !dbg !3080
  invoke void @_ZNSt3__113basic_ostreamIcNS_11char_traitsIcEEE6sentryC1ERS3_(%"class.std::__1::basic_ostream<char, std::__1::char_traits<char> >::sentry"* %__s, %"class.std::__1::basic_ostream"* %34)
          to label %35 unwind label %174, !dbg !3080

; <label>:35                                      ; preds = %0
  store %"class.std::__1::basic_ostream<char, std::__1::char_traits<char> >::sentry"* %__s, %"class.std::__1::basic_ostream<char, std::__1::char_traits<char> >::sentry"** %26, align 8
  call void @llvm.dbg.declare(metadata !{%"class.std::__1::basic_ostream<char, std::__1::char_traits<char> >::sentry"** %26}, metadata !3081), !dbg !3083
  %36 = load %"class.std::__1::basic_ostream<char, std::__1::char_traits<char> >::sentry"** %26
  %37 = getelementptr inbounds %"class.std::__1::basic_ostream<char, std::__1::char_traits<char> >::sentry"* %36, i32 0, i32 0, !dbg !3086
  %38 = load i8* %37, align 1, !dbg !3086
  %39 = trunc i8 %38 to i1, !dbg !3086
  br label %40, !dbg !3086

; <label>:40                                      ; preds = %35
  br i1 %39, label %41, label %183, !dbg !3084

; <label>:41                                      ; preds = %40
  %42 = load %"class.std::__1::basic_ostream"** %27, align 8, !dbg !3088
  store %"class.std::__1::ostreambuf_iterator"* %32, %"class.std::__1::ostreambuf_iterator"** %24, align 8
  call void @llvm.dbg.declare(metadata !{%"class.std::__1::ostreambuf_iterator"** %24}, metadata !3091), !dbg !3093
  store %"class.std::__1::basic_ostream"* %42, %"class.std::__1::basic_ostream"** %25, align 8
  call void @llvm.dbg.declare(metadata !{%"class.std::__1::basic_ostream"** %25}, metadata !3094), !dbg !3095
  %43 = load %"class.std::__1::ostreambuf_iterator"** %24
  %44 = load %"class.std::__1::basic_ostream"** %25, !dbg !3096
  store %"class.std::__1::ostreambuf_iterator"* %43, %"class.std::__1::ostreambuf_iterator"** %20, align 8
  call void @llvm.dbg.declare(metadata !{%"class.std::__1::ostreambuf_iterator"** %20}, metadata !3098), !dbg !3099
  store %"class.std::__1::basic_ostream"* %44, %"class.std::__1::basic_ostream"** %21, align 8
  call void @llvm.dbg.declare(metadata !{%"class.std::__1::basic_ostream"** %21}, metadata !3100), !dbg !3101
  %45 = load %"class.std::__1::ostreambuf_iterator"** %20
  %46 = bitcast %"class.std::__1::ostreambuf_iterator"* %45 to %"struct.std::__1::iterator"*, !dbg !3102
  %47 = getelementptr inbounds %"class.std::__1::ostreambuf_iterator"* %45, i32 0, i32 0, !dbg !3102
  %48 = load %"class.std::__1::basic_ostream"** %21, align 8, !dbg !3102
  %49 = bitcast %"class.std::__1::basic_ostream"* %48 to i8**, !dbg !3102
  %50 = load i8** %49, !dbg !3102
  %51 = getelementptr i8* %50, i64 -24, !dbg !3102
  %52 = bitcast i8* %51 to i64*, !dbg !3102
  %53 = load i64* %52, !dbg !3102
  %54 = bitcast %"class.std::__1::basic_ostream"* %48 to i8*, !dbg !3102
  %55 = getelementptr inbounds i8* %54, i64 %53, !dbg !3102
  %56 = bitcast i8* %55 to %"class.std::__1::basic_ios"*, !dbg !3102
  store %"class.std::__1::basic_ios"* %56, %"class.std::__1::basic_ios"** %19, align 8
  call void @llvm.dbg.declare(metadata !{%"class.std::__1::basic_ios"** %19}, metadata !3103), !dbg !3105
  %57 = load %"class.std::__1::basic_ios"** %19
  %58 = bitcast %"class.std::__1::basic_ios"* %57 to %"class.std::__1::ios_base"*, !dbg !3106
  store %"class.std::__1::ios_base"* %58, %"class.std::__1::ios_base"** %18, align 8
  call void @llvm.dbg.declare(metadata !{%"class.std::__1::ios_base"** %18}, metadata !3108), !dbg !3110
  %59 = load %"class.std::__1::ios_base"** %18
  %60 = getelementptr inbounds %"class.std::__1::ios_base"* %59, i32 0, i32 6, !dbg !3111
  %61 = load i8** %60, align 8, !dbg !3111
  %62 = bitcast i8* %61 to %"class.std::__1::basic_streambuf"*, !dbg !3106
  store %"class.std::__1::basic_streambuf"* %62, %"class.std::__1::basic_streambuf"** %47, align 8, !dbg !3102
  %63 = load i8** %28, align 8, !dbg !3088
  %64 = load %"class.std::__1::basic_ostream"** %27, align 8, !dbg !3112
  %65 = bitcast %"class.std::__1::basic_ostream"* %64 to i8**, !dbg !3112
  %66 = load i8** %65, !dbg !3112
  %67 = getelementptr i8* %66, i64 -24, !dbg !3112
  %68 = bitcast i8* %67 to i64*, !dbg !3112
  %69 = load i64* %68, !dbg !3112
  %70 = bitcast %"class.std::__1::basic_ostream"* %64 to i8*, !dbg !3112
  %71 = getelementptr inbounds i8* %70, i64 %69, !dbg !3112
  %72 = bitcast i8* %71 to %"class.std::__1::ios_base"*, !dbg !3112
  store %"class.std::__1::ios_base"* %72, %"class.std::__1::ios_base"** %13, align 8
  call void @llvm.dbg.declare(metadata !{%"class.std::__1::ios_base"** %13}, metadata !3113), !dbg !3114
  %73 = load %"class.std::__1::ios_base"** %13
  %74 = getelementptr inbounds %"class.std::__1::ios_base"* %73, i32 0, i32 1, !dbg !3115
  %75 = load i32* %74, align 4, !dbg !3115
  br label %76, !dbg !3115

; <label>:76                                      ; preds = %41
  %77 = and i32 %75, 176, !dbg !3112
  %78 = icmp eq i32 %77, 32, !dbg !3112
  br i1 %78, label %79, label %83, !dbg !3112

; <label>:79                                      ; preds = %76
  %80 = load i8** %28, align 8, !dbg !3112
  %81 = load i64* %29, align 8, !dbg !3112
  %82 = getelementptr inbounds i8* %80, i64 %81, !dbg !3112
  br label %85, !dbg !3112

; <label>:83                                      ; preds = %76
  %84 = load i8** %28, align 8, !dbg !3112
  br label %85, !dbg !3112

; <label>:85                                      ; preds = %83, %79
  %86 = phi i8* [ %82, %79 ], [ %84, %83 ], !dbg !3112
  %87 = load i8** %28, align 8, !dbg !3088
  %88 = load i64* %29, align 8, !dbg !3088
  %89 = getelementptr inbounds i8* %87, i64 %88, !dbg !3088
  %90 = load %"class.std::__1::basic_ostream"** %27, align 8, !dbg !3088
  %91 = bitcast %"class.std::__1::basic_ostream"* %90 to i8**, !dbg !3088
  %92 = load i8** %91, !dbg !3088
  %93 = getelementptr i8* %92, i64 -24, !dbg !3088
  %94 = bitcast i8* %93 to i64*, !dbg !3088
  %95 = load i64* %94, !dbg !3088
  %96 = bitcast %"class.std::__1::basic_ostream"* %90 to i8*, !dbg !3088
  %97 = getelementptr inbounds i8* %96, i64 %95, !dbg !3088
  %98 = bitcast i8* %97 to %"class.std::__1::ios_base"*, !dbg !3088
  %99 = load %"class.std::__1::basic_ostream"** %27, align 8, !dbg !3117
  %100 = bitcast %"class.std::__1::basic_ostream"* %99 to i8**, !dbg !3117
  %101 = load i8** %100, !dbg !3117
  %102 = getelementptr i8* %101, i64 -24, !dbg !3117
  %103 = bitcast i8* %102 to i64*, !dbg !3117
  %104 = load i64* %103, !dbg !3117
  %105 = bitcast %"class.std::__1::basic_ostream"* %99 to i8*, !dbg !3117
  %106 = getelementptr inbounds i8* %105, i64 %104, !dbg !3117
  %107 = bitcast i8* %106 to %"class.std::__1::basic_ios"*, !dbg !3117
  store %"class.std::__1::basic_ios"* %107, %"class.std::__1::basic_ios"** %11, align 8
  call void @llvm.dbg.declare(metadata !{%"class.std::__1::basic_ios"** %11}, metadata !3118), !dbg !3119
  %108 = load %"class.std::__1::basic_ios"** %11
  %109 = getelementptr inbounds %"class.std::__1::basic_ios"* %108, i32 0, i32 2, !dbg !3120
  %110 = load i32* %109, align 4, !dbg !3120
  store i32 -1, i32* %1, align 4
  call void @llvm.dbg.declare(metadata !{i32* %1}, metadata !3123), !dbg !3124
  store i32 %110, i32* %2, align 4
  call void @llvm.dbg.declare(metadata !{i32* %2}, metadata !3125), !dbg !3124
  %111 = load i32* %1, align 4, !dbg !3126
  %112 = load i32* %2, align 4, !dbg !3126
  %113 = icmp eq i32 %111, %112, !dbg !3126
  br i1 %113, label %114, label %_ZNKSt3__19basic_iosIcNS_11char_traitsIcEEE4fillEv.exit, !dbg !3120

; <label>:114                                     ; preds = %85
  store %"class.std::__1::basic_ios"* %108, %"class.std::__1::basic_ios"** %6, align 8
  call void @llvm.dbg.declare(metadata !{%"class.std::__1::basic_ios"** %6}, metadata !3127), !dbg !3128
  store i8 32, i8* %7, align 1
  call void @llvm.dbg.declare(metadata !{i8* %7}, metadata !3130), !dbg !3131
  %115 = load %"class.std::__1::basic_ios"** %6
  %116 = bitcast %"class.std::__1::basic_ios"* %115 to %"class.std::__1::ios_base"*, !dbg !3132
  invoke void @_ZNKSt3__18ios_base6getlocEv(%"class.std::__1::locale"* sret %8, %"class.std::__1::ios_base"* %116)
          to label %.noexc unwind label %178

.noexc:                                           ; preds = %114
  store %"class.std::__1::locale"* %8, %"class.std::__1::locale"** %5, align 8
  call void @llvm.dbg.declare(metadata !{%"class.std::__1::locale"** %5}, metadata !3133), !dbg !3135
  %117 = load %"class.std::__1::locale"** %5, align 8, !dbg !3136
  %118 = invoke %"class.std::__1::locale::facet"* @_ZNKSt3__16locale9use_facetERNS0_2idE(%"class.std::__1::locale"* %117, %"class.std::__1::locale::id"* @_ZNSt3__15ctypeIcE2idE)
          to label %_ZNSt3__19use_facetINS_5ctypeIcEEEERKT_RKNS_6localeE.exit.i.i unwind label %128

_ZNSt3__19use_facetINS_5ctypeIcEEEERKT_RKNS_6localeE.exit.i.i: ; preds = %.noexc
  %119 = bitcast %"class.std::__1::locale::facet"* %118 to %"class.std::__1::ctype"*, !dbg !3136
  %120 = load i8* %7, align 1, !dbg !3132
  store %"class.std::__1::ctype"* %119, %"class.std::__1::ctype"** %3, align 8
  call void @llvm.dbg.declare(metadata !{%"class.std::__1::ctype"** %3}, metadata !3137), !dbg !3139
  store i8 %120, i8* %4, align 1
  call void @llvm.dbg.declare(metadata !{i8* %4}, metadata !3140), !dbg !3141
  %121 = load %"class.std::__1::ctype"** %3
  %122 = bitcast %"class.std::__1::ctype"* %121 to i8 (%"class.std::__1::ctype"*, i8)***, !dbg !3142
  %123 = load i8 (%"class.std::__1::ctype"*, i8)*** %122, !dbg !3142
  %124 = getelementptr inbounds i8 (%"class.std::__1::ctype"*, i8)** %123, i64 7, !dbg !3142
  %125 = load i8 (%"class.std::__1::ctype"*, i8)** %124, !dbg !3142
  %126 = load i8* %4, align 1, !dbg !3142
  %127 = invoke signext i8 %125(%"class.std::__1::ctype"* %121, i8 signext %126)
          to label %_ZNKSt3__19basic_iosIcNS_11char_traitsIcEEE5widenEc.exit.i unwind label %128

; <label>:128                                     ; preds = %_ZNSt3__19use_facetINS_5ctypeIcEEEERKT_RKNS_6localeE.exit.i.i, %.noexc
  %129 = landingpad { i8*, i32 } personality i8* bitcast (i32 (...)* @__gxx_personality_v0 to i8*)
          cleanup
          catch i8* null, !dbg !3144
  %130 = extractvalue { i8*, i32 } %129, 0, !dbg !3144
  store i8* %130, i8** %9, !dbg !3144
  %131 = extractvalue { i8*, i32 } %129, 1, !dbg !3144
  store i32 %131, i32* %10, !dbg !3144
  invoke void @_ZNSt3__16localeD1Ev(%"class.std::__1::locale"* %8)
          to label %132 unwind label %137, !dbg !3144

; <label>:132                                     ; preds = %128
  %133 = load i8** %9, !dbg !3144
  %134 = load i32* %10, !dbg !3144
  %135 = insertvalue { i8*, i32 } undef, i8* %133, 0, !dbg !3144
  %136 = insertvalue { i8*, i32 } %135, i32 %134, 1, !dbg !3144
  br label %.body

; <label>:137                                     ; preds = %128
  %138 = landingpad { i8*, i32 } personality i8* bitcast (i32 (...)* @__gxx_personality_v0 to i8*)
          catch i8* null
          catch i8* null, !dbg !3144
  %139 = extractvalue { i8*, i32 } %138, 0, !dbg !3144
  call void @__clang_call_terminate(i8* %139) #10, !dbg !3144
  unreachable, !dbg !3144

_ZNKSt3__19basic_iosIcNS_11char_traitsIcEEE5widenEc.exit.i: ; preds = %_ZNSt3__19use_facetINS_5ctypeIcEEEERKT_RKNS_6localeE.exit.i.i
  invoke void @_ZNSt3__16localeD1Ev(%"class.std::__1::locale"* %8)
          to label %.noexc1 unwind label %178

.noexc1:                                          ; preds = %_ZNKSt3__19basic_iosIcNS_11char_traitsIcEEE5widenEc.exit.i
  %140 = sext i8 %127 to i32, !dbg !3129
  %141 = getelementptr inbounds %"class.std::__1::basic_ios"* %108, i32 0, i32 2, !dbg !3129
  store i32 %140, i32* %141, align 4, !dbg !3129
  br label %_ZNKSt3__19basic_iosIcNS_11char_traitsIcEEE4fillEv.exit, !dbg !3129

_ZNKSt3__19basic_iosIcNS_11char_traitsIcEEE4fillEv.exit: ; preds = %85, %.noexc1
  %142 = getelementptr inbounds %"class.std::__1::basic_ios"* %108, i32 0, i32 2, !dbg !3145
  %143 = load i32* %142, align 4, !dbg !3145
  %144 = trunc i32 %143 to i8, !dbg !3145
  br label %145, !dbg !3145

; <label>:145                                     ; preds = %_ZNKSt3__19basic_iosIcNS_11char_traitsIcEEE4fillEv.exit
  %146 = getelementptr %"class.std::__1::ostreambuf_iterator"* %32, i32 0, i32 0, !dbg !3088
  %147 = load %"class.std::__1::basic_streambuf"** %146, !dbg !3088
  %148 = invoke %"class.std::__1::basic_streambuf"* @_ZNSt3__116__pad_and_outputIcNS_11char_traitsIcEEEENS_19ostreambuf_iteratorIT_T0_EES6_PKS4_S8_S8_RNS_8ios_baseES4_(%"class.std::__1::basic_streambuf"* %147, i8* %63, i8* %86, i8* %89, %"class.std::__1::ios_base"* %98, i8 signext %144)
          to label %149 unwind label %178, !dbg !3088

; <label>:149                                     ; preds = %145
  %150 = getelementptr %"class.std::__1::ostreambuf_iterator"* %33, i32 0, i32 0, !dbg !3088
  store %"class.std::__1::basic_streambuf"* %148, %"class.std::__1::basic_streambuf"** %150, !dbg !3088
  store %"class.std::__1::ostreambuf_iterator"* %33, %"class.std::__1::ostreambuf_iterator"** %12, align 8
  call void @llvm.dbg.declare(metadata !{%"class.std::__1::ostreambuf_iterator"** %12}, metadata !3146), !dbg !3148
  %151 = load %"class.std::__1::ostreambuf_iterator"** %12
  %152 = getelementptr inbounds %"class.std::__1::ostreambuf_iterator"* %151, i32 0, i32 0, !dbg !3149
  %153 = load %"class.std::__1::basic_streambuf"** %152, align 8, !dbg !3149
  %154 = icmp eq %"class.std::__1::basic_streambuf"* %153, null, !dbg !3149
  br i1 %154, label %155, label %182, !dbg !3088

; <label>:155                                     ; preds = %149
  %156 = load %"class.std::__1::basic_ostream"** %27, align 8, !dbg !3151
  %157 = bitcast %"class.std::__1::basic_ostream"* %156 to i8**, !dbg !3151
  %158 = load i8** %157, !dbg !3151
  %159 = getelementptr i8* %158, i64 -24, !dbg !3151
  %160 = bitcast i8* %159 to i64*, !dbg !3151
  %161 = load i64* %160, !dbg !3151
  %162 = bitcast %"class.std::__1::basic_ostream"* %156 to i8*, !dbg !3151
  %163 = getelementptr inbounds i8* %162, i64 %161, !dbg !3151
  %164 = bitcast i8* %163 to %"class.std::__1::basic_ios"*, !dbg !3151
  store %"class.std::__1::basic_ios"* %164, %"class.std::__1::basic_ios"** %16, align 8
  call void @llvm.dbg.declare(metadata !{%"class.std::__1::basic_ios"** %16}, metadata !3152), !dbg !3153
  store i32 5, i32* %17, align 4
  call void @llvm.dbg.declare(metadata !{i32* %17}, metadata !3154), !dbg !3155
  %165 = load %"class.std::__1::basic_ios"** %16
  %166 = bitcast %"class.std::__1::basic_ios"* %165 to %"class.std::__1::ios_base"*, !dbg !3156
  %167 = load i32* %17, align 4, !dbg !3156
  store %"class.std::__1::ios_base"* %166, %"class.std::__1::ios_base"** %14, align 8
  call void @llvm.dbg.declare(metadata !{%"class.std::__1::ios_base"** %14}, metadata !3158), !dbg !3159
  store i32 %167, i32* %15, align 4
  call void @llvm.dbg.declare(metadata !{i32* %15}, metadata !3160), !dbg !3161
  %168 = load %"class.std::__1::ios_base"** %14
  %169 = getelementptr inbounds %"class.std::__1::ios_base"* %168, i32 0, i32 4, !dbg !3162
  %170 = load i32* %169, align 4, !dbg !3162
  %171 = load i32* %15, align 4, !dbg !3162
  %172 = or i32 %170, %171, !dbg !3162
  invoke void @_ZNSt3__18ios_base5clearEj(%"class.std::__1::ios_base"* %168, i32 %172)
          to label %_ZNSt3__19basic_iosIcNS_11char_traitsIcEEE8setstateEj.exit unwind label %178

_ZNSt3__19basic_iosIcNS_11char_traitsIcEEE8setstateEj.exit: ; preds = %155
  br label %173, !dbg !3156

; <label>:173                                     ; preds = %_ZNSt3__19basic_iosIcNS_11char_traitsIcEEE8setstateEj.exit
  br label %182, !dbg !3151

; <label>:174                                     ; preds = %183, %0
  %175 = landingpad { i8*, i32 } personality i8* bitcast (i32 (...)* @__gxx_personality_v0 to i8*)
          catch i8* null, !dbg !3163
  %176 = extractvalue { i8*, i32 } %175, 0, !dbg !3163
  store i8* %176, i8** %30, !dbg !3163
  %177 = extractvalue { i8*, i32 } %175, 1, !dbg !3163
  store i32 %177, i32* %31, !dbg !3163
  br label %186, !dbg !3163

; <label>:178                                     ; preds = %_ZNKSt3__19basic_iosIcNS_11char_traitsIcEEE5widenEc.exit.i, %114, %155, %145
  %179 = landingpad { i8*, i32 } personality i8* bitcast (i32 (...)* @__gxx_personality_v0 to i8*)
          catch i8* null, !dbg !3164
  br label %.body

.body:                                            ; preds = %132, %178
  %eh.lpad-body = phi { i8*, i32 } [ %179, %178 ], [ %136, %132 ]
  %180 = extractvalue { i8*, i32 } %eh.lpad-body, 0, !dbg !3164
  store i8* %180, i8** %30, !dbg !3164
  %181 = extractvalue { i8*, i32 } %eh.lpad-body, 1, !dbg !3164
  store i32 %181, i32* %31, !dbg !3164
  invoke void @_ZNSt3__113basic_ostreamIcNS_11char_traitsIcEEE6sentryD1Ev(%"class.std::__1::basic_ostream<char, std::__1::char_traits<char> >::sentry"* %__s)
          to label %185 unwind label %211, !dbg !3165

; <label>:182                                     ; preds = %173, %149
  br label %183, !dbg !3166

; <label>:183                                     ; preds = %182, %40
  invoke void @_ZNSt3__113basic_ostreamIcNS_11char_traitsIcEEE6sentryD1Ev(%"class.std::__1::basic_ostream<char, std::__1::char_traits<char> >::sentry"* %__s)
          to label %184 unwind label %174, !dbg !3167

; <label>:184                                     ; preds = %183
  br label %199, !dbg !3168

; <label>:185                                     ; preds = %.body
  br label %186, !dbg !3165

; <label>:186                                     ; preds = %185, %174
  %187 = load i8** %30, !dbg !3168
  %188 = call i8* @__cxa_begin_catch(i8* %187) #6, !dbg !3168
  %189 = load %"class.std::__1::basic_ostream"** %27, align 8, !dbg !3169
  %190 = bitcast %"class.std::__1::basic_ostream"* %189 to i8**, !dbg !3169
  %191 = load i8** %190, !dbg !3169
  %192 = getelementptr i8* %191, i64 -24, !dbg !3169
  %193 = bitcast i8* %192 to i64*, !dbg !3169
  %194 = load i64* %193, !dbg !3169
  %195 = bitcast %"class.std::__1::basic_ostream"* %189 to i8*, !dbg !3169
  %196 = getelementptr inbounds i8* %195, i64 %194, !dbg !3169
  %197 = bitcast i8* %196 to %"class.std::__1::ios_base"*, !dbg !3169
  invoke void @_ZNSt3__18ios_base33__set_badbit_and_consider_rethrowEv(%"class.std::__1::ios_base"* %197)
          to label %198 unwind label %201, !dbg !3169

; <label>:198                                     ; preds = %186
  call void @__cxa_end_catch(), !dbg !3171
  br label %199, !dbg !3172

; <label>:199                                     ; preds = %198, %184
  %200 = load %"class.std::__1::basic_ostream"** %27, align 8, !dbg !3173
  ret %"class.std::__1::basic_ostream"* %200, !dbg !3173

; <label>:201                                     ; preds = %186
  %202 = landingpad { i8*, i32 } personality i8* bitcast (i32 (...)* @__gxx_personality_v0 to i8*)
          cleanup, !dbg !3174
  %203 = extractvalue { i8*, i32 } %202, 0, !dbg !3174
  store i8* %203, i8** %30, !dbg !3174
  %204 = extractvalue { i8*, i32 } %202, 1, !dbg !3174
  store i32 %204, i32* %31, !dbg !3174
  invoke void @__cxa_end_catch()
          to label %205 unwind label %211, !dbg !3165

; <label>:205                                     ; preds = %201
  br label %206, !dbg !3165

; <label>:206                                     ; preds = %205
  %207 = load i8** %30, !dbg !3165
  %208 = load i32* %31, !dbg !3165
  %209 = insertvalue { i8*, i32 } undef, i8* %207, 0, !dbg !3165
  %210 = insertvalue { i8*, i32 } %209, i32 %208, 1, !dbg !3165
  resume { i8*, i32 } %210, !dbg !3165

; <label>:211                                     ; preds = %201, %.body
  %212 = landingpad { i8*, i32 } personality i8* bitcast (i32 (...)* @__gxx_personality_v0 to i8*)
          catch i8* null, !dbg !3165
  %213 = extractvalue { i8*, i32 } %212, 0, !dbg !3165
  call void @__clang_call_terminate(i8* %213) #10, !dbg !3165
  unreachable, !dbg !3165
}

declare i64 @strlen(i8*) #2

declare void @_ZNSt3__113basic_ostreamIcNS_11char_traitsIcEEE6sentryC1ERS3_(%"class.std::__1::basic_ostream<char, std::__1::char_traits<char> >::sentry"*, %"class.std::__1::basic_ostream"*) #2

; Function Attrs: ssp uwtable
define linkonce_odr hidden %"class.std::__1::basic_streambuf"* @_ZNSt3__116__pad_and_outputIcNS_11char_traitsIcEEEENS_19ostreambuf_iteratorIT_T0_EES6_PKS4_S8_S8_RNS_8ios_baseES4_(%"class.std::__1::basic_streambuf"* %__s.coerce, i8* %__ob, i8* %__op, i8* %__oe, %"class.std::__1::ios_base"* %__iob, i8 signext %__fl) #0 {
  %1 = alloca %"struct.std::__1::nullptr_t"*, align 8
  %2 = alloca %"class.std::__1::allocator"*, align 8
  %3 = alloca %"class.std::__1::__libcpp_compressed_pair_imp"*, align 8
  %4 = alloca %"class.std::__1::__compressed_pair"*, align 8
  %5 = alloca %"class.std::__1::__compressed_pair"*, align 8
  %6 = alloca %"class.std::__1::basic_string"*, align 8
  %7 = alloca i64, align 8
  %8 = alloca i8, align 1
  %9 = alloca %"class.std::__1::basic_string"*, align 8
  %10 = alloca i64, align 8
  %11 = alloca i8, align 1
  %12 = alloca i8*, align 8
  %13 = alloca %"class.std::__1::__libcpp_compressed_pair_imp"*, align 8
  %14 = alloca %"class.std::__1::__compressed_pair"*, align 8
  %15 = alloca %"class.std::__1::basic_string"*, align 8
  %16 = alloca i8*, align 8
  %17 = alloca i8*, align 8
  %18 = alloca %"class.std::__1::__libcpp_compressed_pair_imp"*, align 8
  %19 = alloca %"class.std::__1::__compressed_pair"*, align 8
  %20 = alloca %"class.std::__1::basic_string"*, align 8
  %21 = alloca %"class.std::__1::__libcpp_compressed_pair_imp"*, align 8
  %22 = alloca %"class.std::__1::__compressed_pair"*, align 8
  %23 = alloca %"class.std::__1::basic_string"*, align 8
  %24 = alloca %"class.std::__1::basic_string"*, align 8
  %25 = alloca %"class.std::__1::basic_string"*, align 8
  %26 = alloca %"struct.std::__1::nullptr_t"*, align 8
  %27 = alloca i64, align 8
  %28 = alloca %"struct.std::__1::nullptr_t"*, align 8
  %29 = alloca i64, align 8
  %30 = alloca %"struct.std::__1::nullptr_t", align 8
  %31 = alloca %"class.std::__1::basic_streambuf"*, align 8
  %32 = alloca i8*, align 8
  %33 = alloca i64, align 8
  %34 = alloca %"class.std::__1::basic_streambuf"*, align 8
  %35 = alloca i8*, align 8
  %36 = alloca i64, align 8
  %37 = alloca %"struct.std::__1::nullptr_t"*, align 8
  %38 = alloca i64, align 8
  %39 = alloca %"struct.std::__1::nullptr_t"*, align 8
  %40 = alloca i64, align 8
  %41 = alloca %"struct.std::__1::nullptr_t", align 8
  %42 = alloca %"struct.std::__1::nullptr_t"*, align 8
  %43 = alloca %"class.std::__1::ios_base"*, align 8
  %44 = alloca %"class.std::__1::basic_streambuf"*, align 8
  %45 = alloca i8*, align 8
  %46 = alloca i64, align 8
  %47 = alloca %"struct.std::__1::nullptr_t"*, align 8
  %48 = alloca i64, align 8
  %49 = alloca %"struct.std::__1::nullptr_t"*, align 8
  %50 = alloca i64, align 8
  %51 = alloca %"struct.std::__1::nullptr_t", align 8
  %52 = alloca %"struct.std::__1::nullptr_t"*, align 8
  %53 = alloca %"class.std::__1::ios_base"*, align 8
  %54 = alloca i64, align 8
  %__r.i = alloca i64, align 8
  %55 = alloca %"struct.std::__1::nullptr_t"*, align 8
  %56 = alloca %"struct.std::__1::nullptr_t"*, align 8
  %57 = alloca i64, align 8
  %58 = alloca %"struct.std::__1::nullptr_t"*, align 8
  %59 = alloca i64, align 8
  %60 = alloca %"struct.std::__1::nullptr_t", align 8
  %61 = alloca %"class.std::__1::ostreambuf_iterator", align 8
  %__s = alloca %"class.std::__1::ostreambuf_iterator", align 8
  %62 = alloca i8*, align 8
  %63 = alloca i8*, align 8
  %64 = alloca i8*, align 8
  %65 = alloca %"class.std::__1::ios_base"*, align 8
  %66 = alloca i8, align 1
  %67 = alloca %"struct.std::__1::nullptr_t", align 8
  %__sz = alloca i64, align 8
  %__ns = alloca i64, align 8
  %__np = alloca i64, align 8
  %68 = alloca %"struct.std::__1::nullptr_t", align 8
  %__sp = alloca %"class.std::__1::basic_string", align 8
  %69 = alloca i8*
  %70 = alloca i32
  %71 = alloca %"struct.std::__1::nullptr_t", align 8
  %72 = alloca i32
  %73 = alloca %"struct.std::__1::nullptr_t", align 8
  %74 = getelementptr %"class.std::__1::ostreambuf_iterator"* %__s, i32 0, i32 0
  store %"class.std::__1::basic_streambuf"* %__s.coerce, %"class.std::__1::basic_streambuf"** %74
  call void @llvm.dbg.declare(metadata !{%"class.std::__1::ostreambuf_iterator"* %__s}, metadata !3175), !dbg !3177
  store i8* %__ob, i8** %62, align 8
  call void @llvm.dbg.declare(metadata !{i8** %62}, metadata !3178), !dbg !3179
  store i8* %__op, i8** %63, align 8
  call void @llvm.dbg.declare(metadata !{i8** %63}, metadata !3180), !dbg !3179
  store i8* %__oe, i8** %64, align 8
  call void @llvm.dbg.declare(metadata !{i8** %64}, metadata !3181), !dbg !3179
  store %"class.std::__1::ios_base"* %__iob, %"class.std::__1::ios_base"** %65, align 8
  call void @llvm.dbg.declare(metadata !{%"class.std::__1::ios_base"** %65}, metadata !3182), !dbg !3183
  store i8 %__fl, i8* %66, align 1
  call void @llvm.dbg.declare(metadata !{i8* %66}, metadata !3184), !dbg !3183
  %75 = getelementptr inbounds %"class.std::__1::ostreambuf_iterator"* %__s, i32 0, i32 0, !dbg !3185
  %76 = load %"class.std::__1::basic_streambuf"** %75, align 8, !dbg !3185
  store %"struct.std::__1::nullptr_t"* %60, %"struct.std::__1::nullptr_t"** %58, align 8
  call void @llvm.dbg.declare(metadata !{%"struct.std::__1::nullptr_t"** %58}, metadata !3188), !dbg !3190
  store i64 -1, i64* %59, align 8
  call void @llvm.dbg.declare(metadata !{i64* %59}, metadata !3192), !dbg !3194
  %77 = load %"struct.std::__1::nullptr_t"** %58
  %78 = load i64* %59, align 8, !dbg !3194
  store %"struct.std::__1::nullptr_t"* %77, %"struct.std::__1::nullptr_t"** %56, align 8
  call void @llvm.dbg.declare(metadata !{%"struct.std::__1::nullptr_t"** %56}, metadata !3195), !dbg !3196
  store i64 %78, i64* %57, align 8
  call void @llvm.dbg.declare(metadata !{i64* %57}, metadata !3197), !dbg !3198
  %79 = load %"struct.std::__1::nullptr_t"** %56
  %80 = getelementptr inbounds %"struct.std::__1::nullptr_t"* %79, i32 0, i32 0, !dbg !3198
  store i8* null, i8** %80, align 8, !dbg !3198
  %81 = getelementptr %"struct.std::__1::nullptr_t"* %60, i32 0, i32 0, !dbg !3191
  %82 = load i8** %81, !dbg !3191
  %83 = getelementptr %"struct.std::__1::nullptr_t"* %67, i32 0, i32 0, !dbg !3185
  store i8* %82, i8** %83, !dbg !3185
  store %"struct.std::__1::nullptr_t"* %67, %"struct.std::__1::nullptr_t"** %55, align 8
  call void @llvm.dbg.declare(metadata !{%"struct.std::__1::nullptr_t"** %55}, metadata !3199), !dbg !3201
  %84 = load %"struct.std::__1::nullptr_t"** %55
  %85 = icmp eq %"class.std::__1::basic_streambuf"* %76, null, !dbg !3185
  br i1 %85, label %86, label %89, !dbg !3185

; <label>:86                                      ; preds = %0
  %87 = bitcast %"class.std::__1::ostreambuf_iterator"* %61 to i8*, !dbg !3202
  %88 = bitcast %"class.std::__1::ostreambuf_iterator"* %__s to i8*, !dbg !3202
  call void @llvm.memcpy.p0i8.p0i8.i64(i8* %87, i8* %88, i64 8, i32 8, i1 false), !dbg !3202
  br label %288, !dbg !3202

; <label>:89                                      ; preds = %0
  call void @llvm.dbg.declare(metadata !{i64* %__sz}, metadata !3203), !dbg !3204
  %90 = load i8** %64, align 8, !dbg !3204
  %91 = load i8** %62, align 8, !dbg !3204
  %92 = ptrtoint i8* %90 to i64, !dbg !3204
  %93 = ptrtoint i8* %91 to i64, !dbg !3204
  %94 = sub i64 %92, %93, !dbg !3204
  store i64 %94, i64* %__sz, align 8, !dbg !3204
  call void @llvm.dbg.declare(metadata !{i64* %__ns}, metadata !3205), !dbg !3206
  %95 = load %"class.std::__1::ios_base"** %65, align 8, !dbg !3207
  store %"class.std::__1::ios_base"* %95, %"class.std::__1::ios_base"** %43, align 8
  call void @llvm.dbg.declare(metadata !{%"class.std::__1::ios_base"** %43}, metadata !3208), !dbg !3209
  %96 = load %"class.std::__1::ios_base"** %43
  %97 = getelementptr inbounds %"class.std::__1::ios_base"* %96, i32 0, i32 3, !dbg !3210
  %98 = load i64* %97, align 8, !dbg !3210
  store i64 %98, i64* %__ns, align 8, !dbg !3207
  %99 = load i64* %__ns, align 8, !dbg !3212
  %100 = load i64* %__sz, align 8, !dbg !3212
  %101 = icmp sgt i64 %99, %100, !dbg !3212
  br i1 %101, label %102, label %106, !dbg !3212

; <label>:102                                     ; preds = %89
  %103 = load i64* %__sz, align 8, !dbg !3214
  %104 = load i64* %__ns, align 8, !dbg !3214
  %105 = sub nsw i64 %104, %103, !dbg !3214
  store i64 %105, i64* %__ns, align 8, !dbg !3214
  br label %107, !dbg !3214

; <label>:106                                     ; preds = %89
  store i64 0, i64* %__ns, align 8, !dbg !3215
  br label %107

; <label>:107                                     ; preds = %106, %102
  call void @llvm.dbg.declare(metadata !{i64* %__np}, metadata !3216), !dbg !3217
  %108 = load i8** %63, align 8, !dbg !3217
  %109 = load i8** %62, align 8, !dbg !3217
  %110 = ptrtoint i8* %108 to i64, !dbg !3217
  %111 = ptrtoint i8* %109 to i64, !dbg !3217
  %112 = sub i64 %110, %111, !dbg !3217
  store i64 %112, i64* %__np, align 8, !dbg !3217
  %113 = load i64* %__np, align 8, !dbg !3218
  %114 = icmp sgt i64 %113, 0, !dbg !3218
  br i1 %114, label %115, label %143, !dbg !3218

; <label>:115                                     ; preds = %107
  %116 = getelementptr inbounds %"class.std::__1::ostreambuf_iterator"* %__s, i32 0, i32 0, !dbg !3220
  %117 = load %"class.std::__1::basic_streambuf"** %116, align 8, !dbg !3220
  %118 = load i8** %62, align 8, !dbg !3220
  %119 = load i64* %__np, align 8, !dbg !3220
  store %"class.std::__1::basic_streambuf"* %117, %"class.std::__1::basic_streambuf"** %31, align 8
  call void @llvm.dbg.declare(metadata !{%"class.std::__1::basic_streambuf"** %31}, metadata !3223), !dbg !3224
  store i8* %118, i8** %32, align 8
  call void @llvm.dbg.declare(metadata !{i8** %32}, metadata !3225), !dbg !3226
  store i64 %119, i64* %33, align 8
  call void @llvm.dbg.declare(metadata !{i64* %33}, metadata !3227), !dbg !3226
  %120 = load %"class.std::__1::basic_streambuf"** %31
  %121 = bitcast %"class.std::__1::basic_streambuf"* %120 to i64 (%"class.std::__1::basic_streambuf"*, i8*, i64)***, !dbg !3228
  %122 = load i64 (%"class.std::__1::basic_streambuf"*, i8*, i64)*** %121, !dbg !3228
  %123 = getelementptr inbounds i64 (%"class.std::__1::basic_streambuf"*, i8*, i64)** %122, i64 12, !dbg !3228
  %124 = load i64 (%"class.std::__1::basic_streambuf"*, i8*, i64)** %123, !dbg !3228
  %125 = load i8** %32, align 8, !dbg !3228
  %126 = load i64* %33, align 8, !dbg !3228
  %127 = call i64 %124(%"class.std::__1::basic_streambuf"* %120, i8* %125, i64 %126), !dbg !3228
  %128 = load i64* %__np, align 8, !dbg !3220
  %129 = icmp ne i64 %127, %128, !dbg !3220
  br i1 %129, label %130, label %142, !dbg !3220

; <label>:130                                     ; preds = %115
  store %"struct.std::__1::nullptr_t"* %30, %"struct.std::__1::nullptr_t"** %28, align 8
  call void @llvm.dbg.declare(metadata !{%"struct.std::__1::nullptr_t"** %28}, metadata !3188), !dbg !3230
  store i64 -1, i64* %29, align 8
  call void @llvm.dbg.declare(metadata !{i64* %29}, metadata !3192), !dbg !3234
  %131 = load %"struct.std::__1::nullptr_t"** %28
  %132 = load i64* %29, align 8, !dbg !3234
  store %"struct.std::__1::nullptr_t"* %131, %"struct.std::__1::nullptr_t"** %26, align 8
  call void @llvm.dbg.declare(metadata !{%"struct.std::__1::nullptr_t"** %26}, metadata !3195), !dbg !3235
  store i64 %132, i64* %27, align 8
  call void @llvm.dbg.declare(metadata !{i64* %27}, metadata !3197), !dbg !3236
  %133 = load %"struct.std::__1::nullptr_t"** %26
  %134 = getelementptr inbounds %"struct.std::__1::nullptr_t"* %133, i32 0, i32 0, !dbg !3236
  store i8* null, i8** %134, align 8, !dbg !3236
  %135 = getelementptr %"struct.std::__1::nullptr_t"* %30, i32 0, i32 0, !dbg !3231
  %136 = load i8** %135, !dbg !3231
  %137 = getelementptr %"struct.std::__1::nullptr_t"* %68, i32 0, i32 0, !dbg !3232
  store i8* %136, i8** %137, !dbg !3232
  store %"struct.std::__1::nullptr_t"* %68, %"struct.std::__1::nullptr_t"** %1, align 8
  call void @llvm.dbg.declare(metadata !{%"struct.std::__1::nullptr_t"** %1}, metadata !3199), !dbg !3237
  %138 = load %"struct.std::__1::nullptr_t"** %1
  %139 = getelementptr inbounds %"class.std::__1::ostreambuf_iterator"* %__s, i32 0, i32 0, !dbg !3232
  store %"class.std::__1::basic_streambuf"* null, %"class.std::__1::basic_streambuf"** %139, align 8, !dbg !3232
  %140 = bitcast %"class.std::__1::ostreambuf_iterator"* %61 to i8*, !dbg !3238
  %141 = bitcast %"class.std::__1::ostreambuf_iterator"* %__s to i8*, !dbg !3238
  call void @llvm.memcpy.p0i8.p0i8.i64(i8* %140, i8* %141, i64 8, i32 8, i1 false), !dbg !3238
  br label %288, !dbg !3238

; <label>:142                                     ; preds = %115
  br label %143, !dbg !3239

; <label>:143                                     ; preds = %142, %107
  %144 = load i64* %__ns, align 8, !dbg !3240
  %145 = icmp sgt i64 %144, 0, !dbg !3240
  br i1 %145, label %146, label %242, !dbg !3240

; <label>:146                                     ; preds = %143
  call void @llvm.dbg.declare(metadata !{%"class.std::__1::basic_string"* %__sp}, metadata !3242), !dbg !3244
  %147 = load i64* %__ns, align 8, !dbg !3244
  %148 = load i8* %66, align 1, !dbg !3244
  store %"class.std::__1::basic_string"* %__sp, %"class.std::__1::basic_string"** %9, align 8
  call void @llvm.dbg.declare(metadata !{%"class.std::__1::basic_string"** %9}, metadata !3245), !dbg !3246
  store i64 %147, i64* %10, align 8
  call void @llvm.dbg.declare(metadata !{i64* %10}, metadata !3247), !dbg !3248
  store i8 %148, i8* %11, align 1
  call void @llvm.dbg.declare(metadata !{i8* %11}, metadata !3249), !dbg !3248
  %149 = load %"class.std::__1::basic_string"** %9
  %150 = load i64* %10, align 8, !dbg !3250
  %151 = load i8* %11, align 1, !dbg !3250
  store %"class.std::__1::basic_string"* %149, %"class.std::__1::basic_string"** %6, align 8
  call void @llvm.dbg.declare(metadata !{%"class.std::__1::basic_string"** %6}, metadata !3252), !dbg !3253
  store i64 %150, i64* %7, align 8
  call void @llvm.dbg.declare(metadata !{i64* %7}, metadata !3254), !dbg !3255
  store i8 %151, i8* %8, align 1
  call void @llvm.dbg.declare(metadata !{i8* %8}, metadata !3256), !dbg !3255
  %152 = load %"class.std::__1::basic_string"** %6
  %153 = bitcast %"class.std::__1::basic_string"* %152 to %"class.std::__1::__basic_string_common"*, !dbg !3257
  %154 = getelementptr inbounds %"class.std::__1::basic_string"* %152, i32 0, i32 0, !dbg !3257
  store %"class.std::__1::__compressed_pair"* %154, %"class.std::__1::__compressed_pair"** %5, align 8
  call void @llvm.dbg.declare(metadata !{%"class.std::__1::__compressed_pair"** %5}, metadata !2629), !dbg !3258
  %155 = load %"class.std::__1::__compressed_pair"** %5
  store %"class.std::__1::__compressed_pair"* %155, %"class.std::__1::__compressed_pair"** %4, align 8
  call void @llvm.dbg.declare(metadata !{%"class.std::__1::__compressed_pair"** %4}, metadata !2632), !dbg !3259
  %156 = load %"class.std::__1::__compressed_pair"** %4
  %157 = bitcast %"class.std::__1::__compressed_pair"* %156 to %"class.std::__1::__libcpp_compressed_pair_imp"*, !dbg !3261
  store %"class.std::__1::__libcpp_compressed_pair_imp"* %157, %"class.std::__1::__libcpp_compressed_pair_imp"** %3, align 8
  call void @llvm.dbg.declare(metadata !{%"class.std::__1::__libcpp_compressed_pair_imp"** %3}, metadata !2637), !dbg !3262
  %158 = load %"class.std::__1::__libcpp_compressed_pair_imp"** %3
  %159 = bitcast %"class.std::__1::__libcpp_compressed_pair_imp"* %158 to %"class.std::__1::allocator"*, !dbg !3263
  store %"class.std::__1::allocator"* %159, %"class.std::__1::allocator"** %2, align 8
  call void @llvm.dbg.declare(metadata !{%"class.std::__1::allocator"** %2}, metadata !2641), !dbg !3264
  %160 = load %"class.std::__1::allocator"** %2
  %161 = getelementptr inbounds %"class.std::__1::__libcpp_compressed_pair_imp"* %158, i32 0, i32 0, !dbg !3263
  %162 = load i64* %7, align 8, !dbg !3265
  %163 = load i8* %8, align 1, !dbg !3265
  call void @_ZNSt3__112basic_stringIcNS_11char_traitsIcEENS_9allocatorIcEEE6__initEmc(%"class.std::__1::basic_string"* %152, i64 %162, i8 signext %163), !dbg !3265
  %164 = getelementptr inbounds %"class.std::__1::ostreambuf_iterator"* %__s, i32 0, i32 0, !dbg !3267
  %165 = load %"class.std::__1::basic_streambuf"** %164, align 8, !dbg !3267
  store %"class.std::__1::basic_string"* %__sp, %"class.std::__1::basic_string"** %25, align 8
  call void @llvm.dbg.declare(metadata !{%"class.std::__1::basic_string"** %25}, metadata !2698), !dbg !3269
  %166 = load %"class.std::__1::basic_string"** %25
  store %"class.std::__1::basic_string"* %166, %"class.std::__1::basic_string"** %24, align 8
  call void @llvm.dbg.declare(metadata !{%"class.std::__1::basic_string"** %24}, metadata !2702), !dbg !3270
  %167 = load %"class.std::__1::basic_string"** %24
  store %"class.std::__1::basic_string"* %167, %"class.std::__1::basic_string"** %23, align 8
  call void @llvm.dbg.declare(metadata !{%"class.std::__1::basic_string"** %23}, metadata !2705), !dbg !3272
  %168 = load %"class.std::__1::basic_string"** %23
  %169 = getelementptr inbounds %"class.std::__1::basic_string"* %168, i32 0, i32 0, !dbg !3274
  store %"class.std::__1::__compressed_pair"* %169, %"class.std::__1::__compressed_pair"** %22, align 8
  call void @llvm.dbg.declare(metadata !{%"class.std::__1::__compressed_pair"** %22}, metadata !2709), !dbg !3275
  %170 = load %"class.std::__1::__compressed_pair"** %22
  %171 = bitcast %"class.std::__1::__compressed_pair"* %170 to %"class.std::__1::__libcpp_compressed_pair_imp"*, !dbg !3276
  store %"class.std::__1::__libcpp_compressed_pair_imp"* %171, %"class.std::__1::__libcpp_compressed_pair_imp"** %21, align 8
  call void @llvm.dbg.declare(metadata !{%"class.std::__1::__libcpp_compressed_pair_imp"** %21}, metadata !2714), !dbg !3277
  %172 = load %"class.std::__1::__libcpp_compressed_pair_imp"** %21
  %173 = getelementptr inbounds %"class.std::__1::__libcpp_compressed_pair_imp"* %172, i32 0, i32 0, !dbg !3278
  %174 = getelementptr inbounds %"struct.std::__1::basic_string<char, std::__1::char_traits<char>, std::__1::allocator<char> >::__rep"* %173, i32 0, i32 0, !dbg !3274
  %175 = bitcast %union.anon* %174 to %"struct.std::__1::basic_string<char, std::__1::char_traits<char>, std::__1::allocator<char> >::__short"*, !dbg !3274
  %176 = getelementptr inbounds %"struct.std::__1::basic_string<char, std::__1::char_traits<char>, std::__1::allocator<char> >::__short"* %175, i32 0, i32 0, !dbg !3274
  %177 = bitcast %union.anon.0* %176 to i8*, !dbg !3274
  %178 = load i8* %177, align 1, !dbg !3274
  %179 = zext i8 %178 to i32, !dbg !3274
  %180 = and i32 %179, 1, !dbg !3274
  %181 = icmp ne i32 %180, 0, !dbg !3274
  br i1 %181, label %182, label %193, !dbg !3273

; <label>:182                                     ; preds = %146
  store %"class.std::__1::basic_string"* %167, %"class.std::__1::basic_string"** %15, align 8
  call void @llvm.dbg.declare(metadata !{%"class.std::__1::basic_string"** %15}, metadata !2718), !dbg !3279
  %183 = load %"class.std::__1::basic_string"** %15
  %184 = getelementptr inbounds %"class.std::__1::basic_string"* %183, i32 0, i32 0, !dbg !3280
  store %"class.std::__1::__compressed_pair"* %184, %"class.std::__1::__compressed_pair"** %14, align 8
  call void @llvm.dbg.declare(metadata !{%"class.std::__1::__compressed_pair"** %14}, metadata !2709), !dbg !3281
  %185 = load %"class.std::__1::__compressed_pair"** %14
  %186 = bitcast %"class.std::__1::__compressed_pair"* %185 to %"class.std::__1::__libcpp_compressed_pair_imp"*, !dbg !3282
  store %"class.std::__1::__libcpp_compressed_pair_imp"* %186, %"class.std::__1::__libcpp_compressed_pair_imp"** %13, align 8
  call void @llvm.dbg.declare(metadata !{%"class.std::__1::__libcpp_compressed_pair_imp"** %13}, metadata !2714), !dbg !3283
  %187 = load %"class.std::__1::__libcpp_compressed_pair_imp"** %13
  %188 = getelementptr inbounds %"class.std::__1::__libcpp_compressed_pair_imp"* %187, i32 0, i32 0, !dbg !3284
  %189 = getelementptr inbounds %"struct.std::__1::basic_string<char, std::__1::char_traits<char>, std::__1::allocator<char> >::__rep"* %188, i32 0, i32 0, !dbg !3280
  %190 = bitcast %union.anon* %189 to %"struct.std::__1::basic_string<char, std::__1::char_traits<char>, std::__1::allocator<char> >::__long"*, !dbg !3280
  %191 = getelementptr inbounds %"struct.std::__1::basic_string<char, std::__1::char_traits<char>, std::__1::allocator<char> >::__long"* %190, i32 0, i32 2, !dbg !3280
  %192 = load i8** %191, align 8, !dbg !3280
  br label %_ZNKSt3__112basic_stringIcNS_11char_traitsIcEENS_9allocatorIcEEE4dataEv.exit, !dbg !3273

; <label>:193                                     ; preds = %146
  store %"class.std::__1::basic_string"* %167, %"class.std::__1::basic_string"** %20, align 8
  call void @llvm.dbg.declare(metadata !{%"class.std::__1::basic_string"** %20}, metadata !2726), !dbg !3285
  %194 = load %"class.std::__1::basic_string"** %20
  %195 = getelementptr inbounds %"class.std::__1::basic_string"* %194, i32 0, i32 0, !dbg !3286
  store %"class.std::__1::__compressed_pair"* %195, %"class.std::__1::__compressed_pair"** %19, align 8
  call void @llvm.dbg.declare(metadata !{%"class.std::__1::__compressed_pair"** %19}, metadata !2709), !dbg !3287
  %196 = load %"class.std::__1::__compressed_pair"** %19
  %197 = bitcast %"class.std::__1::__compressed_pair"* %196 to %"class.std::__1::__libcpp_compressed_pair_imp"*, !dbg !3288
  store %"class.std::__1::__libcpp_compressed_pair_imp"* %197, %"class.std::__1::__libcpp_compressed_pair_imp"** %18, align 8
  call void @llvm.dbg.declare(metadata !{%"class.std::__1::__libcpp_compressed_pair_imp"** %18}, metadata !2714), !dbg !3289
  %198 = load %"class.std::__1::__libcpp_compressed_pair_imp"** %18
  %199 = getelementptr inbounds %"class.std::__1::__libcpp_compressed_pair_imp"* %198, i32 0, i32 0, !dbg !3290
  %200 = getelementptr inbounds %"struct.std::__1::basic_string<char, std::__1::char_traits<char>, std::__1::allocator<char> >::__rep"* %199, i32 0, i32 0, !dbg !3286
  %201 = bitcast %union.anon* %200 to %"struct.std::__1::basic_string<char, std::__1::char_traits<char>, std::__1::allocator<char> >::__short"*, !dbg !3286
  %202 = getelementptr inbounds %"struct.std::__1::basic_string<char, std::__1::char_traits<char>, std::__1::allocator<char> >::__short"* %201, i32 0, i32 1, !dbg !3286
  %203 = getelementptr inbounds [23 x i8]* %202, i32 0, i64 0, !dbg !3286
  store i8* %203, i8** %17, align 8
  call void @llvm.dbg.declare(metadata !{i8** %17}, metadata !2733), !dbg !3291
  %204 = load i8** %17, align 8, !dbg !3292
  store i8* %204, i8** %16, align 8
  call void @llvm.dbg.declare(metadata !{i8** %16}, metadata !2736), !dbg !3293
  %205 = load i8** %16, align 8, !dbg !3294
  br label %_ZNKSt3__112basic_stringIcNS_11char_traitsIcEENS_9allocatorIcEEE4dataEv.exit, !dbg !3273

_ZNKSt3__112basic_stringIcNS_11char_traitsIcEENS_9allocatorIcEEE4dataEv.exit: ; preds = %182, %193
  %206 = phi i8* [ %192, %182 ], [ %205, %193 ], !dbg !3273
  store i8* %206, i8** %12, align 8
  call void @llvm.dbg.declare(metadata !{i8** %12}, metadata !2741), !dbg !3295
  %207 = load i8** %12, align 8, !dbg !3297
  %208 = load i64* %__ns, align 8, !dbg !3267
  store %"class.std::__1::basic_streambuf"* %165, %"class.std::__1::basic_streambuf"** %34, align 8
  call void @llvm.dbg.declare(metadata !{%"class.std::__1::basic_streambuf"** %34}, metadata !3223), !dbg !3298
  store i8* %207, i8** %35, align 8
  call void @llvm.dbg.declare(metadata !{i8** %35}, metadata !3225), !dbg !3299
  store i64 %208, i64* %36, align 8
  call void @llvm.dbg.declare(metadata !{i64* %36}, metadata !3227), !dbg !3299
  %209 = load %"class.std::__1::basic_streambuf"** %34
  %210 = bitcast %"class.std::__1::basic_streambuf"* %209 to i64 (%"class.std::__1::basic_streambuf"*, i8*, i64)***, !dbg !3300
  %211 = load i64 (%"class.std::__1::basic_streambuf"*, i8*, i64)*** %210, !dbg !3300
  %212 = getelementptr inbounds i64 (%"class.std::__1::basic_streambuf"*, i8*, i64)** %211, i64 12, !dbg !3300
  %213 = load i64 (%"class.std::__1::basic_streambuf"*, i8*, i64)** %212, !dbg !3300
  %214 = load i8** %35, align 8, !dbg !3300
  %215 = load i64* %36, align 8, !dbg !3300
  %216 = invoke i64 %213(%"class.std::__1::basic_streambuf"* %209, i8* %214, i64 %215)
          to label %_ZNSt3__115basic_streambufIcNS_11char_traitsIcEEE5sputnEPKcl.exit unwind label %234

_ZNSt3__115basic_streambufIcNS_11char_traitsIcEEE5sputnEPKcl.exit: ; preds = %_ZNKSt3__112basic_stringIcNS_11char_traitsIcEENS_9allocatorIcEEE4dataEv.exit
  br label %217, !dbg !3300

; <label>:217                                     ; preds = %_ZNSt3__115basic_streambufIcNS_11char_traitsIcEEE5sputnEPKcl.exit
  %218 = load i64* %__ns, align 8, !dbg !3267
  %219 = icmp ne i64 %216, %218, !dbg !3267
  br i1 %219, label %220, label %238, !dbg !3267

; <label>:220                                     ; preds = %217
  store %"struct.std::__1::nullptr_t"* %41, %"struct.std::__1::nullptr_t"** %39, align 8
  call void @llvm.dbg.declare(metadata !{%"struct.std::__1::nullptr_t"** %39}, metadata !3188), !dbg !3301
  store i64 -1, i64* %40, align 8
  call void @llvm.dbg.declare(metadata !{i64* %40}, metadata !3192), !dbg !3305
  %221 = load %"struct.std::__1::nullptr_t"** %39
  %222 = load i64* %40, align 8, !dbg !3305
  store %"struct.std::__1::nullptr_t"* %221, %"struct.std::__1::nullptr_t"** %37, align 8
  call void @llvm.dbg.declare(metadata !{%"struct.std::__1::nullptr_t"** %37}, metadata !3195), !dbg !3306
  store i64 %222, i64* %38, align 8
  call void @llvm.dbg.declare(metadata !{i64* %38}, metadata !3197), !dbg !3307
  %223 = load %"struct.std::__1::nullptr_t"** %37
  %224 = getelementptr inbounds %"struct.std::__1::nullptr_t"* %223, i32 0, i32 0, !dbg !3307
  store i8* null, i8** %224, align 8, !dbg !3307
  %225 = getelementptr %"struct.std::__1::nullptr_t"* %41, i32 0, i32 0, !dbg !3302
  %226 = load i8** %225, !dbg !3302
  br label %227, !dbg !3302

; <label>:227                                     ; preds = %220
  %228 = getelementptr %"struct.std::__1::nullptr_t"* %71, i32 0, i32 0, !dbg !3303
  store i8* %226, i8** %228, !dbg !3303
  store %"struct.std::__1::nullptr_t"* %71, %"struct.std::__1::nullptr_t"** %42, align 8
  call void @llvm.dbg.declare(metadata !{%"struct.std::__1::nullptr_t"** %42}, metadata !3199), !dbg !3308
  %229 = load %"struct.std::__1::nullptr_t"** %42
  br label %230, !dbg !3309

; <label>:230                                     ; preds = %227
  %231 = getelementptr inbounds %"class.std::__1::ostreambuf_iterator"* %__s, i32 0, i32 0, !dbg !3303
  store %"class.std::__1::basic_streambuf"* null, %"class.std::__1::basic_streambuf"** %231, align 8, !dbg !3303
  %232 = bitcast %"class.std::__1::ostreambuf_iterator"* %61 to i8*, !dbg !3311
  %233 = bitcast %"class.std::__1::ostreambuf_iterator"* %__s to i8*, !dbg !3311
  call void @llvm.memcpy.p0i8.p0i8.i64(i8* %232, i8* %233, i64 8, i32 8, i1 false), !dbg !3311
  store i32 1, i32* %72
  br label %239, !dbg !3311

; <label>:234                                     ; preds = %_ZNKSt3__112basic_stringIcNS_11char_traitsIcEENS_9allocatorIcEEE4dataEv.exit
  %235 = landingpad { i8*, i32 } personality i8* bitcast (i32 (...)* @__gxx_personality_v0 to i8*)
          cleanup, !dbg !3312
  %236 = extractvalue { i8*, i32 } %235, 0, !dbg !3312
  store i8* %236, i8** %69, !dbg !3312
  %237 = extractvalue { i8*, i32 } %235, 1, !dbg !3312
  store i32 %237, i32* %70, !dbg !3312
  invoke void @_ZNSt3__112basic_stringIcNS_11char_traitsIcEENS_9allocatorIcEEED1Ev(%"class.std::__1::basic_string"* %__sp)
          to label %241 unwind label %296, !dbg !3313

; <label>:238                                     ; preds = %217
  store i32 0, i32* %72, !dbg !3314
  br label %239, !dbg !3314

; <label>:239                                     ; preds = %238, %230
  call void @_ZNSt3__112basic_stringIcNS_11char_traitsIcEENS_9allocatorIcEEED1Ev(%"class.std::__1::basic_string"* %__sp), !dbg !3314
  %cleanup.dest = load i32* %72
  switch i32 %cleanup.dest, label %299 [
    i32 0, label %240
    i32 1, label %288
  ]

; <label>:240                                     ; preds = %239
  br label %242, !dbg !3315

; <label>:241                                     ; preds = %234
  br label %291, !dbg !3313

; <label>:242                                     ; preds = %240, %143
  %243 = load i8** %64, align 8, !dbg !3316
  %244 = load i8** %63, align 8, !dbg !3316
  %245 = ptrtoint i8* %243 to i64, !dbg !3316
  %246 = ptrtoint i8* %244 to i64, !dbg !3316
  %247 = sub i64 %245, %246, !dbg !3316
  store i64 %247, i64* %__np, align 8, !dbg !3316
  %248 = load i64* %__np, align 8, !dbg !3317
  %249 = icmp sgt i64 %248, 0, !dbg !3317
  br i1 %249, label %250, label %278, !dbg !3317

; <label>:250                                     ; preds = %242
  %251 = getelementptr inbounds %"class.std::__1::ostreambuf_iterator"* %__s, i32 0, i32 0, !dbg !3319
  %252 = load %"class.std::__1::basic_streambuf"** %251, align 8, !dbg !3319
  %253 = load i8** %63, align 8, !dbg !3319
  %254 = load i64* %__np, align 8, !dbg !3319
  store %"class.std::__1::basic_streambuf"* %252, %"class.std::__1::basic_streambuf"** %44, align 8
  call void @llvm.dbg.declare(metadata !{%"class.std::__1::basic_streambuf"** %44}, metadata !3223), !dbg !3322
  store i8* %253, i8** %45, align 8
  call void @llvm.dbg.declare(metadata !{i8** %45}, metadata !3225), !dbg !3323
  store i64 %254, i64* %46, align 8
  call void @llvm.dbg.declare(metadata !{i64* %46}, metadata !3227), !dbg !3323
  %255 = load %"class.std::__1::basic_streambuf"** %44
  %256 = bitcast %"class.std::__1::basic_streambuf"* %255 to i64 (%"class.std::__1::basic_streambuf"*, i8*, i64)***, !dbg !3324
  %257 = load i64 (%"class.std::__1::basic_streambuf"*, i8*, i64)*** %256, !dbg !3324
  %258 = getelementptr inbounds i64 (%"class.std::__1::basic_streambuf"*, i8*, i64)** %257, i64 12, !dbg !3324
  %259 = load i64 (%"class.std::__1::basic_streambuf"*, i8*, i64)** %258, !dbg !3324
  %260 = load i8** %45, align 8, !dbg !3324
  %261 = load i64* %46, align 8, !dbg !3324
  %262 = call i64 %259(%"class.std::__1::basic_streambuf"* %255, i8* %260, i64 %261), !dbg !3324
  %263 = load i64* %__np, align 8, !dbg !3319
  %264 = icmp ne i64 %262, %263, !dbg !3319
  br i1 %264, label %265, label %277, !dbg !3319

; <label>:265                                     ; preds = %250
  store %"struct.std::__1::nullptr_t"* %51, %"struct.std::__1::nullptr_t"** %49, align 8
  call void @llvm.dbg.declare(metadata !{%"struct.std::__1::nullptr_t"** %49}, metadata !3188), !dbg !3325
  store i64 -1, i64* %50, align 8
  call void @llvm.dbg.declare(metadata !{i64* %50}, metadata !3192), !dbg !3329
  %266 = load %"struct.std::__1::nullptr_t"** %49
  %267 = load i64* %50, align 8, !dbg !3329
  store %"struct.std::__1::nullptr_t"* %266, %"struct.std::__1::nullptr_t"** %47, align 8
  call void @llvm.dbg.declare(metadata !{%"struct.std::__1::nullptr_t"** %47}, metadata !3195), !dbg !3330
  store i64 %267, i64* %48, align 8
  call void @llvm.dbg.declare(metadata !{i64* %48}, metadata !3197), !dbg !3331
  %268 = load %"struct.std::__1::nullptr_t"** %47
  %269 = getelementptr inbounds %"struct.std::__1::nullptr_t"* %268, i32 0, i32 0, !dbg !3331
  store i8* null, i8** %269, align 8, !dbg !3331
  %270 = getelementptr %"struct.std::__1::nullptr_t"* %51, i32 0, i32 0, !dbg !3326
  %271 = load i8** %270, !dbg !3326
  %272 = getelementptr %"struct.std::__1::nullptr_t"* %73, i32 0, i32 0, !dbg !3327
  store i8* %271, i8** %272, !dbg !3327
  store %"struct.std::__1::nullptr_t"* %73, %"struct.std::__1::nullptr_t"** %52, align 8
  call void @llvm.dbg.declare(metadata !{%"struct.std::__1::nullptr_t"** %52}, metadata !3199), !dbg !3332
  %273 = load %"struct.std::__1::nullptr_t"** %52
  %274 = getelementptr inbounds %"class.std::__1::ostreambuf_iterator"* %__s, i32 0, i32 0, !dbg !3327
  store %"class.std::__1::basic_streambuf"* null, %"class.std::__1::basic_streambuf"** %274, align 8, !dbg !3327
  %275 = bitcast %"class.std::__1::ostreambuf_iterator"* %61 to i8*, !dbg !3333
  %276 = bitcast %"class.std::__1::ostreambuf_iterator"* %__s to i8*, !dbg !3333
  call void @llvm.memcpy.p0i8.p0i8.i64(i8* %275, i8* %276, i64 8, i32 8, i1 false), !dbg !3333
  br label %288, !dbg !3333

; <label>:277                                     ; preds = %250
  br label %278, !dbg !3334

; <label>:278                                     ; preds = %277, %242
  %279 = load %"class.std::__1::ios_base"** %65, align 8, !dbg !3335
  store %"class.std::__1::ios_base"* %279, %"class.std::__1::ios_base"** %53, align 8
  call void @llvm.dbg.declare(metadata !{%"class.std::__1::ios_base"** %53}, metadata !3336), !dbg !3337
  store i64 0, i64* %54, align 8
  call void @llvm.dbg.declare(metadata !{i64* %54}, metadata !3338), !dbg !3339
  %280 = load %"class.std::__1::ios_base"** %53
  call void @llvm.dbg.declare(metadata !{i64* %__r.i}, metadata !3340), !dbg !3342
  %281 = getelementptr inbounds %"class.std::__1::ios_base"* %280, i32 0, i32 3, !dbg !3342
  %282 = load i64* %281, align 8, !dbg !3342
  store i64 %282, i64* %__r.i, align 8, !dbg !3342
  %283 = load i64* %54, align 8, !dbg !3343
  %284 = getelementptr inbounds %"class.std::__1::ios_base"* %280, i32 0, i32 3, !dbg !3343
  store i64 %283, i64* %284, align 8, !dbg !3343
  %285 = load i64* %__r.i, align 8, !dbg !3344
  %286 = bitcast %"class.std::__1::ostreambuf_iterator"* %61 to i8*, !dbg !3345
  %287 = bitcast %"class.std::__1::ostreambuf_iterator"* %__s to i8*, !dbg !3345
  call void @llvm.memcpy.p0i8.p0i8.i64(i8* %286, i8* %287, i64 8, i32 8, i1 false), !dbg !3345
  br label %288, !dbg !3345

; <label>:288                                     ; preds = %278, %265, %239, %130, %86
  %289 = getelementptr %"class.std::__1::ostreambuf_iterator"* %61, i32 0, i32 0, !dbg !3346
  %290 = load %"class.std::__1::basic_streambuf"** %289, !dbg !3346
  ret %"class.std::__1::basic_streambuf"* %290, !dbg !3346

; <label>:291                                     ; preds = %241
  %292 = load i8** %69, !dbg !3313
  %293 = load i32* %70, !dbg !3313
  %294 = insertvalue { i8*, i32 } undef, i8* %292, 0, !dbg !3313
  %295 = insertvalue { i8*, i32 } %294, i32 %293, 1, !dbg !3313
  resume { i8*, i32 } %295, !dbg !3313

; <label>:296                                     ; preds = %234
  %297 = landingpad { i8*, i32 } personality i8* bitcast (i32 (...)* @__gxx_personality_v0 to i8*)
          catch i8* null, !dbg !3313
  %298 = extractvalue { i8*, i32 } %297, 0, !dbg !3313
  call void @__clang_call_terminate(i8* %298) #10, !dbg !3313
  unreachable, !dbg !3313

; <label>:299                                     ; preds = %239
  unreachable
}

declare void @_ZNSt3__113basic_ostreamIcNS_11char_traitsIcEEE6sentryD1Ev(%"class.std::__1::basic_ostream<char, std::__1::char_traits<char> >::sentry"*) #2

declare void @_ZNSt3__18ios_base33__set_badbit_and_consider_rethrowEv(%"class.std::__1::ios_base"*) #2

declare void @__cxa_end_catch()

declare void @_ZNSt3__18ios_base5clearEj(%"class.std::__1::ios_base"*, i32) #2

declare void @_ZNKSt3__18ios_base6getlocEv(%"class.std::__1::locale"* sret, %"class.std::__1::ios_base"*) #2

declare void @_ZNSt3__16localeD1Ev(%"class.std::__1::locale"*) #2

declare %"class.std::__1::locale::facet"* @_ZNKSt3__16locale9use_facetERNS0_2idE(%"class.std::__1::locale"*, %"class.std::__1::locale::id"*) #2

; Function Attrs: nounwind
declare void @llvm.memcpy.p0i8.p0i8.i64(i8* nocapture, i8* nocapture readonly, i64, i32, i1) #6

declare void @_ZNSt3__112basic_stringIcNS_11char_traitsIcEENS_9allocatorIcEEE6__initEmc(%"class.std::__1::basic_string"*, i64, i8 signext) #2

declare void @_ZNSt3__114basic_iostreamIcNS_11char_traitsIcEEED2Ev(%"class.std::__1::basic_iostream"*, i8**) #2

declare void @_ZNSt3__19basic_iosIcNS_11char_traitsIcEEED2Ev(%"class.std::__1::basic_ios"*) #2

declare void @_ZNSt3__114basic_iostreamIcNS_11char_traitsIcEEED1Ev(%"class.std::__1::basic_iostream"*) #2

declare void @_ZNSt3__114basic_iostreamIcNS_11char_traitsIcEEED0Ev(%"class.std::__1::basic_iostream"*) #2

declare void @_ZThn16_NSt3__114basic_iostreamIcNS_11char_traitsIcEEED1Ev(%"class.std::__1::basic_iostream"*) #2

declare void @_ZThn16_NSt3__114basic_iostreamIcNS_11char_traitsIcEEED0Ev(%"class.std::__1::basic_iostream"*) #2

declare void @_ZTv0_n24_NSt3__114basic_iostreamIcNS_11char_traitsIcEEED1Ev(%"class.std::__1::basic_iostream"*) #2

declare void @_ZTv0_n24_NSt3__114basic_iostreamIcNS_11char_traitsIcEEED0Ev(%"class.std::__1::basic_iostream"*) #2

declare void @_ZNSt3__113basic_istreamIcNS_11char_traitsIcEEED1Ev(%"class.std::__1::basic_istream"*) #2

declare void @_ZNSt3__113basic_istreamIcNS_11char_traitsIcEEED0Ev(%"class.std::__1::basic_istream"*) #2

declare void @_ZTv0_n24_NSt3__113basic_istreamIcNS_11char_traitsIcEEED1Ev(%"class.std::__1::basic_istream"*) #2

declare void @_ZTv0_n24_NSt3__113basic_istreamIcNS_11char_traitsIcEEED0Ev(%"class.std::__1::basic_istream"*) #2

declare void @_ZNSt3__113basic_ostreamIcNS_11char_traitsIcEEED1Ev(%"class.std::__1::basic_ostream"*) #2

declare void @_ZNSt3__113basic_ostreamIcNS_11char_traitsIcEEED0Ev(%"class.std::__1::basic_ostream"*) #2

declare void @_ZTv0_n24_NSt3__113basic_ostreamIcNS_11char_traitsIcEEED1Ev(%"class.std::__1::basic_ostream"*) #2

declare void @_ZTv0_n24_NSt3__113basic_ostreamIcNS_11char_traitsIcEEED0Ev(%"class.std::__1::basic_ostream"*) #2

; Function Attrs: inlinehint ssp uwtable
define linkonce_odr void @_ZNSt3__118basic_stringstreamIcNS_11char_traitsIcEENS_9allocatorIcEEED0Ev(%"class.std::__1::basic_stringstream"* %this) unnamed_addr #4 align 2 {
  %1 = alloca %"class.std::__1::basic_stringstream"*, align 8
  %2 = alloca i8*
  %3 = alloca i32
  store %"class.std::__1::basic_stringstream"* %this, %"class.std::__1::basic_stringstream"** %1, align 8
  call void @llvm.dbg.declare(metadata !{%"class.std::__1::basic_stringstream"** %1}, metadata !3347), !dbg !3348
  %4 = load %"class.std::__1::basic_stringstream"** %1
  invoke void @_ZNSt3__118basic_stringstreamIcNS_11char_traitsIcEENS_9allocatorIcEEED1Ev(%"class.std::__1::basic_stringstream"* %4)
          to label %5 unwind label %7, !dbg !3349

; <label>:5                                       ; preds = %0
  %6 = bitcast %"class.std::__1::basic_stringstream"* %4 to i8*, !dbg !3349
  call void @_ZdlPv(i8* %6) #11, !dbg !3349
  ret void, !dbg !3349

; <label>:7                                       ; preds = %0
  %8 = landingpad { i8*, i32 } personality i8* bitcast (i32 (...)* @__gxx_personality_v0 to i8*)
          cleanup, !dbg !3349
  %9 = extractvalue { i8*, i32 } %8, 0, !dbg !3349
  store i8* %9, i8** %2, !dbg !3349
  %10 = extractvalue { i8*, i32 } %8, 1, !dbg !3349
  store i32 %10, i32* %3, !dbg !3349
  %11 = bitcast %"class.std::__1::basic_stringstream"* %4 to i8*, !dbg !3349
  call void @_ZdlPv(i8* %11) #11, !dbg !3349
  br label %12, !dbg !3349

; <label>:12                                      ; preds = %7
  %13 = load i8** %2, !dbg !3349
  %14 = load i32* %3, !dbg !3349
  %15 = insertvalue { i8*, i32 } undef, i8* %13, 0, !dbg !3349
  %16 = insertvalue { i8*, i32 } %15, i32 %14, 1, !dbg !3349
  resume { i8*, i32 } %16, !dbg !3349
}

; Function Attrs: ssp uwtable
define linkonce_odr void @_ZThn16_NSt3__118basic_stringstreamIcNS_11char_traitsIcEENS_9allocatorIcEEED1Ev(%"class.std::__1::basic_stringstream"* %this) unnamed_addr #0 align 2 {
  %1 = alloca %"class.std::__1::basic_stringstream"*, align 8
  store %"class.std::__1::basic_stringstream"* %this, %"class.std::__1::basic_stringstream"** %1, align 8
  call void @llvm.dbg.declare(metadata !{%"class.std::__1::basic_stringstream"** %1}, metadata !3351), !dbg !3352
  %2 = load %"class.std::__1::basic_stringstream"** %1, !dbg !3353
  %3 = bitcast %"class.std::__1::basic_stringstream"* %2 to i8*, !dbg !3353
  %4 = getelementptr inbounds i8* %3, i64 -16, !dbg !3353
  %5 = bitcast i8* %4 to %"class.std::__1::basic_stringstream"*, !dbg !3353
  call void @_ZNSt3__118basic_stringstreamIcNS_11char_traitsIcEENS_9allocatorIcEEED1Ev(%"class.std::__1::basic_stringstream"* %5), !dbg !3353
  ret void, !dbg !3353
}

; Function Attrs: ssp uwtable
define linkonce_odr void @_ZThn16_NSt3__118basic_stringstreamIcNS_11char_traitsIcEENS_9allocatorIcEEED0Ev(%"class.std::__1::basic_stringstream"* %this) unnamed_addr #0 align 2 {
  %1 = alloca %"class.std::__1::basic_stringstream"*, align 8
  store %"class.std::__1::basic_stringstream"* %this, %"class.std::__1::basic_stringstream"** %1, align 8
  call void @llvm.dbg.declare(metadata !{%"class.std::__1::basic_stringstream"** %1}, metadata !3354), !dbg !3355
  %2 = load %"class.std::__1::basic_stringstream"** %1, !dbg !3356
  %3 = bitcast %"class.std::__1::basic_stringstream"* %2 to i8*, !dbg !3356
  %4 = getelementptr inbounds i8* %3, i64 -16, !dbg !3356
  %5 = bitcast i8* %4 to %"class.std::__1::basic_stringstream"*, !dbg !3356
  call void @_ZNSt3__118basic_stringstreamIcNS_11char_traitsIcEENS_9allocatorIcEEED0Ev(%"class.std::__1::basic_stringstream"* %5), !dbg !3356
  ret void, !dbg !3356
}

; Function Attrs: ssp uwtable
define linkonce_odr void @_ZTv0_n24_NSt3__118basic_stringstreamIcNS_11char_traitsIcEENS_9allocatorIcEEED1Ev(%"class.std::__1::basic_stringstream"* %this) unnamed_addr #0 align 2 {
  %1 = alloca %"class.std::__1::basic_stringstream"*, align 8
  store %"class.std::__1::basic_stringstream"* %this, %"class.std::__1::basic_stringstream"** %1, align 8
  call void @llvm.dbg.declare(metadata !{%"class.std::__1::basic_stringstream"** %1}, metadata !3357), !dbg !3358
  %2 = load %"class.std::__1::basic_stringstream"** %1, !dbg !3359
  %3 = bitcast %"class.std::__1::basic_stringstream"* %2 to i8*, !dbg !3359
  %4 = bitcast i8* %3 to i8**, !dbg !3359
  %5 = load i8** %4, !dbg !3359
  %6 = getelementptr inbounds i8* %5, i64 -24, !dbg !3359
  %7 = bitcast i8* %6 to i64*, !dbg !3359
  %8 = load i64* %7, !dbg !3359
  %9 = getelementptr inbounds i8* %3, i64 %8, !dbg !3359
  %10 = bitcast i8* %9 to %"class.std::__1::basic_stringstream"*, !dbg !3359
  call void @_ZNSt3__118basic_stringstreamIcNS_11char_traitsIcEENS_9allocatorIcEEED1Ev(%"class.std::__1::basic_stringstream"* %10), !dbg !3359
  ret void, !dbg !3359
}

; Function Attrs: ssp uwtable
define linkonce_odr void @_ZTv0_n24_NSt3__118basic_stringstreamIcNS_11char_traitsIcEENS_9allocatorIcEEED0Ev(%"class.std::__1::basic_stringstream"* %this) unnamed_addr #0 align 2 {
  %1 = alloca %"class.std::__1::basic_stringstream"*, align 8
  store %"class.std::__1::basic_stringstream"* %this, %"class.std::__1::basic_stringstream"** %1, align 8
  call void @llvm.dbg.declare(metadata !{%"class.std::__1::basic_stringstream"** %1}, metadata !3360), !dbg !3361
  %2 = load %"class.std::__1::basic_stringstream"** %1, !dbg !3362
  %3 = bitcast %"class.std::__1::basic_stringstream"* %2 to i8*, !dbg !3362
  %4 = bitcast i8* %3 to i8**, !dbg !3362
  %5 = load i8** %4, !dbg !3362
  %6 = getelementptr inbounds i8* %5, i64 -24, !dbg !3362
  %7 = bitcast i8* %6 to i64*, !dbg !3362
  %8 = load i64* %7, !dbg !3362
  %9 = getelementptr inbounds i8* %3, i64 %8, !dbg !3362
  %10 = bitcast i8* %9 to %"class.std::__1::basic_stringstream"*, !dbg !3362
  call void @_ZNSt3__118basic_stringstreamIcNS_11char_traitsIcEENS_9allocatorIcEEED0Ev(%"class.std::__1::basic_stringstream"* %10), !dbg !3362
  ret void, !dbg !3362
}

; Function Attrs: nobuiltin nounwind
declare void @_ZdlPv(i8*) #7

declare void @_ZNSt3__115basic_streambufIcNS_11char_traitsIcEEEC2Ev(%"class.std::__1::basic_streambuf"*) #2

; Function Attrs: ssp uwtable
define linkonce_odr void @_ZNSt3__115basic_stringbufIcNS_11char_traitsIcEENS_9allocatorIcEEE3strERKNS_12basic_stringIcS2_S4_EE(%"class.std::__1::basic_stringbuf"* %this, %"class.std::__1::basic_string"* %__s) #0 align 2 {
  %1 = alloca i8*, align 8
  %2 = alloca %"class.std::__1::__libcpp_compressed_pair_imp"*, align 8
  %3 = alloca %"class.std::__1::__compressed_pair"*, align 8
  %4 = alloca %"class.std::__1::basic_string"*, align 8
  %5 = alloca i8*, align 8
  %6 = alloca i8*, align 8
  %7 = alloca %"class.std::__1::__libcpp_compressed_pair_imp"*, align 8
  %8 = alloca %"class.std::__1::__compressed_pair"*, align 8
  %9 = alloca %"class.std::__1::basic_string"*, align 8
  %10 = alloca %"class.std::__1::__libcpp_compressed_pair_imp"*, align 8
  %11 = alloca %"class.std::__1::__compressed_pair"*, align 8
  %12 = alloca %"class.std::__1::basic_string"*, align 8
  %13 = alloca %"class.std::__1::basic_string"*, align 8
  %14 = alloca %"class.std::__1::basic_string"*, align 8
  %15 = alloca i8*, align 8
  %16 = alloca %"class.std::__1::__libcpp_compressed_pair_imp"*, align 8
  %17 = alloca %"class.std::__1::__compressed_pair"*, align 8
  %18 = alloca %"class.std::__1::basic_string"*, align 8
  %19 = alloca i8*, align 8
  %20 = alloca i8*, align 8
  %21 = alloca %"class.std::__1::__libcpp_compressed_pair_imp"*, align 8
  %22 = alloca %"class.std::__1::__compressed_pair"*, align 8
  %23 = alloca %"class.std::__1::basic_string"*, align 8
  %24 = alloca %"class.std::__1::__libcpp_compressed_pair_imp"*, align 8
  %25 = alloca %"class.std::__1::__compressed_pair"*, align 8
  %26 = alloca %"class.std::__1::basic_string"*, align 8
  %27 = alloca %"class.std::__1::basic_string"*, align 8
  %28 = alloca %"class.std::__1::basic_string"*, align 8
  %29 = alloca %"class.std::__1::basic_streambuf"*, align 8
  %30 = alloca i8*, align 8
  %31 = alloca i8*, align 8
  %32 = alloca i8*, align 8
  %33 = alloca %"class.std::__1::__libcpp_compressed_pair_imp"*, align 8
  %34 = alloca %"class.std::__1::__compressed_pair"*, align 8
  %35 = alloca %"class.std::__1::basic_string"*, align 8
  %36 = alloca %"class.std::__1::__libcpp_compressed_pair_imp"*, align 8
  %37 = alloca %"class.std::__1::__compressed_pair"*, align 8
  %38 = alloca %"class.std::__1::basic_string"*, align 8
  %39 = alloca %"class.std::__1::__libcpp_compressed_pair_imp"*, align 8
  %40 = alloca %"class.std::__1::__compressed_pair"*, align 8
  %41 = alloca %"class.std::__1::basic_string"*, align 8
  %42 = alloca %"class.std::__1::basic_string"*, align 8
  %43 = alloca i8*, align 8
  %44 = alloca %"class.std::__1::__libcpp_compressed_pair_imp"*, align 8
  %45 = alloca %"class.std::__1::__compressed_pair"*, align 8
  %46 = alloca %"class.std::__1::basic_string"*, align 8
  %47 = alloca i8*, align 8
  %48 = alloca i8*, align 8
  %49 = alloca %"class.std::__1::__libcpp_compressed_pair_imp"*, align 8
  %50 = alloca %"class.std::__1::__compressed_pair"*, align 8
  %51 = alloca %"class.std::__1::basic_string"*, align 8
  %52 = alloca %"class.std::__1::__libcpp_compressed_pair_imp"*, align 8
  %53 = alloca %"class.std::__1::__compressed_pair"*, align 8
  %54 = alloca %"class.std::__1::basic_string"*, align 8
  %55 = alloca %"class.std::__1::basic_string"*, align 8
  %56 = alloca %"class.std::__1::basic_string"*, align 8
  %57 = alloca %"class.std::__1::__libcpp_compressed_pair_imp"*, align 8
  %58 = alloca %"class.std::__1::__compressed_pair"*, align 8
  %59 = alloca %"class.std::__1::basic_string"*, align 8
  %60 = alloca %"class.std::__1::__libcpp_compressed_pair_imp"*, align 8
  %61 = alloca %"class.std::__1::__compressed_pair"*, align 8
  %62 = alloca %"class.std::__1::basic_string"*, align 8
  %63 = alloca %"class.std::__1::basic_string"*, align 8
  %64 = alloca %"class.std::__1::__libcpp_compressed_pair_imp"*, align 8
  %65 = alloca %"class.std::__1::__compressed_pair"*, align 8
  %66 = alloca %"class.std::__1::basic_string"*, align 8
  %67 = alloca %"class.std::__1::__libcpp_compressed_pair_imp"*, align 8
  %68 = alloca %"class.std::__1::__compressed_pair"*, align 8
  %69 = alloca %"class.std::__1::basic_string"*, align 8
  %70 = alloca %"class.std::__1::__libcpp_compressed_pair_imp"*, align 8
  %71 = alloca %"class.std::__1::__compressed_pair"*, align 8
  %72 = alloca %"class.std::__1::basic_string"*, align 8
  %73 = alloca %"class.std::__1::basic_string"*, align 8
  %74 = alloca %"class.std::__1::basic_string"*, align 8
  %75 = alloca i64, align 8
  %76 = alloca i8*, align 8
  %77 = alloca %"class.std::__1::__libcpp_compressed_pair_imp"*, align 8
  %78 = alloca %"class.std::__1::__compressed_pair"*, align 8
  %79 = alloca %"class.std::__1::basic_string"*, align 8
  %80 = alloca i8*, align 8
  %81 = alloca i8*, align 8
  %82 = alloca %"class.std::__1::__libcpp_compressed_pair_imp"*, align 8
  %83 = alloca %"class.std::__1::__compressed_pair"*, align 8
  %84 = alloca %"class.std::__1::basic_string"*, align 8
  %85 = alloca %"class.std::__1::__libcpp_compressed_pair_imp"*, align 8
  %86 = alloca %"class.std::__1::__compressed_pair"*, align 8
  %87 = alloca %"class.std::__1::basic_string"*, align 8
  %88 = alloca %"class.std::__1::basic_string"*, align 8
  %89 = alloca %"class.std::__1::basic_string"*, align 8
  %90 = alloca i8*, align 8
  %91 = alloca %"class.std::__1::__libcpp_compressed_pair_imp"*, align 8
  %92 = alloca %"class.std::__1::__compressed_pair"*, align 8
  %93 = alloca %"class.std::__1::basic_string"*, align 8
  %94 = alloca i8*, align 8
  %95 = alloca i8*, align 8
  %96 = alloca %"class.std::__1::__libcpp_compressed_pair_imp"*, align 8
  %97 = alloca %"class.std::__1::__compressed_pair"*, align 8
  %98 = alloca %"class.std::__1::basic_string"*, align 8
  %99 = alloca %"class.std::__1::__libcpp_compressed_pair_imp"*, align 8
  %100 = alloca %"class.std::__1::__compressed_pair"*, align 8
  %101 = alloca %"class.std::__1::basic_string"*, align 8
  %102 = alloca %"class.std::__1::basic_string"*, align 8
  %103 = alloca %"class.std::__1::basic_string"*, align 8
  %104 = alloca %"class.std::__1::__libcpp_compressed_pair_imp"*, align 8
  %105 = alloca %"class.std::__1::__compressed_pair"*, align 8
  %106 = alloca %"class.std::__1::basic_string"*, align 8
  %107 = alloca %"class.std::__1::__libcpp_compressed_pair_imp"*, align 8
  %108 = alloca %"class.std::__1::__compressed_pair"*, align 8
  %109 = alloca %"class.std::__1::basic_string"*, align 8
  %110 = alloca %"class.std::__1::__libcpp_compressed_pair_imp"*, align 8
  %111 = alloca %"class.std::__1::__compressed_pair"*, align 8
  %112 = alloca %"class.std::__1::basic_string"*, align 8
  %113 = alloca %"class.std::__1::basic_string"*, align 8
  %114 = alloca %"class.std::__1::basic_streambuf"*, align 8
  %115 = alloca i8*, align 8
  %116 = alloca i8*, align 8
  %117 = alloca %"class.std::__1::basic_streambuf"*, align 8
  %118 = alloca i32, align 4
  %119 = alloca i8*, align 8
  %120 = alloca %"class.std::__1::__libcpp_compressed_pair_imp"*, align 8
  %121 = alloca %"class.std::__1::__compressed_pair"*, align 8
  %122 = alloca %"class.std::__1::basic_string"*, align 8
  %123 = alloca i8*, align 8
  %124 = alloca i8*, align 8
  %125 = alloca %"class.std::__1::__libcpp_compressed_pair_imp"*, align 8
  %126 = alloca %"class.std::__1::__compressed_pair"*, align 8
  %127 = alloca %"class.std::__1::basic_string"*, align 8
  %128 = alloca %"class.std::__1::__libcpp_compressed_pair_imp"*, align 8
  %129 = alloca %"class.std::__1::__compressed_pair"*, align 8
  %130 = alloca %"class.std::__1::basic_string"*, align 8
  %131 = alloca %"class.std::__1::basic_string"*, align 8
  %132 = alloca %"class.std::__1::basic_string"*, align 8
  %133 = alloca %"class.std::__1::basic_stringbuf"*, align 8
  %134 = alloca %"class.std::__1::basic_string"*, align 8
  %__sz = alloca i64, align 8
  store %"class.std::__1::basic_stringbuf"* %this, %"class.std::__1::basic_stringbuf"** %133, align 8
  call void @llvm.dbg.declare(metadata !{%"class.std::__1::basic_stringbuf"** %133}, metadata !3363), !dbg !3364
  store %"class.std::__1::basic_string"* %__s, %"class.std::__1::basic_string"** %134, align 8
  call void @llvm.dbg.declare(metadata !{%"class.std::__1::basic_string"** %134}, metadata !3365), !dbg !3366
  %135 = load %"class.std::__1::basic_stringbuf"** %133
  %136 = getelementptr inbounds %"class.std::__1::basic_stringbuf"* %135, i32 0, i32 1, !dbg !3367
  %137 = load %"class.std::__1::basic_string"** %134, align 8, !dbg !3367
  %138 = call %"class.std::__1::basic_string"* @_ZNSt3__112basic_stringIcNS_11char_traitsIcEENS_9allocatorIcEEEaSERKS5_(%"class.std::__1::basic_string"* %136, %"class.std::__1::basic_string"* %137), !dbg !3367
  %139 = getelementptr inbounds %"class.std::__1::basic_stringbuf"* %135, i32 0, i32 2, !dbg !3369
  store i8* null, i8** %139, align 8, !dbg !3369
  %140 = getelementptr inbounds %"class.std::__1::basic_stringbuf"* %135, i32 0, i32 3, !dbg !3370
  %141 = load i32* %140, align 4, !dbg !3370
  %142 = and i32 %141, 8, !dbg !3370
  %143 = icmp ne i32 %142, 0, !dbg !3370
  br i1 %143, label %144, label %329, !dbg !3370

; <label>:144                                     ; preds = %0
  %145 = getelementptr inbounds %"class.std::__1::basic_stringbuf"* %135, i32 0, i32 1, !dbg !3372
  store %"class.std::__1::basic_string"* %145, %"class.std::__1::basic_string"** %132, align 8
  call void @llvm.dbg.declare(metadata !{%"class.std::__1::basic_string"** %132}, metadata !2698), !dbg !3374
  %146 = load %"class.std::__1::basic_string"** %132
  store %"class.std::__1::basic_string"* %146, %"class.std::__1::basic_string"** %131, align 8
  call void @llvm.dbg.declare(metadata !{%"class.std::__1::basic_string"** %131}, metadata !2702), !dbg !3375
  %147 = load %"class.std::__1::basic_string"** %131
  store %"class.std::__1::basic_string"* %147, %"class.std::__1::basic_string"** %130, align 8
  call void @llvm.dbg.declare(metadata !{%"class.std::__1::basic_string"** %130}, metadata !2705), !dbg !3377
  %148 = load %"class.std::__1::basic_string"** %130
  %149 = getelementptr inbounds %"class.std::__1::basic_string"* %148, i32 0, i32 0, !dbg !3379
  store %"class.std::__1::__compressed_pair"* %149, %"class.std::__1::__compressed_pair"** %129, align 8
  call void @llvm.dbg.declare(metadata !{%"class.std::__1::__compressed_pair"** %129}, metadata !2709), !dbg !3380
  %150 = load %"class.std::__1::__compressed_pair"** %129
  %151 = bitcast %"class.std::__1::__compressed_pair"* %150 to %"class.std::__1::__libcpp_compressed_pair_imp"*, !dbg !3381
  store %"class.std::__1::__libcpp_compressed_pair_imp"* %151, %"class.std::__1::__libcpp_compressed_pair_imp"** %128, align 8
  call void @llvm.dbg.declare(metadata !{%"class.std::__1::__libcpp_compressed_pair_imp"** %128}, metadata !2714), !dbg !3382
  %152 = load %"class.std::__1::__libcpp_compressed_pair_imp"** %128
  %153 = getelementptr inbounds %"class.std::__1::__libcpp_compressed_pair_imp"* %152, i32 0, i32 0, !dbg !3383
  %154 = getelementptr inbounds %"struct.std::__1::basic_string<char, std::__1::char_traits<char>, std::__1::allocator<char> >::__rep"* %153, i32 0, i32 0, !dbg !3379
  %155 = bitcast %union.anon* %154 to %"struct.std::__1::basic_string<char, std::__1::char_traits<char>, std::__1::allocator<char> >::__short"*, !dbg !3379
  %156 = getelementptr inbounds %"struct.std::__1::basic_string<char, std::__1::char_traits<char>, std::__1::allocator<char> >::__short"* %155, i32 0, i32 0, !dbg !3379
  %157 = bitcast %union.anon.0* %156 to i8*, !dbg !3379
  %158 = load i8* %157, align 1, !dbg !3379
  %159 = zext i8 %158 to i32, !dbg !3379
  %160 = and i32 %159, 1, !dbg !3379
  %161 = icmp ne i32 %160, 0, !dbg !3379
  br i1 %161, label %162, label %173, !dbg !3378

; <label>:162                                     ; preds = %144
  store %"class.std::__1::basic_string"* %147, %"class.std::__1::basic_string"** %122, align 8
  call void @llvm.dbg.declare(metadata !{%"class.std::__1::basic_string"** %122}, metadata !2718), !dbg !3384
  %163 = load %"class.std::__1::basic_string"** %122
  %164 = getelementptr inbounds %"class.std::__1::basic_string"* %163, i32 0, i32 0, !dbg !3385
  store %"class.std::__1::__compressed_pair"* %164, %"class.std::__1::__compressed_pair"** %121, align 8
  call void @llvm.dbg.declare(metadata !{%"class.std::__1::__compressed_pair"** %121}, metadata !2709), !dbg !3386
  %165 = load %"class.std::__1::__compressed_pair"** %121
  %166 = bitcast %"class.std::__1::__compressed_pair"* %165 to %"class.std::__1::__libcpp_compressed_pair_imp"*, !dbg !3387
  store %"class.std::__1::__libcpp_compressed_pair_imp"* %166, %"class.std::__1::__libcpp_compressed_pair_imp"** %120, align 8
  call void @llvm.dbg.declare(metadata !{%"class.std::__1::__libcpp_compressed_pair_imp"** %120}, metadata !2714), !dbg !3388
  %167 = load %"class.std::__1::__libcpp_compressed_pair_imp"** %120
  %168 = getelementptr inbounds %"class.std::__1::__libcpp_compressed_pair_imp"* %167, i32 0, i32 0, !dbg !3389
  %169 = getelementptr inbounds %"struct.std::__1::basic_string<char, std::__1::char_traits<char>, std::__1::allocator<char> >::__rep"* %168, i32 0, i32 0, !dbg !3385
  %170 = bitcast %union.anon* %169 to %"struct.std::__1::basic_string<char, std::__1::char_traits<char>, std::__1::allocator<char> >::__long"*, !dbg !3385
  %171 = getelementptr inbounds %"struct.std::__1::basic_string<char, std::__1::char_traits<char>, std::__1::allocator<char> >::__long"* %170, i32 0, i32 2, !dbg !3385
  %172 = load i8** %171, align 8, !dbg !3385
  br label %_ZNKSt3__112basic_stringIcNS_11char_traitsIcEENS_9allocatorIcEEE4dataEv.exit, !dbg !3378

; <label>:173                                     ; preds = %144
  store %"class.std::__1::basic_string"* %147, %"class.std::__1::basic_string"** %127, align 8
  call void @llvm.dbg.declare(metadata !{%"class.std::__1::basic_string"** %127}, metadata !2726), !dbg !3390
  %174 = load %"class.std::__1::basic_string"** %127
  %175 = getelementptr inbounds %"class.std::__1::basic_string"* %174, i32 0, i32 0, !dbg !3391
  store %"class.std::__1::__compressed_pair"* %175, %"class.std::__1::__compressed_pair"** %126, align 8
  call void @llvm.dbg.declare(metadata !{%"class.std::__1::__compressed_pair"** %126}, metadata !2709), !dbg !3392
  %176 = load %"class.std::__1::__compressed_pair"** %126
  %177 = bitcast %"class.std::__1::__compressed_pair"* %176 to %"class.std::__1::__libcpp_compressed_pair_imp"*, !dbg !3393
  store %"class.std::__1::__libcpp_compressed_pair_imp"* %177, %"class.std::__1::__libcpp_compressed_pair_imp"** %125, align 8
  call void @llvm.dbg.declare(metadata !{%"class.std::__1::__libcpp_compressed_pair_imp"** %125}, metadata !2714), !dbg !3394
  %178 = load %"class.std::__1::__libcpp_compressed_pair_imp"** %125
  %179 = getelementptr inbounds %"class.std::__1::__libcpp_compressed_pair_imp"* %178, i32 0, i32 0, !dbg !3395
  %180 = getelementptr inbounds %"struct.std::__1::basic_string<char, std::__1::char_traits<char>, std::__1::allocator<char> >::__rep"* %179, i32 0, i32 0, !dbg !3391
  %181 = bitcast %union.anon* %180 to %"struct.std::__1::basic_string<char, std::__1::char_traits<char>, std::__1::allocator<char> >::__short"*, !dbg !3391
  %182 = getelementptr inbounds %"struct.std::__1::basic_string<char, std::__1::char_traits<char>, std::__1::allocator<char> >::__short"* %181, i32 0, i32 1, !dbg !3391
  %183 = getelementptr inbounds [23 x i8]* %182, i32 0, i64 0, !dbg !3391
  store i8* %183, i8** %124, align 8
  call void @llvm.dbg.declare(metadata !{i8** %124}, metadata !2733), !dbg !3396
  %184 = load i8** %124, align 8, !dbg !3397
  store i8* %184, i8** %123, align 8
  call void @llvm.dbg.declare(metadata !{i8** %123}, metadata !2736), !dbg !3398
  %185 = load i8** %123, align 8, !dbg !3399
  br label %_ZNKSt3__112basic_stringIcNS_11char_traitsIcEENS_9allocatorIcEEE4dataEv.exit, !dbg !3378

_ZNKSt3__112basic_stringIcNS_11char_traitsIcEENS_9allocatorIcEEE4dataEv.exit: ; preds = %162, %173
  %186 = phi i8* [ %172, %162 ], [ %185, %173 ], !dbg !3378
  store i8* %186, i8** %119, align 8
  call void @llvm.dbg.declare(metadata !{i8** %119}, metadata !2741), !dbg !3400
  %187 = load i8** %119, align 8, !dbg !3402
  %188 = getelementptr inbounds %"class.std::__1::basic_stringbuf"* %135, i32 0, i32 1, !dbg !3372
  store %"class.std::__1::basic_string"* %188, %"class.std::__1::basic_string"** %73, align 8
  call void @llvm.dbg.declare(metadata !{%"class.std::__1::basic_string"** %73}, metadata !3403), !dbg !3404
  %189 = load %"class.std::__1::basic_string"** %73
  store %"class.std::__1::basic_string"* %189, %"class.std::__1::basic_string"** %72, align 8
  call void @llvm.dbg.declare(metadata !{%"class.std::__1::basic_string"** %72}, metadata !2705), !dbg !3405
  %190 = load %"class.std::__1::basic_string"** %72
  %191 = getelementptr inbounds %"class.std::__1::basic_string"* %190, i32 0, i32 0, !dbg !3408
  store %"class.std::__1::__compressed_pair"* %191, %"class.std::__1::__compressed_pair"** %71, align 8
  call void @llvm.dbg.declare(metadata !{%"class.std::__1::__compressed_pair"** %71}, metadata !2709), !dbg !3409
  %192 = load %"class.std::__1::__compressed_pair"** %71
  %193 = bitcast %"class.std::__1::__compressed_pair"* %192 to %"class.std::__1::__libcpp_compressed_pair_imp"*, !dbg !3410
  store %"class.std::__1::__libcpp_compressed_pair_imp"* %193, %"class.std::__1::__libcpp_compressed_pair_imp"** %70, align 8
  call void @llvm.dbg.declare(metadata !{%"class.std::__1::__libcpp_compressed_pair_imp"** %70}, metadata !2714), !dbg !3411
  %194 = load %"class.std::__1::__libcpp_compressed_pair_imp"** %70
  %195 = getelementptr inbounds %"class.std::__1::__libcpp_compressed_pair_imp"* %194, i32 0, i32 0, !dbg !3412
  %196 = getelementptr inbounds %"struct.std::__1::basic_string<char, std::__1::char_traits<char>, std::__1::allocator<char> >::__rep"* %195, i32 0, i32 0, !dbg !3408
  %197 = bitcast %union.anon* %196 to %"struct.std::__1::basic_string<char, std::__1::char_traits<char>, std::__1::allocator<char> >::__short"*, !dbg !3408
  %198 = getelementptr inbounds %"struct.std::__1::basic_string<char, std::__1::char_traits<char>, std::__1::allocator<char> >::__short"* %197, i32 0, i32 0, !dbg !3408
  %199 = bitcast %union.anon.0* %198 to i8*, !dbg !3408
  %200 = load i8* %199, align 1, !dbg !3408
  %201 = zext i8 %200 to i32, !dbg !3408
  %202 = and i32 %201, 1, !dbg !3408
  %203 = icmp ne i32 %202, 0, !dbg !3408
  br i1 %203, label %204, label %215, !dbg !3406

; <label>:204                                     ; preds = %_ZNKSt3__112basic_stringIcNS_11char_traitsIcEENS_9allocatorIcEEE4dataEv.exit
  store %"class.std::__1::basic_string"* %189, %"class.std::__1::basic_string"** %66, align 8
  call void @llvm.dbg.declare(metadata !{%"class.std::__1::basic_string"** %66}, metadata !3413), !dbg !3414
  %205 = load %"class.std::__1::basic_string"** %66
  %206 = getelementptr inbounds %"class.std::__1::basic_string"* %205, i32 0, i32 0, !dbg !3415
  store %"class.std::__1::__compressed_pair"* %206, %"class.std::__1::__compressed_pair"** %65, align 8
  call void @llvm.dbg.declare(metadata !{%"class.std::__1::__compressed_pair"** %65}, metadata !2709), !dbg !3416
  %207 = load %"class.std::__1::__compressed_pair"** %65
  %208 = bitcast %"class.std::__1::__compressed_pair"* %207 to %"class.std::__1::__libcpp_compressed_pair_imp"*, !dbg !3417
  store %"class.std::__1::__libcpp_compressed_pair_imp"* %208, %"class.std::__1::__libcpp_compressed_pair_imp"** %64, align 8
  call void @llvm.dbg.declare(metadata !{%"class.std::__1::__libcpp_compressed_pair_imp"** %64}, metadata !2714), !dbg !3418
  %209 = load %"class.std::__1::__libcpp_compressed_pair_imp"** %64
  %210 = getelementptr inbounds %"class.std::__1::__libcpp_compressed_pair_imp"* %209, i32 0, i32 0, !dbg !3419
  %211 = getelementptr inbounds %"struct.std::__1::basic_string<char, std::__1::char_traits<char>, std::__1::allocator<char> >::__rep"* %210, i32 0, i32 0, !dbg !3415
  %212 = bitcast %union.anon* %211 to %"struct.std::__1::basic_string<char, std::__1::char_traits<char>, std::__1::allocator<char> >::__long"*, !dbg !3415
  %213 = getelementptr inbounds %"struct.std::__1::basic_string<char, std::__1::char_traits<char>, std::__1::allocator<char> >::__long"* %212, i32 0, i32 1, !dbg !3415
  %214 = load i64* %213, align 8, !dbg !3415
  br label %_ZNKSt3__112basic_stringIcNS_11char_traitsIcEENS_9allocatorIcEEE4sizeEv.exit3, !dbg !3406

; <label>:215                                     ; preds = %_ZNKSt3__112basic_stringIcNS_11char_traitsIcEENS_9allocatorIcEEE4dataEv.exit
  store %"class.std::__1::basic_string"* %189, %"class.std::__1::basic_string"** %69, align 8
  call void @llvm.dbg.declare(metadata !{%"class.std::__1::basic_string"** %69}, metadata !3420), !dbg !3421
  %216 = load %"class.std::__1::basic_string"** %69
  %217 = getelementptr inbounds %"class.std::__1::basic_string"* %216, i32 0, i32 0, !dbg !3422
  store %"class.std::__1::__compressed_pair"* %217, %"class.std::__1::__compressed_pair"** %68, align 8
  call void @llvm.dbg.declare(metadata !{%"class.std::__1::__compressed_pair"** %68}, metadata !2709), !dbg !3423
  %218 = load %"class.std::__1::__compressed_pair"** %68
  %219 = bitcast %"class.std::__1::__compressed_pair"* %218 to %"class.std::__1::__libcpp_compressed_pair_imp"*, !dbg !3424
  store %"class.std::__1::__libcpp_compressed_pair_imp"* %219, %"class.std::__1::__libcpp_compressed_pair_imp"** %67, align 8
  call void @llvm.dbg.declare(metadata !{%"class.std::__1::__libcpp_compressed_pair_imp"** %67}, metadata !2714), !dbg !3425
  %220 = load %"class.std::__1::__libcpp_compressed_pair_imp"** %67
  %221 = getelementptr inbounds %"class.std::__1::__libcpp_compressed_pair_imp"* %220, i32 0, i32 0, !dbg !3426
  %222 = getelementptr inbounds %"struct.std::__1::basic_string<char, std::__1::char_traits<char>, std::__1::allocator<char> >::__rep"* %221, i32 0, i32 0, !dbg !3422
  %223 = bitcast %union.anon* %222 to %"struct.std::__1::basic_string<char, std::__1::char_traits<char>, std::__1::allocator<char> >::__short"*, !dbg !3422
  %224 = getelementptr inbounds %"struct.std::__1::basic_string<char, std::__1::char_traits<char>, std::__1::allocator<char> >::__short"* %223, i32 0, i32 0, !dbg !3422
  %225 = bitcast %union.anon.0* %224 to i8*, !dbg !3422
  %226 = load i8* %225, align 1, !dbg !3422
  %227 = zext i8 %226 to i32, !dbg !3422
  %228 = ashr i32 %227, 1, !dbg !3422
  %229 = sext i32 %228 to i64, !dbg !3422
  br label %_ZNKSt3__112basic_stringIcNS_11char_traitsIcEENS_9allocatorIcEEE4sizeEv.exit3, !dbg !3406

_ZNKSt3__112basic_stringIcNS_11char_traitsIcEENS_9allocatorIcEEE4sizeEv.exit3: ; preds = %204, %215
  %230 = phi i64 [ %214, %204 ], [ %229, %215 ], !dbg !3406
  %231 = getelementptr inbounds i8* %187, i64 %230, !dbg !3372
  %232 = getelementptr inbounds %"class.std::__1::basic_stringbuf"* %135, i32 0, i32 2, !dbg !3372
  store i8* %231, i8** %232, align 8, !dbg !3372
  %233 = bitcast %"class.std::__1::basic_stringbuf"* %135 to %"class.std::__1::basic_streambuf"*, !dbg !3427
  %234 = getelementptr inbounds %"class.std::__1::basic_stringbuf"* %135, i32 0, i32 1, !dbg !3427
  store %"class.std::__1::basic_string"* %234, %"class.std::__1::basic_string"** %14, align 8
  call void @llvm.dbg.declare(metadata !{%"class.std::__1::basic_string"** %14}, metadata !2698), !dbg !3428
  %235 = load %"class.std::__1::basic_string"** %14
  store %"class.std::__1::basic_string"* %235, %"class.std::__1::basic_string"** %13, align 8
  call void @llvm.dbg.declare(metadata !{%"class.std::__1::basic_string"** %13}, metadata !2702), !dbg !3429
  %236 = load %"class.std::__1::basic_string"** %13
  store %"class.std::__1::basic_string"* %236, %"class.std::__1::basic_string"** %12, align 8
  call void @llvm.dbg.declare(metadata !{%"class.std::__1::basic_string"** %12}, metadata !2705), !dbg !3431
  %237 = load %"class.std::__1::basic_string"** %12
  %238 = getelementptr inbounds %"class.std::__1::basic_string"* %237, i32 0, i32 0, !dbg !3433
  store %"class.std::__1::__compressed_pair"* %238, %"class.std::__1::__compressed_pair"** %11, align 8
  call void @llvm.dbg.declare(metadata !{%"class.std::__1::__compressed_pair"** %11}, metadata !2709), !dbg !3434
  %239 = load %"class.std::__1::__compressed_pair"** %11
  %240 = bitcast %"class.std::__1::__compressed_pair"* %239 to %"class.std::__1::__libcpp_compressed_pair_imp"*, !dbg !3435
  store %"class.std::__1::__libcpp_compressed_pair_imp"* %240, %"class.std::__1::__libcpp_compressed_pair_imp"** %10, align 8
  call void @llvm.dbg.declare(metadata !{%"class.std::__1::__libcpp_compressed_pair_imp"** %10}, metadata !2714), !dbg !3436
  %241 = load %"class.std::__1::__libcpp_compressed_pair_imp"** %10
  %242 = getelementptr inbounds %"class.std::__1::__libcpp_compressed_pair_imp"* %241, i32 0, i32 0, !dbg !3437
  %243 = getelementptr inbounds %"struct.std::__1::basic_string<char, std::__1::char_traits<char>, std::__1::allocator<char> >::__rep"* %242, i32 0, i32 0, !dbg !3433
  %244 = bitcast %union.anon* %243 to %"struct.std::__1::basic_string<char, std::__1::char_traits<char>, std::__1::allocator<char> >::__short"*, !dbg !3433
  %245 = getelementptr inbounds %"struct.std::__1::basic_string<char, std::__1::char_traits<char>, std::__1::allocator<char> >::__short"* %244, i32 0, i32 0, !dbg !3433
  %246 = bitcast %union.anon.0* %245 to i8*, !dbg !3433
  %247 = load i8* %246, align 1, !dbg !3433
  %248 = zext i8 %247 to i32, !dbg !3433
  %249 = and i32 %248, 1, !dbg !3433
  %250 = icmp ne i32 %249, 0, !dbg !3433
  br i1 %250, label %251, label %262, !dbg !3432

; <label>:251                                     ; preds = %_ZNKSt3__112basic_stringIcNS_11char_traitsIcEENS_9allocatorIcEEE4sizeEv.exit3
  store %"class.std::__1::basic_string"* %236, %"class.std::__1::basic_string"** %4, align 8
  call void @llvm.dbg.declare(metadata !{%"class.std::__1::basic_string"** %4}, metadata !2718), !dbg !3438
  %252 = load %"class.std::__1::basic_string"** %4
  %253 = getelementptr inbounds %"class.std::__1::basic_string"* %252, i32 0, i32 0, !dbg !3439
  store %"class.std::__1::__compressed_pair"* %253, %"class.std::__1::__compressed_pair"** %3, align 8
  call void @llvm.dbg.declare(metadata !{%"class.std::__1::__compressed_pair"** %3}, metadata !2709), !dbg !3440
  %254 = load %"class.std::__1::__compressed_pair"** %3
  %255 = bitcast %"class.std::__1::__compressed_pair"* %254 to %"class.std::__1::__libcpp_compressed_pair_imp"*, !dbg !3441
  store %"class.std::__1::__libcpp_compressed_pair_imp"* %255, %"class.std::__1::__libcpp_compressed_pair_imp"** %2, align 8
  call void @llvm.dbg.declare(metadata !{%"class.std::__1::__libcpp_compressed_pair_imp"** %2}, metadata !2714), !dbg !3442
  %256 = load %"class.std::__1::__libcpp_compressed_pair_imp"** %2
  %257 = getelementptr inbounds %"class.std::__1::__libcpp_compressed_pair_imp"* %256, i32 0, i32 0, !dbg !3443
  %258 = getelementptr inbounds %"struct.std::__1::basic_string<char, std::__1::char_traits<char>, std::__1::allocator<char> >::__rep"* %257, i32 0, i32 0, !dbg !3439
  %259 = bitcast %union.anon* %258 to %"struct.std::__1::basic_string<char, std::__1::char_traits<char>, std::__1::allocator<char> >::__long"*, !dbg !3439
  %260 = getelementptr inbounds %"struct.std::__1::basic_string<char, std::__1::char_traits<char>, std::__1::allocator<char> >::__long"* %259, i32 0, i32 2, !dbg !3439
  %261 = load i8** %260, align 8, !dbg !3439
  br label %_ZNKSt3__112basic_stringIcNS_11char_traitsIcEENS_9allocatorIcEEE4dataEv.exit7, !dbg !3432

; <label>:262                                     ; preds = %_ZNKSt3__112basic_stringIcNS_11char_traitsIcEENS_9allocatorIcEEE4sizeEv.exit3
  store %"class.std::__1::basic_string"* %236, %"class.std::__1::basic_string"** %9, align 8
  call void @llvm.dbg.declare(metadata !{%"class.std::__1::basic_string"** %9}, metadata !2726), !dbg !3444
  %263 = load %"class.std::__1::basic_string"** %9
  %264 = getelementptr inbounds %"class.std::__1::basic_string"* %263, i32 0, i32 0, !dbg !3445
  store %"class.std::__1::__compressed_pair"* %264, %"class.std::__1::__compressed_pair"** %8, align 8
  call void @llvm.dbg.declare(metadata !{%"class.std::__1::__compressed_pair"** %8}, metadata !2709), !dbg !3446
  %265 = load %"class.std::__1::__compressed_pair"** %8
  %266 = bitcast %"class.std::__1::__compressed_pair"* %265 to %"class.std::__1::__libcpp_compressed_pair_imp"*, !dbg !3447
  store %"class.std::__1::__libcpp_compressed_pair_imp"* %266, %"class.std::__1::__libcpp_compressed_pair_imp"** %7, align 8
  call void @llvm.dbg.declare(metadata !{%"class.std::__1::__libcpp_compressed_pair_imp"** %7}, metadata !2714), !dbg !3448
  %267 = load %"class.std::__1::__libcpp_compressed_pair_imp"** %7
  %268 = getelementptr inbounds %"class.std::__1::__libcpp_compressed_pair_imp"* %267, i32 0, i32 0, !dbg !3449
  %269 = getelementptr inbounds %"struct.std::__1::basic_string<char, std::__1::char_traits<char>, std::__1::allocator<char> >::__rep"* %268, i32 0, i32 0, !dbg !3445
  %270 = bitcast %union.anon* %269 to %"struct.std::__1::basic_string<char, std::__1::char_traits<char>, std::__1::allocator<char> >::__short"*, !dbg !3445
  %271 = getelementptr inbounds %"struct.std::__1::basic_string<char, std::__1::char_traits<char>, std::__1::allocator<char> >::__short"* %270, i32 0, i32 1, !dbg !3445
  %272 = getelementptr inbounds [23 x i8]* %271, i32 0, i64 0, !dbg !3445
  store i8* %272, i8** %6, align 8
  call void @llvm.dbg.declare(metadata !{i8** %6}, metadata !2733), !dbg !3450
  %273 = load i8** %6, align 8, !dbg !3451
  store i8* %273, i8** %5, align 8
  call void @llvm.dbg.declare(metadata !{i8** %5}, metadata !2736), !dbg !3452
  %274 = load i8** %5, align 8, !dbg !3453
  br label %_ZNKSt3__112basic_stringIcNS_11char_traitsIcEENS_9allocatorIcEEE4dataEv.exit7, !dbg !3432

_ZNKSt3__112basic_stringIcNS_11char_traitsIcEENS_9allocatorIcEEE4dataEv.exit7: ; preds = %251, %262
  %275 = phi i8* [ %261, %251 ], [ %274, %262 ], !dbg !3432
  store i8* %275, i8** %1, align 8
  call void @llvm.dbg.declare(metadata !{i8** %1}, metadata !2741), !dbg !3454
  %276 = load i8** %1, align 8, !dbg !3456
  %277 = getelementptr inbounds %"class.std::__1::basic_stringbuf"* %135, i32 0, i32 1, !dbg !3457
  store %"class.std::__1::basic_string"* %277, %"class.std::__1::basic_string"** %28, align 8
  call void @llvm.dbg.declare(metadata !{%"class.std::__1::basic_string"** %28}, metadata !2698), !dbg !3458
  %278 = load %"class.std::__1::basic_string"** %28
  store %"class.std::__1::basic_string"* %278, %"class.std::__1::basic_string"** %27, align 8
  call void @llvm.dbg.declare(metadata !{%"class.std::__1::basic_string"** %27}, metadata !2702), !dbg !3459
  %279 = load %"class.std::__1::basic_string"** %27
  store %"class.std::__1::basic_string"* %279, %"class.std::__1::basic_string"** %26, align 8
  call void @llvm.dbg.declare(metadata !{%"class.std::__1::basic_string"** %26}, metadata !2705), !dbg !3461
  %280 = load %"class.std::__1::basic_string"** %26
  %281 = getelementptr inbounds %"class.std::__1::basic_string"* %280, i32 0, i32 0, !dbg !3463
  store %"class.std::__1::__compressed_pair"* %281, %"class.std::__1::__compressed_pair"** %25, align 8
  call void @llvm.dbg.declare(metadata !{%"class.std::__1::__compressed_pair"** %25}, metadata !2709), !dbg !3464
  %282 = load %"class.std::__1::__compressed_pair"** %25
  %283 = bitcast %"class.std::__1::__compressed_pair"* %282 to %"class.std::__1::__libcpp_compressed_pair_imp"*, !dbg !3465
  store %"class.std::__1::__libcpp_compressed_pair_imp"* %283, %"class.std::__1::__libcpp_compressed_pair_imp"** %24, align 8
  call void @llvm.dbg.declare(metadata !{%"class.std::__1::__libcpp_compressed_pair_imp"** %24}, metadata !2714), !dbg !3466
  %284 = load %"class.std::__1::__libcpp_compressed_pair_imp"** %24
  %285 = getelementptr inbounds %"class.std::__1::__libcpp_compressed_pair_imp"* %284, i32 0, i32 0, !dbg !3467
  %286 = getelementptr inbounds %"struct.std::__1::basic_string<char, std::__1::char_traits<char>, std::__1::allocator<char> >::__rep"* %285, i32 0, i32 0, !dbg !3463
  %287 = bitcast %union.anon* %286 to %"struct.std::__1::basic_string<char, std::__1::char_traits<char>, std::__1::allocator<char> >::__short"*, !dbg !3463
  %288 = getelementptr inbounds %"struct.std::__1::basic_string<char, std::__1::char_traits<char>, std::__1::allocator<char> >::__short"* %287, i32 0, i32 0, !dbg !3463
  %289 = bitcast %union.anon.0* %288 to i8*, !dbg !3463
  %290 = load i8* %289, align 1, !dbg !3463
  %291 = zext i8 %290 to i32, !dbg !3463
  %292 = and i32 %291, 1, !dbg !3463
  %293 = icmp ne i32 %292, 0, !dbg !3463
  br i1 %293, label %294, label %305, !dbg !3462

; <label>:294                                     ; preds = %_ZNKSt3__112basic_stringIcNS_11char_traitsIcEENS_9allocatorIcEEE4dataEv.exit7
  store %"class.std::__1::basic_string"* %279, %"class.std::__1::basic_string"** %18, align 8
  call void @llvm.dbg.declare(metadata !{%"class.std::__1::basic_string"** %18}, metadata !2718), !dbg !3468
  %295 = load %"class.std::__1::basic_string"** %18
  %296 = getelementptr inbounds %"class.std::__1::basic_string"* %295, i32 0, i32 0, !dbg !3469
  store %"class.std::__1::__compressed_pair"* %296, %"class.std::__1::__compressed_pair"** %17, align 8
  call void @llvm.dbg.declare(metadata !{%"class.std::__1::__compressed_pair"** %17}, metadata !2709), !dbg !3470
  %297 = load %"class.std::__1::__compressed_pair"** %17
  %298 = bitcast %"class.std::__1::__compressed_pair"* %297 to %"class.std::__1::__libcpp_compressed_pair_imp"*, !dbg !3471
  store %"class.std::__1::__libcpp_compressed_pair_imp"* %298, %"class.std::__1::__libcpp_compressed_pair_imp"** %16, align 8
  call void @llvm.dbg.declare(metadata !{%"class.std::__1::__libcpp_compressed_pair_imp"** %16}, metadata !2714), !dbg !3472
  %299 = load %"class.std::__1::__libcpp_compressed_pair_imp"** %16
  %300 = getelementptr inbounds %"class.std::__1::__libcpp_compressed_pair_imp"* %299, i32 0, i32 0, !dbg !3473
  %301 = getelementptr inbounds %"struct.std::__1::basic_string<char, std::__1::char_traits<char>, std::__1::allocator<char> >::__rep"* %300, i32 0, i32 0, !dbg !3469
  %302 = bitcast %union.anon* %301 to %"struct.std::__1::basic_string<char, std::__1::char_traits<char>, std::__1::allocator<char> >::__long"*, !dbg !3469
  %303 = getelementptr inbounds %"struct.std::__1::basic_string<char, std::__1::char_traits<char>, std::__1::allocator<char> >::__long"* %302, i32 0, i32 2, !dbg !3469
  %304 = load i8** %303, align 8, !dbg !3469
  br label %_ZNKSt3__112basic_stringIcNS_11char_traitsIcEENS_9allocatorIcEEE4dataEv.exit6, !dbg !3462

; <label>:305                                     ; preds = %_ZNKSt3__112basic_stringIcNS_11char_traitsIcEENS_9allocatorIcEEE4dataEv.exit7
  store %"class.std::__1::basic_string"* %279, %"class.std::__1::basic_string"** %23, align 8
  call void @llvm.dbg.declare(metadata !{%"class.std::__1::basic_string"** %23}, metadata !2726), !dbg !3474
  %306 = load %"class.std::__1::basic_string"** %23
  %307 = getelementptr inbounds %"class.std::__1::basic_string"* %306, i32 0, i32 0, !dbg !3475
  store %"class.std::__1::__compressed_pair"* %307, %"class.std::__1::__compressed_pair"** %22, align 8
  call void @llvm.dbg.declare(metadata !{%"class.std::__1::__compressed_pair"** %22}, metadata !2709), !dbg !3476
  %308 = load %"class.std::__1::__compressed_pair"** %22
  %309 = bitcast %"class.std::__1::__compressed_pair"* %308 to %"class.std::__1::__libcpp_compressed_pair_imp"*, !dbg !3477
  store %"class.std::__1::__libcpp_compressed_pair_imp"* %309, %"class.std::__1::__libcpp_compressed_pair_imp"** %21, align 8
  call void @llvm.dbg.declare(metadata !{%"class.std::__1::__libcpp_compressed_pair_imp"** %21}, metadata !2714), !dbg !3478
  %310 = load %"class.std::__1::__libcpp_compressed_pair_imp"** %21
  %311 = getelementptr inbounds %"class.std::__1::__libcpp_compressed_pair_imp"* %310, i32 0, i32 0, !dbg !3479
  %312 = getelementptr inbounds %"struct.std::__1::basic_string<char, std::__1::char_traits<char>, std::__1::allocator<char> >::__rep"* %311, i32 0, i32 0, !dbg !3475
  %313 = bitcast %union.anon* %312 to %"struct.std::__1::basic_string<char, std::__1::char_traits<char>, std::__1::allocator<char> >::__short"*, !dbg !3475
  %314 = getelementptr inbounds %"struct.std::__1::basic_string<char, std::__1::char_traits<char>, std::__1::allocator<char> >::__short"* %313, i32 0, i32 1, !dbg !3475
  %315 = getelementptr inbounds [23 x i8]* %314, i32 0, i64 0, !dbg !3475
  store i8* %315, i8** %20, align 8
  call void @llvm.dbg.declare(metadata !{i8** %20}, metadata !2733), !dbg !3480
  %316 = load i8** %20, align 8, !dbg !3481
  store i8* %316, i8** %19, align 8
  call void @llvm.dbg.declare(metadata !{i8** %19}, metadata !2736), !dbg !3482
  %317 = load i8** %19, align 8, !dbg !3483
  br label %_ZNKSt3__112basic_stringIcNS_11char_traitsIcEENS_9allocatorIcEEE4dataEv.exit6, !dbg !3462

_ZNKSt3__112basic_stringIcNS_11char_traitsIcEENS_9allocatorIcEEE4dataEv.exit6: ; preds = %294, %305
  %318 = phi i8* [ %304, %294 ], [ %317, %305 ], !dbg !3462
  store i8* %318, i8** %15, align 8
  call void @llvm.dbg.declare(metadata !{i8** %15}, metadata !2741), !dbg !3484
  %319 = load i8** %15, align 8, !dbg !3486
  %320 = getelementptr inbounds %"class.std::__1::basic_stringbuf"* %135, i32 0, i32 2, !dbg !3427
  %321 = load i8** %320, align 8, !dbg !3427
  store %"class.std::__1::basic_streambuf"* %233, %"class.std::__1::basic_streambuf"** %29, align 8
  call void @llvm.dbg.declare(metadata !{%"class.std::__1::basic_streambuf"** %29}, metadata !3487), !dbg !3488
  store i8* %276, i8** %30, align 8
  call void @llvm.dbg.declare(metadata !{i8** %30}, metadata !3489), !dbg !3490
  store i8* %319, i8** %31, align 8
  call void @llvm.dbg.declare(metadata !{i8** %31}, metadata !3491), !dbg !3490
  store i8* %321, i8** %32, align 8
  call void @llvm.dbg.declare(metadata !{i8** %32}, metadata !3492), !dbg !3490
  %322 = load %"class.std::__1::basic_streambuf"** %29
  %323 = load i8** %30, align 8, !dbg !3493
  %324 = getelementptr inbounds %"class.std::__1::basic_streambuf"* %322, i32 0, i32 2, !dbg !3493
  store i8* %323, i8** %324, align 8, !dbg !3493
  %325 = load i8** %31, align 8, !dbg !3495
  %326 = getelementptr inbounds %"class.std::__1::basic_streambuf"* %322, i32 0, i32 3, !dbg !3495
  store i8* %325, i8** %326, align 8, !dbg !3495
  %327 = load i8** %32, align 8, !dbg !3496
  %328 = getelementptr inbounds %"class.std::__1::basic_streambuf"* %322, i32 0, i32 4, !dbg !3496
  store i8* %327, i8** %328, align 8, !dbg !3496
  br label %329, !dbg !3497

; <label>:329                                     ; preds = %_ZNKSt3__112basic_stringIcNS_11char_traitsIcEENS_9allocatorIcEEE4dataEv.exit6, %0
  %330 = getelementptr inbounds %"class.std::__1::basic_stringbuf"* %135, i32 0, i32 3, !dbg !3498
  %331 = load i32* %330, align 4, !dbg !3498
  %332 = and i32 %331, 16, !dbg !3498
  %333 = icmp ne i32 %332, 0, !dbg !3498
  br i1 %333, label %334, label %610, !dbg !3498

; <label>:334                                     ; preds = %329
  call void @llvm.dbg.declare(metadata !{i64* %__sz}, metadata !3500), !dbg !3502
  %335 = getelementptr inbounds %"class.std::__1::basic_stringbuf"* %135, i32 0, i32 1, !dbg !3502
  store %"class.std::__1::basic_string"* %335, %"class.std::__1::basic_string"** %42, align 8
  call void @llvm.dbg.declare(metadata !{%"class.std::__1::basic_string"** %42}, metadata !3403), !dbg !3503
  %336 = load %"class.std::__1::basic_string"** %42
  store %"class.std::__1::basic_string"* %336, %"class.std::__1::basic_string"** %41, align 8
  call void @llvm.dbg.declare(metadata !{%"class.std::__1::basic_string"** %41}, metadata !2705), !dbg !3504
  %337 = load %"class.std::__1::basic_string"** %41
  %338 = getelementptr inbounds %"class.std::__1::basic_string"* %337, i32 0, i32 0, !dbg !3506
  store %"class.std::__1::__compressed_pair"* %338, %"class.std::__1::__compressed_pair"** %40, align 8
  call void @llvm.dbg.declare(metadata !{%"class.std::__1::__compressed_pair"** %40}, metadata !2709), !dbg !3507
  %339 = load %"class.std::__1::__compressed_pair"** %40
  %340 = bitcast %"class.std::__1::__compressed_pair"* %339 to %"class.std::__1::__libcpp_compressed_pair_imp"*, !dbg !3508
  store %"class.std::__1::__libcpp_compressed_pair_imp"* %340, %"class.std::__1::__libcpp_compressed_pair_imp"** %39, align 8
  call void @llvm.dbg.declare(metadata !{%"class.std::__1::__libcpp_compressed_pair_imp"** %39}, metadata !2714), !dbg !3509
  %341 = load %"class.std::__1::__libcpp_compressed_pair_imp"** %39
  %342 = getelementptr inbounds %"class.std::__1::__libcpp_compressed_pair_imp"* %341, i32 0, i32 0, !dbg !3510
  %343 = getelementptr inbounds %"struct.std::__1::basic_string<char, std::__1::char_traits<char>, std::__1::allocator<char> >::__rep"* %342, i32 0, i32 0, !dbg !3506
  %344 = bitcast %union.anon* %343 to %"struct.std::__1::basic_string<char, std::__1::char_traits<char>, std::__1::allocator<char> >::__short"*, !dbg !3506
  %345 = getelementptr inbounds %"struct.std::__1::basic_string<char, std::__1::char_traits<char>, std::__1::allocator<char> >::__short"* %344, i32 0, i32 0, !dbg !3506
  %346 = bitcast %union.anon.0* %345 to i8*, !dbg !3506
  %347 = load i8* %346, align 1, !dbg !3506
  %348 = zext i8 %347 to i32, !dbg !3506
  %349 = and i32 %348, 1, !dbg !3506
  %350 = icmp ne i32 %349, 0, !dbg !3506
  br i1 %350, label %351, label %362, !dbg !3505

; <label>:351                                     ; preds = %334
  store %"class.std::__1::basic_string"* %336, %"class.std::__1::basic_string"** %35, align 8
  call void @llvm.dbg.declare(metadata !{%"class.std::__1::basic_string"** %35}, metadata !3413), !dbg !3511
  %352 = load %"class.std::__1::basic_string"** %35
  %353 = getelementptr inbounds %"class.std::__1::basic_string"* %352, i32 0, i32 0, !dbg !3512
  store %"class.std::__1::__compressed_pair"* %353, %"class.std::__1::__compressed_pair"** %34, align 8
  call void @llvm.dbg.declare(metadata !{%"class.std::__1::__compressed_pair"** %34}, metadata !2709), !dbg !3513
  %354 = load %"class.std::__1::__compressed_pair"** %34
  %355 = bitcast %"class.std::__1::__compressed_pair"* %354 to %"class.std::__1::__libcpp_compressed_pair_imp"*, !dbg !3514
  store %"class.std::__1::__libcpp_compressed_pair_imp"* %355, %"class.std::__1::__libcpp_compressed_pair_imp"** %33, align 8
  call void @llvm.dbg.declare(metadata !{%"class.std::__1::__libcpp_compressed_pair_imp"** %33}, metadata !2714), !dbg !3515
  %356 = load %"class.std::__1::__libcpp_compressed_pair_imp"** %33
  %357 = getelementptr inbounds %"class.std::__1::__libcpp_compressed_pair_imp"* %356, i32 0, i32 0, !dbg !3516
  %358 = getelementptr inbounds %"struct.std::__1::basic_string<char, std::__1::char_traits<char>, std::__1::allocator<char> >::__rep"* %357, i32 0, i32 0, !dbg !3512
  %359 = bitcast %union.anon* %358 to %"struct.std::__1::basic_string<char, std::__1::char_traits<char>, std::__1::allocator<char> >::__long"*, !dbg !3512
  %360 = getelementptr inbounds %"struct.std::__1::basic_string<char, std::__1::char_traits<char>, std::__1::allocator<char> >::__long"* %359, i32 0, i32 1, !dbg !3512
  %361 = load i64* %360, align 8, !dbg !3512
  br label %_ZNKSt3__112basic_stringIcNS_11char_traitsIcEENS_9allocatorIcEEE4sizeEv.exit5, !dbg !3505

; <label>:362                                     ; preds = %334
  store %"class.std::__1::basic_string"* %336, %"class.std::__1::basic_string"** %38, align 8
  call void @llvm.dbg.declare(metadata !{%"class.std::__1::basic_string"** %38}, metadata !3420), !dbg !3517
  %363 = load %"class.std::__1::basic_string"** %38
  %364 = getelementptr inbounds %"class.std::__1::basic_string"* %363, i32 0, i32 0, !dbg !3518
  store %"class.std::__1::__compressed_pair"* %364, %"class.std::__1::__compressed_pair"** %37, align 8
  call void @llvm.dbg.declare(metadata !{%"class.std::__1::__compressed_pair"** %37}, metadata !2709), !dbg !3519
  %365 = load %"class.std::__1::__compressed_pair"** %37
  %366 = bitcast %"class.std::__1::__compressed_pair"* %365 to %"class.std::__1::__libcpp_compressed_pair_imp"*, !dbg !3520
  store %"class.std::__1::__libcpp_compressed_pair_imp"* %366, %"class.std::__1::__libcpp_compressed_pair_imp"** %36, align 8
  call void @llvm.dbg.declare(metadata !{%"class.std::__1::__libcpp_compressed_pair_imp"** %36}, metadata !2714), !dbg !3521
  %367 = load %"class.std::__1::__libcpp_compressed_pair_imp"** %36
  %368 = getelementptr inbounds %"class.std::__1::__libcpp_compressed_pair_imp"* %367, i32 0, i32 0, !dbg !3522
  %369 = getelementptr inbounds %"struct.std::__1::basic_string<char, std::__1::char_traits<char>, std::__1::allocator<char> >::__rep"* %368, i32 0, i32 0, !dbg !3518
  %370 = bitcast %union.anon* %369 to %"struct.std::__1::basic_string<char, std::__1::char_traits<char>, std::__1::allocator<char> >::__short"*, !dbg !3518
  %371 = getelementptr inbounds %"struct.std::__1::basic_string<char, std::__1::char_traits<char>, std::__1::allocator<char> >::__short"* %370, i32 0, i32 0, !dbg !3518
  %372 = bitcast %union.anon.0* %371 to i8*, !dbg !3518
  %373 = load i8* %372, align 1, !dbg !3518
  %374 = zext i8 %373 to i32, !dbg !3518
  %375 = ashr i32 %374, 1, !dbg !3518
  %376 = sext i32 %375 to i64, !dbg !3518
  br label %_ZNKSt3__112basic_stringIcNS_11char_traitsIcEENS_9allocatorIcEEE4sizeEv.exit5, !dbg !3505

_ZNKSt3__112basic_stringIcNS_11char_traitsIcEENS_9allocatorIcEEE4sizeEv.exit5: ; preds = %351, %362
  %377 = phi i64 [ %361, %351 ], [ %376, %362 ], !dbg !3505
  store i64 %377, i64* %__sz, align 8, !dbg !3502
  %378 = getelementptr inbounds %"class.std::__1::basic_stringbuf"* %135, i32 0, i32 1, !dbg !3523
  store %"class.std::__1::basic_string"* %378, %"class.std::__1::basic_string"** %56, align 8
  call void @llvm.dbg.declare(metadata !{%"class.std::__1::basic_string"** %56}, metadata !2698), !dbg !3524
  %379 = load %"class.std::__1::basic_string"** %56
  store %"class.std::__1::basic_string"* %379, %"class.std::__1::basic_string"** %55, align 8
  call void @llvm.dbg.declare(metadata !{%"class.std::__1::basic_string"** %55}, metadata !2702), !dbg !3525
  %380 = load %"class.std::__1::basic_string"** %55
  store %"class.std::__1::basic_string"* %380, %"class.std::__1::basic_string"** %54, align 8
  call void @llvm.dbg.declare(metadata !{%"class.std::__1::basic_string"** %54}, metadata !2705), !dbg !3527
  %381 = load %"class.std::__1::basic_string"** %54
  %382 = getelementptr inbounds %"class.std::__1::basic_string"* %381, i32 0, i32 0, !dbg !3529
  store %"class.std::__1::__compressed_pair"* %382, %"class.std::__1::__compressed_pair"** %53, align 8
  call void @llvm.dbg.declare(metadata !{%"class.std::__1::__compressed_pair"** %53}, metadata !2709), !dbg !3530
  %383 = load %"class.std::__1::__compressed_pair"** %53
  %384 = bitcast %"class.std::__1::__compressed_pair"* %383 to %"class.std::__1::__libcpp_compressed_pair_imp"*, !dbg !3531
  store %"class.std::__1::__libcpp_compressed_pair_imp"* %384, %"class.std::__1::__libcpp_compressed_pair_imp"** %52, align 8
  call void @llvm.dbg.declare(metadata !{%"class.std::__1::__libcpp_compressed_pair_imp"** %52}, metadata !2714), !dbg !3532
  %385 = load %"class.std::__1::__libcpp_compressed_pair_imp"** %52
  %386 = getelementptr inbounds %"class.std::__1::__libcpp_compressed_pair_imp"* %385, i32 0, i32 0, !dbg !3533
  %387 = getelementptr inbounds %"struct.std::__1::basic_string<char, std::__1::char_traits<char>, std::__1::allocator<char> >::__rep"* %386, i32 0, i32 0, !dbg !3529
  %388 = bitcast %union.anon* %387 to %"struct.std::__1::basic_string<char, std::__1::char_traits<char>, std::__1::allocator<char> >::__short"*, !dbg !3529
  %389 = getelementptr inbounds %"struct.std::__1::basic_string<char, std::__1::char_traits<char>, std::__1::allocator<char> >::__short"* %388, i32 0, i32 0, !dbg !3529
  %390 = bitcast %union.anon.0* %389 to i8*, !dbg !3529
  %391 = load i8* %390, align 1, !dbg !3529
  %392 = zext i8 %391 to i32, !dbg !3529
  %393 = and i32 %392, 1, !dbg !3529
  %394 = icmp ne i32 %393, 0, !dbg !3529
  br i1 %394, label %395, label %406, !dbg !3528

; <label>:395                                     ; preds = %_ZNKSt3__112basic_stringIcNS_11char_traitsIcEENS_9allocatorIcEEE4sizeEv.exit5
  store %"class.std::__1::basic_string"* %380, %"class.std::__1::basic_string"** %46, align 8
  call void @llvm.dbg.declare(metadata !{%"class.std::__1::basic_string"** %46}, metadata !2718), !dbg !3534
  %396 = load %"class.std::__1::basic_string"** %46
  %397 = getelementptr inbounds %"class.std::__1::basic_string"* %396, i32 0, i32 0, !dbg !3535
  store %"class.std::__1::__compressed_pair"* %397, %"class.std::__1::__compressed_pair"** %45, align 8
  call void @llvm.dbg.declare(metadata !{%"class.std::__1::__compressed_pair"** %45}, metadata !2709), !dbg !3536
  %398 = load %"class.std::__1::__compressed_pair"** %45
  %399 = bitcast %"class.std::__1::__compressed_pair"* %398 to %"class.std::__1::__libcpp_compressed_pair_imp"*, !dbg !3537
  store %"class.std::__1::__libcpp_compressed_pair_imp"* %399, %"class.std::__1::__libcpp_compressed_pair_imp"** %44, align 8
  call void @llvm.dbg.declare(metadata !{%"class.std::__1::__libcpp_compressed_pair_imp"** %44}, metadata !2714), !dbg !3538
  %400 = load %"class.std::__1::__libcpp_compressed_pair_imp"** %44
  %401 = getelementptr inbounds %"class.std::__1::__libcpp_compressed_pair_imp"* %400, i32 0, i32 0, !dbg !3539
  %402 = getelementptr inbounds %"struct.std::__1::basic_string<char, std::__1::char_traits<char>, std::__1::allocator<char> >::__rep"* %401, i32 0, i32 0, !dbg !3535
  %403 = bitcast %union.anon* %402 to %"struct.std::__1::basic_string<char, std::__1::char_traits<char>, std::__1::allocator<char> >::__long"*, !dbg !3535
  %404 = getelementptr inbounds %"struct.std::__1::basic_string<char, std::__1::char_traits<char>, std::__1::allocator<char> >::__long"* %403, i32 0, i32 2, !dbg !3535
  %405 = load i8** %404, align 8, !dbg !3535
  br label %_ZNKSt3__112basic_stringIcNS_11char_traitsIcEENS_9allocatorIcEEE4dataEv.exit4, !dbg !3528

; <label>:406                                     ; preds = %_ZNKSt3__112basic_stringIcNS_11char_traitsIcEENS_9allocatorIcEEE4sizeEv.exit5
  store %"class.std::__1::basic_string"* %380, %"class.std::__1::basic_string"** %51, align 8
  call void @llvm.dbg.declare(metadata !{%"class.std::__1::basic_string"** %51}, metadata !2726), !dbg !3540
  %407 = load %"class.std::__1::basic_string"** %51
  %408 = getelementptr inbounds %"class.std::__1::basic_string"* %407, i32 0, i32 0, !dbg !3541
  store %"class.std::__1::__compressed_pair"* %408, %"class.std::__1::__compressed_pair"** %50, align 8
  call void @llvm.dbg.declare(metadata !{%"class.std::__1::__compressed_pair"** %50}, metadata !2709), !dbg !3542
  %409 = load %"class.std::__1::__compressed_pair"** %50
  %410 = bitcast %"class.std::__1::__compressed_pair"* %409 to %"class.std::__1::__libcpp_compressed_pair_imp"*, !dbg !3543
  store %"class.std::__1::__libcpp_compressed_pair_imp"* %410, %"class.std::__1::__libcpp_compressed_pair_imp"** %49, align 8
  call void @llvm.dbg.declare(metadata !{%"class.std::__1::__libcpp_compressed_pair_imp"** %49}, metadata !2714), !dbg !3544
  %411 = load %"class.std::__1::__libcpp_compressed_pair_imp"** %49
  %412 = getelementptr inbounds %"class.std::__1::__libcpp_compressed_pair_imp"* %411, i32 0, i32 0, !dbg !3545
  %413 = getelementptr inbounds %"struct.std::__1::basic_string<char, std::__1::char_traits<char>, std::__1::allocator<char> >::__rep"* %412, i32 0, i32 0, !dbg !3541
  %414 = bitcast %union.anon* %413 to %"struct.std::__1::basic_string<char, std::__1::char_traits<char>, std::__1::allocator<char> >::__short"*, !dbg !3541
  %415 = getelementptr inbounds %"struct.std::__1::basic_string<char, std::__1::char_traits<char>, std::__1::allocator<char> >::__short"* %414, i32 0, i32 1, !dbg !3541
  %416 = getelementptr inbounds [23 x i8]* %415, i32 0, i64 0, !dbg !3541
  store i8* %416, i8** %48, align 8
  call void @llvm.dbg.declare(metadata !{i8** %48}, metadata !2733), !dbg !3546
  %417 = load i8** %48, align 8, !dbg !3547
  store i8* %417, i8** %47, align 8
  call void @llvm.dbg.declare(metadata !{i8** %47}, metadata !2736), !dbg !3548
  %418 = load i8** %47, align 8, !dbg !3549
  br label %_ZNKSt3__112basic_stringIcNS_11char_traitsIcEENS_9allocatorIcEEE4dataEv.exit4, !dbg !3528

_ZNKSt3__112basic_stringIcNS_11char_traitsIcEENS_9allocatorIcEEE4dataEv.exit4: ; preds = %395, %406
  %419 = phi i8* [ %405, %395 ], [ %418, %406 ], !dbg !3528
  store i8* %419, i8** %43, align 8
  call void @llvm.dbg.declare(metadata !{i8** %43}, metadata !2741), !dbg !3550
  %420 = load i8** %43, align 8, !dbg !3552
  %421 = load i64* %__sz, align 8, !dbg !3523
  %422 = getelementptr inbounds i8* %420, i64 %421, !dbg !3523
  %423 = getelementptr inbounds %"class.std::__1::basic_stringbuf"* %135, i32 0, i32 2, !dbg !3523
  store i8* %422, i8** %423, align 8, !dbg !3523
  %424 = getelementptr inbounds %"class.std::__1::basic_stringbuf"* %135, i32 0, i32 1, !dbg !3553
  %425 = getelementptr inbounds %"class.std::__1::basic_stringbuf"* %135, i32 0, i32 1, !dbg !3553
  store %"class.std::__1::basic_string"* %425, %"class.std::__1::basic_string"** %63, align 8
  call void @llvm.dbg.declare(metadata !{%"class.std::__1::basic_string"** %63}, metadata !3554), !dbg !3555
  %426 = load %"class.std::__1::basic_string"** %63
  store %"class.std::__1::basic_string"* %426, %"class.std::__1::basic_string"** %62, align 8
  call void @llvm.dbg.declare(metadata !{%"class.std::__1::basic_string"** %62}, metadata !2705), !dbg !3556
  %427 = load %"class.std::__1::basic_string"** %62
  %428 = getelementptr inbounds %"class.std::__1::basic_string"* %427, i32 0, i32 0, !dbg !3559
  store %"class.std::__1::__compressed_pair"* %428, %"class.std::__1::__compressed_pair"** %61, align 8
  call void @llvm.dbg.declare(metadata !{%"class.std::__1::__compressed_pair"** %61}, metadata !2709), !dbg !3560
  %429 = load %"class.std::__1::__compressed_pair"** %61
  %430 = bitcast %"class.std::__1::__compressed_pair"* %429 to %"class.std::__1::__libcpp_compressed_pair_imp"*, !dbg !3561
  store %"class.std::__1::__libcpp_compressed_pair_imp"* %430, %"class.std::__1::__libcpp_compressed_pair_imp"** %60, align 8
  call void @llvm.dbg.declare(metadata !{%"class.std::__1::__libcpp_compressed_pair_imp"** %60}, metadata !2714), !dbg !3562
  %431 = load %"class.std::__1::__libcpp_compressed_pair_imp"** %60
  %432 = getelementptr inbounds %"class.std::__1::__libcpp_compressed_pair_imp"* %431, i32 0, i32 0, !dbg !3563
  %433 = getelementptr inbounds %"struct.std::__1::basic_string<char, std::__1::char_traits<char>, std::__1::allocator<char> >::__rep"* %432, i32 0, i32 0, !dbg !3559
  %434 = bitcast %union.anon* %433 to %"struct.std::__1::basic_string<char, std::__1::char_traits<char>, std::__1::allocator<char> >::__short"*, !dbg !3559
  %435 = getelementptr inbounds %"struct.std::__1::basic_string<char, std::__1::char_traits<char>, std::__1::allocator<char> >::__short"* %434, i32 0, i32 0, !dbg !3559
  %436 = bitcast %union.anon.0* %435 to i8*, !dbg !3559
  %437 = load i8* %436, align 1, !dbg !3559
  %438 = zext i8 %437 to i32, !dbg !3559
  %439 = and i32 %438, 1, !dbg !3559
  %440 = icmp ne i32 %439, 0, !dbg !3559
  br i1 %440, label %441, label %453, !dbg !3557

; <label>:441                                     ; preds = %_ZNKSt3__112basic_stringIcNS_11char_traitsIcEENS_9allocatorIcEEE4dataEv.exit4
  store %"class.std::__1::basic_string"* %426, %"class.std::__1::basic_string"** %59, align 8
  call void @llvm.dbg.declare(metadata !{%"class.std::__1::basic_string"** %59}, metadata !3564), !dbg !3565
  %442 = load %"class.std::__1::basic_string"** %59
  %443 = getelementptr inbounds %"class.std::__1::basic_string"* %442, i32 0, i32 0, !dbg !3566
  store %"class.std::__1::__compressed_pair"* %443, %"class.std::__1::__compressed_pair"** %58, align 8
  call void @llvm.dbg.declare(metadata !{%"class.std::__1::__compressed_pair"** %58}, metadata !2709), !dbg !3567
  %444 = load %"class.std::__1::__compressed_pair"** %58
  %445 = bitcast %"class.std::__1::__compressed_pair"* %444 to %"class.std::__1::__libcpp_compressed_pair_imp"*, !dbg !3568
  store %"class.std::__1::__libcpp_compressed_pair_imp"* %445, %"class.std::__1::__libcpp_compressed_pair_imp"** %57, align 8
  call void @llvm.dbg.declare(metadata !{%"class.std::__1::__libcpp_compressed_pair_imp"** %57}, metadata !2714), !dbg !3569
  %446 = load %"class.std::__1::__libcpp_compressed_pair_imp"** %57
  %447 = getelementptr inbounds %"class.std::__1::__libcpp_compressed_pair_imp"* %446, i32 0, i32 0, !dbg !3570
  %448 = getelementptr inbounds %"struct.std::__1::basic_string<char, std::__1::char_traits<char>, std::__1::allocator<char> >::__rep"* %447, i32 0, i32 0, !dbg !3566
  %449 = bitcast %union.anon* %448 to %"struct.std::__1::basic_string<char, std::__1::char_traits<char>, std::__1::allocator<char> >::__long"*, !dbg !3566
  %450 = getelementptr inbounds %"struct.std::__1::basic_string<char, std::__1::char_traits<char>, std::__1::allocator<char> >::__long"* %449, i32 0, i32 0, !dbg !3566
  %451 = load i64* %450, align 8, !dbg !3566
  %452 = and i64 %451, -2, !dbg !3566
  br label %_ZNKSt3__112basic_stringIcNS_11char_traitsIcEENS_9allocatorIcEEE8capacityEv.exit, !dbg !3557

; <label>:453                                     ; preds = %_ZNKSt3__112basic_stringIcNS_11char_traitsIcEENS_9allocatorIcEEE4dataEv.exit4
  br label %_ZNKSt3__112basic_stringIcNS_11char_traitsIcEENS_9allocatorIcEEE8capacityEv.exit, !dbg !3557

_ZNKSt3__112basic_stringIcNS_11char_traitsIcEENS_9allocatorIcEEE8capacityEv.exit: ; preds = %441, %453
  %454 = phi i64 [ %452, %441 ], [ 23, %453 ], !dbg !3557
  %455 = sub i64 %454, 1, !dbg !3557
  store %"class.std::__1::basic_string"* %424, %"class.std::__1::basic_string"** %74, align 8
  call void @llvm.dbg.declare(metadata !{%"class.std::__1::basic_string"** %74}, metadata !3571), !dbg !3572
  store i64 %455, i64* %75, align 8
  call void @llvm.dbg.declare(metadata !{i64* %75}, metadata !3573), !dbg !3574
  %456 = load %"class.std::__1::basic_string"** %74
  %457 = load i64* %75, align 8, !dbg !3574
  call void @_ZNSt3__112basic_stringIcNS_11char_traitsIcEENS_9allocatorIcEEE6resizeEmc(%"class.std::__1::basic_string"* %456, i64 %457, i8 signext 0), !dbg !3574
  %458 = bitcast %"class.std::__1::basic_stringbuf"* %135 to %"class.std::__1::basic_streambuf"*, !dbg !3575
  %459 = getelementptr inbounds %"class.std::__1::basic_stringbuf"* %135, i32 0, i32 1, !dbg !3575
  store %"class.std::__1::basic_string"* %459, %"class.std::__1::basic_string"** %89, align 8
  call void @llvm.dbg.declare(metadata !{%"class.std::__1::basic_string"** %89}, metadata !2698), !dbg !3576
  %460 = load %"class.std::__1::basic_string"** %89
  store %"class.std::__1::basic_string"* %460, %"class.std::__1::basic_string"** %88, align 8
  call void @llvm.dbg.declare(metadata !{%"class.std::__1::basic_string"** %88}, metadata !2702), !dbg !3577
  %461 = load %"class.std::__1::basic_string"** %88
  store %"class.std::__1::basic_string"* %461, %"class.std::__1::basic_string"** %87, align 8
  call void @llvm.dbg.declare(metadata !{%"class.std::__1::basic_string"** %87}, metadata !2705), !dbg !3579
  %462 = load %"class.std::__1::basic_string"** %87
  %463 = getelementptr inbounds %"class.std::__1::basic_string"* %462, i32 0, i32 0, !dbg !3581
  store %"class.std::__1::__compressed_pair"* %463, %"class.std::__1::__compressed_pair"** %86, align 8
  call void @llvm.dbg.declare(metadata !{%"class.std::__1::__compressed_pair"** %86}, metadata !2709), !dbg !3582
  %464 = load %"class.std::__1::__compressed_pair"** %86
  %465 = bitcast %"class.std::__1::__compressed_pair"* %464 to %"class.std::__1::__libcpp_compressed_pair_imp"*, !dbg !3583
  store %"class.std::__1::__libcpp_compressed_pair_imp"* %465, %"class.std::__1::__libcpp_compressed_pair_imp"** %85, align 8
  call void @llvm.dbg.declare(metadata !{%"class.std::__1::__libcpp_compressed_pair_imp"** %85}, metadata !2714), !dbg !3584
  %466 = load %"class.std::__1::__libcpp_compressed_pair_imp"** %85
  %467 = getelementptr inbounds %"class.std::__1::__libcpp_compressed_pair_imp"* %466, i32 0, i32 0, !dbg !3585
  %468 = getelementptr inbounds %"struct.std::__1::basic_string<char, std::__1::char_traits<char>, std::__1::allocator<char> >::__rep"* %467, i32 0, i32 0, !dbg !3581
  %469 = bitcast %union.anon* %468 to %"struct.std::__1::basic_string<char, std::__1::char_traits<char>, std::__1::allocator<char> >::__short"*, !dbg !3581
  %470 = getelementptr inbounds %"struct.std::__1::basic_string<char, std::__1::char_traits<char>, std::__1::allocator<char> >::__short"* %469, i32 0, i32 0, !dbg !3581
  %471 = bitcast %union.anon.0* %470 to i8*, !dbg !3581
  %472 = load i8* %471, align 1, !dbg !3581
  %473 = zext i8 %472 to i32, !dbg !3581
  %474 = and i32 %473, 1, !dbg !3581
  %475 = icmp ne i32 %474, 0, !dbg !3581
  br i1 %475, label %476, label %487, !dbg !3580

; <label>:476                                     ; preds = %_ZNKSt3__112basic_stringIcNS_11char_traitsIcEENS_9allocatorIcEEE8capacityEv.exit
  store %"class.std::__1::basic_string"* %461, %"class.std::__1::basic_string"** %79, align 8
  call void @llvm.dbg.declare(metadata !{%"class.std::__1::basic_string"** %79}, metadata !2718), !dbg !3586
  %477 = load %"class.std::__1::basic_string"** %79
  %478 = getelementptr inbounds %"class.std::__1::basic_string"* %477, i32 0, i32 0, !dbg !3587
  store %"class.std::__1::__compressed_pair"* %478, %"class.std::__1::__compressed_pair"** %78, align 8
  call void @llvm.dbg.declare(metadata !{%"class.std::__1::__compressed_pair"** %78}, metadata !2709), !dbg !3588
  %479 = load %"class.std::__1::__compressed_pair"** %78
  %480 = bitcast %"class.std::__1::__compressed_pair"* %479 to %"class.std::__1::__libcpp_compressed_pair_imp"*, !dbg !3589
  store %"class.std::__1::__libcpp_compressed_pair_imp"* %480, %"class.std::__1::__libcpp_compressed_pair_imp"** %77, align 8
  call void @llvm.dbg.declare(metadata !{%"class.std::__1::__libcpp_compressed_pair_imp"** %77}, metadata !2714), !dbg !3590
  %481 = load %"class.std::__1::__libcpp_compressed_pair_imp"** %77
  %482 = getelementptr inbounds %"class.std::__1::__libcpp_compressed_pair_imp"* %481, i32 0, i32 0, !dbg !3591
  %483 = getelementptr inbounds %"struct.std::__1::basic_string<char, std::__1::char_traits<char>, std::__1::allocator<char> >::__rep"* %482, i32 0, i32 0, !dbg !3587
  %484 = bitcast %union.anon* %483 to %"struct.std::__1::basic_string<char, std::__1::char_traits<char>, std::__1::allocator<char> >::__long"*, !dbg !3587
  %485 = getelementptr inbounds %"struct.std::__1::basic_string<char, std::__1::char_traits<char>, std::__1::allocator<char> >::__long"* %484, i32 0, i32 2, !dbg !3587
  %486 = load i8** %485, align 8, !dbg !3587
  br label %_ZNKSt3__112basic_stringIcNS_11char_traitsIcEENS_9allocatorIcEEE4dataEv.exit2, !dbg !3580

; <label>:487                                     ; preds = %_ZNKSt3__112basic_stringIcNS_11char_traitsIcEENS_9allocatorIcEEE8capacityEv.exit
  store %"class.std::__1::basic_string"* %461, %"class.std::__1::basic_string"** %84, align 8
