; ModuleID = 'what.bc'
target datalayout = "e-m:e-i64:64-f80:128-n8:16:32:64-S128"
target triple = "x86_64-unknown-linux-gnu"

%"class.std::ios_base::Init" = type { i8 }
%"struct.boost::detail::function::basic_vtable1.40" = type { %"struct.boost::detail::function::vtable_base", void (%"union.boost::detail::function::function_buffer"*, %"class.boost::shared_ptr.26"*)* }
%"struct.boost::detail::function::vtable_base" = type { void (%"union.boost::detail::function::function_buffer"*, %"union.boost::detail::function::function_buffer"*, i32)* }
%"union.boost::detail::function::function_buffer" = type { %"struct.boost::detail::function::function_buffer::bound_memfunc_ptr_t" }
%"struct.boost::detail::function::function_buffer::bound_memfunc_ptr_t" = type { { i64, i64 }, i8* }
%"class.boost::shared_ptr.26" = type { %"struct.std_msgs::Int16_"*, %"class.boost::detail::shared_count" }
%"struct.std_msgs::Int16_" = type { i16, %"class.boost::shared_ptr.27" }
%"class.boost::shared_ptr.27" = type { %"class.std::map"*, %"class.boost::detail::shared_count" }
%"class.std::map" = type { %"class.std::_Rb_tree" }
%"class.std::_Rb_tree" = type { %"struct.std::_Rb_tree<std::basic_string<char>, std::pair<const std::basic_string<char>, std::basic_string<char> >, std::_Select1st<std::pair<const std::basic_string<char>, std::basic_string<char> > >, std::less<std::basic_string<char> >, std::allocator<std::pair<const std::basic_string<char>, std::basic_string<char> > > >::_Rb_tree_impl" }
%"struct.std::_Rb_tree<std::basic_string<char>, std::pair<const std::basic_string<char>, std::basic_string<char> >, std::_Select1st<std::pair<const std::basic_string<char>, std::basic_string<char> > >, std::less<std::basic_string<char> >, std::allocator<std::pair<const std::basic_string<char>, std::basic_string<char> > > >::_Rb_tree_impl" = type { %"class.std::ios_base::Init", %"struct.std::_Rb_tree_node_base", i64 }
%"struct.std::_Rb_tree_node_base" = type { i32, %"struct.std::_Rb_tree_node_base"*, %"struct.std::_Rb_tree_node_base"*, %"struct.std::_Rb_tree_node_base"* }
%"class.boost::detail::shared_count" = type { %"class.boost::detail::sp_counted_base"* }
%"class.boost::detail::sp_counted_base" = type { i32 (...)**, i32, i32 }
%"struct.ros::console::LogLocation" = type { i8, i8, i32, %"class.log4cxx::Logger"* }
%"class.log4cxx::Logger" = type { %"class.log4cxx::spi::AppenderAttachable", %"class.log4cxx::helpers::Pool"*, %"class.std::basic_string", %"class.log4cxx::helpers::ObjectPtrT", %"class.log4cxx::helpers::ObjectPtrT.46", %"class.log4cxx::helpers::ObjectPtrT.47", %"class.log4cxx::spi::AppenderAttachable"*, %"class.log4cxx::helpers::ObjectPtrT.48", i8, %"class.log4cxx::helpers::Mutex", %"class.log4cxx::helpers::ObjectImpl.base" }
%"class.log4cxx::spi::AppenderAttachable" = type { %"class.ros::SubscriptionCallbackHelper" }
%"class.ros::SubscriptionCallbackHelper" = type { i32 (...)** }
%"class.log4cxx::helpers::Pool" = type <{ %struct.apr_pool_t*, i8, [7 x i8] }>
%struct.apr_pool_t = type opaque
%"class.std::basic_string" = type { %"struct.std::basic_string<char, std::char_traits<char>, std::allocator<char> >::_Alloc_hider" }
%"struct.std::basic_string<char, std::char_traits<char>, std::allocator<char> >::_Alloc_hider" = type { i8* }
%"class.log4cxx::helpers::ObjectPtrT" = type { %"class.ros::SubscriptionCallbackHelper", %"class.log4cxx::Level"* }
%"class.log4cxx::Level" = type <{ %"class.log4cxx::helpers::ObjectImpl.base", i32, %"class.std::basic_string", i32, [4 x i8] }>
%"class.log4cxx::helpers::ObjectPtrT.46" = type { %"class.ros::SubscriptionCallbackHelper", %"class.log4cxx::Logger"* }
%"class.log4cxx::helpers::ObjectPtrT.47" = type { %"class.ros::SubscriptionCallbackHelper", %"class.log4cxx::helpers::ResourceBundle"* }
%"class.log4cxx::helpers::ResourceBundle" = type { %"class.log4cxx::helpers::ObjectImpl.base", %"class.log4cxx::helpers::ObjectPtrT.47" }
%"class.log4cxx::helpers::ObjectPtrT.48" = type { %"class.ros::SubscriptionCallbackHelper", %"class.log4cxx::helpers::AppenderAttachableImpl"* }
%"class.log4cxx::helpers::AppenderAttachableImpl" = type { %"class.log4cxx::spi::AppenderAttachable", %"class.std::vector.49", %"class.log4cxx::helpers::Mutex", %"class.log4cxx::helpers::ObjectImpl.base" }
%"class.std::vector.49" = type { %"struct.std::_Vector_base.50" }
%"struct.std::_Vector_base.50" = type { %"struct.std::_Vector_base<log4cxx::helpers::ObjectPtrT<log4cxx::Appender>, std::allocator<log4cxx::helpers::ObjectPtrT<log4cxx::Appender> > >::_Vector_impl" }
%"struct.std::_Vector_base<log4cxx::helpers::ObjectPtrT<log4cxx::Appender>, std::allocator<log4cxx::helpers::ObjectPtrT<log4cxx::Appender> > >::_Vector_impl" = type { %"class.log4cxx::helpers::ObjectPtrT.54"*, %"class.log4cxx::helpers::ObjectPtrT.54"*, %"class.log4cxx::helpers::ObjectPtrT.54"* }
%"class.log4cxx::helpers::ObjectPtrT.54" = type opaque
%"class.log4cxx::helpers::Mutex" = type { %struct.apr_thread_mutex_t* }
%struct.apr_thread_mutex_t = type opaque
%"class.log4cxx::helpers::ObjectImpl.base" = type <{ %"class.ros::SubscriptionCallbackHelper", i32 }>
%"struct.boost::detail::function::basic_vtable0" = type { %"struct.boost::detail::function::vtable_base", void (%"class.boost::shared_ptr.26"*, %"union.boost::detail::function::function_buffer"*)* }
%"struct.boost::detail::function::basic_vtable0.68" = type { %"struct.boost::detail::function::vtable_base", void (%"class.ros::SerializedMessage"*, %"union.boost::detail::function::function_buffer"*)* }
%"class.ros::SerializedMessage" = type { %"class.boost::weak_ptr", i64, i8*, %"class.boost::weak_ptr", %"class.std::type_info"* }
%"class.boost::weak_ptr" = type { i8*, %"class.boost::detail::shared_count" }
%"class.std::type_info" = type { i32 (...)**, i8* }
%class.Test = type { %"class.ros::NodeHandle", %"class.ros::NodeHandle", i32, %"class.ros::Subscriber", %"class.ros::Publisher" }
%"class.ros::NodeHandle" = type <{ %"class.std::basic_string", %"class.std::basic_string", %"class.std::map", %"class.std::map", %"class.ros::CallbackQueueInterface"*, %"class.ros::NodeHandleBackingCollection"*, i8, [7 x i8] }>
%"class.ros::CallbackQueueInterface" = type opaque
%"class.ros::NodeHandleBackingCollection" = type opaque
%"class.ros::Subscriber" = type { %"class.boost::shared_ptr" }
%"class.boost::shared_ptr" = type { %"class.ros::Subscriber::Impl"*, %"class.boost::detail::shared_count" }
%"class.ros::Subscriber::Impl" = type <{ %"class.std::basic_string", %"class.boost::shared_ptr.19", %"class.boost::shared_ptr.20", i8, [7 x i8] }>
%"class.boost::shared_ptr.19" = type { %"class.ros::NodeHandle"*, %"class.boost::detail::shared_count" }
%"class.boost::shared_ptr.20" = type { %"class.ros::SubscriptionCallbackHelper"*, %"class.boost::detail::shared_count" }
%"class.ros::Publisher" = type { %"class.boost::shared_ptr.21" }
%"class.boost::shared_ptr.21" = type { %"class.ros::Publisher::Impl"*, %"class.boost::detail::shared_count" }
%"class.ros::Publisher::Impl" = type <{ %"class.std::basic_string", %"class.std::basic_string", %"class.std::basic_string", %"class.boost::shared_ptr.19", %"class.boost::shared_ptr.22", i8, [7 x i8] }>
%"class.boost::shared_ptr.22" = type { %"struct.ros::SubscriberCallbacks"*, %"class.boost::detail::shared_count" }
%"struct.ros::SubscriberCallbacks" = type { %"class.boost::function", %"class.boost::function", i8, %"class.boost::weak_ptr", %"class.ros::CallbackQueueInterface"* }
%"class.boost::function" = type { %"class.boost::function1" }
%"class.boost::function1" = type { %"class.boost::function_base" }
%"class.boost::function_base" = type { %"struct.boost::detail::function::vtable_base"*, %"union.boost::detail::function::function_buffer" }
%"class.ros::TransportHints" = type { %"class.std::vector", %"class.std::map" }
%"class.std::vector" = type { %"struct.std::_Vector_base" }
%"struct.std::_Vector_base" = type { %"struct.std::_Vector_base<std::basic_string<char>, std::allocator<std::basic_string<char> > >::_Vector_impl" }
%"struct.std::_Vector_base<std::basic_string<char>, std::allocator<std::basic_string<char> > >::_Vector_impl" = type { %"class.std::basic_string"*, %"class.std::basic_string"*, %"class.std::basic_string"* }
%"struct.ros::AdvertiseOptions" = type <{ %"class.std::basic_string", i32, [4 x i8], %"class.std::basic_string", %"class.std::basic_string", %"class.std::basic_string", %"class.boost::function", %"class.boost::function", %"class.ros::CallbackQueueInterface"*, %"class.boost::weak_ptr", i8, i8, [6 x i8] }>
%"struct.ros::SubscribeOptions" = type { %"class.std::basic_string", i32, %"class.std::basic_string", %"class.std::basic_string", %"class.boost::shared_ptr.20", %"class.ros::CallbackQueueInterface"*, i8, %"class.boost::weak_ptr", %"class.ros::TransportHints" }
%"class.std::runtime_error" = type { %"class.ros::SubscriptionCallbackHelper", %"class.std::basic_string" }
%"class.boost::_bi::bind_t" = type { %"class.boost::_mfi::mf1", %"class.boost::_bi::list2" }
%"class.boost::_mfi::mf1" = type { { i64, i64 } }
%"class.boost::_bi::list2" = type { %"struct.boost::_bi::storage2" }
%"struct.boost::_bi::storage2" = type { %"struct.boost::_bi::storage1" }
%"struct.boost::_bi::storage1" = type { %"class.boost::_bi::value" }
%"class.boost::_bi::value" = type { %class.Test* }
%"class.boost::_bi::bind_t.63" = type { void (%"class.ros::SerializedMessage"*, %"struct.std_msgs::Int16_"*)*, %"class.boost::_bi::list1.64" }
%"class.boost::_bi::list1.64" = type { %"struct.boost::_bi::storage1.65" }
%"struct.boost::_bi::storage1.65" = type { %"class.boost::reference_wrapper" }
%"class.boost::reference_wrapper" = type { %"struct.std_msgs::Int16_"* }
%"struct.std::_Rb_tree_node" = type { %"struct.std::_Rb_tree_node_base", %"struct.std::pair" }
%"struct.std::pair" = type { %"class.std::basic_string", %"class.std::basic_string" }
%"struct.boost::detail::function::basic_vtable1" = type { %"struct.boost::detail::function::vtable_base", void (%"union.boost::detail::function::function_buffer"*, %"class.ros::SingleSubscriberPublisher"*)* }
%"class.ros::SingleSubscriberPublisher" = type { %"class.boost::shared_ptr.32" }
%"class.boost::shared_ptr.32" = type { %"class.ros::SubscriberLink"*, %"class.boost::detail::shared_count" }
%"class.ros::SubscriberLink" = type opaque
%"class.ros::SubscriptionCallbackHelperT" = type { %"class.ros::SubscriptionCallbackHelper", %"class.boost::function", %"class.boost::function" }
%"struct.boost::detail::function::function_buffer::type_t" = type { %"class.std::type_info"*, i8, i8 }
%"class.boost::bad_function_call" = type { %"class.std::runtime_error" }
%"struct.boost::exception_detail::error_info_injector" = type <{ %"class.boost::bad_function_call", %"class.boost::exception.base", [4 x i8] }>
%"class.boost::exception.base" = type <{ i32 (...)**, %"class.boost::exception_detail::refcount_ptr", i8*, i8*, i32 }>
%"class.boost::exception_detail::refcount_ptr" = type { %"class.ros::SubscriptionCallbackHelper"* }
%"class.boost::exception_detail::clone_impl" = type { %"struct.boost::exception_detail::error_info_injector.base", %"class.ros::SubscriptionCallbackHelper" }
%"struct.boost::exception_detail::error_info_injector.base" = type <{ %"class.boost::bad_function_call", %"class.boost::exception.base" }>
%"class.boost::exception" = type <{ i32 (...)**, %"class.boost::exception_detail::refcount_ptr", i8*, i8*, i32, [4 x i8] }>
%"struct.boost::detail::addr_impl_ref" = type { %"class.boost::function"* }
%"struct.ros::SubscriptionCallbackHelperDeserializeParams" = type { i8*, i32, %"class.boost::shared_ptr.27" }
%"struct.ros::serialization::PreDeserializeParams" = type { %"class.boost::shared_ptr.26", %"class.boost::shared_ptr.27" }
%"struct.ros::serialization::IStream" = type { %"struct.ros::serialization::Stream" }
%"struct.ros::serialization::Stream" = type { i8*, i8* }
%"struct.ros::SubscriptionCallbackHelperCallParams" = type { %"class.ros::MessageEvent" }
%"class.ros::MessageEvent" = type { %"class.boost::weak_ptr", %"class.boost::weak_ptr", %"class.boost::shared_ptr.27", %"class.ros::Time", i8, %"class.boost::function" }
%"class.ros::Time" = type { %"class.ros::TimeBase" }
%"class.ros::TimeBase" = type { i32, i32 }
%"class.ros::MessageEvent.55" = type { %"class.boost::shared_ptr.26", %"class.boost::shared_ptr.26", %"class.boost::shared_ptr.27", %"class.ros::Time", i8, %"class.boost::function" }
%"class.boost::detail::sp_counted_impl_p" = type { %"class.boost::detail::sp_counted_base", %"class.ros::SubscriptionCallbackHelperT"* }
%"class.boost::_bi::list1" = type { %"struct.boost::_bi::storage1.57" }
%"struct.boost::_bi::storage1.57" = type { %"class.boost::shared_ptr.26"* }
%"struct.boost::detail::addr_impl_ref.58" = type { %"class.boost::_bi::bind_t"* }
%"class.boost::detail::sp_ms_deleter" = type { i8, [7 x i8], %"union.boost::detail::sp_aligned_storage<24, 8>::type" }
%"union.boost::detail::sp_aligned_storage<24, 8>::type" = type { [24 x i8] }
%"class.boost::detail::sp_counted_impl_pd" = type { %"class.boost::detail::sp_counted_base", %"struct.std_msgs::Int16_"*, %"class.boost::detail::sp_ms_deleter" }
%"struct.boost::detail::addr_impl_ref.59" = type { %"class.std::ios_base::Init"* }
%"class.__gnu_cxx::__normal_iterator" = type { %"class.std::basic_string"* }
%"class.boost::detail::sp_counted_impl_pd.66" = type <{ %"class.boost::detail::sp_counted_base", i8*, %"class.std::ios_base::Init", [7 x i8] }>
%"struct.ros::serialization::LStream" = type { i32 }
%"struct.boost::detail::addr_impl_ref.70" = type { %"class.boost::_bi::bind_t.63"* }

$_ZNSt3mapISsSsSt4lessISsESaISt4pairIKSsSsEEEC2Ev = comdat any

$_ZNSt3mapISsSsSt4lessISsESaISt4pairIKSsSsEEED2Ev = comdat any

$_ZN3ros10SubscriberC2Ev = comdat any

$_ZN3ros9PublisherC2Ev = comdat any

$_ZNK3ros10NodeHandle5paramIiEEvRKSsRT_RKS4_ = comdat any

$_ZN3ros10NodeHandle9advertiseIN8std_msgs6Int16_ISaIvEEEEENS_9PublisherERKSsjb = comdat any

$_ZN3ros9PublisheraSERKS0_ = comdat any

$_ZN3ros14TransportHintsC2Ev = comdat any

$_ZN3ros10NodeHandle9subscribeIN8std_msgs6Int16_ISaIvEEE4TestEENS_10SubscriberERKSsjMT0_FvRKN5boost10shared_ptrIKT_EEEPSA_RKNS_14TransportHintsE = comdat any

$_ZN3ros10SubscriberaSERKS0_ = comdat any

$_ZN3ros14TransportHintsD2Ev = comdat any

$__clang_call_terminate = comdat any

$_ZNK5boost10shared_ptrIKN8std_msgs6Int16_ISaIvEEEEptEv = comdat any

$_ZN8std_msgs6Int16_ISaIvEEC2Ev = comdat any

$_ZNK3ros9Publisher7publishIN8std_msgs6Int16_ISaIvEEEEEvRKT_ = comdat any

$_ZN8std_msgs6Int16_ISaIvEED2Ev = comdat any

$_ZN4TestD2Ev = comdat any

$_ZNSt8_Rb_treeISsSt4pairIKSsSsESt10_Select1stIS2_ESt4lessISsESaIS2_EED2Ev = comdat any

$_ZNSt8_Rb_treeISsSt4pairIKSsSsESt10_Select1stIS2_ESt4lessISsESaIS2_EE8_M_eraseEPSt13_Rb_tree_nodeIS2_E = comdat any

$_ZNSt8_Rb_treeISsSt4pairIKSsSsESt10_Select1stIS2_ESt4lessISsESaIS2_EE8_S_rightEPSt18_Rb_tree_node_base = comdat any

$_ZNSt8_Rb_treeISsSt4pairIKSsSsESt10_Select1stIS2_ESt4lessISsESaIS2_EE7_S_leftEPSt18_Rb_tree_node_base = comdat any

$_ZNSt8_Rb_treeISsSt4pairIKSsSsESt10_Select1stIS2_ESt4lessISsESaIS2_EE15_M_destroy_nodeEPSt13_Rb_tree_nodeIS2_E = comdat any

$_ZNKSt8_Rb_treeISsSt4pairIKSsSsESt10_Select1stIS2_ESt4lessISsESaIS2_EE13get_allocatorEv = comdat any

$_ZNKSt8_Rb_treeISsSt4pairIKSsSsESt10_Select1stIS2_ESt4lessISsESaIS2_EE21_M_get_Node_allocatorEv = comdat any

$_ZNSaISt4pairIKSsSsEEC2ISt13_Rb_tree_nodeIS1_EEERKSaIT_E = comdat any

$_ZN9__gnu_cxx13new_allocatorISt4pairIKSsSsEEC2Ev = comdat any

$_ZN9__gnu_cxx13new_allocatorISt4pairIKSsSsEE7destroyEPS3_ = comdat any

$_ZNSt4pairIKSsSsED2Ev = comdat any

$_ZSt11__addressofISt4pairIKSsSsEEPT_RS3_ = comdat any

$_ZNSaISt4pairIKSsSsEED2Ev = comdat any

$_ZN9__gnu_cxx13new_allocatorISt4pairIKSsSsEED2Ev = comdat any

$_ZNSt8_Rb_treeISsSt4pairIKSsSsESt10_Select1stIS2_ESt4lessISsESaIS2_EE11_M_put_nodeEPSt13_Rb_tree_nodeIS2_E = comdat any

$_ZN9__gnu_cxx13new_allocatorISt13_Rb_tree_nodeISt4pairIKSsSsEEE10deallocateEPS5_m = comdat any

$_ZNSt8_Rb_treeISsSt4pairIKSsSsESt10_Select1stIS2_ESt4lessISsESaIS2_EE8_M_beginEv = comdat any

$_ZNSt8_Rb_treeISsSt4pairIKSsSsESt10_Select1stIS2_ESt4lessISsESaIS2_EE13_Rb_tree_implIS6_Lb0EED2Ev = comdat any

$_ZNSaISt13_Rb_tree_nodeISt4pairIKSsSsEEED2Ev = comdat any

$_ZN9__gnu_cxx13new_allocatorISt13_Rb_tree_nodeISt4pairIKSsSsEEED2Ev = comdat any

$_ZN5boost10shared_ptrIN3ros10Subscriber4ImplEEC2Ev = comdat any

$_ZN5boost6detail12shared_countC2Ev = comdat any

$_ZN5boost10shared_ptrIN3ros9Publisher4ImplEEC2Ev = comdat any

$_ZN5boost10shared_ptrIN3ros9Publisher4ImplEEaSERKS4_ = comdat any

$_ZN5boost10shared_ptrIN3ros9Publisher4ImplEEC2ERKS4_ = comdat any

$_ZN5boost6detail12shared_countC2ERKS1_ = comdat any

$_ZN5boost6detail15sp_counted_base12add_ref_copyEv = comdat any

$_ZN5boost6detail16atomic_incrementEPi = comdat any

$_ZN5boost10shared_ptrIN3ros9Publisher4ImplEE4swapERS4_ = comdat any

$_ZSt4swapIPN3ros9Publisher4ImplEEvRT_S5_ = comdat any

$_ZN5boost6detail12shared_count4swapERS1_ = comdat any

$_ZN5boost10shared_ptrIN3ros9Publisher4ImplEED2Ev = comdat any

$_ZN5boost6detail12shared_countD2Ev = comdat any

$_ZN5boost6detail15sp_counted_base7releaseEv = comdat any

$_ZN5boost6detail23atomic_exchange_and_addEPii = comdat any

$_ZN5boost6detail15sp_counted_base12weak_releaseEv = comdat any

$_ZN5boost10shared_ptrIN3ros10Subscriber4ImplEEaSERKS4_ = comdat any

$_ZN5boost10shared_ptrIN3ros10Subscriber4ImplEEC2ERKS4_ = comdat any

$_ZN5boost10shared_ptrIN3ros10Subscriber4ImplEE4swapERS4_ = comdat any

$_ZSt4swapIPN3ros10Subscriber4ImplEEvRT_S5_ = comdat any

$_ZN5boost10shared_ptrIN3ros10Subscriber4ImplEED2Ev = comdat any

$_ZNSt6vectorISsSaISsEEC2Ev = comdat any

$_ZNSt12_Vector_baseISsSaISsEEC2Ev = comdat any

$_ZNSt12_Vector_baseISsSaISsEE12_Vector_implC2Ev = comdat any

$_ZNSaISsEC2Ev = comdat any

$_ZN9__gnu_cxx13new_allocatorISsEC2Ev = comdat any

$_ZNSt6vectorISsSaISsEED2Ev = comdat any

$_ZSt8_DestroyIPSsSsEvT_S1_RSaIT0_E = comdat any

$_ZSt8_DestroyIPSsEvT_S1_ = comdat any

$_ZNSt12_Destroy_auxILb0EE9__destroyIPSsEEvT_S3_ = comdat any

$_ZSt8_DestroyISsEvPT_ = comdat any

$_ZSt11__addressofISsEPT_RS0_ = comdat any

$_ZNSt12_Vector_baseISsSaISsEE19_M_get_Tp_allocatorEv = comdat any

$_ZNSt12_Vector_baseISsSaISsEED2Ev = comdat any

$_ZNSt12_Vector_baseISsSaISsEE13_M_deallocateEPSsm = comdat any

$_ZN9__gnu_cxx13new_allocatorISsE10deallocateEPSsm = comdat any

$_ZNSt12_Vector_baseISsSaISsEE12_Vector_implD2Ev = comdat any

$_ZNSaISsED2Ev = comdat any

$_ZN9__gnu_cxx13new_allocatorISsED2Ev = comdat any

$_ZN5boost10shared_ptrISt3mapISsSsSt4lessISsESaISt4pairIKSsSsEEEED2Ev = comdat any

$_ZN5boost3argILi1EEC2Ev = comdat any

$_ZN5boost3argILi2EEC2Ev = comdat any

$_ZN5boost3argILi3EEC2Ev = comdat any

$_ZN5boost3argILi4EEC2Ev = comdat any

$_ZN5boost3argILi5EEC2Ev = comdat any

$_ZN5boost3argILi6EEC2Ev = comdat any

$_ZN5boost3argILi7EEC2Ev = comdat any

$_ZN5boost3argILi8EEC2Ev = comdat any

$_ZN5boost3argILi9EEC2Ev = comdat any

$_ZNSt8_Rb_treeISsSt4pairIKSsSsESt10_Select1stIS2_ESt4lessISsESaIS2_EEC2Ev = comdat any

$_ZNSt8_Rb_treeISsSt4pairIKSsSsESt10_Select1stIS2_ESt4lessISsESaIS2_EE13_Rb_tree_implIS6_Lb0EEC2Ev = comdat any

$_ZNSaISt13_Rb_tree_nodeISt4pairIKSsSsEEEC2Ev = comdat any

$_ZN9__gnu_cxx13new_allocatorISt13_Rb_tree_nodeISt4pairIKSsSsEEEC2Ev = comdat any

$_ZNSt8_Rb_treeISsSt4pairIKSsSsESt10_Select1stIS2_ESt4lessISsESaIS2_EE13_Rb_tree_implIS6_Lb0EE13_M_initializeEv = comdat any

$_ZN3ros16AdvertiseOptionsC2Ev = comdat any

$_ZN5boost10shared_ptrIKvEC2Ev = comdat any

$_ZN3ros16AdvertiseOptions4initIN8std_msgs6Int16_ISaIvEEEEEvRKSsjRKN5boost8functionIFvRKNS_25SingleSubscriberPublisherEEEESG_ = comdat any

$_ZN5boost8functionIFvRKN3ros25SingleSubscriberPublisherEEEaSERKS6_ = comdat any

$_ZN5boost8functionIFvRKN3ros25SingleSubscriberPublisherEEEC2ERKS6_ = comdat any

$_ZN5boost9function1IvRKN3ros25SingleSubscriberPublisherEEC2ERKS5_ = comdat any

$_ZN5boost13function_baseC2Ev = comdat any

$_ZN5boost9function1IvRKN3ros25SingleSubscriberPublisherEE13assign_to_ownERKS5_ = comdat any

$_ZNK5boost13function_base5emptyEv = comdat any

$_ZNK5boost13function_base28has_trivial_copy_and_destroyEv = comdat any

$_ZNK5boost9function1IvRKN3ros25SingleSubscriberPublisherEE10get_vtableEv = comdat any

$_ZN5boost9function1IvRKN3ros25SingleSubscriberPublisherEE4swapERS5_ = comdat any

$_ZN5boost9function1IvRKN3ros25SingleSubscriberPublisherEEC2Ev = comdat any

$_ZN5boost9function1IvRKN3ros25SingleSubscriberPublisherEE11move_assignERS5_ = comdat any

$_ZN5boost9function1IvRKN3ros25SingleSubscriberPublisherEE5clearEv = comdat any

$_ZN5boost6detail8function13basic_vtable1IvRKN3ros25SingleSubscriberPublisherEE5clearERNS1_15function_bufferE = comdat any

$_ZN5boost9function1IvRKN3ros25SingleSubscriberPublisherEED2Ev = comdat any

$_ZN3ros14message_traits6md5sumIN8std_msgs6Int16_ISaIvEEEEEPKcv = comdat any

$_ZN3ros14message_traits6MD5SumIN8std_msgs6Int16_ISaIvEEEE5valueEv = comdat any

$_ZN3ros14message_traits8datatypeIN8std_msgs6Int16_ISaIvEEEEEPKcv = comdat any

$_ZN3ros14message_traits8DataTypeIN8std_msgs6Int16_ISaIvEEEE5valueEv = comdat any

$_ZN3ros14message_traits10definitionIN8std_msgs6Int16_ISaIvEEEEEPKcv = comdat any

$_ZN3ros14message_traits10DefinitionIN8std_msgs6Int16_ISaIvEEEE5valueEv = comdat any

$_ZN3ros14message_traits9hasHeaderIN8std_msgs6Int16_ISaIvEEEEEbv = comdat any

$_ZN5boost8functionIFvRKN3ros25SingleSubscriberPublisherEEEC2Ev = comdat any

$_ZN5boost8functionIFvRKN3ros25SingleSubscriberPublisherEEED2Ev = comdat any

$_ZN3ros16AdvertiseOptionsD2Ev = comdat any

$_ZN5boost10shared_ptrIKvED2Ev = comdat any

$_ZN3ros16SubscribeOptionsC2Ev = comdat any

$_ZN5boost10shared_ptrIN3ros26SubscriptionCallbackHelperEEC2Ev = comdat any

$_ZN5boost10shared_ptrIN3ros26SubscriptionCallbackHelperEED2Ev = comdat any

$_ZN3ros16SubscribeOptions4initIN8std_msgs6Int16_ISaIvEEEEEvRKSsjRKN5boost8functionIFvRKNS8_10shared_ptrIKT_EEEEERKNS9_IFNSA_ISB_EEvEEE = comdat any

$_ZN5boost10shared_ptrIN3ros26SubscriptionCallbackHelperEEaSERKS3_ = comdat any

$_ZN5boost10shared_ptrIN3ros26SubscriptionCallbackHelperEEC2ERKS3_ = comdat any

$_ZN5boost10shared_ptrIN3ros26SubscriptionCallbackHelperEE4swapERS3_ = comdat any

$_ZSt4swapIPN3ros26SubscriptionCallbackHelperEEvRT_S4_ = comdat any

$_ZN5boost8functionIFvRKNS_10shared_ptrIKN8std_msgs6Int16_ISaIvEEEEEEEC2ERKSB_ = comdat any

$_ZN5boost9function1IvRKNS_10shared_ptrIKN8std_msgs6Int16_ISaIvEEEEEEC2ERKSA_ = comdat any

$_ZN5boost9function1IvRKNS_10shared_ptrIKN8std_msgs6Int16_ISaIvEEEEEE13assign_to_ownERKSA_ = comdat any

$_ZNK5boost9function1IvRKNS_10shared_ptrIKN8std_msgs6Int16_ISaIvEEEEEE10get_vtableEv = comdat any

$_ZN5boost8functionIFvNS_10shared_ptrIKN8std_msgs6Int16_ISaIvEEEEEEEC2INS0_IFvRKS7_EEEEET_NS_11enable_if_cIXsr5boost11type_traits7ice_notIXsr11is_integralISF_EE5valueEEE5valueEiE4typeE = comdat any

$_ZN5boost9function1IvNS_10shared_ptrIKN8std_msgs6Int16_ISaIvEEEEEEC2INS_8functionIFvRKS7_EEEEET_NS_11enable_if_cIXsr5boost11type_traits7ice_notIXsr11is_integralISF_EE5valueEEE5valueEiE4typeE = comdat any

$_ZN5boost9function1IvNS_10shared_ptrIKN8std_msgs6Int16_ISaIvEEEEEE9assign_toINS_8functionIFvRKS7_EEEEEvT_ = comdat any

$_ZN5boost6detail8function15functor_managerINS_8functionIFvRKNS_10shared_ptrIKN8std_msgs6Int16_ISaIvEEEEEEEEE6manageERKNS1_15function_bufferERSG_NS1_30functor_manager_operation_typeE = comdat any

$_ZN5boost6detail8function15functor_managerINS_8functionIFvRKNS_10shared_ptrIKN8std_msgs6Int16_ISaIvEEEEEEEEE7managerERKNS1_15function_bufferERSG_NS1_30functor_manager_operation_typeENS1_16function_obj_tagE = comdat any

$_ZN5boost6detail8function15functor_managerINS_8functionIFvRKNS_10shared_ptrIKN8std_msgs6Int16_ISaIvEEEEEEEEE7managerERKNS1_15function_bufferERSG_NS1_30functor_manager_operation_typeEN4mpl_5bool_ILb0EEE = comdat any

$_ZNKSt9type_info4nameEv = comdat any

$_ZN5boost6detail8function26void_function_obj_invoker1INS_8functionIFvRKNS_10shared_ptrIKN8std_msgs6Int16_ISaIvEEEEEEEEvSA_E6invokeERNS1_15function_bufferESA_ = comdat any

$_ZNK5boost9function1IvRKNS_10shared_ptrIKN8std_msgs6Int16_ISaIvEEEEEEclES9_ = comdat any

$_ZN5boost15throw_exceptionINS_17bad_function_callEEEvRKT_ = comdat any

$_ZN5boost36throw_exception_assert_compatibilityERKSt9exception = comdat any

$_ZN5boost24enable_current_exceptionINS_16exception_detail19error_info_injectorINS_17bad_function_callEEEEENS1_10clone_implIT_EERKS6_ = comdat any

$_ZN5boost16exception_detail10clone_implINS0_19error_info_injectorINS_17bad_function_callEEEEC2ERKS4_ = comdat any

$_ZN5boost16exception_detail19error_info_injectorINS_17bad_function_callEEC2ERKS3_ = comdat any

$_ZN5boost17bad_function_callC2ERKS0_ = comdat any

$_ZNSt13runtime_errorC2ERKS_ = comdat any

$_ZNSt9exceptionC2ERKS_ = comdat any

$_ZN5boost17bad_function_callD0Ev = comdat any

$_ZN5boost9exceptionC2ERKS0_ = comdat any

$_ZN5boost16exception_detail12refcount_ptrINS0_20error_info_containerEEC2ERKS3_ = comdat any

$_ZN5boost16exception_detail12refcount_ptrINS0_20error_info_containerEE7add_refEv = comdat any

$_ZN5boost17bad_function_callD2Ev = comdat any

$_ZN5boost16exception_detail19error_info_injectorINS_17bad_function_callEED0Ev = comdat any

$_ZThn16_N5boost16exception_detail19error_info_injectorINS_17bad_function_callEED0Ev = comdat any

$_ZN5boost16exception_detail10clone_baseC2Ev = comdat any

$_ZN5boost16exception_detail10clone_baseD0Ev = comdat any

$_ZN5boost16exception_detail20copy_boost_exceptionEPNS_9exceptionEPKS1_ = comdat any

$_ZN5boost16exception_detail12refcount_ptrINS0_20error_info_containerEEC2Ev = comdat any

$_ZNK5boost16exception_detail12refcount_ptrINS0_20error_info_containerEE3getEv = comdat any

$_ZN5boost16exception_detail12refcount_ptrINS0_20error_info_containerEEaSERKS3_ = comdat any

$_ZN5boost16exception_detail12refcount_ptrINS0_20error_info_containerEE5adoptEPS2_ = comdat any

$_ZN5boost16exception_detail12refcount_ptrINS0_20error_info_containerEE7releaseEv = comdat any

$_ZN5boost16exception_detail12refcount_ptrINS0_20error_info_containerEED2Ev = comdat any

$_ZN5boost16exception_detail10clone_baseD2Ev = comdat any

$_ZN5boost16exception_detail19error_info_injectorINS_17bad_function_callEED2Ev = comdat any

$_ZN5boost9exceptionD2Ev = comdat any

$_ZN5boost16exception_detail10clone_implINS0_19error_info_injectorINS_17bad_function_callEEEED0Ev = comdat any

$_ZThn16_N5boost16exception_detail10clone_implINS0_19error_info_injectorINS_17bad_function_callEEEED0Ev = comdat any

$_ZThn56_N5boost16exception_detail10clone_implINS0_19error_info_injectorINS_17bad_function_callEEEED0Ev = comdat any

$_ZNK5boost16exception_detail10clone_implINS0_19error_info_injectorINS_17bad_function_callEEEE5cloneEv = comdat any

$_ZThn56_NK5boost16exception_detail10clone_implINS0_19error_info_injectorINS_17bad_function_callEEEE5cloneEv = comdat any

$_ZN5boost16exception_detail10clone_implINS0_19error_info_injectorINS_17bad_function_callEEEEC2ERKS5_ = comdat any

$_ZN5boost16exception_detail10clone_baseC2ERKS1_ = comdat any

$_ZNK5boost16exception_detail10clone_implINS0_19error_info_injectorINS_17bad_function_callEEEE7rethrowEv = comdat any

$_ZThn56_NK5boost16exception_detail10clone_implINS0_19error_info_injectorINS_17bad_function_callEEEE7rethrowEv = comdat any

$_ZN5boost17enable_error_infoINS_17bad_function_callEEENS_16exception_detail29enable_error_info_return_typeIT_E4typeERKS4_ = comdat any

$_ZN5boost16exception_detail19error_info_injectorINS_17bad_function_callEEC2ERKS2_ = comdat any

$_ZN5boost9exceptionC2Ev = comdat any

$_ZThn16_N5boost16exception_detail10clone_implINS0_19error_info_injectorINS_17bad_function_callEEEED1Ev = comdat any

$_ZThn56_N5boost16exception_detail10clone_implINS0_19error_info_injectorINS_17bad_function_callEEEED1Ev = comdat any

$_ZN5boost16exception_detail10clone_implINS0_19error_info_injectorINS_17bad_function_callEEEED2Ev = comdat any

$_ZThn16_N5boost16exception_detail19error_info_injectorINS_17bad_function_callEED1Ev = comdat any

$_ZN5boost17bad_function_callC2Ev = comdat any

$_ZN5boost6detail8function13basic_vtable1IvNS_10shared_ptrIKN8std_msgs6Int16_ISaIvEEEEEE9assign_toINS_8functionIFvRKS9_EEEEEbT_RNS1_15function_bufferE = comdat any

$_ZN5boost6detail8function13basic_vtable1IvNS_10shared_ptrIKN8std_msgs6Int16_ISaIvEEEEEE9assign_toINS_8functionIFvRKS9_EEEEEbT_RNS1_15function_bufferENS1_16function_obj_tagE = comdat any

$_ZN5boost6detail8function16has_empty_targetEPKNS_13function_baseE = comdat any

$_ZN5boost9addressofINS_8functionIFvRKNS_10shared_ptrIKN8std_msgs6Int16_ISaIvEEEEEEEEEEPT_RSD_ = comdat any

$_ZN5boost6detail14addressof_implINS_8functionIFvRKNS_10shared_ptrIKN8std_msgs6Int16_ISaIvEEEEEEEEE1fERSD_l = comdat any

$_ZN5boost6detail13addr_impl_refINS_8functionIFvRKNS_10shared_ptrIKN8std_msgs6Int16_ISaIvEEEEEEEEEC2ERSD_ = comdat any

$_ZNK5boost6detail13addr_impl_refINS_8functionIFvRKNS_10shared_ptrIKN8std_msgs6Int16_ISaIvEEEEEEEEEcvRSD_Ev = comdat any

$_ZN5boost6detail8function13basic_vtable1IvNS_10shared_ptrIKN8std_msgs6Int16_ISaIvEEEEEE14assign_functorINS_8functionIFvRKS9_EEEEEvT_RNS1_15function_bufferEN4mpl_5bool_ILb0EEE = comdat any

$_ZN3ros27SubscriptionCallbackHelperTIRKN5boost10shared_ptrIKN8std_msgs6Int16_ISaIvEEEEEvEC2ERKNS1_8functionIFvS8_EEERKNSC_IFNS2_IS6_EEvEEE = comdat any

$_ZN3ros26SubscriptionCallbackHelperC2Ev = comdat any

$_ZN3ros26SubscriptionCallbackHelperD0Ev = comdat any

$_ZN5boost8functionIFvNS_10shared_ptrIKN8std_msgs6Int16_ISaIvEEEEEEEC2ERKS9_ = comdat any

$_ZN5boost9function1IvNS_10shared_ptrIKN8std_msgs6Int16_ISaIvEEEEEEC2ERKS8_ = comdat any

$_ZN5boost9function1IvNS_10shared_ptrIKN8std_msgs6Int16_ISaIvEEEEEE13assign_to_ownERKS8_ = comdat any

$_ZNK5boost9function1IvNS_10shared_ptrIKN8std_msgs6Int16_ISaIvEEEEEE10get_vtableEv = comdat any

$_ZN5boost8functionIFNS_10shared_ptrIN8std_msgs6Int16_ISaIvEEEEEvEEC2ERKS8_ = comdat any

$_ZN5boost9function0INS_10shared_ptrIN8std_msgs6Int16_ISaIvEEEEEEC2ERKS7_ = comdat any

$_ZN5boost9function0INS_10shared_ptrIN8std_msgs6Int16_ISaIvEEEEEE13assign_to_ownERKS7_ = comdat any

$_ZNK5boost9function0INS_10shared_ptrIN8std_msgs6Int16_ISaIvEEEEEE10get_vtableEv = comdat any

$_ZN3ros26SubscriptionCallbackHelperD2Ev = comdat any

$_ZN3ros27SubscriptionCallbackHelperTIRKN5boost10shared_ptrIKN8std_msgs6Int16_ISaIvEEEEEvED2Ev = comdat any

$_ZN3ros27SubscriptionCallbackHelperTIRKN5boost10shared_ptrIKN8std_msgs6Int16_ISaIvEEEEEvED0Ev = comdat any

$_ZN3ros27SubscriptionCallbackHelperTIRKN5boost10shared_ptrIKN8std_msgs6Int16_ISaIvEEEEEvE11deserializeERKNS_43SubscriptionCallbackHelperDeserializeParamsE = comdat any

$_ZNK5boost9function0INS_10shared_ptrIN8std_msgs6Int16_ISaIvEEEEEEclEv = comdat any

$_ZNK5boost10shared_ptrIN8std_msgs6Int16_ISaIvEEEEntEv = comdat any

$_ZN3ros34assignSubscriptionConnectionHeaderIN8std_msgs6Int16_ISaIvEEEEEvPT_RKN5boost10shared_ptrISt3mapISsSsSt4lessISsESaISt4pairIKSsSsEEEEEPNS7_9enable_ifINS_14message_traits9IsMessageIS5_EEvE4typeE = comdat any

$_ZNK5boost10shared_ptrIN8std_msgs6Int16_ISaIvEEEE3getEv = comdat any

$_ZN3ros13serialization20PreDeserializeParamsIN8std_msgs6Int16_ISaIvEEEEC2Ev = comdat any

$_ZN5boost10shared_ptrIN8std_msgs6Int16_ISaIvEEEEC2Ev = comdat any

$_ZN5boost10shared_ptrISt3mapISsSsSt4lessISsESaISt4pairIKSsSsEEEEC2Ev = comdat any

$_ZN5boost10shared_ptrIN8std_msgs6Int16_ISaIvEEEEaSERKS5_ = comdat any

$_ZN5boost10shared_ptrIN8std_msgs6Int16_ISaIvEEEEC2ERKS5_ = comdat any

$_ZN5boost10shared_ptrIN8std_msgs6Int16_ISaIvEEEE4swapERS5_ = comdat any

$_ZSt4swapIPN8std_msgs6Int16_ISaIvEEEEvRT_S6_ = comdat any

$_ZN5boost10shared_ptrISt3mapISsSsSt4lessISsESaISt4pairIKSsSsEEEEaSERKS9_ = comdat any

$_ZN5boost10shared_ptrISt3mapISsSsSt4lessISsESaISt4pairIKSsSsEEEEC2ERKS9_ = comdat any

$_ZN5boost10shared_ptrISt3mapISsSsSt4lessISsESaISt4pairIKSsSsEEEE4swapERS9_ = comdat any

$_ZSt4swapIPSt3mapISsSsSt4lessISsESaISt4pairIKSsSsEEEEvRT_SA_ = comdat any

$_ZN3ros13serialization14PreDeserializeIN8std_msgs6Int16_ISaIvEEEE6notifyERKNS0_20PreDeserializeParamsIS5_EE = comdat any

$_ZN3ros13serialization7IStreamC2EPhj = comdat any

$_ZN3ros13serialization6StreamC2EPhj = comdat any

$_ZN3ros13serialization11deserializeIN8std_msgs6Int16_ISaIvEEENS0_7IStreamEEEvRT0_RT_ = comdat any

$_ZN3ros13serialization10SerializerIN8std_msgs6Int16_ISaIvEEEE4readINS0_7IStreamES5_EEvRT_RT0_ = comdat any

$_ZN3ros13serialization10SerializerIN8std_msgs6Int16_ISaIvEEEE8allInOneINS0_7IStreamERS5_EEvRT_T0_ = comdat any

$_ZN3ros13serialization7IStream4nextIsEEvRT_ = comdat any

$_ZN3ros13serialization11deserializeIsNS0_7IStreamEEEvRT0_RT_ = comdat any

$_ZN3ros13serialization10SerializerIsE4readINS0_7IStreamEEEvRT_Rs = comdat any

$_ZN3ros13serialization6Stream7advanceEj = comdat any

$_ZNK5boost10shared_ptrIN8std_msgs6Int16_ISaIvEEEEdeEv = comdat any

$_ZN5boost10shared_ptrIKvEC2IN8std_msgs6Int16_ISaIvEEEEERKNS0_IT_EENS_6detail24sp_enable_if_convertibleIS8_S1_E4typeE = comdat any

$_ZN3ros13serialization20PreDeserializeParamsIN8std_msgs6Int16_ISaIvEEEED2Ev = comdat any

$_ZN5boost10shared_ptrIN8std_msgs6Int16_ISaIvEEEED2Ev = comdat any

$_ZN3ros27SubscriptionCallbackHelperTIRKN5boost10shared_ptrIKN8std_msgs6Int16_ISaIvEEEEEvE4callERNS_36SubscriptionCallbackHelperCallParamsE = comdat any

$_ZN3ros12MessageEventIKN8std_msgs6Int16_ISaIvEEEEC2ERKNS0_IKvEERKN5boost8functionIFNSB_10shared_ptrIS4_EEvEEE = comdat any

$_ZN5boost10shared_ptrIKN8std_msgs6Int16_ISaIvEEEEC2Ev = comdat any

$_ZN3ros4TimeC2Ev = comdat any

$_ZN3ros8TimeBaseINS_4TimeENS_8DurationEEC2Ev = comdat any

$_ZN5boost8functionIFNS_10shared_ptrIN8std_msgs6Int16_ISaIvEEEEEvEEC2Ev = comdat any

$_ZN5boost9function0INS_10shared_ptrIN8std_msgs6Int16_ISaIvEEEEEEC2Ev = comdat any

$_ZN3ros12MessageEventIKN8std_msgs6Int16_ISaIvEEEE4initERKN5boost10shared_ptrIS5_EERKNS8_ISt3mapISsSsSt4lessISsESaISt4pairIKSsSsEEEEENS_4TimeEbRKNS7_8functionIFNS8_IS4_EEvEEE = comdat any

$_ZN5boost10shared_ptrIKN8std_msgs6Int16_ISaIvEEEEaSERKS6_ = comdat any

$_ZN5boost10shared_ptrIKN8std_msgs6Int16_ISaIvEEEEC2ERKS6_ = comdat any

$_ZN5boost10shared_ptrIKN8std_msgs6Int16_ISaIvEEEE4swapERS6_ = comdat any

$_ZSt4swapIPKN8std_msgs6Int16_ISaIvEEEEvRT_S7_ = comdat any

$_ZN5boost8functionIFNS_10shared_ptrIN8std_msgs6Int16_ISaIvEEEEEvEEaSERKS8_ = comdat any

$_ZN5boost9function0INS_10shared_ptrIN8std_msgs6Int16_ISaIvEEEEEE4swapERS7_ = comdat any

$_ZN5boost9function0INS_10shared_ptrIN8std_msgs6Int16_ISaIvEEEEEE11move_assignERS7_ = comdat any

$_ZN5boost9function0INS_10shared_ptrIN8std_msgs6Int16_ISaIvEEEEEE5clearEv = comdat any

$_ZN5boost6detail8function13basic_vtable0INS_10shared_ptrIN8std_msgs6Int16_ISaIvEEEEEE5clearERNS1_15function_bufferE = comdat any

$_ZN5boost9function0INS_10shared_ptrIN8std_msgs6Int16_ISaIvEEEEEED2Ev = comdat any

$_ZN5boost18const_pointer_castIN8std_msgs6Int16_ISaIvEEEKS4_EENS_10shared_ptrIT_EERKNS6_IT0_EE = comdat any

$_ZN5boost10shared_ptrIN8std_msgs6Int16_ISaIvEEEEC2IKS4_EERKNS0_IT_EENS_6detail14const_cast_tagE = comdat any

$_ZN5boost19static_pointer_castIKN8std_msgs6Int16_ISaIvEEEKvEENS_10shared_ptrIT_EERKNS7_IT0_EE = comdat any

$_ZN5boost10shared_ptrIKN8std_msgs6Int16_ISaIvEEEEC2IKvEERKNS0_IT_EENS_6detail15static_cast_tagE = comdat any

$_ZNK3ros12MessageEventIKvE10getMessageEv = comdat any

$_ZNK3ros12MessageEventIKvE22copyMessageIfNecessaryIS1_EEN5boost9enable_ifINS4_7is_voidIT_EENS4_10shared_ptrIS1_EEE4typeEv = comdat any

$_ZN5boost18const_pointer_castIvKvEENS_10shared_ptrIT_EERKNS2_IT0_EE = comdat any

$_ZN5boost10shared_ptrIvEC2IKvEERKNS0_IT_EENS_6detail14const_cast_tagE = comdat any

$_ZN5boost10shared_ptrIKvEC2IvEERKNS0_IT_EENS_6detail24sp_enable_if_convertibleIS4_S1_E4typeE = comdat any

$_ZN5boost10shared_ptrIvED2Ev = comdat any

$_ZN5boost10shared_ptrIKN8std_msgs6Int16_ISaIvEEEEC2IS4_EERKNS0_IT_EENS_6detail24sp_enable_if_convertibleIS8_S5_E4typeE = comdat any

$_ZNK3ros12MessageEventIKvE22getConnectionHeaderPtrEv = comdat any

$_ZNK3ros12MessageEventIKvE14getReceiptTimeEv = comdat any

$_ZNK3ros12MessageEventIKvE16nonConstWillCopyEv = comdat any

$_ZN3ros4TimeD2Ev = comdat any

$_ZN3ros8TimeBaseINS_4TimeENS_8DurationEED2Ev = comdat any

$_ZNK5boost9function1IvNS_10shared_ptrIKN8std_msgs6Int16_ISaIvEEEEEEclES7_ = comdat any

$_ZN3ros16ParameterAdapterIRKN5boost10shared_ptrIKN8std_msgs6Int16_ISaIvEEEEEE12getParameterERKNS_12MessageEventIS7_EE = comdat any

$_ZNK3ros12MessageEventIKN8std_msgs6Int16_ISaIvEEEE10getMessageEv = comdat any

$_ZNK3ros12MessageEventIKN8std_msgs6Int16_ISaIvEEEE22copyMessageIfNecessaryIS5_EEN5boost10disable_ifINS8_7is_voidIT_EENS8_10shared_ptrIS5_EEE4typeEv = comdat any

$_ZN5boost10shared_ptrIKN8std_msgs6Int16_ISaIvEEEED2Ev = comdat any

$_ZN3ros12MessageEventIKN8std_msgs6Int16_ISaIvEEEED2Ev = comdat any

$_ZN3ros27SubscriptionCallbackHelperTIRKN5boost10shared_ptrIKN8std_msgs6Int16_ISaIvEEEEEvE11getTypeInfoEv = comdat any

$_ZN3ros27SubscriptionCallbackHelperTIRKN5boost10shared_ptrIKN8std_msgs6Int16_ISaIvEEEEEvE7isConstEv = comdat any

$_ZN5boost10shared_ptrIN3ros26SubscriptionCallbackHelperEEC2INS1_27SubscriptionCallbackHelperTIRKNS0_IKN8std_msgs6Int16_ISaIvEEEEEvEEEEPT_ = comdat any

$_ZN5boost6detail12shared_countC2IN3ros27SubscriptionCallbackHelperTIRKNS_10shared_ptrIKN8std_msgs6Int16_ISaIvEEEEEvEEEEPT_ = comdat any

$_ZN5boost6detail17sp_counted_impl_pIN3ros27SubscriptionCallbackHelperTIRKNS_10shared_ptrIKN8std_msgs6Int16_ISaIvEEEEEvEEEC2EPSD_ = comdat any

$_ZN5boost6detail15sp_counted_baseC2Ev = comdat any

$_ZN5boost6detail15sp_counted_baseD2Ev = comdat any

$_ZN5boost6detail15sp_counted_baseD0Ev = comdat any

$_ZN5boost6detail17sp_counted_impl_pIN3ros27SubscriptionCallbackHelperTIRKNS_10shared_ptrIKN8std_msgs6Int16_ISaIvEEEEEvEEED2Ev = comdat any

$_ZN5boost6detail17sp_counted_impl_pIN3ros27SubscriptionCallbackHelperTIRKNS_10shared_ptrIKN8std_msgs6Int16_ISaIvEEEEEvEEED0Ev = comdat any

$_ZN5boost6detail17sp_counted_impl_pIN3ros27SubscriptionCallbackHelperTIRKNS_10shared_ptrIKN8std_msgs6Int16_ISaIvEEEEEvEEE7disposeEv = comdat any

$_ZN5boost6detail15sp_counted_base7destroyEv = comdat any

$_ZN5boost6detail17sp_counted_impl_pIN3ros27SubscriptionCallbackHelperTIRKNS_10shared_ptrIKN8std_msgs6Int16_ISaIvEEEEEvEEE11get_deleterERKSt9type_info = comdat any

$_ZN5boost14checked_deleteIN3ros27SubscriptionCallbackHelperTIRKNS_10shared_ptrIKN8std_msgs6Int16_ISaIvEEEEEvEEEEvPT_ = comdat any

$_ZN5boost6detail26sp_enable_shared_from_thisEz = comdat any

$_ZN5boost8functionIFvNS_10shared_ptrIKN8std_msgs6Int16_ISaIvEEEEEEED2Ev = comdat any

$_ZN5boost9function1IvNS_10shared_ptrIKN8std_msgs6Int16_ISaIvEEEEEED2Ev = comdat any

$_ZN5boost9function1IvNS_10shared_ptrIKN8std_msgs6Int16_ISaIvEEEEEE5clearEv = comdat any

$_ZN5boost6detail8function13basic_vtable1IvNS_10shared_ptrIKN8std_msgs6Int16_ISaIvEEEEEE5clearERNS1_15function_bufferE = comdat any

$_ZN5boost4bindIv4TestRKNS_10shared_ptrIKN8std_msgs6Int16_ISaIvEEEEEPS1_NS_3argILi1EEEEENS_3_bi6bind_tIT_NS_4_mfi3mf1ISG_T0_T1_EENSE_9list_av_2IT2_T3_E4typeEEEMSJ_FSG_SK_ESN_SO_ = comdat any

$_ZN5boost4_mfi3mf1Iv4TestRKNS_10shared_ptrIKN8std_msgs6Int16_ISaIvEEEEEEC2EMS2_FvSB_E = comdat any

$_ZN5boost3_bi5valueIP4TestEC2ERKS3_ = comdat any

$_ZN5boost3_bi5list2INS0_5valueIP4TestEENS_3argILi1EEEEC2ES5_S7_ = comdat any

$_ZN5boost3_bi8storage2INS0_5valueIP4TestEENS_3argILi1EEEEC2ES5_S7_ = comdat any

$_ZN5boost3_bi8storage1INS0_5valueIP4TestEEEC2ES5_ = comdat any

$_ZN5boost3_bi6bind_tIvNS_4_mfi3mf1Iv4TestRKNS_10shared_ptrIKN8std_msgs6Int16_ISaIvEEEEEEENS0_5list2INS0_5valueIPS4_EENS_3argILi1EEEEEEC2ESE_RKSL_ = comdat any

$_ZN5boost8functionIFvRKNS_10shared_ptrIKN8std_msgs6Int16_ISaIvEEEEEEEC2INS_3_bi6bind_tIvNS_4_mfi3mf1Iv4TestS9_EENSD_5list2INSD_5valueIPSH_EENS_3argILi1EEEEEEEEET_NS_11enable_if_cIXsr5boost11type_traits7ice_notIXsr11is_integralISR_EE5valueEEE5valueEiE4typeE = comdat any

$_ZN5boost9function1IvRKNS_10shared_ptrIKN8std_msgs6Int16_ISaIvEEEEEEC2INS_3_bi6bind_tIvNS_4_mfi3mf1Iv4TestS9_EENSC_5list2INSC_5valueIPSG_EENS_3argILi1EEEEEEEEET_NS_11enable_if_cIXsr5boost11type_traits7ice_notIXsr11is_integralISQ_EE5valueEEE5valueEiE4typeE = comdat any

$_ZN5boost9function1IvRKNS_10shared_ptrIKN8std_msgs6Int16_ISaIvEEEEEE9assign_toINS_3_bi6bind_tIvNS_4_mfi3mf1Iv4TestS9_EENSC_5list2INSC_5valueIPSG_EENS_3argILi1EEEEEEEEEvT_ = comdat any

$_ZN5boost6detail8function15functor_managerINS_3_bi6bind_tIvNS_4_mfi3mf1Iv4TestRKNS_10shared_ptrIKN8std_msgs6Int16_ISaIvEEEEEEENS3_5list2INS3_5valueIPS7_EENS_3argILi1EEEEEEEE6manageERKNS1_15function_bufferERSR_NS1_30functor_manager_operation_typeE = comdat any

$_ZN5boost6detail8function15functor_managerINS_3_bi6bind_tIvNS_4_mfi3mf1Iv4TestRKNS_10shared_ptrIKN8std_msgs6Int16_ISaIvEEEEEEENS3_5list2INS3_5valueIPS7_EENS_3argILi1EEEEEEEE7managerERKNS1_15function_bufferERSR_NS1_30functor_manager_operation_typeENS1_16function_obj_tagE = comdat any

$_ZN5boost6detail8function15functor_managerINS_3_bi6bind_tIvNS_4_mfi3mf1Iv4TestRKNS_10shared_ptrIKN8std_msgs6Int16_ISaIvEEEEEEENS3_5list2INS3_5valueIPS7_EENS_3argILi1EEEEEEEE7managerERKNS1_15function_bufferERSR_NS1_30functor_manager_operation_typeEN4mpl_5bool_ILb1EEE = comdat any

$_ZN5boost6detail8function22functor_manager_commonINS_3_bi6bind_tIvNS_4_mfi3mf1Iv4TestRKNS_10shared_ptrIKN8std_msgs6Int16_ISaIvEEEEEEENS3_5list2INS3_5valueIPS7_EENS_3argILi1EEEEEEEE12manage_smallERKNS1_15function_bufferERSR_NS1_30functor_manager_operation_typeE = comdat any

$_ZN5boost6detail8function26void_function_obj_invoker1INS_3_bi6bind_tIvNS_4_mfi3mf1Iv4TestRKNS_10shared_ptrIKN8std_msgs6Int16_ISaIvEEEEEEENS3_5list2INS3_5valueIPS7_EENS_3argILi1EEEEEEEvSG_E6invokeERNS1_15function_bufferESG_ = comdat any

$_ZN5boost3_bi6bind_tIvNS_4_mfi3mf1Iv4TestRKNS_10shared_ptrIKN8std_msgs6Int16_ISaIvEEEEEEENS0_5list2INS0_5valueIPS4_EENS_3argILi1EEEEEEclISB_EEvRKT_ = comdat any

$_ZN5boost3_bi5list1IRKNS_10shared_ptrIKN8std_msgs6Int16_ISaIvEEEEEEC2ESA_ = comdat any

$_ZN5boost3_bi8storage1IRKNS_10shared_ptrIKN8std_msgs6Int16_ISaIvEEEEEEC2ESA_ = comdat any

$_ZN5boost3_bi5list2INS0_5valueIP4TestEENS_3argILi1EEEEclINS_4_mfi3mf1IvS3_RKNS_10shared_ptrIKN8std_msgs6Int16_ISaIvEEEEEEENS0_5list1ISK_EEEEvNS0_4typeIvEERT_RT0_i = comdat any

$_ZN5boost3_bi9unwrapperINS_4_mfi3mf1Iv4TestRKNS_10shared_ptrIKN8std_msgs6Int16_ISaIvEEEEEEEE6unwrapERSE_l = comdat any

$_ZNK5boost4_mfi3mf1Iv4TestRKNS_10shared_ptrIKN8std_msgs6Int16_ISaIvEEEEEEclEPS2_SB_ = comdat any

$_ZNK5boost3_bi5list1IRKNS_10shared_ptrIKN8std_msgs6Int16_ISaIvEEEEEEixIP4TestEERT_RNS0_5valueISF_EE = comdat any

$_ZN5boost3_bi5valueIP4TestE3getEv = comdat any

$_ZNK5boost3_bi5list1IRKNS_10shared_ptrIKN8std_msgs6Int16_ISaIvEEEEEEixEPFNS_3argILi1EEEvE = comdat any

$_ZN5boost3_bi8storage2INS0_5valueIP4TestEENS_3argILi1EEEE3a2_Ev = comdat any

$_ZN5boost6detail8function13basic_vtable1IvRKNS_10shared_ptrIKN8std_msgs6Int16_ISaIvEEEEEE9assign_toINS_3_bi6bind_tIvNS_4_mfi3mf1Iv4TestSB_EENSE_5list2INSE_5valueIPSI_EENS_3argILi1EEEEEEEEEbT_RNS1_15function_bufferE = comdat any

$_ZN5boost6detail8function13basic_vtable1IvRKNS_10shared_ptrIKN8std_msgs6Int16_ISaIvEEEEEE9assign_toINS_3_bi6bind_tIvNS_4_mfi3mf1Iv4TestSB_EENSE_5list2INSE_5valueIPSI_EENS_3argILi1EEEEEEEEEbT_RNS1_15function_bufferENS1_16function_obj_tagE = comdat any

$_ZN5boost6detail8function16has_empty_targetEz = comdat any

$_ZN5boost9addressofINS_3_bi6bind_tIvNS_4_mfi3mf1Iv4TestRKNS_10shared_ptrIKN8std_msgs6Int16_ISaIvEEEEEEENS1_5list2INS1_5valueIPS5_EENS_3argILi1EEEEEEEEEPT_RSO_ = comdat any

$_ZN5boost6detail14addressof_implINS_3_bi6bind_tIvNS_4_mfi3mf1Iv4TestRKNS_10shared_ptrIKN8std_msgs6Int16_ISaIvEEEEEEENS2_5list2INS2_5valueIPS6_EENS_3argILi1EEEEEEEE1fERSO_l = comdat any

$_ZN5boost6detail13addr_impl_refINS_3_bi6bind_tIvNS_4_mfi3mf1Iv4TestRKNS_10shared_ptrIKN8std_msgs6Int16_ISaIvEEEEEEENS2_5list2INS2_5valueIPS6_EENS_3argILi1EEEEEEEEC2ERSO_ = comdat any

$_ZNK5boost6detail13addr_impl_refINS_3_bi6bind_tIvNS_4_mfi3mf1Iv4TestRKNS_10shared_ptrIKN8std_msgs6Int16_ISaIvEEEEEEENS2_5list2INS2_5valueIPS6_EENS_3argILi1EEEEEEEEcvRSO_Ev = comdat any

$_ZN5boost6detail8function13basic_vtable1IvRKNS_10shared_ptrIKN8std_msgs6Int16_ISaIvEEEEEE14assign_functorINS_3_bi6bind_tIvNS_4_mfi3mf1Iv4TestSB_EENSE_5list2INSE_5valueIPSI_EENS_3argILi1EEEEEEEEEvT_RNS1_15function_bufferEN4mpl_5bool_ILb1EEE = comdat any

$_ZN5boost8functionIFNS_10shared_ptrIN8std_msgs6Int16_ISaIvEEEEEvEEC2IN3ros21DefaultMessageCreatorIS5_EEEET_NS_11enable_if_cIXsr5boost11type_traits7ice_notIXsr11is_integralISD_EE5valueEEE5valueEiE4typeE = comdat any

$_ZN5boost9function0INS_10shared_ptrIN8std_msgs6Int16_ISaIvEEEEEEC2IN3ros21DefaultMessageCreatorIS5_EEEET_NS_11enable_if_cIXsr5boost11type_traits7ice_notIXsr11is_integralISC_EE5valueEEE5valueEiE4typeE = comdat any

$_ZN5boost9function0INS_10shared_ptrIN8std_msgs6Int16_ISaIvEEEEEE9assign_toIN3ros21DefaultMessageCreatorIS5_EEEEvT_ = comdat any

$_ZN5boost6detail8function15functor_managerIN3ros21DefaultMessageCreatorIN8std_msgs6Int16_ISaIvEEEEEE6manageERKNS1_15function_bufferERSB_NS1_30functor_manager_operation_typeE = comdat any

$_ZN5boost6detail8function15functor_managerIN3ros21DefaultMessageCreatorIN8std_msgs6Int16_ISaIvEEEEEE7managerERKNS1_15function_bufferERSB_NS1_30functor_manager_operation_typeENS1_16function_obj_tagE = comdat any

$_ZN5boost6detail8function15functor_managerIN3ros21DefaultMessageCreatorIN8std_msgs6Int16_ISaIvEEEEEE7managerERKNS1_15function_bufferERSB_NS1_30functor_manager_operation_typeEN4mpl_5bool_ILb1EEE = comdat any

$_ZN5boost6detail8function22functor_manager_commonIN3ros21DefaultMessageCreatorIN8std_msgs6Int16_ISaIvEEEEEE12manage_smallERKNS1_15function_bufferERSB_NS1_30functor_manager_operation_typeE = comdat any

$_ZN5boost6detail8function21function_obj_invoker0IN3ros21DefaultMessageCreatorIN8std_msgs6Int16_ISaIvEEEEENS_10shared_ptrIS8_EEE6invokeERNS1_15function_bufferE = comdat any

$_ZN3ros21DefaultMessageCreatorIN8std_msgs6Int16_ISaIvEEEEclEv = comdat any

$_ZN5boost11make_sharedIN8std_msgs6Int16_ISaIvEEEEENS_10shared_ptrIT_EEv = comdat any

$_ZN5boost6detail13sp_ms_deleterIN8std_msgs6Int16_ISaIvEEEEC2Ev = comdat any

$_ZN5boost10shared_ptrIN8std_msgs6Int16_ISaIvEEEEC2IS4_NS_6detail13sp_ms_deleterIS4_EEEEPT_T0_ = comdat any

$_ZN5boost6detail13sp_ms_deleterIN8std_msgs6Int16_ISaIvEEEEC2ERKS6_ = comdat any

$_ZN5boost6detail12shared_countC2IPN8std_msgs6Int16_ISaIvEEENS0_13sp_ms_deleterIS6_EEEET_T0_ = comdat any

$_ZN5boost6detail18sp_counted_impl_pdIPN8std_msgs6Int16_ISaIvEEENS0_13sp_ms_deleterIS5_EEEC2ES6_S8_ = comdat any

$_ZN5boost6detail18sp_counted_impl_pdIPN8std_msgs6Int16_ISaIvEEENS0_13sp_ms_deleterIS5_EEED2Ev = comdat any

$_ZN5boost6detail18sp_counted_impl_pdIPN8std_msgs6Int16_ISaIvEEENS0_13sp_ms_deleterIS5_EEED0Ev = comdat any

$_ZN5boost6detail18sp_counted_impl_pdIPN8std_msgs6Int16_ISaIvEEENS0_13sp_ms_deleterIS5_EEE7disposeEv = comdat any

$_ZN5boost6detail18sp_counted_impl_pdIPN8std_msgs6Int16_ISaIvEEENS0_13sp_ms_deleterIS5_EEE11get_deleterERKSt9type_info = comdat any

$_ZNKSt9type_infoeqERKS_ = comdat any

$_ZN5boost6detail13sp_ms_deleterIN8std_msgs6Int16_ISaIvEEEEclEPS5_ = comdat any

$_ZN5boost6detail13sp_ms_deleterIN8std_msgs6Int16_ISaIvEEEE7destroyEv = comdat any

$_ZN5boost6detail13sp_ms_deleterIN8std_msgs6Int16_ISaIvEEEED2Ev = comdat any

$_ZN5boost11get_deleterINS_6detail13sp_ms_deleterIN8std_msgs6Int16_ISaIvEEEEES6_EEPT_RKNS_10shared_ptrIT0_EE = comdat any

$_ZNK5boost10shared_ptrIN8std_msgs6Int16_ISaIvEEEE21_internal_get_deleterERKSt9type_info = comdat any

$_ZNK5boost6detail12shared_count11get_deleterERKSt9type_info = comdat any

$_ZN5boost6detail13sp_ms_deleterIN8std_msgs6Int16_ISaIvEEEE7addressEv = comdat any

$_ZN5boost6detail13sp_ms_deleterIN8std_msgs6Int16_ISaIvEEEE15set_initializedEv = comdat any

$_ZN5boost10shared_ptrIN8std_msgs6Int16_ISaIvEEEEC2IS4_EERKNS0_IT_EEPS4_ = comdat any

$_ZN5boost6detail8function13basic_vtable0INS_10shared_ptrIN8std_msgs6Int16_ISaIvEEEEEE9assign_toIN3ros21DefaultMessageCreatorIS7_EEEEbT_RNS1_15function_bufferE = comdat any

$_ZN5boost6detail8function13basic_vtable0INS_10shared_ptrIN8std_msgs6Int16_ISaIvEEEEEE9assign_toIN3ros21DefaultMessageCreatorIS7_EEEEbT_RNS1_15function_bufferENS1_16function_obj_tagE = comdat any

$_ZN5boost9addressofIN3ros21DefaultMessageCreatorIN8std_msgs6Int16_ISaIvEEEEEEEPT_RS8_ = comdat any

$_ZN5boost6detail14addressof_implIN3ros21DefaultMessageCreatorIN8std_msgs6Int16_ISaIvEEEEEE1fERS8_l = comdat any

$_ZN5boost6detail13addr_impl_refIN3ros21DefaultMessageCreatorIN8std_msgs6Int16_ISaIvEEEEEEC2ERS8_ = comdat any

$_ZNK5boost6detail13addr_impl_refIN3ros21DefaultMessageCreatorIN8std_msgs6Int16_ISaIvEEEEEEcvRS8_Ev = comdat any

$_ZN5boost6detail8function13basic_vtable0INS_10shared_ptrIN8std_msgs6Int16_ISaIvEEEEEE14assign_functorIN3ros21DefaultMessageCreatorIS7_EEEEvT_RNS1_15function_bufferEN4mpl_5bool_ILb1EEE = comdat any

$_ZN5boost8functionIFNS_10shared_ptrIN8std_msgs6Int16_ISaIvEEEEEvEED2Ev = comdat any

$_ZN5boost8functionIFvRKNS_10shared_ptrIKN8std_msgs6Int16_ISaIvEEEEEEED2Ev = comdat any

$_ZN5boost9function1IvRKNS_10shared_ptrIKN8std_msgs6Int16_ISaIvEEEEEED2Ev = comdat any

$_ZN5boost9function1IvRKNS_10shared_ptrIKN8std_msgs6Int16_ISaIvEEEEEE5clearEv = comdat any

$_ZN5boost6detail8function13basic_vtable1IvRKNS_10shared_ptrIKN8std_msgs6Int16_ISaIvEEEEEE5clearERNS1_15function_bufferE = comdat any

$_ZN3ros14TransportHintsaSERKS0_ = comdat any

$_ZNSt6vectorISsSaISsEEaSERKS1_ = comdat any

$_ZNKSt6vectorISsSaISsEE4sizeEv = comdat any

$_ZNKSt6vectorISsSaISsEE8capacityEv = comdat any

$_ZNSt6vectorISsSaISsEE20_M_allocate_and_copyIN9__gnu_cxx17__normal_iteratorIPKSsS1_EEEEPSsmT_S9_ = comdat any

$_ZNSt12_Vector_baseISsSaISsEE11_M_allocateEm = comdat any

$_ZN9__gnu_cxx13new_allocatorISsE8allocateEmPKv = comdat any

$_ZNK9__gnu_cxx13new_allocatorISsE8max_sizeEv = comdat any

$_ZSt22__uninitialized_copy_aIN9__gnu_cxx17__normal_iteratorIPKSsSt6vectorISsSaISsEEEEPSsSsET0_T_SA_S9_RSaIT1_E = comdat any

$_ZSt18uninitialized_copyIN9__gnu_cxx17__normal_iteratorIPKSsSt6vectorISsSaISsEEEEPSsET0_T_SA_S9_ = comdat any

$_ZNSt20__uninitialized_copyILb0EE13__uninit_copyIN9__gnu_cxx17__normal_iteratorIPKSsSt6vectorISsSaISsEEEEPSsEET0_T_SC_SB_ = comdat any

$_ZN9__gnu_cxxneIPKSsSt6vectorISsSaISsEEEEbRKNS_17__normal_iteratorIT_T0_EESB_ = comdat any

$_ZNK9__gnu_cxx17__normal_iteratorIPKSsSt6vectorISsSaISsEEE4baseEv = comdat any

$_ZSt10_ConstructISsSsEvPT_RKT0_ = comdat any

$_ZNK9__gnu_cxx17__normal_iteratorIPKSsSt6vectorISsSaISsEEEdeEv = comdat any

$_ZN9__gnu_cxx17__normal_iteratorIPKSsSt6vectorISsSaISsEEEppEv = comdat any

$_ZNKSt6vectorISsSaISsEE5beginEv = comdat any

$_ZN9__gnu_cxx17__normal_iteratorIPKSsSt6vectorISsSaISsEEEC2ERKS2_ = comdat any

$_ZNKSt6vectorISsSaISsEE3endEv = comdat any

$_ZSt8_DestroyIN9__gnu_cxx17__normal_iteratorIPSsSt6vectorISsSaISsEEEESsEvT_S7_RSaIT0_E = comdat any

$_ZSt8_DestroyIN9__gnu_cxx17__normal_iteratorIPSsSt6vectorISsSaISsEEEEEvT_S7_ = comdat any

$_ZNSt12_Destroy_auxILb0EE9__destroyIN9__gnu_cxx17__normal_iteratorIPSsSt6vectorISsSaISsEEEEEEvT_S9_ = comdat any

$_ZN9__gnu_cxxneIPSsSt6vectorISsSaISsEEEEbRKNS_17__normal_iteratorIT_T0_EESA_ = comdat any

$_ZNK9__gnu_cxx17__normal_iteratorIPSsSt6vectorISsSaISsEEE4baseEv = comdat any

$_ZNK9__gnu_cxx17__normal_iteratorIPSsSt6vectorISsSaISsEEEdeEv = comdat any

$_ZN9__gnu_cxx17__normal_iteratorIPSsSt6vectorISsSaISsEEEppEv = comdat any

$_ZSt4copyIN9__gnu_cxx17__normal_iteratorIPKSsSt6vectorISsSaISsEEEENS1_IPSsS6_EEET0_T_SB_SA_ = comdat any

$_ZSt14__copy_move_a2ILb0EN9__gnu_cxx17__normal_iteratorIPKSsSt6vectorISsSaISsEEEENS1_IPSsS6_EEET1_T0_SB_SA_ = comdat any

$_ZSt13__copy_move_aILb0EPKSsPSsET1_T0_S4_S3_ = comdat any

$_ZNSt11__copy_moveILb0ELb0ESt26random_access_iterator_tagE8__copy_mIPKSsPSsEET0_T_S7_S6_ = comdat any

$_ZSt12__niter_baseIN9__gnu_cxx17__normal_iteratorIPKSsSt6vectorISsSaISsEEEEENSt11_Niter_baseIT_E13iterator_typeES9_ = comdat any

$_ZNSt10_Iter_baseIN9__gnu_cxx17__normal_iteratorIPKSsSt6vectorISsSaISsEEEELb1EE7_S_baseES7_ = comdat any

$_ZSt12__niter_baseIN9__gnu_cxx17__normal_iteratorIPSsSt6vectorISsSaISsEEEEENSt11_Niter_baseIT_E13iterator_typeES8_ = comdat any

$_ZNSt10_Iter_baseIN9__gnu_cxx17__normal_iteratorIPSsSt6vectorISsSaISsEEEELb1EE7_S_baseES6_ = comdat any

$_ZN9__gnu_cxx17__normal_iteratorIPSsSt6vectorISsSaISsEEEC2ERKS1_ = comdat any

$_ZSt12__miter_baseIN9__gnu_cxx17__normal_iteratorIPKSsSt6vectorISsSaISsEEEEENSt11_Miter_baseIT_E13iterator_typeES9_ = comdat any

$_ZNSt10_Iter_baseIN9__gnu_cxx17__normal_iteratorIPKSsSt6vectorISsSaISsEEEELb0EE7_S_baseES7_ = comdat any

$_ZNSt6vectorISsSaISsEE5beginEv = comdat any

$_ZNSt6vectorISsSaISsEE3endEv = comdat any

$_ZSt4copyIPSsS0_ET0_T_S2_S1_ = comdat any

$_ZSt14__copy_move_a2ILb0EPSsS0_ET1_T0_S2_S1_ = comdat any

$_ZSt13__copy_move_aILb0EPSsS0_ET1_T0_S2_S1_ = comdat any

$_ZNSt11__copy_moveILb0ELb0ESt26random_access_iterator_tagE8__copy_mIPSsS3_EET0_T_S5_S4_ = comdat any

$_ZSt12__niter_baseIPSsENSt11_Niter_baseIT_E13iterator_typeES2_ = comdat any

$_ZNSt10_Iter_baseIPSsLb0EE7_S_baseES0_ = comdat any

$_ZSt12__miter_baseIPSsENSt11_Miter_baseIT_E13iterator_typeES2_ = comdat any

$_ZSt22__uninitialized_copy_aIPSsS0_SsET0_T_S2_S1_RSaIT1_E = comdat any

$_ZSt18uninitialized_copyIPSsS0_ET0_T_S2_S1_ = comdat any

$_ZNSt20__uninitialized_copyILb0EE13__uninit_copyIPSsS2_EET0_T_S4_S3_ = comdat any

$_ZNSt3mapISsSsSt4lessISsESaISt4pairIKSsSsEEEaSERKS6_ = comdat any

$_ZNSt8_Rb_treeISsSt4pairIKSsSsESt10_Select1stIS2_ESt4lessISsESaIS2_EEaSERKS8_ = comdat any

$_ZNSt8_Rb_treeISsSt4pairIKSsSsESt10_Select1stIS2_ESt4lessISsESaIS2_EE5clearEv = comdat any

$_ZNKSt8_Rb_treeISsSt4pairIKSsSsESt10_Select1stIS2_ESt4lessISsESaIS2_EE7_M_rootEv = comdat any

$_ZNSt8_Rb_treeISsSt4pairIKSsSsESt10_Select1stIS2_ESt4lessISsESaIS2_EE7_M_copyEPKSt13_Rb_tree_nodeIS2_EPSA_ = comdat any

$_ZNSt8_Rb_treeISsSt4pairIKSsSsESt10_Select1stIS2_ESt4lessISsESaIS2_EE13_M_clone_nodeEPKSt13_Rb_tree_nodeIS2_E = comdat any

$_ZNSt8_Rb_treeISsSt4pairIKSsSsESt10_Select1stIS2_ESt4lessISsESaIS2_EE14_M_create_nodeERKS2_ = comdat any

$_ZNSt8_Rb_treeISsSt4pairIKSsSsESt10_Select1stIS2_ESt4lessISsESaIS2_EE11_M_get_nodeEv = comdat any

$_ZN9__gnu_cxx13new_allocatorISt13_Rb_tree_nodeISt4pairIKSsSsEEE8allocateEmPKv = comdat any

$_ZNK9__gnu_cxx13new_allocatorISt13_Rb_tree_nodeISt4pairIKSsSsEEE8max_sizeEv = comdat any

$_ZN9__gnu_cxx13new_allocatorISt4pairIKSsSsEE9constructEPS3_RKS3_ = comdat any

$_ZNSt4pairIKSsSsEC2ERKS1_ = comdat any

$_ZNSt8_Rb_treeISsSt4pairIKSsSsESt10_Select1stIS2_ESt4lessISsESaIS2_EE8_S_rightEPKSt18_Rb_tree_node_base = comdat any

$_ZNSt8_Rb_treeISsSt4pairIKSsSsESt10_Select1stIS2_ESt4lessISsESaIS2_EE7_S_leftEPKSt18_Rb_tree_node_base = comdat any

$_ZNKSt8_Rb_treeISsSt4pairIKSsSsESt10_Select1stIS2_ESt4lessISsESaIS2_EE8_M_beginEv = comdat any

$_ZNSt8_Rb_treeISsSt4pairIKSsSsESt10_Select1stIS2_ESt4lessISsESaIS2_EE6_M_endEv = comdat any

$_ZNSt8_Rb_treeISsSt4pairIKSsSsESt10_Select1stIS2_ESt4lessISsESaIS2_EE7_M_rootEv = comdat any

$_ZNSt8_Rb_treeISsSt4pairIKSsSsESt10_Select1stIS2_ESt4lessISsESaIS2_EE10_S_minimumEPSt18_Rb_tree_node_base = comdat any

$_ZNSt18_Rb_tree_node_base10_S_minimumEPS_ = comdat any

$_ZNSt8_Rb_treeISsSt4pairIKSsSsESt10_Select1stIS2_ESt4lessISsESaIS2_EE11_M_leftmostEv = comdat any

$_ZNSt8_Rb_treeISsSt4pairIKSsSsESt10_Select1stIS2_ESt4lessISsESaIS2_EE10_S_maximumEPSt18_Rb_tree_node_base = comdat any

$_ZNSt18_Rb_tree_node_base10_S_maximumEPS_ = comdat any

$_ZNSt8_Rb_treeISsSt4pairIKSsSsESt10_Select1stIS2_ESt4lessISsESaIS2_EE12_M_rightmostEv = comdat any

$_ZN3ros16SubscribeOptionsD2Ev = comdat any

$_ZNK5boost10shared_ptrIN3ros9Publisher4ImplEEntEv = comdat any

$_ZNK5boost10shared_ptrIN3ros9Publisher4ImplEEptEv = comdat any

$_ZSteqIcSt11char_traitsIcESaIcEEbRKSbIT_T0_T1_EPKS3_ = comdat any

$_ZN3ros14message_traits6md5sumIN8std_msgs6Int16_ISaIvEEEEEPKcRKT_ = comdat any

$_ZN3ros14message_traits6MD5SumIN8std_msgs6Int16_ISaIvEEEE5valueERKS5_ = comdat any

$_ZN3ros14message_traits8datatypeIN8std_msgs6Int16_ISaIvEEEEEPKcRKT_ = comdat any

$_ZN3ros14message_traits8DataTypeIN8std_msgs6Int16_ISaIvEEEE5valueERKS5_ = comdat any

$_ZN3ros17SerializedMessageC2Ev = comdat any

$_ZN5boost12shared_arrayIhEC2EPh = comdat any

$_ZN5boost6detail12shared_countC2IPhNS_21checked_array_deleterIhEEEET_T0_ = comdat any

$_ZN5boost6detail18sp_counted_impl_pdIPhNS_21checked_array_deleterIhEEEC2ES2_S4_ = comdat any

$_ZN5boost6detail18sp_counted_impl_pdIPhNS_21checked_array_deleterIhEEED2Ev = comdat any

$_ZN5boost6detail18sp_counted_impl_pdIPhNS_21checked_array_deleterIhEEED0Ev = comdat any

$_ZN5boost6detail18sp_counted_impl_pdIPhNS_21checked_array_deleterIhEEE7disposeEv = comdat any

$_ZN5boost6detail18sp_counted_impl_pdIPhNS_21checked_array_deleterIhEEE11get_deleterERKSt9type_info = comdat any

$_ZNK5boost21checked_array_deleterIhEclEPh = comdat any

$_ZN5boost20checked_array_deleteIhEEvPT_ = comdat any

$_ZN5boost12shared_arrayIhED2Ev = comdat any

$_ZN5boost4bindIN3ros17SerializedMessageERKN8std_msgs6Int16_ISaIvEEENS_17reference_wrapperIS7_EEEENS_3_bi6bind_tIT_PFSD_T0_ENSB_9list_av_1IT1_E4typeEEESG_SI_ = comdat any

$_ZN5boost3_bi5list1INS_17reference_wrapperIKN8std_msgs6Int16_ISaIvEEEEEEC2ES8_ = comdat any

$_ZN5boost3_bi8storage1INS_17reference_wrapperIKN8std_msgs6Int16_ISaIvEEEEEEC2ES8_ = comdat any

$_ZN5boost3_bi6bind_tIN3ros17SerializedMessageEPFS3_RKN8std_msgs6Int16_ISaIvEEEENS0_5list1INS_17reference_wrapperIS8_EEEEEC2ESB_RKSF_ = comdat any

$_ZN3ros13serialization16serializeMessageIN8std_msgs6Int16_ISaIvEEEEENS_17SerializedMessageERKT_ = comdat any

$_ZN3ros13serialization19serializationLengthIN8std_msgs6Int16_ISaIvEEEEEjRKT_ = comdat any

$_ZN3ros13serialization10SerializerIN8std_msgs6Int16_ISaIvEEEE16serializedLengthIS5_EEjRKT_ = comdat any

$_ZN3ros13serialization7LStreamC2Ev = comdat any

$_ZN3ros13serialization10SerializerIN8std_msgs6Int16_ISaIvEEEE8allInOneINS0_7LStreamERKS5_EEvRT_T0_ = comdat any

$_ZN3ros13serialization7LStream4nextIsEEvRKT_ = comdat any

$_ZN3ros13serialization19serializationLengthIsEEjRKT_ = comdat any

$_ZN3ros13serialization10SerializerIsE16serializedLengthERKs = comdat any

$_ZN3ros13serialization7LStream9getLengthEv = comdat any

$_ZN5boost12shared_arrayIhE5resetEPh = comdat any

$_ZN5boost12shared_arrayIhE4swapERS1_ = comdat any

$_ZSt4swapIPhEvRT_S2_ = comdat any

$_ZNK5boost12shared_arrayIhE3getEv = comdat any

$_ZN3ros13serialization7OStreamC2EPhj = comdat any

$_ZN3ros13serialization9serializeIjNS0_7OStreamEEEvRT0_RKT_ = comdat any

$_ZN3ros13serialization10SerializerIjE5writeINS0_7OStreamEEEvRT_j = comdat any

$_ZN3ros13serialization6Stream7getDataEv = comdat any

$_ZN3ros13serialization9serializeIN8std_msgs6Int16_ISaIvEEENS0_7OStreamEEEvRT0_RKT_ = comdat any

$_ZN3ros13serialization10SerializerIN8std_msgs6Int16_ISaIvEEEE5writeINS0_7OStreamES5_EEvRT_RKT0_ = comdat any

$_ZN3ros13serialization10SerializerIN8std_msgs6Int16_ISaIvEEEE8allInOneINS0_7OStreamERKS5_EEvRT_T0_ = comdat any

$_ZN3ros13serialization7OStream4nextIsEEvRKT_ = comdat any

$_ZN3ros13serialization9serializeIsNS0_7OStreamEEEvRT0_RKT_ = comdat any

$_ZN3ros13serialization10SerializerIsE5writeINS0_7OStreamEEEvRT_s = comdat any

$_ZN5boost3refIKN8std_msgs6Int16_ISaIvEEEEEKNS_17reference_wrapperIT_EERS7_ = comdat any

$_ZN5boost17reference_wrapperIKN8std_msgs6Int16_ISaIvEEEEC2ERS5_ = comdat any

$_ZN5boost9addressofIKN8std_msgs6Int16_ISaIvEEEEEPT_RS6_ = comdat any

$_ZN5boost6detail14addressof_implIKN8std_msgs6Int16_ISaIvEEEE1fERS6_l = comdat any

$_ZN5boost6detail13addr_impl_refIKN8std_msgs6Int16_ISaIvEEEEC2ERS6_ = comdat any

$_ZNK5boost6detail13addr_impl_refIKN8std_msgs6Int16_ISaIvEEEEcvRS6_Ev = comdat any

$_ZN5boost8functionIFN3ros17SerializedMessageEvEEC2INS_3_bi6bind_tIS2_PFS2_RKN8std_msgs6Int16_ISaIvEEEENS6_5list1INS_17reference_wrapperISC_EEEEEEEET_NS_11enable_if_cIXsr5boost11type_traits7ice_notIXsr11is_integralISL_EE5valueEEE5valueEiE4typeE = comdat any

$_ZN5boost9function0IN3ros17SerializedMessageEEC2INS_3_bi6bind_tIS2_PFS2_RKN8std_msgs6Int16_ISaIvEEEENS5_5list1INS_17reference_wrapperISB_EEEEEEEET_NS_11enable_if_cIXsr5boost11type_traits7ice_notIXsr11is_integralISK_EE5valueEEE5valueEiE4typeE = comdat any

$_ZN5boost9function0IN3ros17SerializedMessageEE9assign_toINS_3_bi6bind_tIS2_PFS2_RKN8std_msgs6Int16_ISaIvEEEENS5_5list1INS_17reference_wrapperISB_EEEEEEEEvT_ = comdat any

$_ZN5boost6detail8function15functor_managerINS_3_bi6bind_tIN3ros17SerializedMessageEPFS6_RKN8std_msgs6Int16_ISaIvEEEENS3_5list1INS_17reference_wrapperISB_EEEEEEE6manageERKNS1_15function_bufferERSL_NS1_30functor_manager_operation_typeE = comdat any

$_ZN5boost6detail8function15functor_managerINS_3_bi6bind_tIN3ros17SerializedMessageEPFS6_RKN8std_msgs6Int16_ISaIvEEEENS3_5list1INS_17reference_wrapperISB_EEEEEEE7managerERKNS1_15function_bufferERSL_NS1_30functor_manager_operation_typeENS1_16function_obj_tagE = comdat any

$_ZN5boost6detail8function15functor_managerINS_3_bi6bind_tIN3ros17SerializedMessageEPFS6_RKN8std_msgs6Int16_ISaIvEEEENS3_5list1INS_17reference_wrapperISB_EEEEEEE7managerERKNS1_15function_bufferERSL_NS1_30functor_manager_operation_typeEN4mpl_5bool_ILb1EEE = comdat any

$_ZN5boost6detail8function22functor_manager_commonINS_3_bi6bind_tIN3ros17SerializedMessageEPFS6_RKN8std_msgs6Int16_ISaIvEEEENS3_5list1INS_17reference_wrapperISB_EEEEEEE12manage_smallERKNS1_15function_bufferERSL_NS1_30functor_manager_operation_typeE = comdat any

$_ZN5boost6detail8function21function_obj_invoker0INS_3_bi6bind_tIN3ros17SerializedMessageEPFS6_RKN8std_msgs6Int16_ISaIvEEEENS3_5list1INS_17reference_wrapperISB_EEEEEES6_E6invokeERNS1_15function_bufferE = comdat any

$_ZN5boost3_bi6bind_tIN3ros17SerializedMessageEPFS3_RKN8std_msgs6Int16_ISaIvEEEENS0_5list1INS_17reference_wrapperIS8_EEEEEclEv = comdat any

$_ZN5boost3_bi5list0C2Ev = comdat any

$_ZN5boost3_bi5list1INS_17reference_wrapperIKN8std_msgs6Int16_ISaIvEEEEEEclIN3ros17SerializedMessageEPFSC_RS7_ENS0_5list0EEET_NS0_4typeISH_EERT0_RT1_l = comdat any

$_ZN5boost3_bi9unwrapperIPFN3ros17SerializedMessageERKN8std_msgs6Int16_ISaIvEEEEE6unwrapERSB_l = comdat any

$_ZNK5boost3_bi5list0ixIKN8std_msgs6Int16_ISaIvEEEEERT_RKNS_17reference_wrapperIS8_EE = comdat any

$_ZNK5boost17reference_wrapperIKN8std_msgs6Int16_ISaIvEEEE3getEv = comdat any

$_ZN5boost6detail8function13basic_vtable0IN3ros17SerializedMessageEE9assign_toINS_3_bi6bind_tIS4_PFS4_RKN8std_msgs6Int16_ISaIvEEEENS7_5list1INS_17reference_wrapperISD_EEEEEEEEbT_RNS1_15function_bufferE = comdat any

$_ZN5boost6detail8function13basic_vtable0IN3ros17SerializedMessageEE9assign_toINS_3_bi6bind_tIS4_PFS4_RKN8std_msgs6Int16_ISaIvEEEENS7_5list1INS_17reference_wrapperISD_EEEEEEEEbT_RNS1_15function_bufferENS1_16function_obj_tagE = comdat any

$_ZN5boost9addressofINS_3_bi6bind_tIN3ros17SerializedMessageEPFS4_RKN8std_msgs6Int16_ISaIvEEEENS1_5list1INS_17reference_wrapperIS9_EEEEEEEEPT_RSI_ = comdat any

$_ZN5boost6detail14addressof_implINS_3_bi6bind_tIN3ros17SerializedMessageEPFS5_RKN8std_msgs6Int16_ISaIvEEEENS2_5list1INS_17reference_wrapperISA_EEEEEEE1fERSI_l = comdat any

$_ZN5boost6detail13addr_impl_refINS_3_bi6bind_tIN3ros17SerializedMessageEPFS5_RKN8std_msgs6Int16_ISaIvEEEENS2_5list1INS_17reference_wrapperISA_EEEEEEEC2ERSI_ = comdat any

$_ZNK5boost6detail13addr_impl_refINS_3_bi6bind_tIN3ros17SerializedMessageEPFS5_RKN8std_msgs6Int16_ISaIvEEEENS2_5list1INS_17reference_wrapperISA_EEEEEEEcvRSI_Ev = comdat any

$_ZN5boost6detail8function13basic_vtable0IN3ros17SerializedMessageEE14assign_functorINS_3_bi6bind_tIS4_PFS4_RKN8std_msgs6Int16_ISaIvEEEENS7_5list1INS_17reference_wrapperISD_EEEEEEEEvT_RNS1_15function_bufferEN4mpl_5bool_ILb1EEE = comdat any

$_ZN5boost8functionIFN3ros17SerializedMessageEvEED2Ev = comdat any

$_ZN5boost9function0IN3ros17SerializedMessageEED2Ev = comdat any

$_ZN5boost9function0IN3ros17SerializedMessageEE5clearEv = comdat any

$_ZNK5boost9function0IN3ros17SerializedMessageEE10get_vtableEv = comdat any

$_ZN5boost6detail8function13basic_vtable0IN3ros17SerializedMessageEE5clearERNS1_15function_bufferE = comdat any

$_ZN3ros17SerializedMessageD2Ev = comdat any

$_ZZN5boost9function1IvNS_10shared_ptrIKN8std_msgs6Int16_ISaIvEEEEEE9assign_toINS_8functionIFvRKS7_EEEEEvT_E13stored_vtable = comdat any

$_ZZN3ros27SubscriptionCallbackHelperTIRKN5boost10shared_ptrIKN8std_msgs6Int16_ISaIvEEEEEvE11deserializeERKNS_43SubscriptionCallbackHelperDeserializeParamsEE3loc = comdat any

$_ZZN5boost9function1IvRKNS_10shared_ptrIKN8std_msgs6Int16_ISaIvEEEEEE9assign_toINS_3_bi6bind_tIvNS_4_mfi3mf1Iv4TestS9_EENSC_5list2INSC_5valueIPSG_EENS_3argILi1EEEEEEEEEvT_E13stored_vtable = comdat any

$_ZZN5boost9function0INS_10shared_ptrIN8std_msgs6Int16_ISaIvEEEEEE9assign_toIN3ros21DefaultMessageCreatorIS5_EEEEvT_E13stored_vtable = comdat any

$_ZZNK3ros9Publisher7publishIN8std_msgs6Int16_ISaIvEEEEEvRKT_E3loc = comdat any

$_ZZNK3ros9Publisher7publishIN8std_msgs6Int16_ISaIvEEEEEvRKT_E3loc_0 = comdat any

$_ZZNK3ros9Publisher7publishIN8std_msgs6Int16_ISaIvEEEEEvRKT_E3loc_1 = comdat any

$_ZZNK3ros9Publisher7publishIN8std_msgs6Int16_ISaIvEEEEEvRKT_E3loc_2 = comdat any

$_ZZNK3ros9Publisher7publishIN8std_msgs6Int16_ISaIvEEEEEvRKT_E3loc_3 = comdat any

$_ZZNK3ros9Publisher7publishIN8std_msgs6Int16_ISaIvEEEEEvRKT_E3loc_4 = comdat any

$_ZZNK3ros9Publisher7publishIN8std_msgs6Int16_ISaIvEEEEEvRKT_E3loc_5 = comdat any

$_ZZNK3ros9Publisher7publishIN8std_msgs6Int16_ISaIvEEEEEvRKT_E3loc_6 = comdat any

$_ZZNK3ros9Publisher7publishIN8std_msgs6Int16_ISaIvEEEEEvRKT_E3loc_7 = comdat any

$_ZZN5boost9function0IN3ros17SerializedMessageEE9assign_toINS_3_bi6bind_tIS2_PFS2_RKN8std_msgs6Int16_ISaIvEEEENS5_5list1INS_17reference_wrapperISB_EEEEEEEEvT_E13stored_vtable = comdat any

$_ZTIN5boost3_bi6bind_tIN3ros17SerializedMessageEPFS3_RKN8std_msgs6Int16_ISaIvEEEENS0_5list1INS_17reference_wrapperIS8_EEEEEE = comdat any

$_ZTSN5boost3_bi6bind_tIN3ros17SerializedMessageEPFS3_RKN8std_msgs6Int16_ISaIvEEEENS0_5list1INS_17reference_wrapperIS8_EEEEEE = comdat any

$_ZTIN5boost21checked_array_deleterIhEE = comdat any

$_ZTSN5boost21checked_array_deleterIhEE = comdat any

$_ZTVN5boost6detail18sp_counted_impl_pdIPhNS_21checked_array_deleterIhEEEE = comdat any

$_ZTIN5boost6detail18sp_counted_impl_pdIPhNS_21checked_array_deleterIhEEEE = comdat any

$_ZTSN5boost6detail18sp_counted_impl_pdIPhNS_21checked_array_deleterIhEEEE = comdat any

$_ZTIN5boost6detail15sp_counted_baseE = comdat any

$_ZTSN5boost6detail15sp_counted_baseE = comdat any

$_ZTIN5boost6detail13sp_ms_deleterIN8std_msgs6Int16_ISaIvEEEEE = comdat any

$_ZTSN5boost6detail13sp_ms_deleterIN8std_msgs6Int16_ISaIvEEEEE = comdat any

$_ZTVN5boost6detail18sp_counted_impl_pdIPN8std_msgs6Int16_ISaIvEEENS0_13sp_ms_deleterIS5_EEEE = comdat any

$_ZTIN5boost6detail18sp_counted_impl_pdIPN8std_msgs6Int16_ISaIvEEENS0_13sp_ms_deleterIS5_EEEE = comdat any

$_ZTSN5boost6detail18sp_counted_impl_pdIPN8std_msgs6Int16_ISaIvEEENS0_13sp_ms_deleterIS5_EEEE = comdat any

$_ZTIN3ros21DefaultMessageCreatorIN8std_msgs6Int16_ISaIvEEEEE = comdat any

$_ZTSN3ros21DefaultMessageCreatorIN8std_msgs6Int16_ISaIvEEEEE = comdat any

$_ZTIN5boost3_bi6bind_tIvNS_4_mfi3mf1Iv4TestRKNS_10shared_ptrIKN8std_msgs6Int16_ISaIvEEEEEEENS0_5list2INS0_5valueIPS4_EENS_3argILi1EEEEEEE = comdat any

$_ZTSN5boost3_bi6bind_tIvNS_4_mfi3mf1Iv4TestRKNS_10shared_ptrIKN8std_msgs6Int16_ISaIvEEEEEEENS0_5list2INS0_5valueIPS4_EENS_3argILi1EEEEEEE = comdat any

$_ZTVN5boost6detail15sp_counted_baseE = comdat any

$_ZTVN5boost6detail17sp_counted_impl_pIN3ros27SubscriptionCallbackHelperTIRKNS_10shared_ptrIKN8std_msgs6Int16_ISaIvEEEEEvEEEE = comdat any

$_ZTIN5boost6detail17sp_counted_impl_pIN3ros27SubscriptionCallbackHelperTIRKNS_10shared_ptrIKN8std_msgs6Int16_ISaIvEEEEEvEEEE = comdat any

$_ZTSN5boost6detail17sp_counted_impl_pIN3ros27SubscriptionCallbackHelperTIRKNS_10shared_ptrIKN8std_msgs6Int16_ISaIvEEEEEvEEEE = comdat any

$_ZTIN8std_msgs6Int16_ISaIvEEE = comdat any

$_ZTSN8std_msgs6Int16_ISaIvEEE = comdat any

$_ZTVN3ros27SubscriptionCallbackHelperTIRKN5boost10shared_ptrIKN8std_msgs6Int16_ISaIvEEEEEvEE = comdat any

$_ZTIN3ros27SubscriptionCallbackHelperTIRKN5boost10shared_ptrIKN8std_msgs6Int16_ISaIvEEEEEvEE = comdat any

$_ZTSN3ros27SubscriptionCallbackHelperTIRKN5boost10shared_ptrIKN8std_msgs6Int16_ISaIvEEEEEvEE = comdat any

$_ZTIN3ros26SubscriptionCallbackHelperE = comdat any

$_ZTSN3ros26SubscriptionCallbackHelperE = comdat any

$_ZTVN3ros26SubscriptionCallbackHelperE = comdat any

$_ZTVN5boost17bad_function_callE = comdat any

$_ZTIN5boost17bad_function_callE = comdat any

$_ZTSN5boost17bad_function_callE = comdat any

$_ZTVN5boost9exceptionE = comdat any

$_ZTIN5boost9exceptionE = comdat any

$_ZTSN5boost9exceptionE = comdat any

$_ZTVN5boost16exception_detail19error_info_injectorINS_17bad_function_callEEE = comdat any

$_ZTIN5boost16exception_detail19error_info_injectorINS_17bad_function_callEEE = comdat any

$_ZTSN5boost16exception_detail19error_info_injectorINS_17bad_function_callEEE = comdat any

$_ZTIN5boost16exception_detail10clone_implINS0_19error_info_injectorINS_17bad_function_callEEEEE = comdat any

$_ZTSN5boost16exception_detail10clone_implINS0_19error_info_injectorINS_17bad_function_callEEEEE = comdat any

$_ZTIN5boost16exception_detail10clone_baseE = comdat any

$_ZTSN5boost16exception_detail10clone_baseE = comdat any

$_ZTVN5boost16exception_detail10clone_baseE = comdat any

$_ZTVN5boost16exception_detail10clone_implINS0_19error_info_injectorINS_17bad_function_callEEEEE = comdat any

$_ZTIN5boost8functionIFvRKNS_10shared_ptrIKN8std_msgs6Int16_ISaIvEEEEEEEE = comdat any

$_ZTSN5boost8functionIFvRKNS_10shared_ptrIKN8std_msgs6Int16_ISaIvEEEEEEEE = comdat any

$_ZTIN5boost9function1IvRKNS_10shared_ptrIKN8std_msgs6Int16_ISaIvEEEEEEE = comdat any

$_ZTSN5boost9function1IvRKNS_10shared_ptrIKN8std_msgs6Int16_ISaIvEEEEEEE = comdat any

$_ZTIN5boost13function_baseE = comdat any

$_ZTISt14unary_functionIRKN5boost10shared_ptrIKN8std_msgs6Int16_ISaIvEEEEEvE = comdat any

$_ZTSSt14unary_functionIRKN5boost10shared_ptrIKN8std_msgs6Int16_ISaIvEEEEEvE = comdat any

$_ZTSN5boost13function_baseE = comdat any

@.str = private unnamed_addr constant [11 x i8] c"Float: %f\0A\00", align 1
@.str1 = private unnamed_addr constant [13 x i8] c"Integer: %i\0A\00", align 1
@__dso_handle = external global i8
@_ZTVN10__cxxabiv120__si_class_type_infoE = external global i8*
@_ZTVN10__cxxabiv121__vmi_class_type_infoE = external global i8*
@_ZTVN10__cxxabiv117__class_type_infoE = external global i8*
@_ZTISt13runtime_error = external constant i8*
@_ZTVSt13runtime_error = external unnamed_addr constant [5 x i8*]
@_ZTVSt9exception = external unnamed_addr constant [5 x i8*]
@_ZN3ros7console13g_initializedE = external global i8
@llvm.global_ctors = appending global [1 x { i32, void ()*, i8* }] [{ i32, void ()*, i8* } { i32 65535, void ()* @_GLOBAL__sub_I_node_class.cpp, i8* null }]
@.str2 = private unnamed_addr constant [2 x i8] c"~\00", align 1
@.str10 = private unnamed_addr constant [11 x i8] c"thresh_val\00", align 1
@.str11 = private unnamed_addr constant [14 x i8] c"publish_topic\00", align 1
@.str12 = private unnamed_addr constant [13 x i8] c"give_me_info\00", align 1
@.str13 = private unnamed_addr constant [7 x i8] c"Kalman\00", align 1
@_ZStL8__ioinit = internal global %"class.std::ios_base::Init" zeroinitializer, align 1
@_ZN12_GLOBAL__N_12_1E = internal global %"class.std::ios_base::Init" zeroinitializer, align 1
@_ZN12_GLOBAL__N_12_2E = internal global %"class.std::ios_base::Init" zeroinitializer, align 1
@_ZN12_GLOBAL__N_12_3E = internal global %"class.std::ios_base::Init" zeroinitializer, align 1
@_ZN12_GLOBAL__N_12_4E = internal global %"class.std::ios_base::Init" zeroinitializer, align 1
@_ZN12_GLOBAL__N_12_5E = internal global %"class.std::ios_base::Init" zeroinitializer, align 1
@_ZN12_GLOBAL__N_12_6E = internal global %"class.std::ios_base::Init" zeroinitializer, align 1
@_ZN12_GLOBAL__N_12_7E = internal global %"class.std::ios_base::Init" zeroinitializer, align 1
@_ZN12_GLOBAL__N_12_8E = internal global %"class.std::ios_base::Init" zeroinitializer, align 1
@_ZN12_GLOBAL__N_12_9E = internal global %"class.std::ios_base::Init" zeroinitializer, align 1
@_ZZN5boost9function1IvNS_10shared_ptrIKN8std_msgs6Int16_ISaIvEEEEEE9assign_toINS_8functionIFvRKS7_EEEEEvT_E13stored_vtable = linkonce_odr global %"struct.boost::detail::function::basic_vtable1.40" { %"struct.boost::detail::function::vtable_base" { void (%"union.boost::detail::function::function_buffer"*, %"union.boost::detail::function::function_buffer"*, i32)* @_ZN5boost6detail8function15functor_managerINS_8functionIFvRKNS_10shared_ptrIKN8std_msgs6Int16_ISaIvEEEEEEEEE6manageERKNS1_15function_bufferERSG_NS1_30functor_manager_operation_typeE }, void (%"union.boost::detail::function::function_buffer"*, %"class.boost::shared_ptr.26"*)* @_ZN5boost6detail8function26void_function_obj_invoker1INS_8functionIFvRKNS_10shared_ptrIKN8std_msgs6Int16_ISaIvEEEEEEEEvSA_E6invokeERNS1_15function_bufferESA_ }, comdat, align 8
@_ZZN3ros27SubscriptionCallbackHelperTIRKN5boost10shared_ptrIKN8std_msgs6Int16_ISaIvEEEEEvE11deserializeERKNS_43SubscriptionCallbackHelperDeserializeParamsEE3loc = linkonce_odr global %"struct.ros::console::LogLocation" { i8 0, i8 0, i32 5, %"class.log4cxx::Logger"* null }, comdat, align 8
@_ZZN5boost9function1IvRKNS_10shared_ptrIKN8std_msgs6Int16_ISaIvEEEEEE9assign_toINS_3_bi6bind_tIvNS_4_mfi3mf1Iv4TestS9_EENSC_5list2INSC_5valueIPSG_EENS_3argILi1EEEEEEEEEvT_E13stored_vtable = linkonce_odr global %"struct.boost::detail::function::basic_vtable1.40" { %"struct.boost::detail::function::vtable_base" { void (%"union.boost::detail::function::function_buffer"*, %"union.boost::detail::function::function_buffer"*, i32)* @_ZN5boost6detail8function15functor_managerINS_3_bi6bind_tIvNS_4_mfi3mf1Iv4TestRKNS_10shared_ptrIKN8std_msgs6Int16_ISaIvEEEEEEENS3_5list2INS3_5valueIPS7_EENS_3argILi1EEEEEEEE6manageERKNS1_15function_bufferERSR_NS1_30functor_manager_operation_typeE }, void (%"union.boost::detail::function::function_buffer"*, %"class.boost::shared_ptr.26"*)* @_ZN5boost6detail8function26void_function_obj_invoker1INS_3_bi6bind_tIvNS_4_mfi3mf1Iv4TestRKNS_10shared_ptrIKN8std_msgs6Int16_ISaIvEEEEEEENS3_5list2INS3_5valueIPS7_EENS_3argILi1EEEEEEEvSG_E6invokeERNS1_15function_bufferESG_ }, comdat, align 8
@_ZZN5boost9function0INS_10shared_ptrIN8std_msgs6Int16_ISaIvEEEEEE9assign_toIN3ros21DefaultMessageCreatorIS5_EEEEvT_E13stored_vtable = linkonce_odr global %"struct.boost::detail::function::basic_vtable0" { %"struct.boost::detail::function::vtable_base" { void (%"union.boost::detail::function::function_buffer"*, %"union.boost::detail::function::function_buffer"*, i32)* @_ZN5boost6detail8function15functor_managerIN3ros21DefaultMessageCreatorIN8std_msgs6Int16_ISaIvEEEEEE6manageERKNS1_15function_bufferERSB_NS1_30functor_manager_operation_typeE }, void (%"class.boost::shared_ptr.26"*, %"union.boost::detail::function::function_buffer"*)* @_ZN5boost6detail8function21function_obj_invoker0IN3ros21DefaultMessageCreatorIN8std_msgs6Int16_ISaIvEEEEENS_10shared_ptrIS8_EEE6invokeERNS1_15function_bufferE }, comdat, align 8
@_ZZNK3ros9Publisher7publishIN8std_msgs6Int16_ISaIvEEEEEvRKT_E3loc = linkonce_odr global %"struct.ros::console::LogLocation" { i8 0, i8 0, i32 5, %"class.log4cxx::Logger"* null }, comdat, align 8
@_ZZNK3ros9Publisher7publishIN8std_msgs6Int16_ISaIvEEEEEvRKT_E3loc_0 = linkonce_odr global %"struct.ros::console::LogLocation" { i8 0, i8 0, i32 5, %"class.log4cxx::Logger"* null }, comdat, align 8
@_ZZNK3ros9Publisher7publishIN8std_msgs6Int16_ISaIvEEEEEvRKT_E3loc_1 = linkonce_odr global %"struct.ros::console::LogLocation" { i8 0, i8 0, i32 5, %"class.log4cxx::Logger"* null }, comdat, align 8
@_ZZNK3ros9Publisher7publishIN8std_msgs6Int16_ISaIvEEEEEvRKT_E3loc_2 = linkonce_odr global %"struct.ros::console::LogLocation" { i8 0, i8 0, i32 5, %"class.log4cxx::Logger"* null }, comdat, align 8
@_ZZNK3ros9Publisher7publishIN8std_msgs6Int16_ISaIvEEEEEvRKT_E3loc_3 = linkonce_odr global %"struct.ros::console::LogLocation" { i8 0, i8 0, i32 5, %"class.log4cxx::Logger"* null }, comdat, align 8
@_ZZNK3ros9Publisher7publishIN8std_msgs6Int16_ISaIvEEEEEvRKT_E3loc_4 = linkonce_odr global %"struct.ros::console::LogLocation" { i8 0, i8 0, i32 5, %"class.log4cxx::Logger"* null }, comdat, align 8
@_ZZNK3ros9Publisher7publishIN8std_msgs6Int16_ISaIvEEEEEvRKT_E3loc_5 = linkonce_odr global %"struct.ros::console::LogLocation" { i8 0, i8 0, i32 5, %"class.log4cxx::Logger"* null }, comdat, align 8
@_ZZNK3ros9Publisher7publishIN8std_msgs6Int16_ISaIvEEEEEvRKT_E3loc_6 = linkonce_odr global %"struct.ros::console::LogLocation" { i8 0, i8 0, i32 5, %"class.log4cxx::Logger"* null }, comdat, align 8
@_ZZNK3ros9Publisher7publishIN8std_msgs6Int16_ISaIvEEEEEvRKT_E3loc_7 = linkonce_odr global %"struct.ros::console::LogLocation" { i8 0, i8 0, i32 5, %"class.log4cxx::Logger"* null }, comdat, align 8
@_ZZN5boost9function0IN3ros17SerializedMessageEE9assign_toINS_3_bi6bind_tIS2_PFS2_RKN8std_msgs6Int16_ISaIvEEEENS5_5list1INS_17reference_wrapperISB_EEEEEEEEvT_E13stored_vtable = linkonce_odr global %"struct.boost::detail::function::basic_vtable0.68" { %"struct.boost::detail::function::vtable_base" { void (%"union.boost::detail::function::function_buffer"*, %"union.boost::detail::function::function_buffer"*, i32)* @_ZN5boost6detail8function15functor_managerINS_3_bi6bind_tIN3ros17SerializedMessageEPFS6_RKN8std_msgs6Int16_ISaIvEEEENS3_5list1INS_17reference_wrapperISB_EEEEEEE6manageERKNS1_15function_bufferERSL_NS1_30functor_manager_operation_typeE }, void (%"class.ros::SerializedMessage"*, %"union.boost::detail::function::function_buffer"*)* @_ZN5boost6detail8function21function_obj_invoker0INS_3_bi6bind_tIN3ros17SerializedMessageEPFS6_RKN8std_msgs6Int16_ISaIvEEEENS3_5list1INS_17reference_wrapperISB_EEEEEES6_E6invokeERNS1_15function_bufferE }, comdat, align 8
@_ZTIN5boost3_bi6bind_tIN3ros17SerializedMessageEPFS3_RKN8std_msgs6Int16_ISaIvEEEENS0_5list1INS_17reference_wrapperIS8_EEEEEE = linkonce_odr constant { i8*, i8* } { i8* bitcast (i8** getelementptr inbounds (i8** @_ZTVN10__cxxabiv117__class_type_infoE, i64 2) to i8*), i8* getelementptr inbounds ([121 x i8]* @_ZTSN5boost3_bi6bind_tIN3ros17SerializedMessageEPFS3_RKN8std_msgs6Int16_ISaIvEEEENS0_5list1INS_17reference_wrapperIS8_EEEEEE, i32 0, i32 0) }, comdat
@_ZTSN5boost3_bi6bind_tIN3ros17SerializedMessageEPFS3_RKN8std_msgs6Int16_ISaIvEEEENS0_5list1INS_17reference_wrapperIS8_EEEEEE = linkonce_odr constant [121 x i8] c"N5boost3_bi6bind_tIN3ros17SerializedMessageEPFS3_RKN8std_msgs6Int16_ISaIvEEEENS0_5list1INS_17reference_wrapperIS8_EEEEEE\00", comdat
@.str32 = private unnamed_addr constant [18 x i8] c"p == 0 || p != px\00", align 1
@.str33 = private unnamed_addr constant [46 x i8] c"/usr/include/boost/smart_ptr/shared_array.hpp\00", align 1
@__PRETTY_FUNCTION__._ZN5boost12shared_arrayIhE5resetEPh = private unnamed_addr constant [72 x i8] c"void boost::shared_array<unsigned char>::reset(T *) [T = unsigned char]\00", align 1
@_ZTIN5boost21checked_array_deleterIhEE = linkonce_odr constant { i8*, i8* } { i8* bitcast (i8** getelementptr inbounds (i8** @_ZTVN10__cxxabiv117__class_type_infoE, i64 2) to i8*), i8* getelementptr inbounds ([35 x i8]* @_ZTSN5boost21checked_array_deleterIhEE, i32 0, i32 0) }, comdat
@_ZTSN5boost21checked_array_deleterIhEE = linkonce_odr constant [35 x i8] c"N5boost21checked_array_deleterIhEE\00", comdat
@_ZTVN5boost6detail18sp_counted_impl_pdIPhNS_21checked_array_deleterIhEEEE = linkonce_odr unnamed_addr constant [7 x i8*] [i8* null, i8* bitcast ({ i8*, i8*, i8* }* @_ZTIN5boost6detail18sp_counted_impl_pdIPhNS_21checked_array_deleterIhEEEE to i8*), i8* bitcast (void (%"class.boost::detail::sp_counted_impl_pd.66"*)* @_ZN5boost6detail18sp_counted_impl_pdIPhNS_21checked_array_deleterIhEEED2Ev to i8*), i8* bitcast (void (%"class.boost::detail::sp_counted_impl_pd.66"*)* @_ZN5boost6detail18sp_counted_impl_pdIPhNS_21checked_array_deleterIhEEED0Ev to i8*), i8* bitcast (void (%"class.boost::detail::sp_counted_impl_pd.66"*)* @_ZN5boost6detail18sp_counted_impl_pdIPhNS_21checked_array_deleterIhEEE7disposeEv to i8*), i8* bitcast (void (%"class.boost::detail::sp_counted_base"*)* @_ZN5boost6detail15sp_counted_base7destroyEv to i8*), i8* bitcast (i8* (%"class.boost::detail::sp_counted_impl_pd.66"*, %"class.std::type_info"*)* @_ZN5boost6detail18sp_counted_impl_pdIPhNS_21checked_array_deleterIhEEE11get_deleterERKSt9type_info to i8*)], comdat, align 8
@_ZTIN5boost6detail18sp_counted_impl_pdIPhNS_21checked_array_deleterIhEEEE = linkonce_odr constant { i8*, i8*, i8* } { i8* bitcast (i8** getelementptr inbounds (i8** @_ZTVN10__cxxabiv120__si_class_type_infoE, i64 2) to i8*), i8* getelementptr inbounds ([70 x i8]* @_ZTSN5boost6detail18sp_counted_impl_pdIPhNS_21checked_array_deleterIhEEEE, i32 0, i32 0), i8* bitcast ({ i8*, i8* }* @_ZTIN5boost6detail15sp_counted_baseE to i8*) }, comdat
@_ZTSN5boost6detail18sp_counted_impl_pdIPhNS_21checked_array_deleterIhEEEE = linkonce_odr constant [70 x i8] c"N5boost6detail18sp_counted_impl_pdIPhNS_21checked_array_deleterIhEEEE\00", comdat
@_ZTIN5boost6detail15sp_counted_baseE = linkonce_odr constant { i8*, i8* } { i8* bitcast (i8** getelementptr inbounds (i8** @_ZTVN10__cxxabiv117__class_type_infoE, i64 2) to i8*), i8* getelementptr inbounds ([33 x i8]* @_ZTSN5boost6detail15sp_counted_baseE, i32 0, i32 0) }, comdat
@_ZTSN5boost6detail15sp_counted_baseE = linkonce_odr constant [33 x i8] c"N5boost6detail15sp_counted_baseE\00", comdat
@.str21 = private unnamed_addr constant [8 x i8] c"px != 0\00", align 1
@.str22 = private unnamed_addr constant [44 x i8] c"/usr/include/boost/smart_ptr/shared_ptr.hpp\00", align 1
@__PRETTY_FUNCTION__._ZNK5boost10shared_ptrIN3ros9Publisher4ImplEEptEv = private unnamed_addr constant [90 x i8] c"T *boost::shared_ptr<ros::Publisher::Impl>::operator->() const [Y = ros::Publisher::Impl]\00", align 1
@_ZTIN5boost6detail13sp_ms_deleterIN8std_msgs6Int16_ISaIvEEEEE = linkonce_odr constant { i8*, i8* } { i8* bitcast (i8** getelementptr inbounds (i8** @_ZTVN10__cxxabiv117__class_type_infoE, i64 2) to i8*), i8* getelementptr inbounds ([58 x i8]* @_ZTSN5boost6detail13sp_ms_deleterIN8std_msgs6Int16_ISaIvEEEEE, i32 0, i32 0) }, comdat
@_ZTSN5boost6detail13sp_ms_deleterIN8std_msgs6Int16_ISaIvEEEEE = linkonce_odr constant [58 x i8] c"N5boost6detail13sp_ms_deleterIN8std_msgs6Int16_ISaIvEEEEE\00", comdat
@_ZTVN5boost6detail18sp_counted_impl_pdIPN8std_msgs6Int16_ISaIvEEENS0_13sp_ms_deleterIS5_EEEE = linkonce_odr unnamed_addr constant [7 x i8*] [i8* null, i8* bitcast ({ i8*, i8*, i8* }* @_ZTIN5boost6detail18sp_counted_impl_pdIPN8std_msgs6Int16_ISaIvEEENS0_13sp_ms_deleterIS5_EEEE to i8*), i8* bitcast (void (%"class.boost::detail::sp_counted_impl_pd"*)* @_ZN5boost6detail18sp_counted_impl_pdIPN8std_msgs6Int16_ISaIvEEENS0_13sp_ms_deleterIS5_EEED2Ev to i8*), i8* bitcast (void (%"class.boost::detail::sp_counted_impl_pd"*)* @_ZN5boost6detail18sp_counted_impl_pdIPN8std_msgs6Int16_ISaIvEEENS0_13sp_ms_deleterIS5_EEED0Ev to i8*), i8* bitcast (void (%"class.boost::detail::sp_counted_impl_pd"*)* @_ZN5boost6detail18sp_counted_impl_pdIPN8std_msgs6Int16_ISaIvEEENS0_13sp_ms_deleterIS5_EEE7disposeEv to i8*), i8* bitcast (void (%"class.boost::detail::sp_counted_base"*)* @_ZN5boost6detail15sp_counted_base7destroyEv to i8*), i8* bitcast (i8* (%"class.boost::detail::sp_counted_impl_pd"*, %"class.std::type_info"*)* @_ZN5boost6detail18sp_counted_impl_pdIPN8std_msgs6Int16_ISaIvEEENS0_13sp_ms_deleterIS5_EEE11get_deleterERKSt9type_info to i8*)], comdat, align 8
@_ZTIN5boost6detail18sp_counted_impl_pdIPN8std_msgs6Int16_ISaIvEEENS0_13sp_ms_deleterIS5_EEEE = linkonce_odr constant { i8*, i8*, i8* } { i8* bitcast (i8** getelementptr inbounds (i8** @_ZTVN10__cxxabiv120__si_class_type_infoE, i64 2) to i8*), i8* getelementptr inbounds ([89 x i8]* @_ZTSN5boost6detail18sp_counted_impl_pdIPN8std_msgs6Int16_ISaIvEEENS0_13sp_ms_deleterIS5_EEEE, i32 0, i32 0), i8* bitcast ({ i8*, i8* }* @_ZTIN5boost6detail15sp_counted_baseE to i8*) }, comdat
@_ZTSN5boost6detail18sp_counted_impl_pdIPN8std_msgs6Int16_ISaIvEEENS0_13sp_ms_deleterIS5_EEEE = linkonce_odr constant [89 x i8] c"N5boost6detail18sp_counted_impl_pdIPN8std_msgs6Int16_ISaIvEEENS0_13sp_ms_deleterIS5_EEEE\00", comdat
@_ZTIN3ros21DefaultMessageCreatorIN8std_msgs6Int16_ISaIvEEEEE = linkonce_odr constant { i8*, i8* } { i8* bitcast (i8** getelementptr inbounds (i8** @_ZTVN10__cxxabiv117__class_type_infoE, i64 2) to i8*), i8* getelementptr inbounds ([57 x i8]* @_ZTSN3ros21DefaultMessageCreatorIN8std_msgs6Int16_ISaIvEEEEE, i32 0, i32 0) }, comdat
@_ZTSN3ros21DefaultMessageCreatorIN8std_msgs6Int16_ISaIvEEEEE = linkonce_odr constant [57 x i8] c"N3ros21DefaultMessageCreatorIN8std_msgs6Int16_ISaIvEEEEE\00", comdat
@_ZTIN5boost3_bi6bind_tIvNS_4_mfi3mf1Iv4TestRKNS_10shared_ptrIKN8std_msgs6Int16_ISaIvEEEEEEENS0_5list2INS0_5valueIPS4_EENS_3argILi1EEEEEEE = linkonce_odr constant { i8*, i8* } { i8* bitcast (i8** getelementptr inbounds (i8** @_ZTVN10__cxxabiv117__class_type_infoE, i64 2) to i8*), i8* getelementptr inbounds ([134 x i8]* @_ZTSN5boost3_bi6bind_tIvNS_4_mfi3mf1Iv4TestRKNS_10shared_ptrIKN8std_msgs6Int16_ISaIvEEEEEEENS0_5list2INS0_5valueIPS4_EENS_3argILi1EEEEEEE, i32 0, i32 0) }, comdat
@_ZTSN5boost3_bi6bind_tIvNS_4_mfi3mf1Iv4TestRKNS_10shared_ptrIKN8std_msgs6Int16_ISaIvEEEEEEENS0_5list2INS0_5valueIPS4_EENS_3argILi1EEEEEEE = linkonce_odr constant [134 x i8] c"N5boost3_bi6bind_tIvNS_4_mfi3mf1Iv4TestRKNS_10shared_ptrIKN8std_msgs6Int16_ISaIvEEEEEEENS0_5list2INS0_5valueIPS4_EENS_3argILi1EEEEEEE\00", comdat
@_ZTVN5boost6detail15sp_counted_baseE = linkonce_odr unnamed_addr constant [7 x i8*] [i8* null, i8* bitcast ({ i8*, i8* }* @_ZTIN5boost6detail15sp_counted_baseE to i8*), i8* bitcast (void (%"class.boost::detail::sp_counted_base"*)* @_ZN5boost6detail15sp_counted_baseD2Ev to i8*), i8* bitcast (void (%"class.boost::detail::sp_counted_base"*)* @_ZN5boost6detail15sp_counted_baseD0Ev to i8*), i8* bitcast (void ()* @__cxa_pure_virtual to i8*), i8* bitcast (void (%"class.boost::detail::sp_counted_base"*)* @_ZN5boost6detail15sp_counted_base7destroyEv to i8*), i8* bitcast (void ()* @__cxa_pure_virtual to i8*)], comdat, align 8
@_ZTVN5boost6detail17sp_counted_impl_pIN3ros27SubscriptionCallbackHelperTIRKNS_10shared_ptrIKN8std_msgs6Int16_ISaIvEEEEEvEEEE = linkonce_odr unnamed_addr constant [7 x i8*] [i8* null, i8* bitcast ({ i8*, i8*, i8* }* @_ZTIN5boost6detail17sp_counted_impl_pIN3ros27SubscriptionCallbackHelperTIRKNS_10shared_ptrIKN8std_msgs6Int16_ISaIvEEEEEvEEEE to i8*), i8* bitcast (void (%"class.boost::detail::sp_counted_impl_p"*)* @_ZN5boost6detail17sp_counted_impl_pIN3ros27SubscriptionCallbackHelperTIRKNS_10shared_ptrIKN8std_msgs6Int16_ISaIvEEEEEvEEED2Ev to i8*), i8* bitcast (void (%"class.boost::detail::sp_counted_impl_p"*)* @_ZN5boost6detail17sp_counted_impl_pIN3ros27SubscriptionCallbackHelperTIRKNS_10shared_ptrIKN8std_msgs6Int16_ISaIvEEEEEvEEED0Ev to i8*), i8* bitcast (void (%"class.boost::detail::sp_counted_impl_p"*)* @_ZN5boost6detail17sp_counted_impl_pIN3ros27SubscriptionCallbackHelperTIRKNS_10shared_ptrIKN8std_msgs6Int16_ISaIvEEEEEvEEE7disposeEv to i8*), i8* bitcast (void (%"class.boost::detail::sp_counted_base"*)* @_ZN5boost6detail15sp_counted_base7destroyEv to i8*), i8* bitcast (i8* (%"class.boost::detail::sp_counted_impl_p"*, %"class.std::type_info"*)* @_ZN5boost6detail17sp_counted_impl_pIN3ros27SubscriptionCallbackHelperTIRKNS_10shared_ptrIKN8std_msgs6Int16_ISaIvEEEEEvEEE11get_deleterERKSt9type_info to i8*)], comdat, align 8
@_ZTIN5boost6detail17sp_counted_impl_pIN3ros27SubscriptionCallbackHelperTIRKNS_10shared_ptrIKN8std_msgs6Int16_ISaIvEEEEEvEEEE = linkonce_odr constant { i8*, i8*, i8* } { i8* bitcast (i8** getelementptr inbounds (i8** @_ZTVN10__cxxabiv120__si_class_type_infoE, i64 2) to i8*), i8* getelementptr inbounds ([121 x i8]* @_ZTSN5boost6detail17sp_counted_impl_pIN3ros27SubscriptionCallbackHelperTIRKNS_10shared_ptrIKN8std_msgs6Int16_ISaIvEEEEEvEEEE, i32 0, i32 0), i8* bitcast ({ i8*, i8* }* @_ZTIN5boost6detail15sp_counted_baseE to i8*) }, comdat
@_ZTSN5boost6detail17sp_counted_impl_pIN3ros27SubscriptionCallbackHelperTIRKNS_10shared_ptrIKN8std_msgs6Int16_ISaIvEEEEEvEEEE = linkonce_odr constant [121 x i8] c"N5boost6detail17sp_counted_impl_pIN3ros27SubscriptionCallbackHelperTIRKNS_10shared_ptrIKN8std_msgs6Int16_ISaIvEEEEEvEEEE\00", comdat
@_ZTIN8std_msgs6Int16_ISaIvEEE = linkonce_odr constant { i8*, i8* } { i8* bitcast (i8** getelementptr inbounds (i8** @_ZTVN10__cxxabiv117__class_type_infoE, i64 2) to i8*), i8* getelementptr inbounds ([26 x i8]* @_ZTSN8std_msgs6Int16_ISaIvEEE, i32 0, i32 0) }, comdat
@_ZTSN8std_msgs6Int16_ISaIvEEE = linkonce_odr constant [26 x i8] c"N8std_msgs6Int16_ISaIvEEE\00", comdat
@__PRETTY_FUNCTION__._ZNK5boost10shared_ptrIN8std_msgs6Int16_ISaIvEEEEdeEv = private unnamed_addr constant [135 x i8] c"reference boost::shared_ptr<std_msgs::Int16_<std::allocator<void> > >::operator*() const [Y = std_msgs::Int16_<std::allocator<void> >]\00", align 1
@.str18 = private unnamed_addr constant [20 x i8] c"ros.unknown_package\00", align 1
@.str19 = private unnamed_addr constant [59 x i8] c"/opt/ros/groovy/include/ros/subscription_callback_helper.h\00", align 1
@__PRETTY_FUNCTION__._ZN3ros27SubscriptionCallbackHelperTIRKN5boost10shared_ptrIKN8std_msgs6Int16_ISaIvEEEEEvE11deserializeERKNS_43SubscriptionCallbackHelperDeserializeParamsE = private unnamed_addr constant [302 x i8] c"virtual VoidConstPtr ros::SubscriptionCallbackHelperT<const boost::shared_ptr<const std_msgs::Int16_<std::allocator<void> > > &, void>::deserialize(const ros::SubscriptionCallbackHelperDeserializeParams &) [P = const boost::shared_ptr<const std_msgs::Int16_<std::allocator<void> > > &, Enabled = void]\00", align 1
@.str20 = private unnamed_addr constant [43 x i8] c"Allocation failed for message of type [%s]\00", align 1
@_ZTVN3ros27SubscriptionCallbackHelperTIRKN5boost10shared_ptrIKN8std_msgs6Int16_ISaIvEEEEEvEE = linkonce_odr unnamed_addr constant [8 x i8*] [i8* null, i8* bitcast ({ i8*, i8*, i8* }* @_ZTIN3ros27SubscriptionCallbackHelperTIRKN5boost10shared_ptrIKN8std_msgs6Int16_ISaIvEEEEEvEE to i8*), i8* bitcast (void (%"class.ros::SubscriptionCallbackHelperT"*)* @_ZN3ros27SubscriptionCallbackHelperTIRKN5boost10shared_ptrIKN8std_msgs6Int16_ISaIvEEEEEvED2Ev to i8*), i8* bitcast (void (%"class.ros::SubscriptionCallbackHelperT"*)* @_ZN3ros27SubscriptionCallbackHelperTIRKN5boost10shared_ptrIKN8std_msgs6Int16_ISaIvEEEEEvED0Ev to i8*), i8* bitcast (void (%"class.boost::weak_ptr"*, %"class.ros::SubscriptionCallbackHelperT"*, %"struct.ros::SubscriptionCallbackHelperDeserializeParams"*)* @_ZN3ros27SubscriptionCallbackHelperTIRKN5boost10shared_ptrIKN8std_msgs6Int16_ISaIvEEEEEvE11deserializeERKNS_43SubscriptionCallbackHelperDeserializeParamsE to i8*), i8* bitcast (void (%"class.ros::SubscriptionCallbackHelperT"*, %"struct.ros::SubscriptionCallbackHelperCallParams"*)* @_ZN3ros27SubscriptionCallbackHelperTIRKN5boost10shared_ptrIKN8std_msgs6Int16_ISaIvEEEEEvE4callERNS_36SubscriptionCallbackHelperCallParamsE to i8*), i8* bitcast (%"class.std::type_info"* (%"class.ros::SubscriptionCallbackHelperT"*)* @_ZN3ros27SubscriptionCallbackHelperTIRKN5boost10shared_ptrIKN8std_msgs6Int16_ISaIvEEEEEvE11getTypeInfoEv to i8*), i8* bitcast (i1 (%"class.ros::SubscriptionCallbackHelperT"*)* @_ZN3ros27SubscriptionCallbackHelperTIRKN5boost10shared_ptrIKN8std_msgs6Int16_ISaIvEEEEEvE7isConstEv to i8*)], comdat, align 8
@_ZTIN3ros27SubscriptionCallbackHelperTIRKN5boost10shared_ptrIKN8std_msgs6Int16_ISaIvEEEEEvEE = linkonce_odr constant { i8*, i8*, i8* } { i8* bitcast (i8** getelementptr inbounds (i8** @_ZTVN10__cxxabiv120__si_class_type_infoE, i64 2) to i8*), i8* getelementptr inbounds ([89 x i8]* @_ZTSN3ros27SubscriptionCallbackHelperTIRKN5boost10shared_ptrIKN8std_msgs6Int16_ISaIvEEEEEvEE, i32 0, i32 0), i8* bitcast ({ i8*, i8* }* @_ZTIN3ros26SubscriptionCallbackHelperE to i8*) }, comdat
@_ZTSN3ros27SubscriptionCallbackHelperTIRKN5boost10shared_ptrIKN8std_msgs6Int16_ISaIvEEEEEvEE = linkonce_odr constant [89 x i8] c"N3ros27SubscriptionCallbackHelperTIRKN5boost10shared_ptrIKN8std_msgs6Int16_ISaIvEEEEEvEE\00", comdat
@_ZTIN3ros26SubscriptionCallbackHelperE = linkonce_odr constant { i8*, i8* } { i8* bitcast (i8** getelementptr inbounds (i8** @_ZTVN10__cxxabiv117__class_type_infoE, i64 2) to i8*), i8* getelementptr inbounds ([35 x i8]* @_ZTSN3ros26SubscriptionCallbackHelperE, i32 0, i32 0) }, comdat
@_ZTSN3ros26SubscriptionCallbackHelperE = linkonce_odr constant [35 x i8] c"N3ros26SubscriptionCallbackHelperE\00", comdat
@_ZTVN3ros26SubscriptionCallbackHelperE = linkonce_odr unnamed_addr constant [8 x i8*] [i8* null, i8* bitcast ({ i8*, i8* }* @_ZTIN3ros26SubscriptionCallbackHelperE to i8*), i8* bitcast (void (%"class.ros::SubscriptionCallbackHelper"*)* @_ZN3ros26SubscriptionCallbackHelperD2Ev to i8*), i8* bitcast (void (%"class.ros::SubscriptionCallbackHelper"*)* @_ZN3ros26SubscriptionCallbackHelperD0Ev to i8*), i8* bitcast (void ()* @__cxa_pure_virtual to i8*), i8* bitcast (void ()* @__cxa_pure_virtual to i8*), i8* bitcast (void ()* @__cxa_pure_virtual to i8*), i8* bitcast (void ()* @__cxa_pure_virtual to i8*)], comdat, align 8
@.str17 = private unnamed_addr constant [30 x i8] c"call to empty boost::function\00", align 1
@_ZTVN5boost17bad_function_callE = linkonce_odr unnamed_addr constant [5 x i8*] [i8* null, i8* bitcast ({ i8*, i8*, i8* }* @_ZTIN5boost17bad_function_callE to i8*), i8* bitcast (void (%"class.boost::bad_function_call"*)* @_ZN5boost17bad_function_callD2Ev to i8*), i8* bitcast (void (%"class.boost::bad_function_call"*)* @_ZN5boost17bad_function_callD0Ev to i8*), i8* bitcast (i8* (%"class.std::runtime_error"*)* @_ZNKSt13runtime_error4whatEv to i8*)], comdat, align 8
@_ZTIN5boost17bad_function_callE = linkonce_odr constant { i8*, i8*, i8* } { i8* bitcast (i8** getelementptr inbounds (i8** @_ZTVN10__cxxabiv120__si_class_type_infoE, i64 2) to i8*), i8* getelementptr inbounds ([28 x i8]* @_ZTSN5boost17bad_function_callE, i32 0, i32 0), i8* bitcast (i8** @_ZTISt13runtime_error to i8*) }, comdat
@_ZTSN5boost17bad_function_callE = linkonce_odr constant [28 x i8] c"N5boost17bad_function_callE\00", comdat
@_ZTVN5boost9exceptionE = linkonce_odr unnamed_addr constant [4 x i8*] [i8* null, i8* bitcast ({ i8*, i8* }* @_ZTIN5boost9exceptionE to i8*), i8* bitcast (void ()* @__cxa_pure_virtual to i8*), i8* bitcast (void ()* @__cxa_pure_virtual to i8*)], comdat, align 8
@_ZTIN5boost9exceptionE = linkonce_odr constant { i8*, i8* } { i8* bitcast (i8** getelementptr inbounds (i8** @_ZTVN10__cxxabiv117__class_type_infoE, i64 2) to i8*), i8* getelementptr inbounds ([19 x i8]* @_ZTSN5boost9exceptionE, i32 0, i32 0) }, comdat
@_ZTSN5boost9exceptionE = linkonce_odr constant [19 x i8] c"N5boost9exceptionE\00", comdat
@_ZTVN5boost16exception_detail19error_info_injectorINS_17bad_function_callEEE = linkonce_odr unnamed_addr constant [9 x i8*] [i8* null, i8* bitcast ({ i8*, i8*, i32, i32, i8*, i64, i8*, i64 }* @_ZTIN5boost16exception_detail19error_info_injectorINS_17bad_function_callEEE to i8*), i8* bitcast (void (%"struct.boost::exception_detail::error_info_injector"*)* @_ZN5boost16exception_detail19error_info_injectorINS_17bad_function_callEED2Ev to i8*), i8* bitcast (void (%"struct.boost::exception_detail::error_info_injector"*)* @_ZN5boost16exception_detail19error_info_injectorINS_17bad_function_callEED0Ev to i8*), i8* bitcast (i8* (%"class.std::runtime_error"*)* @_ZNKSt13runtime_error4whatEv to i8*), i8* inttoptr (i64 -16 to i8*), i8* bitcast ({ i8*, i8*, i32, i32, i8*, i64, i8*, i64 }* @_ZTIN5boost16exception_detail19error_info_injectorINS_17bad_function_callEEE to i8*), i8* bitcast (void (%"struct.boost::exception_detail::error_info_injector"*)* @_ZThn16_N5boost16exception_detail19error_info_injectorINS_17bad_function_callEED1Ev to i8*), i8* bitcast (void (%"struct.boost::exception_detail::error_info_injector"*)* @_ZThn16_N5boost16exception_detail19error_info_injectorINS_17bad_function_callEED0Ev to i8*)], comdat, align 8
@_ZTIN5boost16exception_detail19error_info_injectorINS_17bad_function_callEEE = linkonce_odr constant { i8*, i8*, i32, i32, i8*, i64, i8*, i64 } { i8* bitcast (i8** getelementptr inbounds (i8** @_ZTVN10__cxxabiv121__vmi_class_type_infoE, i64 2) to i8*), i8* getelementptr inbounds ([73 x i8]* @_ZTSN5boost16exception_detail19error_info_injectorINS_17bad_function_callEEE, i32 0, i32 0), i32 0, i32 2, i8* bitcast ({ i8*, i8*, i8* }* @_ZTIN5boost17bad_function_callE to i8*), i64 2, i8* bitcast ({ i8*, i8* }* @_ZTIN5boost9exceptionE to i8*), i64 4098 }, comdat
@_ZTSN5boost16exception_detail19error_info_injectorINS_17bad_function_callEEE = linkonce_odr constant [73 x i8] c"N5boost16exception_detail19error_info_injectorINS_17bad_function_callEEE\00", comdat
@_ZTIN5boost16exception_detail10clone_implINS0_19error_info_injectorINS_17bad_function_callEEEEE = linkonce_odr constant { i8*, i8*, i32, i32, i8*, i64, i8*, i64 } { i8* bitcast (i8** getelementptr inbounds (i8** @_ZTVN10__cxxabiv121__vmi_class_type_infoE, i64 2) to i8*), i8* getelementptr inbounds ([92 x i8]* @_ZTSN5boost16exception_detail10clone_implINS0_19error_info_injectorINS_17bad_function_callEEEEE, i32 0, i32 0), i32 0, i32 2, i8* bitcast ({ i8*, i8*, i32, i32, i8*, i64, i8*, i64 }* @_ZTIN5boost16exception_detail19error_info_injectorINS_17bad_function_callEEE to i8*), i64 2, i8* bitcast ({ i8*, i8* }* @_ZTIN5boost16exception_detail10clone_baseE to i8*), i64 14338 }, comdat
@_ZTSN5boost16exception_detail10clone_implINS0_19error_info_injectorINS_17bad_function_callEEEEE = linkonce_odr constant [92 x i8] c"N5boost16exception_detail10clone_implINS0_19error_info_injectorINS_17bad_function_callEEEEE\00", comdat
@_ZTIN5boost16exception_detail10clone_baseE = linkonce_odr constant { i8*, i8* } { i8* bitcast (i8** getelementptr inbounds (i8** @_ZTVN10__cxxabiv117__class_type_infoE, i64 2) to i8*), i8* getelementptr inbounds ([39 x i8]* @_ZTSN5boost16exception_detail10clone_baseE, i32 0, i32 0) }, comdat
@_ZTSN5boost16exception_detail10clone_baseE = linkonce_odr constant [39 x i8] c"N5boost16exception_detail10clone_baseE\00", comdat
@_ZTVN5boost16exception_detail10clone_baseE = linkonce_odr unnamed_addr constant [6 x i8*] [i8* null, i8* bitcast ({ i8*, i8* }* @_ZTIN5boost16exception_detail10clone_baseE to i8*), i8* bitcast (void ()* @__cxa_pure_virtual to i8*), i8* bitcast (void ()* @__cxa_pure_virtual to i8*), i8* bitcast (void (%"class.ros::SubscriptionCallbackHelper"*)* @_ZN5boost16exception_detail10clone_baseD2Ev to i8*), i8* bitcast (void (%"class.ros::SubscriptionCallbackHelper"*)* @_ZN5boost16exception_detail10clone_baseD0Ev to i8*)], comdat, align 8
@_ZTVN5boost16exception_detail10clone_implINS0_19error_info_injectorINS_17bad_function_callEEEEE = linkonce_odr unnamed_addr constant [17 x i8*] [i8* null, i8* bitcast ({ i8*, i8*, i32, i32, i8*, i64, i8*, i64 }* @_ZTIN5boost16exception_detail10clone_implINS0_19error_info_injectorINS_17bad_function_callEEEEE to i8*), i8* bitcast (void (%"class.boost::exception_detail::clone_impl"*)* @_ZN5boost16exception_detail10clone_implINS0_19error_info_injectorINS_17bad_function_callEEEED2Ev to i8*), i8* bitcast (void (%"class.boost::exception_detail::clone_impl"*)* @_ZN5boost16exception_detail10clone_implINS0_19error_info_injectorINS_17bad_function_callEEEED0Ev to i8*), i8* bitcast (i8* (%"class.std::runtime_error"*)* @_ZNKSt13runtime_error4whatEv to i8*), i8* bitcast (%"class.ros::SubscriptionCallbackHelper"* (%"class.boost::exception_detail::clone_impl"*)* @_ZNK5boost16exception_detail10clone_implINS0_19error_info_injectorINS_17bad_function_callEEEE5cloneEv to i8*), i8* bitcast (void (%"class.boost::exception_detail::clone_impl"*)* @_ZNK5boost16exception_detail10clone_implINS0_19error_info_injectorINS_17bad_function_callEEEE7rethrowEv to i8*), i8* inttoptr (i64 -16 to i8*), i8* bitcast ({ i8*, i8*, i32, i32, i8*, i64, i8*, i64 }* @_ZTIN5boost16exception_detail10clone_implINS0_19error_info_injectorINS_17bad_function_callEEEEE to i8*), i8* bitcast (void (%"class.boost::exception_detail::clone_impl"*)* @_ZThn16_N5boost16exception_detail10clone_implINS0_19error_info_injectorINS_17bad_function_callEEEED1Ev to i8*), i8* bitcast (void (%"class.boost::exception_detail::clone_impl"*)* @_ZThn16_N5boost16exception_detail10clone_implINS0_19error_info_injectorINS_17bad_function_callEEEED0Ev to i8*), i8* inttoptr (i64 -56 to i8*), i8* bitcast ({ i8*, i8*, i32, i32, i8*, i64, i8*, i64 }* @_ZTIN5boost16exception_detail10clone_implINS0_19error_info_injectorINS_17bad_function_callEEEEE to i8*), i8* bitcast (%"class.ros::SubscriptionCallbackHelper"* (%"class.boost::exception_detail::clone_impl"*)* @_ZThn56_NK5boost16exception_detail10clone_implINS0_19error_info_injectorINS_17bad_function_callEEEE5cloneEv to i8*), i8* bitcast (void (%"class.boost::exception_detail::clone_impl"*)* @_ZThn56_NK5boost16exception_detail10clone_implINS0_19error_info_injectorINS_17bad_function_callEEEE7rethrowEv to i8*), i8* bitcast (void (%"class.boost::exception_detail::clone_impl"*)* @_ZThn56_N5boost16exception_detail10clone_implINS0_19error_info_injectorINS_17bad_function_callEEEED1Ev to i8*), i8* bitcast (void (%"class.boost::exception_detail::clone_impl"*)* @_ZThn56_N5boost16exception_detail10clone_implINS0_19error_info_injectorINS_17bad_function_callEEEED0Ev to i8*)], comdat, align 8
@_ZTIN5boost8functionIFvRKNS_10shared_ptrIKN8std_msgs6Int16_ISaIvEEEEEEEE = linkonce_odr constant { i8*, i8*, i8* } { i8* bitcast (i8** getelementptr inbounds (i8** @_ZTVN10__cxxabiv120__si_class_type_infoE, i64 2) to i8*), i8* getelementptr inbounds ([69 x i8]* @_ZTSN5boost8functionIFvRKNS_10shared_ptrIKN8std_msgs6Int16_ISaIvEEEEEEEE, i32 0, i32 0), i8* bitcast ({ i8*, i8*, i32, i32, i8*, i64, i8*, i64 }* @_ZTIN5boost9function1IvRKNS_10shared_ptrIKN8std_msgs6Int16_ISaIvEEEEEEE to i8*) }, comdat
@_ZTSN5boost8functionIFvRKNS_10shared_ptrIKN8std_msgs6Int16_ISaIvEEEEEEEE = linkonce_odr constant [69 x i8] c"N5boost8functionIFvRKNS_10shared_ptrIKN8std_msgs6Int16_ISaIvEEEEEEEE\00", comdat
@_ZTIN5boost9function1IvRKNS_10shared_ptrIKN8std_msgs6Int16_ISaIvEEEEEEE = linkonce_odr constant { i8*, i8*, i32, i32, i8*, i64, i8*, i64 } { i8* bitcast (i8** getelementptr inbounds (i8** @_ZTVN10__cxxabiv121__vmi_class_type_infoE, i64 2) to i8*), i8* getelementptr inbounds ([68 x i8]* @_ZTSN5boost9function1IvRKNS_10shared_ptrIKN8std_msgs6Int16_ISaIvEEEEEEE, i32 0, i32 0), i32 0, i32 2, i8* bitcast ({ i8*, i8* }* @_ZTIN5boost13function_baseE to i8*), i64 2, i8* bitcast ({ i8*, i8* }* @_ZTISt14unary_functionIRKN5boost10shared_ptrIKN8std_msgs6Int16_ISaIvEEEEEvE to i8*), i64 2 }, comdat
@_ZTSN5boost9function1IvRKNS_10shared_ptrIKN8std_msgs6Int16_ISaIvEEEEEEE = linkonce_odr constant [68 x i8] c"N5boost9function1IvRKNS_10shared_ptrIKN8std_msgs6Int16_ISaIvEEEEEEE\00", comdat
@_ZTIN5boost13function_baseE = linkonce_odr constant { i8*, i8* } { i8* bitcast (i8** getelementptr inbounds (i8** @_ZTVN10__cxxabiv117__class_type_infoE, i64 2) to i8*), i8* getelementptr inbounds ([24 x i8]* @_ZTSN5boost13function_baseE, i32 0, i32 0) }, comdat
@_ZTISt14unary_functionIRKN5boost10shared_ptrIKN8std_msgs6Int16_ISaIvEEEEEvE = linkonce_odr constant { i8*, i8* } { i8* bitcast (i8** getelementptr inbounds (i8** @_ZTVN10__cxxabiv117__class_type_infoE, i64 2) to i8*), i8* getelementptr inbounds ([72 x i8]* @_ZTSSt14unary_functionIRKN5boost10shared_ptrIKN8std_msgs6Int16_ISaIvEEEEEvE, i32 0, i32 0) }, comdat
@_ZTSSt14unary_functionIRKN5boost10shared_ptrIKN8std_msgs6Int16_ISaIvEEEEEvE = linkonce_odr constant [72 x i8] c"St14unary_functionIRKN5boost10shared_ptrIKN8std_msgs6Int16_ISaIvEEEEEvE\00", comdat
@_ZTSN5boost13function_baseE = linkonce_odr constant [24 x i8] c"N5boost13function_baseE\00", comdat
@.str16 = private unnamed_addr constant [12 x i8] c"int16 data\0A\00", align 1
@.str15 = private unnamed_addr constant [15 x i8] c"std_msgs/Int16\00", align 1
@.str14 = private unnamed_addr constant [33 x i8] c"8524586e34fbd7cb1c08c5f5f1ca0e57\00", align 1
@.str23 = private unnamed_addr constant [40 x i8] c"/opt/ros/groovy/include/ros/publisher.h\00", align 1
@__PRETTY_FUNCTION__._ZNK3ros9Publisher7publishIN8std_msgs6Int16_ISaIvEEEEEvRKT_ = private unnamed_addr constant [92 x i8] c"void ros::Publisher::publish(const M &) const [M = std_msgs::Int16_<std::allocator<void> >]\00", align 1
@.str24 = private unnamed_addr constant [62 x i8] c"ASSERTION FAILED\0A\09file = %s\0A\09line = %d\0A\09cond = %s\0A\09message = \00", align 1
@.str25 = private unnamed_addr constant [6 x i8] c"false\00", align 1
@.str26 = private unnamed_addr constant [42 x i8] c"Call to publish() on an invalid Publisher\00", align 1
@.str27 = private unnamed_addr constant [2 x i8] c"\0A\00", align 1
@.str28 = private unnamed_addr constant [55 x i8] c"Call to publish() on an invalid Publisher (topic [%s])\00", align 1
@.str29 = private unnamed_addr constant [2 x i8] c"*\00", align 1
@.str30 = private unnamed_addr constant [112 x i8] c"impl_->md5sum_ == \22*\22 || std::string(mt::md5sum<M>(message)) == \22*\22 || impl_->md5sum_ == mt::md5sum<M>(message)\00", align 1
@.str31 = private unnamed_addr constant [75 x i8] c"Trying to publish message of type [%s/%s] on a publisher with type [%s/%s]\00", align 1
@__PRETTY_FUNCTION__._ZNK5boost10shared_ptrIKN8std_msgs6Int16_ISaIvEEEEptEv = private unnamed_addr constant [141 x i8] c"T *boost::shared_ptr<const std_msgs::Int16_<std::allocator<void> > >::operator->() const [Y = const std_msgs::Int16_<std::allocator<void> >]\00", align 1

@_ZN4TestC1Ev = alias void (%class.Test*)* @_ZN4TestC2Ev

; Function Attrs: uwtable
define void @_Z11print_floatf(float %x) #0 {
entry:
  %x.addr = alloca float, align 4
  store float %x, float* %x.addr, align 4
  call void @llvm.dbg.declare(metadata float* %x.addr, metadata !10094, metadata !10095), !dbg !10096
  %0 = load float* %x.addr, align 4, !dbg !10097
  %conv = fpext float %0 to double, !dbg !10097
  %call = call i32 (i8*, ...)* @printf(i8* getelementptr inbounds ([11 x i8]* @.str, i32 0, i32 0), double %conv), !dbg !10098
  ret void, !dbg !10099
}

; Function Attrs: nounwind readnone
declare void @llvm.dbg.declare(metadata, metadata, metadata) #1

declare i32 @printf(i8*, ...) #2

; Function Attrs: uwtable
define void @_Z9print_inti(i32 %x) #0 {
entry:
  %x.addr = alloca i32, align 4
  store i32 %x, i32* %x.addr, align 4
  call void @llvm.dbg.declare(metadata i32* %x.addr, metadata !10100, metadata !10095), !dbg !10101
  %0 = load i32* %x.addr, align 4, !dbg !10102
  %call = call i32 (i8*, ...)* @printf(i8* getelementptr inbounds ([13 x i8]* @.str1, i32 0, i32 0), i32 %0), !dbg !10103
  ret void, !dbg !10104
}

declare void @_ZNSt8ios_base4InitC1Ev(%"class.std::ios_base::Init"*) #2

declare void @_ZNSt8ios_base4InitD1Ev(%"class.std::ios_base::Init"*) #2

; Function Attrs: nounwind
declare i32 @__cxa_atexit(void (i8*)*, i8*, i8*) #3

; Function Attrs: uwtable
define void @_ZN4TestC2Ev(%class.Test* %this) unnamed_addr #0 align 2 {
entry:
  %this.addr = alloca %class.Test*, align 8
  %ref.tmp = alloca %"class.std::basic_string", align 8
  %ref.tmp2 = alloca %"class.std::ios_base::Init", align 1
  %exn.slot = alloca i8*
  %ehselector.slot = alloca i32
  %ref.tmp3 = alloca %"class.std::map", align 8
  %ref.tmp13 = alloca %"class.std::basic_string", align 8
  %ref.tmp16 = alloca %"class.std::map", align 8
  %ref.tmp32 = alloca %"class.std::basic_string", align 8
  %ref.tmp33 = alloca %"class.std::ios_base::Init", align 1
  %ref.tmp36 = alloca i32, align 4
  %ref.tmp44 = alloca %"class.ros::Publisher", align 8
  %ref.tmp46 = alloca %"class.std::basic_string", align 8
  %ref.tmp47 = alloca %"class.std::ios_base::Init", align 1
  %ref.tmp62 = alloca %"class.ros::Subscriber", align 8
  %ref.tmp64 = alloca %"class.std::basic_string", align 8
  %ref.tmp65 = alloca %"class.std::ios_base::Init", align 1
  %ref.tmp68 = alloca %"class.ros::TransportHints", align 8
  %coerce = alloca { i64, i64 }, align 8
  store %class.Test* %this, %class.Test** %this.addr, align 8
  call void @llvm.dbg.declare(metadata %class.Test** %this.addr, metadata !10105, metadata !10095), !dbg !10106
  %this1 = load %class.Test** %this.addr
  %private_nh_ = getelementptr inbounds %class.Test* %this1, i32 0, i32 0, !dbg !10107
  call void @_ZNSaIcEC1Ev(%"class.std::ios_base::Init"* %ref.tmp2) #3, !dbg !10108
  invoke void @_ZNSsC1EPKcRKSaIcE(%"class.std::basic_string"* %ref.tmp, i8* getelementptr inbounds ([2 x i8]* @.str2, i32 0, i32 0), %"class.std::ios_base::Init"* dereferenceable(1) %ref.tmp2)
          to label %invoke.cont unwind label %lpad, !dbg !10108

invoke.cont:                                      ; preds = %entry
  invoke void @_ZNSt3mapISsSsSt4lessISsESaISt4pairIKSsSsEEEC2Ev(%"class.std::map"* %ref.tmp3)
          to label %invoke.cont5 unwind label %lpad4, !dbg !10109

invoke.cont5:                                     ; preds = %invoke.cont
  invoke void @_ZN3ros10NodeHandleC1ERKSsRKSt3mapISsSsSt4lessISsESaISt4pairIS1_SsEEE(%"class.ros::NodeHandle"* %private_nh_, %"class.std::basic_string"* dereferenceable(8) %ref.tmp, %"class.std::map"* dereferenceable(48) %ref.tmp3)
          to label %invoke.cont7 unwind label %lpad6, !dbg !10111

invoke.cont7:                                     ; preds = %invoke.cont5
  invoke void @_ZNSt3mapISsSsSt4lessISsESaISt4pairIKSsSsEEED2Ev(%"class.std::map"* %ref.tmp3)
          to label %invoke.cont8 unwind label %lpad4, !dbg !10113

invoke.cont8:                                     ; preds = %invoke.cont7
  invoke void @_ZNSsD1Ev(%"class.std::basic_string"* %ref.tmp)
          to label %invoke.cont10 unwind label %lpad, !dbg !10115

invoke.cont10:                                    ; preds = %invoke.cont8
  call void @_ZNSaIcED1Ev(%"class.std::ios_base::Init"* %ref.tmp2) #3, !dbg !10117
  %nh = getelementptr inbounds %class.Test* %this1, i32 0, i32 1, !dbg !10119
  invoke void @_ZNSsC1Ev(%"class.std::basic_string"* %ref.tmp13)
          to label %invoke.cont15 unwind label %lpad14, !dbg !10119

invoke.cont15:                                    ; preds = %invoke.cont10
  invoke void @_ZNSt3mapISsSsSt4lessISsESaISt4pairIKSsSsEEEC2Ev(%"class.std::map"* %ref.tmp16)
          to label %invoke.cont18 unwind label %lpad17, !dbg !10120

invoke.cont18:                                    ; preds = %invoke.cont15
  invoke void @_ZN3ros10NodeHandleC1ERKSsRKSt3mapISsSsSt4lessISsESaISt4pairIS1_SsEEE(%"class.ros::NodeHandle"* %nh, %"class.std::basic_string"* dereferenceable(8) %ref.tmp13, %"class.std::map"* dereferenceable(48) %ref.tmp16)
          to label %invoke.cont20 unwind label %lpad19, !dbg !10122

invoke.cont20:                                    ; preds = %invoke.cont18
  invoke void @_ZNSt3mapISsSsSt4lessISsESaISt4pairIKSsSsEEED2Ev(%"class.std::map"* %ref.tmp16)
          to label %invoke.cont21 unwind label %lpad17, !dbg !10124

invoke.cont21:                                    ; preds = %invoke.cont20
  invoke void @_ZNSsD1Ev(%"class.std::basic_string"* %ref.tmp13)
          to label %invoke.cont24 unwind label %lpad14, !dbg !10126

invoke.cont24:                                    ; preds = %invoke.cont21
  %msg_sub = getelementptr inbounds %class.Test* %this1, i32 0, i32 3, !dbg !10128
  invoke void @_ZN3ros10SubscriberC2Ev(%"class.ros::Subscriber"* %msg_sub)
          to label %invoke.cont28 unwind label %lpad27, !dbg !10128

invoke.cont28:                                    ; preds = %invoke.cont24
  %msg_pub = getelementptr inbounds %class.Test* %this1, i32 0, i32 4, !dbg !10130
  invoke void @_ZN3ros9PublisherC2Ev(%"class.ros::Publisher"* %msg_pub)
          to label %invoke.cont30 unwind label %lpad29, !dbg !10130

invoke.cont30:                                    ; preds = %invoke.cont28
  %private_nh_31 = getelementptr inbounds %class.Test* %this1, i32 0, i32 0, !dbg !10132
  call void @_ZNSaIcEC1Ev(%"class.std::ios_base::Init"* %ref.tmp33) #3, !dbg !10134
  invoke void @_ZNSsC1EPKcRKSaIcE(%"class.std::basic_string"* %ref.tmp32, i8* getelementptr inbounds ([11 x i8]* @.str10, i32 0, i32 0), %"class.std::ios_base::Init"* dereferenceable(1) %ref.tmp33)
          to label %invoke.cont35 unwind label %lpad34, !dbg !10134

invoke.cont35:                                    ; preds = %invoke.cont30
  %_threshold = getelementptr inbounds %class.Test* %this1, i32 0, i32 2, !dbg !10135
  store i32 42, i32* %ref.tmp36, !dbg !10137
  invoke void @_ZNK3ros10NodeHandle5paramIiEEvRKSsRT_RKS4_(%"class.ros::NodeHandle"* %private_nh_31, %"class.std::basic_string"* dereferenceable(8) %ref.tmp32, i32* dereferenceable(4) %_threshold, i32* dereferenceable(4) %ref.tmp36)
          to label %invoke.cont38 unwind label %lpad37, !dbg !10132

invoke.cont38:                                    ; preds = %invoke.cont35
  invoke void @_ZNSsD1Ev(%"class.std::basic_string"* %ref.tmp32)
          to label %invoke.cont39 unwind label %lpad34, !dbg !10138

invoke.cont39:                                    ; preds = %invoke.cont38
  call void @_ZNSaIcED1Ev(%"class.std::ios_base::Init"* %ref.tmp33) #3, !dbg !10140
  %msg_pub43 = getelementptr inbounds %class.Test* %this1, i32 0, i32 4, !dbg !10142
  %nh45 = getelementptr inbounds %class.Test* %this1, i32 0, i32 1, !dbg !10143
  call void @_ZNSaIcEC1Ev(%"class.std::ios_base::Init"* %ref.tmp47) #3, !dbg !10144
  invoke void @_ZNSsC1EPKcRKSaIcE(%"class.std::basic_string"* %ref.tmp46, i8* getelementptr inbounds ([14 x i8]* @.str11, i32 0, i32 0), %"class.std::ios_base::Init"* dereferenceable(1) %ref.tmp47)
          to label %invoke.cont49 unwind label %lpad48, !dbg !10144

invoke.cont49:                                    ; preds = %invoke.cont39
  invoke void @_ZN3ros10NodeHandle9advertiseIN8std_msgs6Int16_ISaIvEEEEENS_9PublisherERKSsjb(%"class.ros::Publisher"* sret %ref.tmp44, %"class.ros::NodeHandle"* %nh45, %"class.std::basic_string"* dereferenceable(8) %ref.tmp46, i32 2, i1 zeroext false)
          to label %invoke.cont51 unwind label %lpad50, !dbg !10145

invoke.cont51:                                    ; preds = %invoke.cont49
  %call = invoke dereferenceable(16) %"class.ros::Publisher"* @_ZN3ros9PublisheraSERKS0_(%"class.ros::Publisher"* %msg_pub43, %"class.ros::Publisher"* dereferenceable(16) %ref.tmp44)
          to label %invoke.cont53 unwind label %lpad52, !dbg !10146

invoke.cont53:                                    ; preds = %invoke.cont51
  invoke void @_ZN3ros9PublisherD1Ev(%"class.ros::Publisher"* %ref.tmp44)
          to label %invoke.cont54 unwind label %lpad50, !dbg !10147

invoke.cont54:                                    ; preds = %invoke.cont53
  invoke void @_ZNSsD1Ev(%"class.std::basic_string"* %ref.tmp46)
          to label %invoke.cont57 unwind label %lpad48, !dbg !10148

invoke.cont57:                                    ; preds = %invoke.cont54
  call void @_ZNSaIcED1Ev(%"class.std::ios_base::Init"* %ref.tmp47) #3, !dbg !10150
  %msg_sub61 = getelementptr inbounds %class.Test* %this1, i32 0, i32 3, !dbg !10152
  %nh63 = getelementptr inbounds %class.Test* %this1, i32 0, i32 1, !dbg !10153
  call void @_ZNSaIcEC1Ev(%"class.std::ios_base::Init"* %ref.tmp65) #3, !dbg !10154
  invoke void @_ZNSsC1EPKcRKSaIcE(%"class.std::basic_string"* %ref.tmp64, i8* getelementptr inbounds ([13 x i8]* @.str12, i32 0, i32 0), %"class.std::ios_base::Init"* dereferenceable(1) %ref.tmp65)
          to label %invoke.cont67 unwind label %lpad66, !dbg !10154

invoke.cont67:                                    ; preds = %invoke.cont57
  %0 = bitcast %"class.ros::TransportHints"* %ref.tmp68 to i8*, !dbg !10155
  call void @llvm.memset.p0i8.i64(i8* %0, i8 0, i64 72, i32 8, i1 false), !dbg !10155
  invoke void @_ZN3ros14TransportHintsC2Ev(%"class.ros::TransportHints"* %ref.tmp68)
          to label %invoke.cont70 unwind label %lpad69, !dbg !10155

invoke.cont70:                                    ; preds = %invoke.cont67
  store { i64, i64 } { i64 ptrtoint (void (%class.Test*, %"class.boost::shared_ptr.26"*)* @_ZN4Test14callbackSimpleERKN5boost10shared_ptrIKN8std_msgs6Int16_ISaIvEEEEE to i64), i64 0 }, { i64, i64 }* %coerce, align 8, !dbg !10156
  %1 = getelementptr { i64, i64 }* %coerce, i32 0, i32 0, !dbg !10156
  %2 = load i64* %1, align 1, !dbg !10156
  %3 = getelementptr { i64, i64 }* %coerce, i32 0, i32 1, !dbg !10156
  %4 = load i64* %3, align 1, !dbg !10156
  invoke void @_ZN3ros10NodeHandle9subscribeIN8std_msgs6Int16_ISaIvEEE4TestEENS_10SubscriberERKSsjMT0_FvRKN5boost10shared_ptrIKT_EEEPSA_RKNS_14TransportHintsE(%"class.ros::Subscriber"* sret %ref.tmp62, %"class.ros::NodeHandle"* %nh63, %"class.std::basic_string"* dereferenceable(8) %ref.tmp64, i32 1, i64 %2, i64 %4, %class.Test* %this1, %"class.ros::TransportHints"* dereferenceable(72) %ref.tmp68)
          to label %invoke.cont72 unwind label %lpad71, !dbg !10156

invoke.cont72:                                    ; preds = %invoke.cont70
  %call75 = invoke dereferenceable(16) %"class.ros::Subscriber"* @_ZN3ros10SubscriberaSERKS0_(%"class.ros::Subscriber"* %msg_sub61, %"class.ros::Subscriber"* dereferenceable(16) %ref.tmp62)
          to label %invoke.cont74 unwind label %lpad73, !dbg !10157

invoke.cont74:                                    ; preds = %invoke.cont72
  invoke void @_ZN3ros10SubscriberD1Ev(%"class.ros::Subscriber"* %ref.tmp62)
          to label %invoke.cont76 unwind label %lpad71, !dbg !10158

invoke.cont76:                                    ; preds = %invoke.cont74
  invoke void @_ZN3ros14TransportHintsD2Ev(%"class.ros::TransportHints"* %ref.tmp68)
          to label %invoke.cont79 unwind label %lpad69, !dbg !10159

invoke.cont79:                                    ; preds = %invoke.cont76
  invoke void @_ZNSsD1Ev(%"class.std::basic_string"* %ref.tmp64)
          to label %invoke.cont82 unwind label %lpad66, !dbg !10161

invoke.cont82:                                    ; preds = %invoke.cont79
  call void @_ZNSaIcED1Ev(%"class.std::ios_base::Init"* %ref.tmp65) #3, !dbg !10163
  ret void, !dbg !10165

lpad:                                             ; preds = %invoke.cont8, %entry
  %5 = landingpad { i8*, i32 } personality i8* bitcast (i32 (...)* @__gxx_personality_v0 to i8*)
          cleanup, !dbg !10165
  %6 = extractvalue { i8*, i32 } %5, 0, !dbg !10165
  store i8* %6, i8** %exn.slot, !dbg !10165
  %7 = extractvalue { i8*, i32 } %5, 1, !dbg !10165
  store i32 %7, i32* %ehselector.slot, !dbg !10165
  br label %ehcleanup12, !dbg !10165

lpad4:                                            ; preds = %invoke.cont7, %invoke.cont
  %8 = landingpad { i8*, i32 } personality i8* bitcast (i32 (...)* @__gxx_personality_v0 to i8*)
          cleanup, !dbg !10166
  %9 = extractvalue { i8*, i32 } %8, 0, !dbg !10166
  store i8* %9, i8** %exn.slot, !dbg !10166
  %10 = extractvalue { i8*, i32 } %8, 1, !dbg !10166
  store i32 %10, i32* %ehselector.slot, !dbg !10166
  br label %ehcleanup, !dbg !10166

lpad6:                                            ; preds = %invoke.cont5
  %11 = landingpad { i8*, i32 } personality i8* bitcast (i32 (...)* @__gxx_personality_v0 to i8*)
          cleanup, !dbg !10165
  %12 = extractvalue { i8*, i32 } %11, 0, !dbg !10165
  store i8* %12, i8** %exn.slot, !dbg !10165
  %13 = extractvalue { i8*, i32 } %11, 1, !dbg !10165
  store i32 %13, i32* %ehselector.slot, !dbg !10165
  invoke void @_ZNSt3mapISsSsSt4lessISsESaISt4pairIKSsSsEEED2Ev(%"class.std::map"* %ref.tmp3)
          to label %invoke.cont9 unwind label %terminate.lpad, !dbg !10107

invoke.cont9:                                     ; preds = %lpad6
  br label %ehcleanup, !dbg !10169

ehcleanup:                                        ; preds = %invoke.cont9, %lpad4
  invoke void @_ZNSsD1Ev(%"class.std::basic_string"* %ref.tmp)
          to label %invoke.cont11 unwind label %terminate.lpad, !dbg !10171

invoke.cont11:                                    ; preds = %ehcleanup
  br label %ehcleanup12, !dbg !10174

ehcleanup12:                                      ; preds = %invoke.cont11, %lpad
  call void @_ZNSaIcED1Ev(%"class.std::ios_base::Init"* %ref.tmp2) #3, !dbg !10176
  br label %eh.resume, !dbg !10176

lpad14:                                           ; preds = %invoke.cont21, %invoke.cont10
  %14 = landingpad { i8*, i32 } personality i8* bitcast (i32 (...)* @__gxx_personality_v0 to i8*)
          cleanup, !dbg !10178
  %15 = extractvalue { i8*, i32 } %14, 0, !dbg !10178
  store i8* %15, i8** %exn.slot, !dbg !10178
  %16 = extractvalue { i8*, i32 } %14, 1, !dbg !10178
  store i32 %16, i32* %ehselector.slot, !dbg !10178
  br label %ehcleanup92, !dbg !10178

lpad17:                                           ; preds = %invoke.cont20, %invoke.cont15
  %17 = landingpad { i8*, i32 } personality i8* bitcast (i32 (...)* @__gxx_personality_v0 to i8*)
          cleanup, !dbg !10181
  %18 = extractvalue { i8*, i32 } %17, 0, !dbg !10181
  store i8* %18, i8** %exn.slot, !dbg !10181
  %19 = extractvalue { i8*, i32 } %17, 1, !dbg !10181
  store i32 %19, i32* %ehselector.slot, !dbg !10181
  br label %ehcleanup25, !dbg !10181

lpad19:                                           ; preds = %invoke.cont18
  %20 = landingpad { i8*, i32 } personality i8* bitcast (i32 (...)* @__gxx_personality_v0 to i8*)
          cleanup, !dbg !10165
  %21 = extractvalue { i8*, i32 } %20, 0, !dbg !10165
  store i8* %21, i8** %exn.slot, !dbg !10165
  %22 = extractvalue { i8*, i32 } %20, 1, !dbg !10165
  store i32 %22, i32* %ehselector.slot, !dbg !10165
  invoke void @_ZNSt3mapISsSsSt4lessISsESaISt4pairIKSsSsEEED2Ev(%"class.std::map"* %ref.tmp16)
          to label %invoke.cont23 unwind label %terminate.lpad, !dbg !10119

invoke.cont23:                                    ; preds = %lpad19
  br label %ehcleanup25, !dbg !10184

ehcleanup25:                                      ; preds = %invoke.cont23, %lpad17
  invoke void @_ZNSsD1Ev(%"class.std::basic_string"* %ref.tmp13)
          to label %invoke.cont26 unwind label %terminate.lpad, !dbg !10186

invoke.cont26:                                    ; preds = %ehcleanup25
  br label %ehcleanup92, !dbg !10189

lpad27:                                           ; preds = %invoke.cont24
  %23 = landingpad { i8*, i32 } personality i8* bitcast (i32 (...)* @__gxx_personality_v0 to i8*)
          cleanup, !dbg !10165
  %24 = extractvalue { i8*, i32 } %23, 0, !dbg !10165
  store i8* %24, i8** %exn.slot, !dbg !10165
  %25 = extractvalue { i8*, i32 } %23, 1, !dbg !10165
  store i32 %25, i32* %ehselector.slot, !dbg !10165
  br label %ehcleanup90, !dbg !10165

lpad29:                                           ; preds = %invoke.cont28
  %26 = landingpad { i8*, i32 } personality i8* bitcast (i32 (...)* @__gxx_personality_v0 to i8*)
          cleanup, !dbg !10165
  %27 = extractvalue { i8*, i32 } %26, 0, !dbg !10165
  store i8* %27, i8** %exn.slot, !dbg !10165
  %28 = extractvalue { i8*, i32 } %26, 1, !dbg !10165
  store i32 %28, i32* %ehselector.slot, !dbg !10165
  br label %ehcleanup88, !dbg !10165

lpad34:                                           ; preds = %invoke.cont38, %invoke.cont30
  %29 = landingpad { i8*, i32 } personality i8* bitcast (i32 (...)* @__gxx_personality_v0 to i8*)
          cleanup, !dbg !10191
  %30 = extractvalue { i8*, i32 } %29, 0, !dbg !10191
  store i8* %30, i8** %exn.slot, !dbg !10191
  %31 = extractvalue { i8*, i32 } %29, 1, !dbg !10191
  store i32 %31, i32* %ehselector.slot, !dbg !10191
  br label %ehcleanup42, !dbg !10191

lpad37:                                           ; preds = %invoke.cont35
  %32 = landingpad { i8*, i32 } personality i8* bitcast (i32 (...)* @__gxx_personality_v0 to i8*)
          cleanup, !dbg !10191
  %33 = extractvalue { i8*, i32 } %32, 0, !dbg !10191
  store i8* %33, i8** %exn.slot, !dbg !10191
  %34 = extractvalue { i8*, i32 } %32, 1, !dbg !10191
  store i32 %34, i32* %ehselector.slot, !dbg !10191
  invoke void @_ZNSsD1Ev(%"class.std::basic_string"* %ref.tmp32)
          to label %invoke.cont41 unwind label %terminate.lpad, !dbg !10132

invoke.cont41:                                    ; preds = %lpad37
  br label %ehcleanup42, !dbg !10192

ehcleanup42:                                      ; preds = %invoke.cont41, %lpad34
  call void @_ZNSaIcED1Ev(%"class.std::ios_base::Init"* %ref.tmp33) #3, !dbg !10193
  br label %ehcleanup86, !dbg !10193

lpad48:                                           ; preds = %invoke.cont54, %invoke.cont39
  %35 = landingpad { i8*, i32 } personality i8* bitcast (i32 (...)* @__gxx_personality_v0 to i8*)
          cleanup, !dbg !10191
  %36 = extractvalue { i8*, i32 } %35, 0, !dbg !10191
  store i8* %36, i8** %exn.slot, !dbg !10191
  %37 = extractvalue { i8*, i32 } %35, 1, !dbg !10191
  store i32 %37, i32* %ehselector.slot, !dbg !10191
  br label %ehcleanup60, !dbg !10191

lpad50:                                           ; preds = %invoke.cont53, %invoke.cont49
  %38 = landingpad { i8*, i32 } personality i8* bitcast (i32 (...)* @__gxx_personality_v0 to i8*)
          cleanup, !dbg !10191
  %39 = extractvalue { i8*, i32 } %38, 0, !dbg !10191
  store i8* %39, i8** %exn.slot, !dbg !10191
  %40 = extractvalue { i8*, i32 } %38, 1, !dbg !10191
  store i32 %40, i32* %ehselector.slot, !dbg !10191
  br label %ehcleanup58, !dbg !10191

lpad52:                                           ; preds = %invoke.cont51
  %41 = landingpad { i8*, i32 } personality i8* bitcast (i32 (...)* @__gxx_personality_v0 to i8*)
          cleanup, !dbg !10191
  %42 = extractvalue { i8*, i32 } %41, 0, !dbg !10191
  store i8* %42, i8** %exn.slot, !dbg !10191
  %43 = extractvalue { i8*, i32 } %41, 1, !dbg !10191
  store i32 %43, i32* %ehselector.slot, !dbg !10191
  invoke void @_ZN3ros9PublisherD1Ev(%"class.ros::Publisher"* %ref.tmp44)
          to label %invoke.cont56 unwind label %terminate.lpad, !dbg !10142

invoke.cont56:                                    ; preds = %lpad52
  br label %ehcleanup58, !dbg !10194

ehcleanup58:                                      ; preds = %invoke.cont56, %lpad50
  invoke void @_ZNSsD1Ev(%"class.std::basic_string"* %ref.tmp46)
          to label %invoke.cont59 unwind label %terminate.lpad, !dbg !10195

invoke.cont59:                                    ; preds = %ehcleanup58
  br label %ehcleanup60, !dbg !10196

ehcleanup60:                                      ; preds = %invoke.cont59, %lpad48
  call void @_ZNSaIcED1Ev(%"class.std::ios_base::Init"* %ref.tmp47) #3, !dbg !10198
  br label %ehcleanup86, !dbg !10198

lpad66:                                           ; preds = %invoke.cont79, %invoke.cont57
  %44 = landingpad { i8*, i32 } personality i8* bitcast (i32 (...)* @__gxx_personality_v0 to i8*)
          cleanup, !dbg !10191
  %45 = extractvalue { i8*, i32 } %44, 0, !dbg !10191
  store i8* %45, i8** %exn.slot, !dbg !10191
  %46 = extractvalue { i8*, i32 } %44, 1, !dbg !10191
  store i32 %46, i32* %ehselector.slot, !dbg !10191
  br label %ehcleanup85, !dbg !10191

lpad69:                                           ; preds = %invoke.cont76, %invoke.cont67
  %47 = landingpad { i8*, i32 } personality i8* bitcast (i32 (...)* @__gxx_personality_v0 to i8*)
          cleanup, !dbg !10199
  %48 = extractvalue { i8*, i32 } %47, 0, !dbg !10199
  store i8* %48, i8** %exn.slot, !dbg !10199
  %49 = extractvalue { i8*, i32 } %47, 1, !dbg !10199
  store i32 %49, i32* %ehselector.slot, !dbg !10199
  br label %ehcleanup83, !dbg !10199

lpad71:                                           ; preds = %invoke.cont74, %invoke.cont70
  %50 = landingpad { i8*, i32 } personality i8* bitcast (i32 (...)* @__gxx_personality_v0 to i8*)
          cleanup, !dbg !10191
  %51 = extractvalue { i8*, i32 } %50, 0, !dbg !10191
  store i8* %51, i8** %exn.slot, !dbg !10191
  %52 = extractvalue { i8*, i32 } %50, 1, !dbg !10191
  store i32 %52, i32* %ehselector.slot, !dbg !10191
  br label %ehcleanup80, !dbg !10191

lpad73:                                           ; preds = %invoke.cont72
  %53 = landingpad { i8*, i32 } personality i8* bitcast (i32 (...)* @__gxx_personality_v0 to i8*)
          cleanup, !dbg !10191
  %54 = extractvalue { i8*, i32 } %53, 0, !dbg !10191
  store i8* %54, i8** %exn.slot, !dbg !10191
  %55 = extractvalue { i8*, i32 } %53, 1, !dbg !10191
  store i32 %55, i32* %ehselector.slot, !dbg !10191
  invoke void @_ZN3ros10SubscriberD1Ev(%"class.ros::Subscriber"* %ref.tmp62)
          to label %invoke.cont78 unwind label %terminate.lpad, !dbg !10152

invoke.cont78:                                    ; preds = %lpad73
  br label %ehcleanup80, !dbg !10201

ehcleanup80:                                      ; preds = %invoke.cont78, %lpad71
  invoke void @_ZN3ros14TransportHintsD2Ev(%"class.ros::TransportHints"* %ref.tmp68)
          to label %invoke.cont81 unwind label %terminate.lpad, !dbg !10203

invoke.cont81:                                    ; preds = %ehcleanup80
  br label %ehcleanup83, !dbg !10205

ehcleanup83:                                      ; preds = %invoke.cont81, %lpad69
  invoke void @_ZNSsD1Ev(%"class.std::basic_string"* %ref.tmp64)
          to label %invoke.cont84 unwind label %terminate.lpad, !dbg !10207

invoke.cont84:                                    ; preds = %ehcleanup83
  br label %ehcleanup85, !dbg !10210

ehcleanup85:                                      ; preds = %invoke.cont84, %lpad66
  call void @_ZNSaIcED1Ev(%"class.std::ios_base::Init"* %ref.tmp65) #3, !dbg !10212
  br label %ehcleanup86, !dbg !10212

ehcleanup86:                                      ; preds = %ehcleanup85, %ehcleanup60, %ehcleanup42
  invoke void @_ZN3ros9PublisherD1Ev(%"class.ros::Publisher"* %msg_pub)
          to label %invoke.cont87 unwind label %terminate.lpad, !dbg !10191

invoke.cont87:                                    ; preds = %ehcleanup86
  br label %ehcleanup88, !dbg !10214

ehcleanup88:                                      ; preds = %invoke.cont87, %lpad29
  invoke void @_ZN3ros10SubscriberD1Ev(%"class.ros::Subscriber"* %msg_sub)
          to label %invoke.cont89 unwind label %terminate.lpad, !dbg !10215

invoke.cont89:                                    ; preds = %ehcleanup88
  br label %ehcleanup90, !dbg !10217

ehcleanup90:                                      ; preds = %invoke.cont89, %lpad27
  invoke void @_ZN3ros10NodeHandleD1Ev(%"class.ros::NodeHandle"* %nh)
          to label %invoke.cont91 unwind label %terminate.lpad, !dbg !10218

invoke.cont91:                                    ; preds = %ehcleanup90
  br label %ehcleanup92, !dbg !10220

ehcleanup92:                                      ; preds = %invoke.cont91, %invoke.cont26, %lpad14
  invoke void @_ZN3ros10NodeHandleD1Ev(%"class.ros::NodeHandle"* %private_nh_)
          to label %invoke.cont93 unwind label %terminate.lpad, !dbg !10221

invoke.cont93:                                    ; preds = %ehcleanup92
  br label %eh.resume, !dbg !10222

eh.resume:                                        ; preds = %invoke.cont93, %ehcleanup12
  %exn = load i8** %exn.slot, !dbg !10223
  %sel = load i32* %ehselector.slot, !dbg !10223
  %lpad.val = insertvalue { i8*, i32 } undef, i8* %exn, 0, !dbg !10223
  %lpad.val94 = insertvalue { i8*, i32 } %lpad.val, i32 %sel, 1, !dbg !10223
  resume { i8*, i32 } %lpad.val94, !dbg !10223

terminate.lpad:                                   ; preds = %ehcleanup92, %ehcleanup90, %ehcleanup88, %ehcleanup86, %ehcleanup83, %ehcleanup80, %lpad73, %ehcleanup58, %lpad52, %lpad37, %ehcleanup25, %lpad19, %ehcleanup, %lpad6
  %56 = landingpad { i8*, i32 } personality i8* bitcast (i32 (...)* @__gxx_personality_v0 to i8*)
          catch i8* null, !dbg !10225
  %57 = extractvalue { i8*, i32 } %56, 0, !dbg !10225
  call void @__clang_call_terminate(i8* %57) #9, !dbg !10225
  unreachable, !dbg !10225
}

; Function Attrs: nounwind
declare void @_ZNSaIcEC1Ev(%"class.std::ios_base::Init"*) #4

declare void @_ZNSsC1EPKcRKSaIcE(%"class.std::basic_string"*, i8*, %"class.std::ios_base::Init"* dereferenceable(1)) #2

declare i32 @__gxx_personality_v0(...)

declare void @_ZN3ros10NodeHandleC1ERKSsRKSt3mapISsSsSt4lessISsESaISt4pairIS1_SsEEE(%"class.ros::NodeHandle"*, %"class.std::basic_string"* dereferenceable(8), %"class.std::map"* dereferenceable(48)) #2

declare i8* @__cxa_begin_catch(i8*)

declare void @_ZSt9terminatev()

declare void @_ZNSsD1Ev(%"class.std::basic_string"*) #2

; Function Attrs: nounwind
declare void @_ZNSaIcED1Ev(%"class.std::ios_base::Init"*) #4

declare void @_ZNSsC1Ev(%"class.std::basic_string"*) #2

declare void @_ZN3ros9PublisherD1Ev(%"class.ros::Publisher"*) #2

; Function Attrs: uwtable
define void @_ZN4Test14callbackSimpleERKN5boost10shared_ptrIKN8std_msgs6Int16_ISaIvEEEEE(%class.Test* %this, %"class.boost::shared_ptr.26"* nonnull %in_msg) #0 align 2 {
entry:
  %this.addr = alloca %class.Test*, align 8
  %in_msg.addr = alloca %"class.boost::shared_ptr.26"*, align 8
  %msg = alloca %"struct.std_msgs::Int16_", align 8
  %exn.slot = alloca i8*
  %ehselector.slot = alloca i32
  store %class.Test* %this, %class.Test** %this.addr, align 8
  call void @llvm.dbg.declare(metadata %class.Test** %this.addr, metadata !10230, metadata !10095), !dbg !10231
  store %"class.boost::shared_ptr.26"* %in_msg, %"class.boost::shared_ptr.26"** %in_msg.addr, align 8
  call void @llvm.dbg.declare(metadata %"class.boost::shared_ptr.26"** %in_msg.addr, metadata !10232, metadata !10095), !dbg !10233
  %this1 = load %class.Test** %this.addr
  %0 = load %"class.boost::shared_ptr.26"** %in_msg.addr, align 8, !dbg !10234
  %call = call %"struct.std_msgs::Int16_"* @_ZNK5boost10shared_ptrIKN8std_msgs6Int16_ISaIvEEEEptEv(%"class.boost::shared_ptr.26"* %0), !dbg !10234
  %data = getelementptr inbounds %"struct.std_msgs::Int16_"* %call, i32 0, i32 0, !dbg !10236
  %1 = load i16* %data, align 2, !dbg !10236
  %conv = sext i16 %1 to i32, !dbg !10234
  %_threshold = getelementptr inbounds %class.Test* %this1, i32 0, i32 2, !dbg !10237
  %2 = load i32* %_threshold, align 4, !dbg !10237
  %cmp = icmp sgt i32 %conv, %2, !dbg !10238
  call void @print_int()
  br i1 %cmp, label %if.then, label %if.end, !dbg !10239

if.then:                                          ; preds = %entry
  call void @llvm.dbg.declare(metadata %"struct.std_msgs::Int16_"* %msg, metadata !10240, metadata !10095), !dbg !10243
  call void @_ZN8std_msgs6Int16_ISaIvEEC2Ev(%"struct.std_msgs::Int16_"* %msg), !dbg !10243
  %data2 = getelementptr inbounds %"struct.std_msgs::Int16_"* %msg, i32 0, i32 0, !dbg !10244
  store i16 42, i16* %data2, align 2, !dbg !10245
  %msg_pub = getelementptr inbounds %class.Test* %this1, i32 0, i32 4, !dbg !10246
  invoke void @_ZNK3ros9Publisher7publishIN8std_msgs6Int16_ISaIvEEEEEvRKT_(%"class.ros::Publisher"* %msg_pub, %"struct.std_msgs::Int16_"* dereferenceable(24) %msg)
          to label %invoke.cont unwind label %lpad, !dbg !10246

invoke.cont:                                      ; preds = %if.then
  call void @_ZN8std_msgs6Int16_ISaIvEED2Ev(%"struct.std_msgs::Int16_"* %msg), !dbg !10247
  br label %if.end, !dbg !10248

lpad:                                             ; preds = %if.then
  %3 = landingpad { i8*, i32 } personality i8* bitcast (i32 (...)* @__gxx_personality_v0 to i8*)
          cleanup, !dbg !10249
  %4 = extractvalue { i8*, i32 } %3, 0, !dbg !10249
  store i8* %4, i8** %exn.slot, !dbg !10249
  %5 = extractvalue { i8*, i32 } %3, 1, !dbg !10249
  store i32 %5, i32* %ehselector.slot, !dbg !10249
  invoke void @_ZN8std_msgs6Int16_ISaIvEED2Ev(%"struct.std_msgs::Int16_"* %msg)
          to label %invoke.cont3 unwind label %terminate.lpad, !dbg !10247

invoke.cont3:                                     ; preds = %lpad
  br label %eh.resume, !dbg !10250

if.end:                                           ; preds = %invoke.cont, %entry
  ret void, !dbg !10252

eh.resume:                                        ; preds = %invoke.cont3
  %exn = load i8** %exn.slot, !dbg !10253
  %sel = load i32* %ehselector.slot, !dbg !10253
  %lpad.val = insertvalue { i8*, i32 } undef, i8* %exn, 0, !dbg !10253
  %lpad.val4 = insertvalue { i8*, i32 } %lpad.val, i32 %sel, 1, !dbg !10253
  resume { i8*, i32 } %lpad.val4, !dbg !10253

terminate.lpad:                                   ; preds = %lpad
  %6 = landingpad { i8*, i32 } personality i8* bitcast (i32 (...)* @__gxx_personality_v0 to i8*)
          catch i8* null, !dbg !10255
  %7 = extractvalue { i8*, i32 } %6, 0, !dbg !10255
  call void @__clang_call_terminate(i8* %7) #9, !dbg !10255
  unreachable, !dbg !10255
}

; Function Attrs: nounwind
declare void @llvm.memset.p0i8.i64(i8* nocapture, i8, i64, i32, i1) #3

declare void @_ZN3ros10SubscriberD1Ev(%"class.ros::Subscriber"*) #2

declare void @_ZN3ros10NodeHandleD1Ev(%"class.ros::NodeHandle"*) #2

; Function Attrs: uwtable
define i32 @main(i32 %argc, i8** %argv) #0 {
entry:
  %retval = alloca i32, align 4
  %argc.addr = alloca i32, align 4
  %argv.addr = alloca i8**, align 8
  %ref.tmp = alloca %"class.std::basic_string", align 8
  %ref.tmp1 = alloca %"class.std::ios_base::Init", align 1
  %exn.slot = alloca i8*
  %ehselector.slot = alloca i32
  %test = alloca %class.Test, align 8
  %cleanup.dest.slot = alloca i32
  store i32 0, i32* %retval
  store i32 %argc, i32* %argc.addr, align 4
  call void @llvm.dbg.declare(metadata i32* %argc.addr, metadata !10257, metadata !10095), !dbg !10258
  store i8** %argv, i8*** %argv.addr, align 8
  call void @llvm.dbg.declare(metadata i8*** %argv.addr, metadata !10259, metadata !10095), !dbg !10260
  %0 = load i8*** %argv.addr, align 8, !dbg !10261
  call void @_ZNSaIcEC1Ev(%"class.std::ios_base::Init"* %ref.tmp1) #3, !dbg !10262
  invoke void @_ZNSsC1EPKcRKSaIcE(%"class.std::basic_string"* %ref.tmp, i8* getelementptr inbounds ([7 x i8]* @.str13, i32 0, i32 0), %"class.std::ios_base::Init"* dereferenceable(1) %ref.tmp1)
          to label %invoke.cont unwind label %lpad, !dbg !10262

invoke.cont:                                      ; preds = %entry
  invoke void @_ZN3ros4initERiPPcRKSsj(i32* dereferenceable(4) %argc.addr, i8** %0, %"class.std::basic_string"* dereferenceable(8) %ref.tmp, i32 0)
          to label %invoke.cont3 unwind label %lpad2, !dbg !10263

invoke.cont3:                                     ; preds = %invoke.cont
  invoke void @_ZNSsD1Ev(%"class.std::basic_string"* %ref.tmp)
          to label %invoke.cont4 unwind label %lpad, !dbg !10265

invoke.cont4:                                     ; preds = %invoke.cont3
  call void @_ZNSaIcED1Ev(%"class.std::ios_base::Init"* %ref.tmp1) #3, !dbg !10267
  call void @llvm.dbg.declare(metadata %class.Test* %test, metadata !10269, metadata !10095), !dbg !10270
  call void @_ZN4TestC1Ev(%class.Test* %test), !dbg !10270
  invoke void @_ZN3ros4spinEv()
          to label %invoke.cont7 unwind label %lpad6, !dbg !10271

invoke.cont7:                                     ; preds = %invoke.cont4
  store i32 0, i32* %retval, !dbg !10272
  store i32 1, i32* %cleanup.dest.slot
  call void @_ZN4TestD2Ev(%class.Test* %test), !dbg !10273
  %1 = load i32* %retval, !dbg !10273
  ret i32 %1, !dbg !10273

lpad:                                             ; preds = %invoke.cont3, %entry
  %2 = landingpad { i8*, i32 } personality i8* bitcast (i32 (...)* @__gxx_personality_v0 to i8*)
          cleanup, !dbg !10273
  %3 = extractvalue { i8*, i32 } %2, 0, !dbg !10273
  store i8* %3, i8** %exn.slot, !dbg !10273
  %4 = extractvalue { i8*, i32 } %2, 1, !dbg !10273
  store i32 %4, i32* %ehselector.slot, !dbg !10273
  br label %ehcleanup, !dbg !10273

lpad2:                                            ; preds = %invoke.cont
  %5 = landingpad { i8*, i32 } personality i8* bitcast (i32 (...)* @__gxx_personality_v0 to i8*)
          cleanup, !dbg !10273
  %6 = extractvalue { i8*, i32 } %5, 0, !dbg !10273
  store i8* %6, i8** %exn.slot, !dbg !10273
  %7 = extractvalue { i8*, i32 } %5, 1, !dbg !10273
  store i32 %7, i32* %ehselector.slot, !dbg !10273
  invoke void @_ZNSsD1Ev(%"class.std::basic_string"* %ref.tmp)
          to label %invoke.cont5 unwind label %terminate.lpad, !dbg !10274

invoke.cont5:                                     ; preds = %lpad2
  br label %ehcleanup, !dbg !10275

ehcleanup:                                        ; preds = %invoke.cont5, %lpad
  call void @_ZNSaIcED1Ev(%"class.std::ios_base::Init"* %ref.tmp1) #3, !dbg !10277
  br label %eh.resume, !dbg !10277

lpad6:                                            ; preds = %invoke.cont4
  %8 = landingpad { i8*, i32 } personality i8* bitcast (i32 (...)* @__gxx_personality_v0 to i8*)
          cleanup, !dbg !10273
  %9 = extractvalue { i8*, i32 } %8, 0, !dbg !10273
  store i8* %9, i8** %exn.slot, !dbg !10273
  %10 = extractvalue { i8*, i32 } %8, 1, !dbg !10273
  store i32 %10, i32* %ehselector.slot, !dbg !10273
  invoke void @_ZN4TestD2Ev(%class.Test* %test)
          to label %invoke.cont9 unwind label %terminate.lpad, !dbg !10273

invoke.cont9:                                     ; preds = %lpad6
  br label %eh.resume, !dbg !10279

eh.resume:                                        ; preds = %invoke.cont9, %ehcleanup
  %exn = load i8** %exn.slot, !dbg !10280
  %sel = load i32* %ehselector.slot, !dbg !10280
  %lpad.val = insertvalue { i8*, i32 } undef, i8* %exn, 0, !dbg !10280
  %lpad.val10 = insertvalue { i8*, i32 } %lpad.val, i32 %sel, 1, !dbg !10280
  resume { i8*, i32 } %lpad.val10, !dbg !10280

terminate.lpad:                                   ; preds = %lpad6, %lpad2
  %11 = landingpad { i8*, i32 } personality i8* bitcast (i32 (...)* @__gxx_personality_v0 to i8*)
          catch i8* null, !dbg !10282
  %12 = extractvalue { i8*, i32 } %11, 0, !dbg !10282
  call void @__clang_call_terminate(i8* %12) #9, !dbg !10282
  unreachable, !dbg !10282
}

declare void @_ZN3ros4initERiPPcRKSsj(i32* dereferenceable(4), i8**, %"class.std::basic_string"* dereferenceable(8), i32) #2

declare void @_ZN3ros4spinEv() #2

; Function Attrs: nobuiltin nounwind
declare void @_ZdlPv(i8*) #5

declare zeroext i1 @_ZNK3ros10NodeHandle8hasParamERKSs(%"class.ros::NodeHandle"*, %"class.std::basic_string"* dereferenceable(8)) #2

declare zeroext i1 @_ZNK3ros10NodeHandle8getParamERKSsRi(%"class.ros::NodeHandle"*, %"class.std::basic_string"* dereferenceable(8), i32* dereferenceable(4)) #2

declare void @_ZN3ros10NodeHandle9advertiseERNS_16AdvertiseOptionsE(%"class.ros::Publisher"* sret, %"class.ros::NodeHandle"*, %"struct.ros::AdvertiseOptions"* dereferenceable(136)) #2

declare dereferenceable(8) %"class.std::basic_string"* @_ZNSsaSERKSs(%"class.std::basic_string"*, %"class.std::basic_string"* dereferenceable(8)) #2

declare dereferenceable(8) %"class.std::basic_string"* @_ZNSsaSEPKc(%"class.std::basic_string"*, i8*) #2

; Function Attrs: nounwind
declare void @llvm.memcpy.p0i8.p0i8.i64(i8* nocapture, i8* nocapture readonly, i64, i32, i1) #3

declare void @__cxa_rethrow()

declare void @__cxa_end_catch()

declare void @_ZN3ros10NodeHandle9subscribeERNS_16SubscribeOptionsE(%"class.ros::Subscriber"* sret, %"class.ros::NodeHandle"*, %"struct.ros::SubscribeOptions"* dereferenceable(152)) #2

; Function Attrs: nobuiltin
declare noalias i8* @_Znwm(i64) #6

; Function Attrs: nounwind readonly
declare i32 @strcmp(i8*, i8*) #7

declare i8* @__cxa_allocate_exception(i64)

declare void @__cxa_throw(i8*, i8*, i8*)

declare void @__cxa_free_exception(i8*)

; Function Attrs: nounwind
declare i8* @_ZNKSt13runtime_error4whatEv(%"class.std::runtime_error"*) #4

declare void @_ZNSsC1ERKSs(%"class.std::basic_string"*, %"class.std::basic_string"* dereferenceable(8)) #2

; Function Attrs: nounwind
declare void @_ZNSt9exceptionD2Ev(%"class.ros::SubscriptionCallbackHelper"*) #4

declare void @__cxa_pure_virtual()

; Function Attrs: nounwind
declare void @_ZNSt13runtime_errorD2Ev(%"class.std::runtime_error"*) #4

declare void @__cxa_call_unexpected(i8*)

declare void @_ZNSt13runtime_errorC2ERKSs(%"class.std::runtime_error"*, %"class.std::basic_string"* dereferenceable(8)) #2

declare void @_ZN3ros7console10initializeEv() #2

declare void @_ZN3ros7console21initializeLogLocationEPNS0_11LogLocationERKSsNS0_6levels5LevelE(%"struct.ros::console::LogLocation"*, %"class.std::basic_string"* dereferenceable(8), i32) #2

declare void @_ZN3ros7console19setLogLocationLevelEPNS0_11LogLocationENS0_6levels5LevelE(%"struct.ros::console::LogLocation"*, i32) #2

declare void @_ZN3ros7console23checkLogLocationEnabledEPNS0_11LogLocationE(%"struct.ros::console::LogLocation"*) #2

declare void @_ZN3ros7console5printEPNS0_10FilterBaseEPN7log4cxx6LoggerENS0_6levels5LevelEPKciS9_S9_z(%"class.ros::SubscriptionCallbackHelper"*, %"class.log4cxx::Logger"*, i32, i8*, i32, i8*, i8*, ...) #2

declare void @_ZN3ros13serialization18throwStreamOverrunEv() #2

; Function Attrs: noreturn nounwind
declare void @__assert_fail(i8*, i8*, i32, i8*) #8

; Function Attrs: noreturn nounwind
declare void @llvm.trap() #9

; Function Attrs: noreturn
declare void @_ZSt17__throw_bad_allocv() #10

declare zeroext i1 @_ZNK3ros9Publisher4Impl7isValidEv(%"class.ros::Publisher::Impl"*) #2

declare i8* @_ZNKSs5c_strEv(%"class.std::basic_string"*) #2

declare void @_ZNK3ros9Publisher7publishERKN5boost8functionIFNS_17SerializedMessageEvEEERS3_(%"class.ros::Publisher"*, %"class.boost::function"* dereferenceable(32), %"class.ros::SerializedMessage"* dereferenceable(56)) #2

declare i32 @_ZNKSs7compareEPKc(%"class.std::basic_string"*, i8*) #2

; Function Attrs: nobuiltin nounwind
declare void @_ZdaPv(i8*) #5

; Function Attrs: nobuiltin
declare noalias i8* @_Znam(i64) #6

; Function Attrs: uwtable
define linkonce_odr void @_ZNSt3mapISsSsSt4lessISsESaISt4pairIKSsSsEEEC2Ev(%"class.std::map"* %this) unnamed_addr #0 comdat align 2 {
entry:
  %this.addr = alloca %"class.std::map"*, align 8
  store %"class.std::map"* %this, %"class.std::map"** %this.addr, align 8
  call void @llvm.dbg.declare(metadata %"class.std::map"** %this.addr, metadata !10284, metadata !10095), !dbg !10285
  %this1 = load %"class.std::map"** %this.addr
  %_M_t = getelementptr inbounds %"class.std::map"* %this1, i32 0, i32 0, !dbg !10286
  call void @_ZNSt8_Rb_treeISsSt4pairIKSsSsESt10_Select1stIS2_ESt4lessISsESaIS2_EEC2Ev(%"class.std::_Rb_tree"* %_M_t), !dbg !10286
  ret void, !dbg !10287
}

; Function Attrs: inlinehint uwtable
define linkonce_odr void @_ZNSt3mapISsSsSt4lessISsESaISt4pairIKSsSsEEED2Ev(%"class.std::map"* %this) unnamed_addr #11 comdat align 2 {
entry:
  %this.addr = alloca %"class.std::map"*, align 8
  store %"class.std::map"* %this, %"class.std::map"** %this.addr, align 8
  call void @llvm.dbg.declare(metadata %"class.std::map"** %this.addr, metadata !10288, metadata !10095), !dbg !10289
  %this1 = load %"class.std::map"** %this.addr
  %_M_t = getelementptr inbounds %"class.std::map"* %this1, i32 0, i32 0, !dbg !10290
  call void @_ZNSt8_Rb_treeISsSt4pairIKSsSsESt10_Select1stIS2_ESt4lessISsESaIS2_EED2Ev(%"class.std::_Rb_tree"* %_M_t), !dbg !10290
  ret void, !dbg !10292
}

; Function Attrs: uwtable
define linkonce_odr void @_ZN3ros10SubscriberC2Ev(%"class.ros::Subscriber"* %this) unnamed_addr #0 comdat align 2 {
entry:
  %this.addr = alloca %"class.ros::Subscriber"*, align 8
  store %"class.ros::Subscriber"* %this, %"class.ros::Subscriber"** %this.addr, align 8
  call void @llvm.dbg.declare(metadata %"class.ros::Subscriber"** %this.addr, metadata !10293, metadata !10095), !dbg !10295
  %this1 = load %"class.ros::Subscriber"** %this.addr
  %impl_ = getelementptr inbounds %"class.ros::Subscriber"* %this1, i32 0, i32 0, !dbg !10296
  call void @_ZN5boost10shared_ptrIN3ros10Subscriber4ImplEEC2Ev(%"class.boost::shared_ptr"* %impl_), !dbg !10296
  ret void, !dbg !10297
}

; Function Attrs: uwtable
define linkonce_odr void @_ZN3ros9PublisherC2Ev(%"class.ros::Publisher"* %this) unnamed_addr #0 comdat align 2 {
entry:
  %this.addr = alloca %"class.ros::Publisher"*, align 8
  store %"class.ros::Publisher"* %this, %"class.ros::Publisher"** %this.addr, align 8
  call void @llvm.dbg.declare(metadata %"class.ros::Publisher"** %this.addr, metadata !10298, metadata !10095), !dbg !10300
  %this1 = load %"class.ros::Publisher"** %this.addr
  %impl_ = getelementptr inbounds %"class.ros::Publisher"* %this1, i32 0, i32 0, !dbg !10301
  call void @_ZN5boost10shared_ptrIN3ros9Publisher4ImplEEC2Ev(%"class.boost::shared_ptr.21"* %impl_), !dbg !10301
  ret void, !dbg !10302
}

; Function Attrs: uwtable
define linkonce_odr void @_ZNK3ros10NodeHandle5paramIiEEvRKSsRT_RKS4_(%"class.ros::NodeHandle"* %this, %"class.std::basic_string"* dereferenceable(8) %param_name, i32* dereferenceable(4) %param_val, i32* dereferenceable(4) %default_val) #0 comdat align 2 {
entry:
  %this.addr = alloca %"class.ros::NodeHandle"*, align 8
  %param_name.addr = alloca %"class.std::basic_string"*, align 8
  %param_val.addr = alloca i32*, align 8
  %default_val.addr = alloca i32*, align 8
  store %"class.ros::NodeHandle"* %this, %"class.ros::NodeHandle"** %this.addr, align 8
  call void @llvm.dbg.declare(metadata %"class.ros::NodeHandle"** %this.addr, metadata !10303, metadata !10095), !dbg !10305
  store %"class.std::basic_string"* %param_name, %"class.std::basic_string"** %param_name.addr, align 8
  call void @llvm.dbg.declare(metadata %"class.std::basic_string"** %param_name.addr, metadata !10306, metadata !10095), !dbg !10308
  store i32* %param_val, i32** %param_val.addr, align 8
  call void @llvm.dbg.declare(metadata i32** %param_val.addr, metadata !10309, metadata !10095), !dbg !10310
  store i32* %default_val, i32** %default_val.addr, align 8
  call void @llvm.dbg.declare(metadata i32** %default_val.addr, metadata !10311, metadata !10095), !dbg !10312
  %this1 = load %"class.ros::NodeHandle"** %this.addr
  %0 = load %"class.std::basic_string"** %param_name.addr, align 8, !dbg !10313
  %call = call zeroext i1 @_ZNK3ros10NodeHandle8hasParamERKSs(%"class.ros::NodeHandle"* %this1, %"class.std::basic_string"* dereferenceable(8) %0), !dbg !10315
  br i1 %call, label %if.then, label %if.end4, !dbg !10316

if.then:                                          ; preds = %entry
  %1 = load %"class.std::basic_string"** %param_name.addr, align 8, !dbg !10317
  %2 = load i32** %param_val.addr, align 8, !dbg !10320
  %call2 = call zeroext i1 @_ZNK3ros10NodeHandle8getParamERKSsRi(%"class.ros::NodeHandle"* %this1, %"class.std::basic_string"* dereferenceable(8) %1, i32* dereferenceable(4) %2), !dbg !10321
  br i1 %call2, label %if.then3, label %if.end, !dbg !10322

if.then3:                                         ; preds = %if.then
  br label %return, !dbg !10323

if.end:                                           ; preds = %if.then
  br label %if.end4, !dbg !10325

if.end4:                                          ; preds = %if.end, %entry
  %3 = load i32** %default_val.addr, align 8, !dbg !10326
  %4 = load i32* %3, align 4, !dbg !10326
  %5 = load i32** %param_val.addr, align 8, !dbg !10327
  store i32 %4, i32* %5, align 4, !dbg !10328
  br label %return, !dbg !10329

return:                                           ; preds = %if.end4, %if.then3
  ret void, !dbg !10330
}

; Function Attrs: uwtable
define linkonce_odr void @_ZN3ros10NodeHandle9advertiseIN8std_msgs6Int16_ISaIvEEEEENS_9PublisherERKSsjb(%"class.ros::Publisher"* noalias sret %agg.result, %"class.ros::NodeHandle"* %this, %"class.std::basic_string"* dereferenceable(8) %topic, i32 %queue_size, i1 zeroext %latch) #0 comdat align 2 {
entry:
  %this.addr = alloca %"class.ros::NodeHandle"*, align 8
  %topic.addr = alloca %"class.std::basic_string"*, align 8
  %queue_size.addr = alloca i32, align 4
  %latch.addr = alloca i8, align 1
  %ops = alloca %"struct.ros::AdvertiseOptions", align 8
  %ref.tmp = alloca %"class.boost::function", align 8
  %exn.slot = alloca i8*
  %ehselector.slot = alloca i32
  %ref.tmp2 = alloca %"class.boost::function", align 8
  %cleanup.dest.slot = alloca i32
  store %"class.ros::NodeHandle"* %this, %"class.ros::NodeHandle"** %this.addr, align 8
  call void @llvm.dbg.declare(metadata %"class.ros::NodeHandle"** %this.addr, metadata !10332, metadata !10095), !dbg !10333
  store %"class.std::basic_string"* %topic, %"class.std::basic_string"** %topic.addr, align 8
  call void @llvm.dbg.declare(metadata %"class.std::basic_string"** %topic.addr, metadata !10334, metadata !10095), !dbg !10335
  store i32 %queue_size, i32* %queue_size.addr, align 4
  call void @llvm.dbg.declare(metadata i32* %queue_size.addr, metadata !10336, metadata !10095), !dbg !10337
  %frombool = zext i1 %latch to i8
  store i8 %frombool, i8* %latch.addr, align 1
  call void @llvm.dbg.declare(metadata i8* %latch.addr, metadata !10338, metadata !10095), !dbg !10339
  %this1 = load %"class.ros::NodeHandle"** %this.addr
  call void @llvm.dbg.declare(metadata %"struct.ros::AdvertiseOptions"* %ops, metadata !10340, metadata !10095), !dbg !10341
  call void @_ZN3ros16AdvertiseOptionsC2Ev(%"struct.ros::AdvertiseOptions"* %ops), !dbg !10341
  %0 = load %"class.std::basic_string"** %topic.addr, align 8, !dbg !10342
  %1 = load i32* %queue_size.addr, align 4, !dbg !10343
  invoke void @_ZN5boost8functionIFvRKN3ros25SingleSubscriberPublisherEEEC2Ev(%"class.boost::function"* %ref.tmp)
          to label %invoke.cont unwind label %lpad, !dbg !10344

invoke.cont:                                      ; preds = %entry
  invoke void @_ZN5boost8functionIFvRKN3ros25SingleSubscriberPublisherEEEC2Ev(%"class.boost::function"* %ref.tmp2)
          to label %invoke.cont4 unwind label %lpad3, !dbg !10345

invoke.cont4:                                     ; preds = %invoke.cont
  invoke void @_ZN3ros16AdvertiseOptions4initIN8std_msgs6Int16_ISaIvEEEEEvRKSsjRKN5boost8functionIFvRKNS_25SingleSubscriberPublisherEEEESG_(%"struct.ros::AdvertiseOptions"* %ops, %"class.std::basic_string"* dereferenceable(8) %0, i32 %1, %"class.boost::function"* dereferenceable(32) %ref.tmp, %"class.boost::function"* dereferenceable(32) %ref.tmp2)
          to label %invoke.cont6 unwind label %lpad5, !dbg !10347

invoke.cont6:                                     ; preds = %invoke.cont4
  invoke void @_ZN5boost8functionIFvRKN3ros25SingleSubscriberPublisherEEED2Ev(%"class.boost::function"* %ref.tmp2)
          to label %invoke.cont7 unwind label %lpad3, !dbg !10349

invoke.cont7:                                     ; preds = %invoke.cont6
  invoke void @_ZN5boost8functionIFvRKN3ros25SingleSubscriberPublisherEEED2Ev(%"class.boost::function"* %ref.tmp)
          to label %invoke.cont9 unwind label %lpad, !dbg !10351

invoke.cont9:                                     ; preds = %invoke.cont7
  %2 = load i8* %latch.addr, align 1, !dbg !10353
  %tobool = trunc i8 %2 to i1, !dbg !10353
  %latch11 = getelementptr inbounds %"struct.ros::AdvertiseOptions"* %ops, i32 0, i32 10, !dbg !10354
  %frombool12 = zext i1 %tobool to i8, !dbg !10355
  store i8 %frombool12, i8* %latch11, align 1, !dbg !10355
  invoke void @_ZN3ros10NodeHandle9advertiseERNS_16AdvertiseOptionsE(%"class.ros::Publisher"* sret %agg.result, %"class.ros::NodeHandle"* %this1, %"struct.ros::AdvertiseOptions"* dereferenceable(136) %ops)
          to label %invoke.cont13 unwind label %lpad, !dbg !10356

invoke.cont13:                                    ; preds = %invoke.cont9
  store i32 1, i32* %cleanup.dest.slot
  call void @_ZN3ros16AdvertiseOptionsD2Ev(%"struct.ros::AdvertiseOptions"* %ops), !dbg !10357
  ret void, !dbg !10357

lpad:                                             ; preds = %invoke.cont9, %invoke.cont7, %entry
  %3 = landingpad { i8*, i32 } personality i8* bitcast (i32 (...)* @__gxx_personality_v0 to i8*)
          cleanup, !dbg !10358
  %4 = extractvalue { i8*, i32 } %3, 0, !dbg !10358
  store i8* %4, i8** %exn.slot, !dbg !10358
  %5 = extractvalue { i8*, i32 } %3, 1, !dbg !10358
  store i32 %5, i32* %ehselector.slot, !dbg !10358
  br label %ehcleanup14, !dbg !10358

lpad3:                                            ; preds = %invoke.cont6, %invoke.cont
  %6 = landingpad { i8*, i32 } personality i8* bitcast (i32 (...)* @__gxx_personality_v0 to i8*)
          cleanup, !dbg !10361
  %7 = extractvalue { i8*, i32 } %6, 0, !dbg !10361
  store i8* %7, i8** %exn.slot, !dbg !10361
  %8 = extractvalue { i8*, i32 } %6, 1, !dbg !10361
  store i32 %8, i32* %ehselector.slot, !dbg !10361
  br label %ehcleanup, !dbg !10361

lpad5:                                            ; preds = %invoke.cont4
  %9 = landingpad { i8*, i32 } personality i8* bitcast (i32 (...)* @__gxx_personality_v0 to i8*)
          cleanup, !dbg !10357
  %10 = extractvalue { i8*, i32 } %9, 0, !dbg !10357
  store i8* %10, i8** %exn.slot, !dbg !10357
  %11 = extractvalue { i8*, i32 } %9, 1, !dbg !10357
  store i32 %11, i32* %ehselector.slot, !dbg !10357
  invoke void @_ZN5boost8functionIFvRKN3ros25SingleSubscriberPublisherEEED2Ev(%"class.boost::function"* %ref.tmp2)
          to label %invoke.cont8 unwind label %terminate.lpad, !dbg !10344

invoke.cont8:                                     ; preds = %lpad5
  br label %ehcleanup, !dbg !10364

ehcleanup:                                        ; preds = %invoke.cont8, %lpad3
  invoke void @_ZN5boost8functionIFvRKN3ros25SingleSubscriberPublisherEEED2Ev(%"class.boost::function"* %ref.tmp)
          to label %invoke.cont10 unwind label %terminate.lpad, !dbg !10366

invoke.cont10:                                    ; preds = %ehcleanup
  br label %ehcleanup14, !dbg !10369

ehcleanup14:                                      ; preds = %invoke.cont10, %lpad
  invoke void @_ZN3ros16AdvertiseOptionsD2Ev(%"struct.ros::AdvertiseOptions"* %ops)
          to label %invoke.cont15 unwind label %terminate.lpad, !dbg !10357

invoke.cont15:                                    ; preds = %ehcleanup14
  br label %eh.resume, !dbg !10371

eh.resume:                                        ; preds = %invoke.cont15
  %exn = load i8** %exn.slot, !dbg !10372
  %sel = load i32* %ehselector.slot, !dbg !10372
  %lpad.val = insertvalue { i8*, i32 } undef, i8* %exn, 0, !dbg !10372
  %lpad.val16 = insertvalue { i8*, i32 } %lpad.val, i32 %sel, 1, !dbg !10372
  resume { i8*, i32 } %lpad.val16, !dbg !10372

terminate.lpad:                                   ; preds = %ehcleanup14, %ehcleanup, %lpad5
  %12 = landingpad { i8*, i32 } personality i8* bitcast (i32 (...)* @__gxx_personality_v0 to i8*)
          catch i8* null, !dbg !10373
  %13 = extractvalue { i8*, i32 } %12, 0, !dbg !10373
  call void @__clang_call_terminate(i8* %13) #9, !dbg !10373
  unreachable, !dbg !10373
}

; Function Attrs: inlinehint uwtable
define linkonce_odr dereferenceable(16) %"class.ros::Publisher"* @_ZN3ros9PublisheraSERKS0_(%"class.ros::Publisher"* %this, %"class.ros::Publisher"* dereferenceable(16)) #11 comdat align 2 {
entry:
  %this.addr = alloca %"class.ros::Publisher"*, align 8
  %.addr = alloca %"class.ros::Publisher"*, align 8
  store %"class.ros::Publisher"* %this, %"class.ros::Publisher"** %this.addr, align 8
  call void @llvm.dbg.declare(metadata %"class.ros::Publisher"** %this.addr, metadata !10376, metadata !10095), !dbg !10377
  store %"class.ros::Publisher"* %0, %"class.ros::Publisher"** %.addr, align 8
  call void @llvm.dbg.declare(metadata %"class.ros::Publisher"** %.addr, metadata !10378, metadata !10095), !dbg !10377
  %this1 = load %"class.ros::Publisher"** %this.addr
  %impl_ = getelementptr inbounds %"class.ros::Publisher"* %this1, i32 0, i32 0, !dbg !10379
  %1 = load %"class.ros::Publisher"** %.addr, align 8, !dbg !10379
  %impl_2 = getelementptr inbounds %"class.ros::Publisher"* %1, i32 0, i32 0, !dbg !10379
  %call = call dereferenceable(16) %"class.boost::shared_ptr.21"* @_ZN5boost10shared_ptrIN3ros9Publisher4ImplEEaSERKS4_(%"class.boost::shared_ptr.21"* %impl_, %"class.boost::shared_ptr.21"* dereferenceable(16) %impl_2), !dbg !10379
  ret %"class.ros::Publisher"* %this1, !dbg !10379
}

; Function Attrs: inlinehint uwtable
define linkonce_odr void @_ZN3ros14TransportHintsC2Ev(%"class.ros::TransportHints"* %this) unnamed_addr #11 comdat align 2 {
entry:
  %this.addr = alloca %"class.ros::TransportHints"*, align 8
  %exn.slot = alloca i8*
  %ehselector.slot = alloca i32
  store %"class.ros::TransportHints"* %this, %"class.ros::TransportHints"** %this.addr, align 8
  call void @llvm.dbg.declare(metadata %"class.ros::TransportHints"** %this.addr, metadata !10381, metadata !10095), !dbg !10383
  %this1 = load %"class.ros::TransportHints"** %this.addr
  %transports_ = getelementptr inbounds %"class.ros::TransportHints"* %this1, i32 0, i32 0, !dbg !10384
  call void @_ZNSt6vectorISsSaISsEEC2Ev(%"class.std::vector"* %transports_), !dbg !10384
  %options_ = getelementptr inbounds %"class.ros::TransportHints"* %this1, i32 0, i32 1, !dbg !10384
  invoke void @_ZNSt3mapISsSsSt4lessISsESaISt4pairIKSsSsEEEC2Ev(%"class.std::map"* %options_)
          to label %invoke.cont unwind label %lpad, !dbg !10384

invoke.cont:                                      ; preds = %entry
  ret void, !dbg !10385

lpad:                                             ; preds = %entry
  %0 = landingpad { i8*, i32 } personality i8* bitcast (i32 (...)* @__gxx_personality_v0 to i8*)
          cleanup, !dbg !10387
  %1 = extractvalue { i8*, i32 } %0, 0, !dbg !10387
  store i8* %1, i8** %exn.slot, !dbg !10387
  %2 = extractvalue { i8*, i32 } %0, 1, !dbg !10387
  store i32 %2, i32* %ehselector.slot, !dbg !10387
  invoke void @_ZNSt6vectorISsSaISsEED2Ev(%"class.std::vector"* %transports_)
          to label %invoke.cont2 unwind label %terminate.lpad, !dbg !10389

invoke.cont2:                                     ; preds = %lpad
  br label %eh.resume, !dbg !10391

eh.resume:                                        ; preds = %invoke.cont2
  %exn = load i8** %exn.slot, !dbg !10393
  %sel = load i32* %ehselector.slot, !dbg !10393
  %lpad.val = insertvalue { i8*, i32 } undef, i8* %exn, 0, !dbg !10393
  %lpad.val3 = insertvalue { i8*, i32 } %lpad.val, i32 %sel, 1, !dbg !10393
  resume { i8*, i32 } %lpad.val3, !dbg !10393

terminate.lpad:                                   ; preds = %lpad
  %3 = landingpad { i8*, i32 } personality i8* bitcast (i32 (...)* @__gxx_personality_v0 to i8*)
          catch i8* null, !dbg !10395
  %4 = extractvalue { i8*, i32 } %3, 0, !dbg !10395
  call void @__clang_call_terminate(i8* %4) #9, !dbg !10395
  unreachable, !dbg !10395
}

; Function Attrs: uwtable
define linkonce_odr void @_ZN3ros10NodeHandle9subscribeIN8std_msgs6Int16_ISaIvEEE4TestEENS_10SubscriberERKSsjMT0_FvRKN5boost10shared_ptrIKT_EEEPSA_RKNS_14TransportHintsE(%"class.ros::Subscriber"* noalias sret %agg.result, %"class.ros::NodeHandle"* %this, %"class.std::basic_string"* dereferenceable(8) %topic, i32 %queue_size, i64 %fp.coerce0, i64 %fp.coerce1, %class.Test* %obj, %"class.ros::TransportHints"* dereferenceable(72) %transport_hints) #0 comdat align 2 {
entry:
  %fp = alloca { i64, i64 }, align 8
  %this.addr = alloca %"class.ros::NodeHandle"*, align 8
  %topic.addr = alloca %"class.std::basic_string"*, align 8
  %queue_size.addr = alloca i32, align 4
  %fp.addr = alloca { i64, i64 }, align 8
  %obj.addr = alloca %class.Test*, align 8
  %transport_hints.addr = alloca %"class.ros::TransportHints"*, align 8
  %ops = alloca %"struct.ros::SubscribeOptions", align 8
  %ref.tmp = alloca %"class.boost::function", align 8
  %agg.tmp = alloca %"class.boost::_bi::bind_t", align 8
  %agg.tmp3 = alloca %"class.std::ios_base::Init", align 1
  %coerce = alloca { i64, i64 }, align 8
  %exn.slot = alloca i8*
  %ehselector.slot = alloca i32
  %ref.tmp5 = alloca %"class.boost::function", align 8
  %agg.tmp6 = alloca %"class.std::ios_base::Init", align 1
  %cleanup.dest.slot = alloca i32
  %0 = getelementptr { i64, i64 }* %fp, i32 0, i32 0
  store i64 %fp.coerce0, i64* %0
  %1 = getelementptr { i64, i64 }* %fp, i32 0, i32 1
  store i64 %fp.coerce1, i64* %1
  %fp1 = load { i64, i64 }* %fp, align 8
  store %"class.ros::NodeHandle"* %this, %"class.ros::NodeHandle"** %this.addr, align 8
  call void @llvm.dbg.declare(metadata %"class.ros::NodeHandle"** %this.addr, metadata !10397, metadata !10095), !dbg !10398
  store %"class.std::basic_string"* %topic, %"class.std::basic_string"** %topic.addr, align 8
  call void @llvm.dbg.declare(metadata %"class.std::basic_string"** %topic.addr, metadata !10399, metadata !10095), !dbg !10400
  store i32 %queue_size, i32* %queue_size.addr, align 4
  call void @llvm.dbg.declare(metadata i32* %queue_size.addr, metadata !10401, metadata !10095), !dbg !10402
  store { i64, i64 } %fp1, { i64, i64 }* %fp.addr, align 8
  call void @llvm.dbg.declare(metadata { i64, i64 }* %fp.addr, metadata !10403, metadata !10095), !dbg !10404
  store %class.Test* %obj, %class.Test** %obj.addr, align 8
  call void @llvm.dbg.declare(metadata %class.Test** %obj.addr, metadata !10405, metadata !10095), !dbg !10406
  store %"class.ros::TransportHints"* %transport_hints, %"class.ros::TransportHints"** %transport_hints.addr, align 8
  call void @llvm.dbg.declare(metadata %"class.ros::TransportHints"** %transport_hints.addr, metadata !10407, metadata !10095), !dbg !10408
  %this2 = load %"class.ros::NodeHandle"** %this.addr
  call void @llvm.dbg.declare(metadata %"struct.ros::SubscribeOptions"* %ops, metadata !10409, metadata !10095), !dbg !10410
  call void @_ZN3ros16SubscribeOptionsC2Ev(%"struct.ros::SubscribeOptions"* %ops), !dbg !10410
  %2 = load %"class.std::basic_string"** %topic.addr, align 8, !dbg !10411
  %3 = load i32* %queue_size.addr, align 4, !dbg !10412
  %4 = load { i64, i64 }* %fp.addr, align 8, !dbg !10413
  %5 = load %class.Test** %obj.addr, align 8, !dbg !10414
  store { i64, i64 } %4, { i64, i64 }* %coerce, align 8, !dbg !10415
  %6 = getelementptr { i64, i64 }* %coerce, i32 0, i32 0, !dbg !10415
  %7 = load i64* %6, align 1, !dbg !10415
  %8 = getelementptr { i64, i64 }* %coerce, i32 0, i32 1, !dbg !10415
  %9 = load i64* %8, align 1, !dbg !10415
  invoke void @_ZN5boost4bindIv4TestRKNS_10shared_ptrIKN8std_msgs6Int16_ISaIvEEEEEPS1_NS_3argILi1EEEEENS_3_bi6bind_tIT_NS_4_mfi3mf1ISG_T0_T1_EENSE_9list_av_2IT2_T3_E4typeEEEMSJ_FSG_SK_ESN_SO_(%"class.boost::_bi::bind_t"* sret %agg.tmp, i64 %7, i64 %9, %class.Test* %5)
          to label %invoke.cont unwind label %lpad, !dbg !10415

invoke.cont:                                      ; preds = %entry
  invoke void @_ZN5boost8functionIFvRKNS_10shared_ptrIKN8std_msgs6Int16_ISaIvEEEEEEEC2INS_3_bi6bind_tIvNS_4_mfi3mf1Iv4TestS9_EENSD_5list2INSD_5valueIPSH_EENS_3argILi1EEEEEEEEET_NS_11enable_if_cIXsr5boost11type_traits7ice_notIXsr11is_integralISR_EE5valueEEE5valueEiE4typeE(%"class.boost::function"* %ref.tmp, %"class.boost::_bi::bind_t"* byval align 8 %agg.tmp, i32 0)
          to label %invoke.cont4 unwind label %lpad, !dbg !10416

invoke.cont4:                                     ; preds = %invoke.cont
  invoke void @_ZN5boost8functionIFNS_10shared_ptrIN8std_msgs6Int16_ISaIvEEEEEvEEC2IN3ros21DefaultMessageCreatorIS5_EEEET_NS_11enable_if_cIXsr5boost11type_traits7ice_notIXsr11is_integralISD_EE5valueEEE5valueEiE4typeE(%"class.boost::function"* %ref.tmp5, i32 0)
          to label %invoke.cont8 unwind label %lpad7, !dbg !10418

invoke.cont8:                                     ; preds = %invoke.cont4
  invoke void @_ZN3ros16SubscribeOptions4initIN8std_msgs6Int16_ISaIvEEEEEvRKSsjRKN5boost8functionIFvRKNS8_10shared_ptrIKT_EEEEERKNS9_IFNSA_ISB_EEvEEE(%"struct.ros::SubscribeOptions"* %ops, %"class.std::basic_string"* dereferenceable(8) %2, i32 %3, %"class.boost::function"* dereferenceable(32) %ref.tmp, %"class.boost::function"* dereferenceable(32) %ref.tmp5)
          to label %invoke.cont10 unwind label %lpad9, !dbg !10420

invoke.cont10:                                    ; preds = %invoke.cont8
  invoke void @_ZN5boost8functionIFNS_10shared_ptrIN8std_msgs6Int16_ISaIvEEEEEvEED2Ev(%"class.boost::function"* %ref.tmp5)
          to label %invoke.cont11 unwind label %lpad7, !dbg !10422

invoke.cont11:                                    ; preds = %invoke.cont10
  invoke void @_ZN5boost8functionIFvRKNS_10shared_ptrIKN8std_msgs6Int16_ISaIvEEEEEEED2Ev(%"class.boost::function"* %ref.tmp)
          to label %invoke.cont13 unwind label %lpad, !dbg !10424

invoke.cont13:                                    ; preds = %invoke.cont11
  %transport_hints15 = getelementptr inbounds %"struct.ros::SubscribeOptions"* %ops, i32 0, i32 8, !dbg !10426
  %10 = load %"class.ros::TransportHints"** %transport_hints.addr, align 8, !dbg !10427
  %call = invoke dereferenceable(72) %"class.ros::TransportHints"* @_ZN3ros14TransportHintsaSERKS0_(%"class.ros::TransportHints"* %transport_hints15, %"class.ros::TransportHints"* dereferenceable(72) %10)
          to label %invoke.cont16 unwind label %lpad, !dbg !10428

invoke.cont16:                                    ; preds = %invoke.cont13
  invoke void @_ZN3ros10NodeHandle9subscribeERNS_16SubscribeOptionsE(%"class.ros::Subscriber"* sret %agg.result, %"class.ros::NodeHandle"* %this2, %"struct.ros::SubscribeOptions"* dereferenceable(152) %ops)
          to label %invoke.cont17 unwind label %lpad, !dbg !10429

invoke.cont17:                                    ; preds = %invoke.cont16
  store i32 1, i32* %cleanup.dest.slot
  call void @_ZN3ros16SubscribeOptionsD2Ev(%"struct.ros::SubscribeOptions"* %ops), !dbg !10430
  ret void, !dbg !10430

lpad:                                             ; preds = %invoke.cont16, %invoke.cont13, %invoke.cont11, %invoke.cont, %entry
  %11 = landingpad { i8*, i32 } personality i8* bitcast (i32 (...)* @__gxx_personality_v0 to i8*)
          cleanup, !dbg !10430
  %12 = extractvalue { i8*, i32 } %11, 0, !dbg !10430
  store i8* %12, i8** %exn.slot, !dbg !10430
  %13 = extractvalue { i8*, i32 } %11, 1, !dbg !10430
  store i32 %13, i32* %ehselector.slot, !dbg !10430
  br label %ehcleanup18, !dbg !10430

lpad7:                                            ; preds = %invoke.cont10, %invoke.cont4
  %14 = landingpad { i8*, i32 } personality i8* bitcast (i32 (...)* @__gxx_personality_v0 to i8*)
          cleanup, !dbg !10431
  %15 = extractvalue { i8*, i32 } %14, 0, !dbg !10431
  store i8* %15, i8** %exn.slot, !dbg !10431
  %16 = extractvalue { i8*, i32 } %14, 1, !dbg !10431
  store i32 %16, i32* %ehselector.slot, !dbg !10431
  br label %ehcleanup, !dbg !10431

lpad9:                                            ; preds = %invoke.cont8
  %17 = landingpad { i8*, i32 } personality i8* bitcast (i32 (...)* @__gxx_personality_v0 to i8*)
          cleanup, !dbg !10430
  %18 = extractvalue { i8*, i32 } %17, 0, !dbg !10430
  store i8* %18, i8** %exn.slot, !dbg !10430
  %19 = extractvalue { i8*, i32 } %17, 1, !dbg !10430
  store i32 %19, i32* %ehselector.slot, !dbg !10430
  invoke void @_ZN5boost8functionIFNS_10shared_ptrIN8std_msgs6Int16_ISaIvEEEEEvEED2Ev(%"class.boost::function"* %ref.tmp5)
          to label %invoke.cont12 unwind label %terminate.lpad, !dbg !10434

invoke.cont12:                                    ; preds = %lpad9
  br label %ehcleanup, !dbg !10435

ehcleanup:                                        ; preds = %invoke.cont12, %lpad7
  invoke void @_ZN5boost8functionIFvRKNS_10shared_ptrIKN8std_msgs6Int16_ISaIvEEEEEEED2Ev(%"class.boost::function"* %ref.tmp)
          to label %invoke.cont14 unwind label %terminate.lpad, !dbg !10437

invoke.cont14:                                    ; preds = %ehcleanup
  br label %ehcleanup18, !dbg !10440

ehcleanup18:                                      ; preds = %invoke.cont14, %lpad
  invoke void @_ZN3ros16SubscribeOptionsD2Ev(%"struct.ros::SubscribeOptions"* %ops)
          to label %invoke.cont19 unwind label %terminate.lpad, !dbg !10442

invoke.cont19:                                    ; preds = %ehcleanup18
  br label %eh.resume, !dbg !10443

eh.resume:                                        ; preds = %invoke.cont19
  %exn = load i8** %exn.slot, !dbg !10444
  %sel = load i32* %ehselector.slot, !dbg !10444
  %lpad.val = insertvalue { i8*, i32 } undef, i8* %exn, 0, !dbg !10444
  %lpad.val20 = insertvalue { i8*, i32 } %lpad.val, i32 %sel, 1, !dbg !10444
  resume { i8*, i32 } %lpad.val20, !dbg !10444

terminate.lpad:                                   ; preds = %ehcleanup18, %ehcleanup, %lpad9
  %20 = landingpad { i8*, i32 } personality i8* bitcast (i32 (...)* @__gxx_personality_v0 to i8*)
          catch i8* null, !dbg !10445
  %21 = extractvalue { i8*, i32 } %20, 0, !dbg !10445
  call void @__clang_call_terminate(i8* %21) #9, !dbg !10445
  unreachable, !dbg !10445
}

; Function Attrs: inlinehint uwtable
define linkonce_odr dereferenceable(16) %"class.ros::Subscriber"* @_ZN3ros10SubscriberaSERKS0_(%"class.ros::Subscriber"* %this, %"class.ros::Subscriber"* dereferenceable(16)) #11 comdat align 2 {
entry:
  %this.addr = alloca %"class.ros::Subscriber"*, align 8
  %.addr = alloca %"class.ros::Subscriber"*, align 8
  store %"class.ros::Subscriber"* %this, %"class.ros::Subscriber"** %this.addr, align 8
  call void @llvm.dbg.declare(metadata %"class.ros::Subscriber"** %this.addr, metadata !10448, metadata !10095), !dbg !10449
  store %"class.ros::Subscriber"* %0, %"class.ros::Subscriber"** %.addr, align 8
  call void @llvm.dbg.declare(metadata %"class.ros::Subscriber"** %.addr, metadata !10450, metadata !10095), !dbg !10449
  %this1 = load %"class.ros::Subscriber"** %this.addr
  %impl_ = getelementptr inbounds %"class.ros::Subscriber"* %this1, i32 0, i32 0, !dbg !10451
  %1 = load %"class.ros::Subscriber"** %.addr, align 8, !dbg !10451
  %impl_2 = getelementptr inbounds %"class.ros::Subscriber"* %1, i32 0, i32 0, !dbg !10451
  %call = call dereferenceable(16) %"class.boost::shared_ptr"* @_ZN5boost10shared_ptrIN3ros10Subscriber4ImplEEaSERKS4_(%"class.boost::shared_ptr"* %impl_, %"class.boost::shared_ptr"* dereferenceable(16) %impl_2), !dbg !10451
  ret %"class.ros::Subscriber"* %this1, !dbg !10451
}

; Function Attrs: inlinehint uwtable
define linkonce_odr void @_ZN3ros14TransportHintsD2Ev(%"class.ros::TransportHints"* %this) unnamed_addr #11 comdat align 2 {
entry:
  %this.addr = alloca %"class.ros::TransportHints"*, align 8
  %exn.slot = alloca i8*
  %ehselector.slot = alloca i32
  store %"class.ros::TransportHints"* %this, %"class.ros::TransportHints"** %this.addr, align 8
  call void @llvm.dbg.declare(metadata %"class.ros::TransportHints"** %this.addr, metadata !10453, metadata !10095), !dbg !10454
  %this1 = load %"class.ros::TransportHints"** %this.addr
  %options_ = getelementptr inbounds %"class.ros::TransportHints"* %this1, i32 0, i32 1, !dbg !10455
  invoke void @_ZNSt3mapISsSsSt4lessISsESaISt4pairIKSsSsEEED2Ev(%"class.std::map"* %options_)
          to label %invoke.cont unwind label %lpad, !dbg !10455

invoke.cont:                                      ; preds = %entry
  %transports_ = getelementptr inbounds %"class.ros::TransportHints"* %this1, i32 0, i32 0, !dbg !10457
  call void @_ZNSt6vectorISsSaISsEED2Ev(%"class.std::vector"* %transports_), !dbg !10457
  ret void, !dbg !10459

lpad:                                             ; preds = %entry
  %0 = landingpad { i8*, i32 } personality i8* bitcast (i32 (...)* @__gxx_personality_v0 to i8*)
          cleanup, !dbg !10460
  %1 = extractvalue { i8*, i32 } %0, 0, !dbg !10460
  store i8* %1, i8** %exn.slot, !dbg !10460
  %2 = extractvalue { i8*, i32 } %0, 1, !dbg !10460
  store i32 %2, i32* %ehselector.slot, !dbg !10460
  %transports_2 = getelementptr inbounds %"class.ros::TransportHints"* %this1, i32 0, i32 0, !dbg !10455
  invoke void @_ZNSt6vectorISsSaISsEED2Ev(%"class.std::vector"* %transports_2)
          to label %invoke.cont3 unwind label %terminate.lpad, !dbg !10455

invoke.cont3:                                     ; preds = %lpad
  br label %eh.resume, !dbg !10462

eh.resume:                                        ; preds = %invoke.cont3
  %exn = load i8** %exn.slot, !dbg !10464
  %sel = load i32* %ehselector.slot, !dbg !10464
  %lpad.val = insertvalue { i8*, i32 } undef, i8* %exn, 0, !dbg !10464
  %lpad.val4 = insertvalue { i8*, i32 } %lpad.val, i32 %sel, 1, !dbg !10464
  resume { i8*, i32 } %lpad.val4, !dbg !10464

terminate.lpad:                                   ; preds = %lpad
  %3 = landingpad { i8*, i32 } personality i8* bitcast (i32 (...)* @__gxx_personality_v0 to i8*)
          catch i8* null, !dbg !10466
  %4 = extractvalue { i8*, i32 } %3, 0, !dbg !10466
  call void @__clang_call_terminate(i8* %4) #9, !dbg !10466
  unreachable, !dbg !10466
}

; Function Attrs: noinline noreturn nounwind
define linkonce_odr hidden void @__clang_call_terminate(i8*) #12 comdat {
  %2 = call i8* @__cxa_begin_catch(i8* %0) #3
  call void @_ZSt9terminatev() #9
  unreachable
}

; Function Attrs: nounwind uwtable
define linkonce_odr %"struct.std_msgs::Int16_"* @_ZNK5boost10shared_ptrIKN8std_msgs6Int16_ISaIvEEEEptEv(%"class.boost::shared_ptr.26"* %this) #13 comdat align 2 {
entry:
  %this.addr = alloca %"class.boost::shared_ptr.26"*, align 8
  store %"class.boost::shared_ptr.26"* %this, %"class.boost::shared_ptr.26"** %this.addr, align 8
  call void @llvm.dbg.declare(metadata %"class.boost::shared_ptr.26"** %this.addr, metadata !10468, metadata !10095), !dbg !10470
  %this1 = load %"class.boost::shared_ptr.26"** %this.addr
  %px = getelementptr inbounds %"class.boost::shared_ptr.26"* %this1, i32 0, i32 0, !dbg !10471
  %0 = load %"struct.std_msgs::Int16_"** %px, align 8, !dbg !10471
  %cmp = icmp ne %"struct.std_msgs::Int16_"* %0, null, !dbg !10471
  br i1 %cmp, label %cond.true, label %cond.false, !dbg !10471

cond.true:                                        ; preds = %entry
  br label %cond.end, !dbg !10472

cond.false:                                       ; preds = %entry
  call void @__assert_fail(i8* getelementptr inbounds ([8 x i8]* @.str21, i32 0, i32 0), i8* getelementptr inbounds ([44 x i8]* @.str22, i32 0, i32 0), i32 418, i8* getelementptr inbounds ([141 x i8]* @__PRETTY_FUNCTION__._ZNK5boost10shared_ptrIKN8std_msgs6Int16_ISaIvEEEEptEv, i32 0, i32 0)) #9, !dbg !10474
  unreachable, !dbg !10474
                                                  ; No predecessors!
  br label %cond.end, !dbg !10471

cond.end:                                         ; preds = %1, %cond.true
  %px2 = getelementptr inbounds %"class.boost::shared_ptr.26"* %this1, i32 0, i32 0, !dbg !10476
  %2 = load %"struct.std_msgs::Int16_"** %px2, align 8, !dbg !10476
  ret %"struct.std_msgs::Int16_"* %2, !dbg !10477
}

; Function Attrs: uwtable
define linkonce_odr void @_ZN8std_msgs6Int16_ISaIvEEC2Ev(%"struct.std_msgs::Int16_"* %this) unnamed_addr #0 comdat align 2 {
entry:
  %this.addr = alloca %"struct.std_msgs::Int16_"*, align 8
  store %"struct.std_msgs::Int16_"* %this, %"struct.std_msgs::Int16_"** %this.addr, align 8
  call void @llvm.dbg.declare(metadata %"struct.std_msgs::Int16_"** %this.addr, metadata !10478, metadata !10095), !dbg !10479
  %this1 = load %"struct.std_msgs::Int16_"** %this.addr
  %data = getelementptr inbounds %"struct.std_msgs::Int16_"* %this1, i32 0, i32 0, !dbg !10480
  store i16 0, i16* %data, align 2, !dbg !10480
  %__connection_header = getelementptr inbounds %"struct.std_msgs::Int16_"* %this1, i32 0, i32 1, !dbg !10481
  call void @_ZN5boost10shared_ptrISt3mapISsSsSt4lessISsESaISt4pairIKSsSsEEEEC2Ev(%"class.boost::shared_ptr.27"* %__connection_header), !dbg !10481
  ret void, !dbg !10482
}

; Function Attrs: uwtable
define linkonce_odr void @_ZNK3ros9Publisher7publishIN8std_msgs6Int16_ISaIvEEEEEvRKT_(%"class.ros::Publisher"* %this, %"struct.std_msgs::Int16_"* dereferenceable(24) %message) #0 comdat align 2 {
entry:
  %this.addr = alloca %"class.ros::Publisher"*, align 8
  %message.addr = alloca %"struct.std_msgs::Int16_"*, align 8
  %ref.tmp = alloca %"class.std::basic_string", align 8
  %ref.tmp8 = alloca %"class.std::ios_base::Init", align 1
  %exn.slot = alloca i8*
  %ehselector.slot = alloca i32
  %enabled = alloca i8, align 1
  %ref.tmp31 = alloca %"class.std::basic_string", align 8
  %ref.tmp32 = alloca %"class.std::ios_base::Init", align 1
  %enabled45 = alloca i8, align 1
  %ref.tmp64 = alloca %"class.std::basic_string", align 8
  %ref.tmp65 = alloca %"class.std::ios_base::Init", align 1
  %enabled78 = alloca i8, align 1
  %ref.tmp104 = alloca %"class.std::basic_string", align 8
  %ref.tmp105 = alloca %"class.std::ios_base::Init", align 1
  %enabled118 = alloca i8, align 1
  %ref.tmp137 = alloca %"class.std::basic_string", align 8
  %ref.tmp138 = alloca %"class.std::ios_base::Init", align 1
  %enabled151 = alloca i8, align 1
  %ref.tmp173 = alloca %"class.std::basic_string", align 8
  %ref.tmp174 = alloca %"class.std::ios_base::Init", align 1
  %enabled187 = alloca i8, align 1
  %ref.tmp202 = alloca %"class.std::basic_string", align 8
  %ref.tmp204 = alloca %"class.std::ios_base::Init", align 1
  %cleanup.cond = alloca i1
  %cleanup.cond207 = alloca i1
  %ref.tmp244 = alloca %"class.std::basic_string", align 8
  %ref.tmp245 = alloca %"class.std::ios_base::Init", align 1
  %enabled258 = alloca i8, align 1
  %ref.tmp277 = alloca %"class.std::basic_string", align 8
  %ref.tmp278 = alloca %"class.std::ios_base::Init", align 1
  %enabled291 = alloca i8, align 1
  %ref.tmp319 = alloca %"class.std::basic_string", align 8
  %ref.tmp320 = alloca %"class.std::ios_base::Init", align 1
  %enabled333 = alloca i8, align 1
  %m = alloca %"class.ros::SerializedMessage", align 8
  %ref.tmp344 = alloca %"class.boost::function", align 8
  %agg.tmp = alloca %"class.boost::_bi::bind_t.63", align 8
  %agg.tmp345 = alloca %"class.boost::reference_wrapper", align 8
  store %"class.ros::Publisher"* %this, %"class.ros::Publisher"** %this.addr, align 8
  call void @llvm.dbg.declare(metadata %"class.ros::Publisher"** %this.addr, metadata !10483, metadata !10095), !dbg !10485
  store %"struct.std_msgs::Int16_"* %message, %"struct.std_msgs::Int16_"** %message.addr, align 8
  call void @llvm.dbg.declare(metadata %"struct.std_msgs::Int16_"** %message.addr, metadata !10486, metadata !10095), !dbg !10487
  %this1 = load %"class.ros::Publisher"** %this.addr
  %impl_ = getelementptr inbounds %"class.ros::Publisher"* %this1, i32 0, i32 0, !dbg !10488
  %call = call zeroext i1 @_ZNK5boost10shared_ptrIN3ros9Publisher4ImplEEntEv(%"class.boost::shared_ptr.21"* %impl_), !dbg !10490
  br i1 %call, label %if.then, label %if.end88, !dbg !10491

if.then:                                          ; preds = %entry
  br label %do.body, !dbg !10492

do.body:                                          ; preds = %if.then
  br label %do.body2, !dbg !10494

do.body2:                                         ; preds = %do.body
  br label %do.body3, !dbg !10499

do.body3:                                         ; preds = %do.body2
  %0 = load i8* @_ZN3ros7console13g_initializedE, align 1, !dbg !10502
  %tobool = trunc i8 %0 to i1, !dbg !10502
  %lnot = xor i1 %tobool, true, !dbg !10502
  br i1 %lnot, label %if.then4, label %if.end, !dbg !10506

if.then4:                                         ; preds = %do.body3
  call void @_ZN3ros7console10initializeEv(), !dbg !10507
  br label %if.end, !dbg !10507

if.end:                                           ; preds = %if.then4, %do.body3
  br label %do.end, !dbg !10510

do.end:                                           ; preds = %if.end
  %1 = load i8* getelementptr inbounds (%"struct.ros::console::LogLocation"* @_ZZNK3ros9Publisher7publishIN8std_msgs6Int16_ISaIvEEEEEvRKT_E3loc, i32 0, i32 0), align 1, !dbg !10513
  %tobool5 = trunc i8 %1 to i1, !dbg !10513
  %lnot6 = xor i1 %tobool5, true, !dbg !10513
  br i1 %lnot6, label %if.then7, label %if.end13, !dbg !10516

if.then7:                                         ; preds = %do.end
  call void @_ZNSaIcEC1Ev(%"class.std::ios_base::Init"* %ref.tmp8) #3, !dbg !10517
  invoke void @_ZNSsC1EPKcRKSaIcE(%"class.std::basic_string"* %ref.tmp, i8* getelementptr inbounds ([20 x i8]* @.str18, i32 0, i32 0), %"class.std::ios_base::Init"* dereferenceable(1) %ref.tmp8)
          to label %invoke.cont unwind label %lpad, !dbg !10517

invoke.cont:                                      ; preds = %if.then7
  invoke void @_ZN3ros7console21initializeLogLocationEPNS0_11LogLocationERKSsNS0_6levels5LevelE(%"struct.ros::console::LogLocation"* @_ZZNK3ros9Publisher7publishIN8std_msgs6Int16_ISaIvEEEEEvRKT_E3loc, %"class.std::basic_string"* dereferenceable(8) %ref.tmp, i32 4)
          to label %invoke.cont10 unwind label %lpad9, !dbg !10520

invoke.cont10:                                    ; preds = %invoke.cont
  invoke void @_ZNSsD1Ev(%"class.std::basic_string"* %ref.tmp)
          to label %invoke.cont11 unwind label %lpad, !dbg !10522

invoke.cont11:                                    ; preds = %invoke.cont10
  call void @_ZNSaIcED1Ev(%"class.std::ios_base::Init"* %ref.tmp8) #3, !dbg !10524
  br label %if.end13, !dbg !10524

lpad:                                             ; preds = %invoke.cont10, %if.then7
  %2 = landingpad { i8*, i32 } personality i8* bitcast (i32 (...)* @__gxx_personality_v0 to i8*)
          cleanup, !dbg !10526
  %3 = extractvalue { i8*, i32 } %2, 0, !dbg !10526
  store i8* %3, i8** %exn.slot, !dbg !10526
  %4 = extractvalue { i8*, i32 } %2, 1, !dbg !10526
  store i32 %4, i32* %ehselector.slot, !dbg !10526
  br label %ehcleanup, !dbg !10526

lpad9:                                            ; preds = %invoke.cont
  %5 = landingpad { i8*, i32 } personality i8* bitcast (i32 (...)* @__gxx_personality_v0 to i8*)
          cleanup, !dbg !10526
  %6 = extractvalue { i8*, i32 } %5, 0, !dbg !10526
  store i8* %6, i8** %exn.slot, !dbg !10526
  %7 = extractvalue { i8*, i32 } %5, 1, !dbg !10526
  store i32 %7, i32* %ehselector.slot, !dbg !10526
  invoke void @_ZNSsD1Ev(%"class.std::basic_string"* %ref.tmp)
          to label %invoke.cont12 unwind label %terminate.lpad, !dbg !10527

invoke.cont12:                                    ; preds = %lpad9
  br label %ehcleanup, !dbg !10528

ehcleanup:                                        ; preds = %invoke.cont12, %lpad
  call void @_ZNSaIcED1Ev(%"class.std::ios_base::Init"* %ref.tmp8) #3, !dbg !10530
  br label %eh.resume, !dbg !10530

if.end13:                                         ; preds = %invoke.cont11, %do.end
  %8 = load i32* getelementptr inbounds (%"struct.ros::console::LogLocation"* @_ZZNK3ros9Publisher7publishIN8std_msgs6Int16_ISaIvEEEEEvRKT_E3loc, i32 0, i32 2), align 4, !dbg !10532
  %cmp = icmp ne i32 %8, 4, !dbg !10532
  br i1 %cmp, label %if.then14, label %if.end15, !dbg !10516

if.then14:                                        ; preds = %if.end13
  call void @_ZN3ros7console19setLogLocationLevelEPNS0_11LogLocationENS0_6levels5LevelE(%"struct.ros::console::LogLocation"* @_ZZNK3ros9Publisher7publishIN8std_msgs6Int16_ISaIvEEEEEvRKT_E3loc, i32 4), !dbg !10536
  call void @_ZN3ros7console23checkLogLocationEnabledEPNS0_11LogLocationE(%"struct.ros::console::LogLocation"* @_ZZNK3ros9Publisher7publishIN8std_msgs6Int16_ISaIvEEEEEvRKT_E3loc), !dbg !10536
  br label %if.end15, !dbg !10536

if.end15:                                         ; preds = %if.then14, %if.end13
  call void @llvm.dbg.declare(metadata i8* %enabled, metadata !10539, metadata !10095), !dbg !10516
  %9 = load i8* getelementptr inbounds (%"struct.ros::console::LogLocation"* @_ZZNK3ros9Publisher7publishIN8std_msgs6Int16_ISaIvEEEEEvRKT_E3loc, i32 0, i32 1), align 1, !dbg !10540
  %tobool16 = trunc i8 %9 to i1, !dbg !10540
  br i1 %tobool16, label %land.rhs, label %land.end, !dbg !10540

land.rhs:                                         ; preds = %if.end15
  br label %land.end

land.end:                                         ; preds = %land.rhs, %if.end15
  %10 = phi i1 [ false, %if.end15 ], [ true, %land.rhs ]
  %frombool = zext i1 %10 to i8, !dbg !10543
  store i8 %frombool, i8* %enabled, align 1, !dbg !10543
  %11 = load i8* %enabled, align 1, !dbg !10545
  %tobool17 = trunc i8 %11 to i1, !dbg !10545
  br i1 %tobool17, label %if.then18, label %if.end19, !dbg !10516

if.then18:                                        ; preds = %land.end
  %12 = load %"class.log4cxx::Logger"** getelementptr inbounds (%"struct.ros::console::LogLocation"* @_ZZNK3ros9Publisher7publishIN8std_msgs6Int16_ISaIvEEEEEvRKT_E3loc, i32 0, i32 3), align 8, !dbg !10547
  %13 = load i32* getelementptr inbounds (%"struct.ros::console::LogLocation"* @_ZZNK3ros9Publisher7publishIN8std_msgs6Int16_ISaIvEEEEEvRKT_E3loc, i32 0, i32 2), align 4, !dbg !10547
  call void (%"class.ros::SubscriptionCallbackHelper"*, %"class.log4cxx::Logger"*, i32, i8*, i32, i8*, i8*, ...)* @_ZN3ros7console5printEPNS0_10FilterBaseEPN7log4cxx6LoggerENS0_6levels5LevelEPKciS9_S9_z(%"class.ros::SubscriptionCallbackHelper"* null, %"class.log4cxx::Logger"* %12, i32 %13, i8* getelementptr inbounds ([40 x i8]* @.str23, i32 0, i32 0), i32 102, i8* getelementptr inbounds ([92 x i8]* @__PRETTY_FUNCTION__._ZNK3ros9Publisher7publishIN8std_msgs6Int16_ISaIvEEEEEvRKT_, i32 0, i32 0), i8* getelementptr inbounds ([62 x i8]* @.str24, i32 0, i32 0), i8* getelementptr inbounds ([40 x i8]* @.str23, i32 0, i32 0), i32 102, i8* getelementptr inbounds ([6 x i8]* @.str25, i32 0, i32 0)), !dbg !10547
  br label %if.end19, !dbg !10547

if.end19:                                         ; preds = %if.then18, %land.end
  br label %do.end20, !dbg !10550

do.end20:                                         ; preds = %if.end19
  br label %do.body21, !dbg !10553

do.body21:                                        ; preds = %do.end20
  br label %do.body22, !dbg !10555

do.body22:                                        ; preds = %do.body21
  %14 = load i8* @_ZN3ros7console13g_initializedE, align 1, !dbg !10558
  %tobool23 = trunc i8 %14 to i1, !dbg !10558
  %lnot24 = xor i1 %tobool23, true, !dbg !10558
  br i1 %lnot24, label %if.then25, label %if.end26, !dbg !10562

if.then25:                                        ; preds = %do.body22
  call void @_ZN3ros7console10initializeEv(), !dbg !10563
  br label %if.end26, !dbg !10563

if.end26:                                         ; preds = %if.then25, %do.body22
  br label %do.end27, !dbg !10566

do.end27:                                         ; preds = %if.end26
  %15 = load i8* getelementptr inbounds (%"struct.ros::console::LogLocation"* @_ZZNK3ros9Publisher7publishIN8std_msgs6Int16_ISaIvEEEEEvRKT_E3loc_0, i32 0, i32 0), align 1, !dbg !10569
  %tobool28 = trunc i8 %15 to i1, !dbg !10569
  %lnot29 = xor i1 %tobool28, true, !dbg !10569
  br i1 %lnot29, label %if.then30, label %if.end41, !dbg !10572

if.then30:                                        ; preds = %do.end27
  call void @_ZNSaIcEC1Ev(%"class.std::ios_base::Init"* %ref.tmp32) #3, !dbg !10573
  invoke void @_ZNSsC1EPKcRKSaIcE(%"class.std::basic_string"* %ref.tmp31, i8* getelementptr inbounds ([20 x i8]* @.str18, i32 0, i32 0), %"class.std::ios_base::Init"* dereferenceable(1) %ref.tmp32)
          to label %invoke.cont34 unwind label %lpad33, !dbg !10573

invoke.cont34:                                    ; preds = %if.then30
  invoke void @_ZN3ros7console21initializeLogLocationEPNS0_11LogLocationERKSsNS0_6levels5LevelE(%"struct.ros::console::LogLocation"* @_ZZNK3ros9Publisher7publishIN8std_msgs6Int16_ISaIvEEEEEvRKT_E3loc_0, %"class.std::basic_string"* dereferenceable(8) %ref.tmp31, i32 4)
          to label %invoke.cont36 unwind label %lpad35, !dbg !10576

invoke.cont36:                                    ; preds = %invoke.cont34
  invoke void @_ZNSsD1Ev(%"class.std::basic_string"* %ref.tmp31)
          to label %invoke.cont37 unwind label %lpad33, !dbg !10578

invoke.cont37:                                    ; preds = %invoke.cont36
  call void @_ZNSaIcED1Ev(%"class.std::ios_base::Init"* %ref.tmp32) #3, !dbg !10580
  br label %if.end41, !dbg !10580

lpad33:                                           ; preds = %invoke.cont36, %if.then30
  %16 = landingpad { i8*, i32 } personality i8* bitcast (i32 (...)* @__gxx_personality_v0 to i8*)
          cleanup, !dbg !10582
  %17 = extractvalue { i8*, i32 } %16, 0, !dbg !10582
  store i8* %17, i8** %exn.slot, !dbg !10582
  %18 = extractvalue { i8*, i32 } %16, 1, !dbg !10582
  store i32 %18, i32* %ehselector.slot, !dbg !10582
  br label %ehcleanup40, !dbg !10582

lpad35:                                           ; preds = %invoke.cont34
  %19 = landingpad { i8*, i32 } personality i8* bitcast (i32 (...)* @__gxx_personality_v0 to i8*)
          cleanup, !dbg !10582
  %20 = extractvalue { i8*, i32 } %19, 0, !dbg !10582
  store i8* %20, i8** %exn.slot, !dbg !10582
  %21 = extractvalue { i8*, i32 } %19, 1, !dbg !10582
  store i32 %21, i32* %ehselector.slot, !dbg !10582
  invoke void @_ZNSsD1Ev(%"class.std::basic_string"* %ref.tmp31)
          to label %invoke.cont39 unwind label %terminate.lpad, !dbg !10583

invoke.cont39:                                    ; preds = %lpad35
  br label %ehcleanup40, !dbg !10584

ehcleanup40:                                      ; preds = %invoke.cont39, %lpad33
  call void @_ZNSaIcED1Ev(%"class.std::ios_base::Init"* %ref.tmp32) #3, !dbg !10586
  br label %eh.resume, !dbg !10586

if.end41:                                         ; preds = %invoke.cont37, %do.end27
  %22 = load i32* getelementptr inbounds (%"struct.ros::console::LogLocation"* @_ZZNK3ros9Publisher7publishIN8std_msgs6Int16_ISaIvEEEEEvRKT_E3loc_0, i32 0, i32 2), align 4, !dbg !10588
  %cmp42 = icmp ne i32 %22, 4, !dbg !10588
  br i1 %cmp42, label %if.then43, label %if.end44, !dbg !10572

if.then43:                                        ; preds = %if.end41
  call void @_ZN3ros7console19setLogLocationLevelEPNS0_11LogLocationENS0_6levels5LevelE(%"struct.ros::console::LogLocation"* @_ZZNK3ros9Publisher7publishIN8std_msgs6Int16_ISaIvEEEEEvRKT_E3loc_0, i32 4), !dbg !10592
  call void @_ZN3ros7console23checkLogLocationEnabledEPNS0_11LogLocationE(%"struct.ros::console::LogLocation"* @_ZZNK3ros9Publisher7publishIN8std_msgs6Int16_ISaIvEEEEEvRKT_E3loc_0), !dbg !10592
  br label %if.end44, !dbg !10592

if.end44:                                         ; preds = %if.then43, %if.end41
  call void @llvm.dbg.declare(metadata i8* %enabled45, metadata !10595, metadata !10095), !dbg !10572
  %23 = load i8* getelementptr inbounds (%"struct.ros::console::LogLocation"* @_ZZNK3ros9Publisher7publishIN8std_msgs6Int16_ISaIvEEEEEvRKT_E3loc_0, i32 0, i32 1), align 1, !dbg !10596
  %tobool46 = trunc i8 %23 to i1, !dbg !10596
  br i1 %tobool46, label %land.rhs47, label %land.end48, !dbg !10596

land.rhs47:                                       ; preds = %if.end44
  br label %land.end48

land.end48:                                       ; preds = %land.rhs47, %if.end44
  %24 = phi i1 [ false, %if.end44 ], [ true, %land.rhs47 ]
  %frombool49 = zext i1 %24 to i8, !dbg !10599
  store i8 %frombool49, i8* %enabled45, align 1, !dbg !10599
  %25 = load i8* %enabled45, align 1, !dbg !10601
  %tobool50 = trunc i8 %25 to i1, !dbg !10601
  br i1 %tobool50, label %if.then51, label %if.end52, !dbg !10572

if.then51:                                        ; preds = %land.end48
  %26 = load %"class.log4cxx::Logger"** getelementptr inbounds (%"struct.ros::console::LogLocation"* @_ZZNK3ros9Publisher7publishIN8std_msgs6Int16_ISaIvEEEEEvRKT_E3loc_0, i32 0, i32 3), align 8, !dbg !10603
  %27 = load i32* getelementptr inbounds (%"struct.ros::console::LogLocation"* @_ZZNK3ros9Publisher7publishIN8std_msgs6Int16_ISaIvEEEEEvRKT_E3loc_0, i32 0, i32 2), align 4, !dbg !10603
  call void (%"class.ros::SubscriptionCallbackHelper"*, %"class.log4cxx::Logger"*, i32, i8*, i32, i8*, i8*, ...)* @_ZN3ros7console5printEPNS0_10FilterBaseEPN7log4cxx6LoggerENS0_6levels5LevelEPKciS9_S9_z(%"class.ros::SubscriptionCallbackHelper"* null, %"class.log4cxx::Logger"* %26, i32 %27, i8* getelementptr inbounds ([40 x i8]* @.str23, i32 0, i32 0), i32 102, i8* getelementptr inbounds ([92 x i8]* @__PRETTY_FUNCTION__._ZNK3ros9Publisher7publishIN8std_msgs6Int16_ISaIvEEEEEvRKT_, i32 0, i32 0), i8* getelementptr inbounds ([42 x i8]* @.str26, i32 0, i32 0)), !dbg !10603
  br label %if.end52, !dbg !10603

if.end52:                                         ; preds = %if.then51, %land.end48
  br label %do.end53, !dbg !10606

do.end53:                                         ; preds = %if.end52
  br label %do.body54, !dbg !10609

do.body54:                                        ; preds = %do.end53
  br label %do.body55, !dbg !10611

do.body55:                                        ; preds = %do.body54
  %28 = load i8* @_ZN3ros7console13g_initializedE, align 1, !dbg !10614
  %tobool56 = trunc i8 %28 to i1, !dbg !10614
  %lnot57 = xor i1 %tobool56, true, !dbg !10614
  br i1 %lnot57, label %if.then58, label %if.end59, !dbg !10618

if.then58:                                        ; preds = %do.body55
  call void @_ZN3ros7console10initializeEv(), !dbg !10619
  br label %if.end59, !dbg !10619

if.end59:                                         ; preds = %if.then58, %do.body55
  br label %do.end60, !dbg !10622

do.end60:                                         ; preds = %if.end59
  %29 = load i8* getelementptr inbounds (%"struct.ros::console::LogLocation"* @_ZZNK3ros9Publisher7publishIN8std_msgs6Int16_ISaIvEEEEEvRKT_E3loc_1, i32 0, i32 0), align 1, !dbg !10625
  %tobool61 = trunc i8 %29 to i1, !dbg !10625
  %lnot62 = xor i1 %tobool61, true, !dbg !10625
  br i1 %lnot62, label %if.then63, label %if.end74, !dbg !10628

if.then63:                                        ; preds = %do.end60
  call void @_ZNSaIcEC1Ev(%"class.std::ios_base::Init"* %ref.tmp65) #3, !dbg !10629
  invoke void @_ZNSsC1EPKcRKSaIcE(%"class.std::basic_string"* %ref.tmp64, i8* getelementptr inbounds ([20 x i8]* @.str18, i32 0, i32 0), %"class.std::ios_base::Init"* dereferenceable(1) %ref.tmp65)
          to label %invoke.cont67 unwind label %lpad66, !dbg !10629

invoke.cont67:                                    ; preds = %if.then63
  invoke void @_ZN3ros7console21initializeLogLocationEPNS0_11LogLocationERKSsNS0_6levels5LevelE(%"struct.ros::console::LogLocation"* @_ZZNK3ros9Publisher7publishIN8std_msgs6Int16_ISaIvEEEEEvRKT_E3loc_1, %"class.std::basic_string"* dereferenceable(8) %ref.tmp64, i32 4)
          to label %invoke.cont69 unwind label %lpad68, !dbg !10632

invoke.cont69:                                    ; preds = %invoke.cont67
  invoke void @_ZNSsD1Ev(%"class.std::basic_string"* %ref.tmp64)
          to label %invoke.cont70 unwind label %lpad66, !dbg !10634

invoke.cont70:                                    ; preds = %invoke.cont69
  call void @_ZNSaIcED1Ev(%"class.std::ios_base::Init"* %ref.tmp65) #3, !dbg !10636
  br label %if.end74, !dbg !10636

lpad66:                                           ; preds = %invoke.cont69, %if.then63
  %30 = landingpad { i8*, i32 } personality i8* bitcast (i32 (...)* @__gxx_personality_v0 to i8*)
          cleanup, !dbg !10638
  %31 = extractvalue { i8*, i32 } %30, 0, !dbg !10638
  store i8* %31, i8** %exn.slot, !dbg !10638
  %32 = extractvalue { i8*, i32 } %30, 1, !dbg !10638
  store i32 %32, i32* %ehselector.slot, !dbg !10638
  br label %ehcleanup73, !dbg !10638

lpad68:                                           ; preds = %invoke.cont67
  %33 = landingpad { i8*, i32 } personality i8* bitcast (i32 (...)* @__gxx_personality_v0 to i8*)
          cleanup, !dbg !10638
  %34 = extractvalue { i8*, i32 } %33, 0, !dbg !10638
  store i8* %34, i8** %exn.slot, !dbg !10638
  %35 = extractvalue { i8*, i32 } %33, 1, !dbg !10638
  store i32 %35, i32* %ehselector.slot, !dbg !10638
  invoke void @_ZNSsD1Ev(%"class.std::basic_string"* %ref.tmp64)
          to label %invoke.cont72 unwind label %terminate.lpad, !dbg !10639

invoke.cont72:                                    ; preds = %lpad68
  br label %ehcleanup73, !dbg !10640

ehcleanup73:                                      ; preds = %invoke.cont72, %lpad66
  call void @_ZNSaIcED1Ev(%"class.std::ios_base::Init"* %ref.tmp65) #3, !dbg !10642
  br label %eh.resume, !dbg !10642

if.end74:                                         ; preds = %invoke.cont70, %do.end60
  %36 = load i32* getelementptr inbounds (%"struct.ros::console::LogLocation"* @_ZZNK3ros9Publisher7publishIN8std_msgs6Int16_ISaIvEEEEEvRKT_E3loc_1, i32 0, i32 2), align 4, !dbg !10644
  %cmp75 = icmp ne i32 %36, 4, !dbg !10644
  br i1 %cmp75, label %if.then76, label %if.end77, !dbg !10628

if.then76:                                        ; preds = %if.end74
  call void @_ZN3ros7console19setLogLocationLevelEPNS0_11LogLocationENS0_6levels5LevelE(%"struct.ros::console::LogLocation"* @_ZZNK3ros9Publisher7publishIN8std_msgs6Int16_ISaIvEEEEEvRKT_E3loc_1, i32 4), !dbg !10648
  call void @_ZN3ros7console23checkLogLocationEnabledEPNS0_11LogLocationE(%"struct.ros::console::LogLocation"* @_ZZNK3ros9Publisher7publishIN8std_msgs6Int16_ISaIvEEEEEvRKT_E3loc_1), !dbg !10648
  br label %if.end77, !dbg !10648

if.end77:                                         ; preds = %if.then76, %if.end74
  call void @llvm.dbg.declare(metadata i8* %enabled78, metadata !10651, metadata !10095), !dbg !10628
  %37 = load i8* getelementptr inbounds (%"struct.ros::console::LogLocation"* @_ZZNK3ros9Publisher7publishIN8std_msgs6Int16_ISaIvEEEEEvRKT_E3loc_1, i32 0, i32 1), align 1, !dbg !10652
  %tobool79 = trunc i8 %37 to i1, !dbg !10652
  br i1 %tobool79, label %land.rhs80, label %land.end81, !dbg !10652

land.rhs80:                                       ; preds = %if.end77
  br label %land.end81

land.end81:                                       ; preds = %land.rhs80, %if.end77
  %38 = phi i1 [ false, %if.end77 ], [ true, %land.rhs80 ]
  %frombool82 = zext i1 %38 to i8, !dbg !10655
  store i8 %frombool82, i8* %enabled78, align 1, !dbg !10655
  %39 = load i8* %enabled78, align 1, !dbg !10657
  %tobool83 = trunc i8 %39 to i1, !dbg !10657
  br i1 %tobool83, label %if.then84, label %if.end85, !dbg !10628

if.then84:                                        ; preds = %land.end81
  %40 = load %"class.log4cxx::Logger"** getelementptr inbounds (%"struct.ros::console::LogLocation"* @_ZZNK3ros9Publisher7publishIN8std_msgs6Int16_ISaIvEEEEEvRKT_E3loc_1, i32 0, i32 3), align 8, !dbg !10659
  %41 = load i32* getelementptr inbounds (%"struct.ros::console::LogLocation"* @_ZZNK3ros9Publisher7publishIN8std_msgs6Int16_ISaIvEEEEEvRKT_E3loc_1, i32 0, i32 2), align 4, !dbg !10659
  call void (%"class.ros::SubscriptionCallbackHelper"*, %"class.log4cxx::Logger"*, i32, i8*, i32, i8*, i8*, ...)* @_ZN3ros7console5printEPNS0_10FilterBaseEPN7log4cxx6LoggerENS0_6levels5LevelEPKciS9_S9_z(%"class.ros::SubscriptionCallbackHelper"* null, %"class.log4cxx::Logger"* %40, i32 %41, i8* getelementptr inbounds ([40 x i8]* @.str23, i32 0, i32 0), i32 102, i8* getelementptr inbounds ([92 x i8]* @__PRETTY_FUNCTION__._ZNK3ros9Publisher7publishIN8std_msgs6Int16_ISaIvEEEEEvRKT_, i32 0, i32 0), i8* getelementptr inbounds ([2 x i8]* @.str27, i32 0, i32 0)), !dbg !10659
  br label %if.end85, !dbg !10659

if.end85:                                         ; preds = %if.then84, %land.end81
  br label %do.end86, !dbg !10662

do.end86:                                         ; preds = %if.end85
  call void asm sideeffect "int $$3", "~{dirflag},~{fpsr},~{flags}"() #3, !dbg !10665, !srcloc !10667
  br label %do.end87, !dbg !10668

do.end87:                                         ; preds = %do.end86
  br label %return, !dbg !10669

if.end88:                                         ; preds = %entry
  %impl_89 = getelementptr inbounds %"class.ros::Publisher"* %this1, i32 0, i32 0, !dbg !10670
  %call90 = call %"class.ros::Publisher::Impl"* @_ZNK5boost10shared_ptrIN3ros9Publisher4ImplEEptEv(%"class.boost::shared_ptr.21"* %impl_89), !dbg !10670
  %call91 = call zeroext i1 @_ZNK3ros9Publisher4Impl7isValidEv(%"class.ros::Publisher::Impl"* %call90), !dbg !10670
  br i1 %call91, label %if.end197, label %if.then92, !dbg !10672

if.then92:                                        ; preds = %if.end88
  br label %do.body93, !dbg !10673

do.body93:                                        ; preds = %if.then92
  br label %do.body94, !dbg !10675

do.body94:                                        ; preds = %do.body93
  br label %do.body95, !dbg !10680

do.body95:                                        ; preds = %do.body94
  %42 = load i8* @_ZN3ros7console13g_initializedE, align 1, !dbg !10683
  %tobool96 = trunc i8 %42 to i1, !dbg !10683
  %lnot97 = xor i1 %tobool96, true, !dbg !10683
  br i1 %lnot97, label %if.then98, label %if.end99, !dbg !10687

if.then98:                                        ; preds = %do.body95
  call void @_ZN3ros7console10initializeEv(), !dbg !10688
  br label %if.end99, !dbg !10688

if.end99:                                         ; preds = %if.then98, %do.body95
  br label %do.end100, !dbg !10691

do.end100:                                        ; preds = %if.end99
  %43 = load i8* getelementptr inbounds (%"struct.ros::console::LogLocation"* @_ZZNK3ros9Publisher7publishIN8std_msgs6Int16_ISaIvEEEEEvRKT_E3loc_2, i32 0, i32 0), align 1, !dbg !10694
  %tobool101 = trunc i8 %43 to i1, !dbg !10694
  %lnot102 = xor i1 %tobool101, true, !dbg !10694
  br i1 %lnot102, label %if.then103, label %if.end114, !dbg !10697

if.then103:                                       ; preds = %do.end100
  call void @_ZNSaIcEC1Ev(%"class.std::ios_base::Init"* %ref.tmp105) #3, !dbg !10698
  invoke void @_ZNSsC1EPKcRKSaIcE(%"class.std::basic_string"* %ref.tmp104, i8* getelementptr inbounds ([20 x i8]* @.str18, i32 0, i32 0), %"class.std::ios_base::Init"* dereferenceable(1) %ref.tmp105)
          to label %invoke.cont107 unwind label %lpad106, !dbg !10698

invoke.cont107:                                   ; preds = %if.then103
  invoke void @_ZN3ros7console21initializeLogLocationEPNS0_11LogLocationERKSsNS0_6levels5LevelE(%"struct.ros::console::LogLocation"* @_ZZNK3ros9Publisher7publishIN8std_msgs6Int16_ISaIvEEEEEvRKT_E3loc_2, %"class.std::basic_string"* dereferenceable(8) %ref.tmp104, i32 4)
          to label %invoke.cont109 unwind label %lpad108, !dbg !10701

invoke.cont109:                                   ; preds = %invoke.cont107
  invoke void @_ZNSsD1Ev(%"class.std::basic_string"* %ref.tmp104)
          to label %invoke.cont110 unwind label %lpad106, !dbg !10703

invoke.cont110:                                   ; preds = %invoke.cont109
  call void @_ZNSaIcED1Ev(%"class.std::ios_base::Init"* %ref.tmp105) #3, !dbg !10705
  br label %if.end114, !dbg !10705

lpad106:                                          ; preds = %invoke.cont109, %if.then103
  %44 = landingpad { i8*, i32 } personality i8* bitcast (i32 (...)* @__gxx_personality_v0 to i8*)
          cleanup, !dbg !10707
  %45 = extractvalue { i8*, i32 } %44, 0, !dbg !10707
  store i8* %45, i8** %exn.slot, !dbg !10707
  %46 = extractvalue { i8*, i32 } %44, 1, !dbg !10707
  store i32 %46, i32* %ehselector.slot, !dbg !10707
  br label %ehcleanup113, !dbg !10707

lpad108:                                          ; preds = %invoke.cont107
  %47 = landingpad { i8*, i32 } personality i8* bitcast (i32 (...)* @__gxx_personality_v0 to i8*)
          cleanup, !dbg !10707
  %48 = extractvalue { i8*, i32 } %47, 0, !dbg !10707
  store i8* %48, i8** %exn.slot, !dbg !10707
  %49 = extractvalue { i8*, i32 } %47, 1, !dbg !10707
  store i32 %49, i32* %ehselector.slot, !dbg !10707
  invoke void @_ZNSsD1Ev(%"class.std::basic_string"* %ref.tmp104)
          to label %invoke.cont112 unwind label %terminate.lpad, !dbg !10708

invoke.cont112:                                   ; preds = %lpad108
  br label %ehcleanup113, !dbg !10709

ehcleanup113:                                     ; preds = %invoke.cont112, %lpad106
  call void @_ZNSaIcED1Ev(%"class.std::ios_base::Init"* %ref.tmp105) #3, !dbg !10711
  br label %eh.resume, !dbg !10711

if.end114:                                        ; preds = %invoke.cont110, %do.end100
  %50 = load i32* getelementptr inbounds (%"struct.ros::console::LogLocation"* @_ZZNK3ros9Publisher7publishIN8std_msgs6Int16_ISaIvEEEEEvRKT_E3loc_2, i32 0, i32 2), align 4, !dbg !10713
  %cmp115 = icmp ne i32 %50, 4, !dbg !10713
  br i1 %cmp115, label %if.then116, label %if.end117, !dbg !10697

if.then116:                                       ; preds = %if.end114
  call void @_ZN3ros7console19setLogLocationLevelEPNS0_11LogLocationENS0_6levels5LevelE(%"struct.ros::console::LogLocation"* @_ZZNK3ros9Publisher7publishIN8std_msgs6Int16_ISaIvEEEEEvRKT_E3loc_2, i32 4), !dbg !10717
  call void @_ZN3ros7console23checkLogLocationEnabledEPNS0_11LogLocationE(%"struct.ros::console::LogLocation"* @_ZZNK3ros9Publisher7publishIN8std_msgs6Int16_ISaIvEEEEEvRKT_E3loc_2), !dbg !10717
  br label %if.end117, !dbg !10717

if.end117:                                        ; preds = %if.then116, %if.end114
  call void @llvm.dbg.declare(metadata i8* %enabled118, metadata !10720, metadata !10095), !dbg !10697
  %51 = load i8* getelementptr inbounds (%"struct.ros::console::LogLocation"* @_ZZNK3ros9Publisher7publishIN8std_msgs6Int16_ISaIvEEEEEvRKT_E3loc_2, i32 0, i32 1), align 1, !dbg !10721
  %tobool119 = trunc i8 %51 to i1, !dbg !10721
  br i1 %tobool119, label %land.rhs120, label %land.end121, !dbg !10721

land.rhs120:                                      ; preds = %if.end117
  br label %land.end121

land.end121:                                      ; preds = %land.rhs120, %if.end117
  %52 = phi i1 [ false, %if.end117 ], [ true, %land.rhs120 ]
  %frombool122 = zext i1 %52 to i8, !dbg !10724
  store i8 %frombool122, i8* %enabled118, align 1, !dbg !10724
  %53 = load i8* %enabled118, align 1, !dbg !10726
  %tobool123 = trunc i8 %53 to i1, !dbg !10726
  br i1 %tobool123, label %if.then124, label %if.end125, !dbg !10697

if.then124:                                       ; preds = %land.end121
  %54 = load %"class.log4cxx::Logger"** getelementptr inbounds (%"struct.ros::console::LogLocation"* @_ZZNK3ros9Publisher7publishIN8std_msgs6Int16_ISaIvEEEEEvRKT_E3loc_2, i32 0, i32 3), align 8, !dbg !10728
  %55 = load i32* getelementptr inbounds (%"struct.ros::console::LogLocation"* @_ZZNK3ros9Publisher7publishIN8std_msgs6Int16_ISaIvEEEEEvRKT_E3loc_2, i32 0, i32 2), align 4, !dbg !10728
  call void (%"class.ros::SubscriptionCallbackHelper"*, %"class.log4cxx::Logger"*, i32, i8*, i32, i8*, i8*, ...)* @_ZN3ros7console5printEPNS0_10FilterBaseEPN7log4cxx6LoggerENS0_6levels5LevelEPKciS9_S9_z(%"class.ros::SubscriptionCallbackHelper"* null, %"class.log4cxx::Logger"* %54, i32 %55, i8* getelementptr inbounds ([40 x i8]* @.str23, i32 0, i32 0), i32 108, i8* getelementptr inbounds ([92 x i8]* @__PRETTY_FUNCTION__._ZNK3ros9Publisher7publishIN8std_msgs6Int16_ISaIvEEEEEvRKT_, i32 0, i32 0), i8* getelementptr inbounds ([62 x i8]* @.str24, i32 0, i32 0), i8* getelementptr inbounds ([40 x i8]* @.str23, i32 0, i32 0), i32 108, i8* getelementptr inbounds ([6 x i8]* @.str25, i32 0, i32 0)), !dbg !10728
  br label %if.end125, !dbg !10728

if.end125:                                        ; preds = %if.then124, %land.end121
  br label %do.end126, !dbg !10731

do.end126:                                        ; preds = %if.end125
  br label %do.body127, !dbg !10734

do.body127:                                       ; preds = %do.end126
  br label %do.body128, !dbg !10736

do.body128:                                       ; preds = %do.body127
  %56 = load i8* @_ZN3ros7console13g_initializedE, align 1, !dbg !10739
  %tobool129 = trunc i8 %56 to i1, !dbg !10739
  %lnot130 = xor i1 %tobool129, true, !dbg !10739
  br i1 %lnot130, label %if.then131, label %if.end132, !dbg !10743

if.then131:                                       ; preds = %do.body128
  call void @_ZN3ros7console10initializeEv(), !dbg !10744
  br label %if.end132, !dbg !10744

if.end132:                                        ; preds = %if.then131, %do.body128
  br label %do.end133, !dbg !10747

do.end133:                                        ; preds = %if.end132
  %57 = load i8* getelementptr inbounds (%"struct.ros::console::LogLocation"* @_ZZNK3ros9Publisher7publishIN8std_msgs6Int16_ISaIvEEEEEvRKT_E3loc_3, i32 0, i32 0), align 1, !dbg !10750
  %tobool134 = trunc i8 %57 to i1, !dbg !10750
  %lnot135 = xor i1 %tobool134, true, !dbg !10750
  br i1 %lnot135, label %if.then136, label %if.end147, !dbg !10753

if.then136:                                       ; preds = %do.end133
  call void @_ZNSaIcEC1Ev(%"class.std::ios_base::Init"* %ref.tmp138) #3, !dbg !10754
  invoke void @_ZNSsC1EPKcRKSaIcE(%"class.std::basic_string"* %ref.tmp137, i8* getelementptr inbounds ([20 x i8]* @.str18, i32 0, i32 0), %"class.std::ios_base::Init"* dereferenceable(1) %ref.tmp138)
          to label %invoke.cont140 unwind label %lpad139, !dbg !10754

invoke.cont140:                                   ; preds = %if.then136
  invoke void @_ZN3ros7console21initializeLogLocationEPNS0_11LogLocationERKSsNS0_6levels5LevelE(%"struct.ros::console::LogLocation"* @_ZZNK3ros9Publisher7publishIN8std_msgs6Int16_ISaIvEEEEEvRKT_E3loc_3, %"class.std::basic_string"* dereferenceable(8) %ref.tmp137, i32 4)
          to label %invoke.cont142 unwind label %lpad141, !dbg !10757

invoke.cont142:                                   ; preds = %invoke.cont140
  invoke void @_ZNSsD1Ev(%"class.std::basic_string"* %ref.tmp137)
          to label %invoke.cont143 unwind label %lpad139, !dbg !10759

invoke.cont143:                                   ; preds = %invoke.cont142
  call void @_ZNSaIcED1Ev(%"class.std::ios_base::Init"* %ref.tmp138) #3, !dbg !10761
  br label %if.end147, !dbg !10761

lpad139:                                          ; preds = %invoke.cont142, %if.then136
  %58 = landingpad { i8*, i32 } personality i8* bitcast (i32 (...)* @__gxx_personality_v0 to i8*)
          cleanup, !dbg !10763
  %59 = extractvalue { i8*, i32 } %58, 0, !dbg !10763
  store i8* %59, i8** %exn.slot, !dbg !10763
  %60 = extractvalue { i8*, i32 } %58, 1, !dbg !10763
  store i32 %60, i32* %ehselector.slot, !dbg !10763
  br label %ehcleanup146, !dbg !10763

lpad141:                                          ; preds = %invoke.cont140
  %61 = landingpad { i8*, i32 } personality i8* bitcast (i32 (...)* @__gxx_personality_v0 to i8*)
          cleanup, !dbg !10763
  %62 = extractvalue { i8*, i32 } %61, 0, !dbg !10763
  store i8* %62, i8** %exn.slot, !dbg !10763
  %63 = extractvalue { i8*, i32 } %61, 1, !dbg !10763
  store i32 %63, i32* %ehselector.slot, !dbg !10763
  invoke void @_ZNSsD1Ev(%"class.std::basic_string"* %ref.tmp137)
          to label %invoke.cont145 unwind label %terminate.lpad, !dbg !10764

invoke.cont145:                                   ; preds = %lpad141
  br label %ehcleanup146, !dbg !10765

ehcleanup146:                                     ; preds = %invoke.cont145, %lpad139
  call void @_ZNSaIcED1Ev(%"class.std::ios_base::Init"* %ref.tmp138) #3, !dbg !10767
  br label %eh.resume, !dbg !10767

if.end147:                                        ; preds = %invoke.cont143, %do.end133
  %64 = load i32* getelementptr inbounds (%"struct.ros::console::LogLocation"* @_ZZNK3ros9Publisher7publishIN8std_msgs6Int16_ISaIvEEEEEvRKT_E3loc_3, i32 0, i32 2), align 4, !dbg !10769
  %cmp148 = icmp ne i32 %64, 4, !dbg !10769
  br i1 %cmp148, label %if.then149, label %if.end150, !dbg !10753

if.then149:                                       ; preds = %if.end147
  call void @_ZN3ros7console19setLogLocationLevelEPNS0_11LogLocationENS0_6levels5LevelE(%"struct.ros::console::LogLocation"* @_ZZNK3ros9Publisher7publishIN8std_msgs6Int16_ISaIvEEEEEvRKT_E3loc_3, i32 4), !dbg !10773
  call void @_ZN3ros7console23checkLogLocationEnabledEPNS0_11LogLocationE(%"struct.ros::console::LogLocation"* @_ZZNK3ros9Publisher7publishIN8std_msgs6Int16_ISaIvEEEEEvRKT_E3loc_3), !dbg !10773
  br label %if.end150, !dbg !10773

if.end150:                                        ; preds = %if.then149, %if.end147
  call void @llvm.dbg.declare(metadata i8* %enabled151, metadata !10776, metadata !10095), !dbg !10753
  %65 = load i8* getelementptr inbounds (%"struct.ros::console::LogLocation"* @_ZZNK3ros9Publisher7publishIN8std_msgs6Int16_ISaIvEEEEEvRKT_E3loc_3, i32 0, i32 1), align 1, !dbg !10777
  %tobool152 = trunc i8 %65 to i1, !dbg !10777
  br i1 %tobool152, label %land.rhs153, label %land.end154, !dbg !10777

land.rhs153:                                      ; preds = %if.end150
  br label %land.end154

land.end154:                                      ; preds = %land.rhs153, %if.end150
  %66 = phi i1 [ false, %if.end150 ], [ true, %land.rhs153 ]
  %frombool155 = zext i1 %66 to i8, !dbg !10780
  store i8 %frombool155, i8* %enabled151, align 1, !dbg !10780
  %67 = load i8* %enabled151, align 1, !dbg !10782
  %tobool156 = trunc i8 %67 to i1, !dbg !10782
  br i1 %tobool156, label %if.then157, label %if.end161, !dbg !10753

if.then157:                                       ; preds = %land.end154
  %68 = load %"class.log4cxx::Logger"** getelementptr inbounds (%"struct.ros::console::LogLocation"* @_ZZNK3ros9Publisher7publishIN8std_msgs6Int16_ISaIvEEEEEvRKT_E3loc_3, i32 0, i32 3), align 8, !dbg !10784
  %69 = load i32* getelementptr inbounds (%"struct.ros::console::LogLocation"* @_ZZNK3ros9Publisher7publishIN8std_msgs6Int16_ISaIvEEEEEvRKT_E3loc_3, i32 0, i32 2), align 4, !dbg !10784
  %impl_158 = getelementptr inbounds %"class.ros::Publisher"* %this1, i32 0, i32 0, !dbg !10784
  %call159 = call %"class.ros::Publisher::Impl"* @_ZNK5boost10shared_ptrIN3ros9Publisher4ImplEEptEv(%"class.boost::shared_ptr.21"* %impl_158), !dbg !10784
  %topic_ = getelementptr inbounds %"class.ros::Publisher::Impl"* %call159, i32 0, i32 0, !dbg !10784
  %call160 = call i8* @_ZNKSs5c_strEv(%"class.std::basic_string"* %topic_), !dbg !10784
  call void (%"class.ros::SubscriptionCallbackHelper"*, %"class.log4cxx::Logger"*, i32, i8*, i32, i8*, i8*, ...)* @_ZN3ros7console5printEPNS0_10FilterBaseEPN7log4cxx6LoggerENS0_6levels5LevelEPKciS9_S9_z(%"class.ros::SubscriptionCallbackHelper"* null, %"class.log4cxx::Logger"* %68, i32 %69, i8* getelementptr inbounds ([40 x i8]* @.str23, i32 0, i32 0), i32 108, i8* getelementptr inbounds ([92 x i8]* @__PRETTY_FUNCTION__._ZNK3ros9Publisher7publishIN8std_msgs6Int16_ISaIvEEEEEvRKT_, i32 0, i32 0), i8* getelementptr inbounds ([55 x i8]* @.str28, i32 0, i32 0), i8* %call160), !dbg !10784
  br label %if.end161, !dbg !10784

if.end161:                                        ; preds = %if.then157, %land.end154
  br label %do.end162, !dbg !10787

do.end162:                                        ; preds = %if.end161
  br label %do.body163, !dbg !10790

do.body163:                                       ; preds = %do.end162
  br label %do.body164, !dbg !10792

do.body164:                                       ; preds = %do.body163
  %70 = load i8* @_ZN3ros7console13g_initializedE, align 1, !dbg !10795
  %tobool165 = trunc i8 %70 to i1, !dbg !10795
  %lnot166 = xor i1 %tobool165, true, !dbg !10795
  br i1 %lnot166, label %if.then167, label %if.end168, !dbg !10799

if.then167:                                       ; preds = %do.body164
  call void @_ZN3ros7console10initializeEv(), !dbg !10800
  br label %if.end168, !dbg !10800

if.end168:                                        ; preds = %if.then167, %do.body164
  br label %do.end169, !dbg !10803

do.end169:                                        ; preds = %if.end168
  %71 = load i8* getelementptr inbounds (%"struct.ros::console::LogLocation"* @_ZZNK3ros9Publisher7publishIN8std_msgs6Int16_ISaIvEEEEEvRKT_E3loc_4, i32 0, i32 0), align 1, !dbg !10806
  %tobool170 = trunc i8 %71 to i1, !dbg !10806
  %lnot171 = xor i1 %tobool170, true, !dbg !10806
  br i1 %lnot171, label %if.then172, label %if.end183, !dbg !10809

if.then172:                                       ; preds = %do.end169
  call void @_ZNSaIcEC1Ev(%"class.std::ios_base::Init"* %ref.tmp174) #3, !dbg !10810
  invoke void @_ZNSsC1EPKcRKSaIcE(%"class.std::basic_string"* %ref.tmp173, i8* getelementptr inbounds ([20 x i8]* @.str18, i32 0, i32 0), %"class.std::ios_base::Init"* dereferenceable(1) %ref.tmp174)
          to label %invoke.cont176 unwind label %lpad175, !dbg !10810

invoke.cont176:                                   ; preds = %if.then172
  invoke void @_ZN3ros7console21initializeLogLocationEPNS0_11LogLocationERKSsNS0_6levels5LevelE(%"struct.ros::console::LogLocation"* @_ZZNK3ros9Publisher7publishIN8std_msgs6Int16_ISaIvEEEEEvRKT_E3loc_4, %"class.std::basic_string"* dereferenceable(8) %ref.tmp173, i32 4)
          to label %invoke.cont178 unwind label %lpad177, !dbg !10813

invoke.cont178:                                   ; preds = %invoke.cont176
  invoke void @_ZNSsD1Ev(%"class.std::basic_string"* %ref.tmp173)
          to label %invoke.cont179 unwind label %lpad175, !dbg !10815

invoke.cont179:                                   ; preds = %invoke.cont178
  call void @_ZNSaIcED1Ev(%"class.std::ios_base::Init"* %ref.tmp174) #3, !dbg !10817
  br label %if.end183, !dbg !10817

lpad175:                                          ; preds = %invoke.cont178, %if.then172
  %72 = landingpad { i8*, i32 } personality i8* bitcast (i32 (...)* @__gxx_personality_v0 to i8*)
          cleanup, !dbg !10819
  %73 = extractvalue { i8*, i32 } %72, 0, !dbg !10819
  store i8* %73, i8** %exn.slot, !dbg !10819
  %74 = extractvalue { i8*, i32 } %72, 1, !dbg !10819
  store i32 %74, i32* %ehselector.slot, !dbg !10819
  br label %ehcleanup182, !dbg !10819

lpad177:                                          ; preds = %invoke.cont176
  %75 = landingpad { i8*, i32 } personality i8* bitcast (i32 (...)* @__gxx_personality_v0 to i8*)
          cleanup, !dbg !10819
  %76 = extractvalue { i8*, i32 } %75, 0, !dbg !10819
  store i8* %76, i8** %exn.slot, !dbg !10819
  %77 = extractvalue { i8*, i32 } %75, 1, !dbg !10819
  store i32 %77, i32* %ehselector.slot, !dbg !10819
  invoke void @_ZNSsD1Ev(%"class.std::basic_string"* %ref.tmp173)
          to label %invoke.cont181 unwind label %terminate.lpad, !dbg !10820

invoke.cont181:                                   ; preds = %lpad177
  br label %ehcleanup182, !dbg !10821

ehcleanup182:                                     ; preds = %invoke.cont181, %lpad175
  call void @_ZNSaIcED1Ev(%"class.std::ios_base::Init"* %ref.tmp174) #3, !dbg !10823
  br label %eh.resume, !dbg !10823

if.end183:                                        ; preds = %invoke.cont179, %do.end169
  %78 = load i32* getelementptr inbounds (%"struct.ros::console::LogLocation"* @_ZZNK3ros9Publisher7publishIN8std_msgs6Int16_ISaIvEEEEEvRKT_E3loc_4, i32 0, i32 2), align 4, !dbg !10825
  %cmp184 = icmp ne i32 %78, 4, !dbg !10825
  br i1 %cmp184, label %if.then185, label %if.end186, !dbg !10809

if.then185:                                       ; preds = %if.end183
  call void @_ZN3ros7console19setLogLocationLevelEPNS0_11LogLocationENS0_6levels5LevelE(%"struct.ros::console::LogLocation"* @_ZZNK3ros9Publisher7publishIN8std_msgs6Int16_ISaIvEEEEEvRKT_E3loc_4, i32 4), !dbg !10829
  call void @_ZN3ros7console23checkLogLocationEnabledEPNS0_11LogLocationE(%"struct.ros::console::LogLocation"* @_ZZNK3ros9Publisher7publishIN8std_msgs6Int16_ISaIvEEEEEvRKT_E3loc_4), !dbg !10829
  br label %if.end186, !dbg !10829

if.end186:                                        ; preds = %if.then185, %if.end183
  call void @llvm.dbg.declare(metadata i8* %enabled187, metadata !10832, metadata !10095), !dbg !10809
  %79 = load i8* getelementptr inbounds (%"struct.ros::console::LogLocation"* @_ZZNK3ros9Publisher7publishIN8std_msgs6Int16_ISaIvEEEEEvRKT_E3loc_4, i32 0, i32 1), align 1, !dbg !10833
  %tobool188 = trunc i8 %79 to i1, !dbg !10833
  br i1 %tobool188, label %land.rhs189, label %land.end190, !dbg !10833

land.rhs189:                                      ; preds = %if.end186
  br label %land.end190

land.end190:                                      ; preds = %land.rhs189, %if.end186
  %80 = phi i1 [ false, %if.end186 ], [ true, %land.rhs189 ]
  %frombool191 = zext i1 %80 to i8, !dbg !10836
  store i8 %frombool191, i8* %enabled187, align 1, !dbg !10836
  %81 = load i8* %enabled187, align 1, !dbg !10838
  %tobool192 = trunc i8 %81 to i1, !dbg !10838
  br i1 %tobool192, label %if.then193, label %if.end194, !dbg !10809

if.then193:                                       ; preds = %land.end190
  %82 = load %"class.log4cxx::Logger"** getelementptr inbounds (%"struct.ros::console::LogLocation"* @_ZZNK3ros9Publisher7publishIN8std_msgs6Int16_ISaIvEEEEEvRKT_E3loc_4, i32 0, i32 3), align 8, !dbg !10840
  %83 = load i32* getelementptr inbounds (%"struct.ros::console::LogLocation"* @_ZZNK3ros9Publisher7publishIN8std_msgs6Int16_ISaIvEEEEEvRKT_E3loc_4, i32 0, i32 2), align 4, !dbg !10840
  call void (%"class.ros::SubscriptionCallbackHelper"*, %"class.log4cxx::Logger"*, i32, i8*, i32, i8*, i8*, ...)* @_ZN3ros7console5printEPNS0_10FilterBaseEPN7log4cxx6LoggerENS0_6levels5LevelEPKciS9_S9_z(%"class.ros::SubscriptionCallbackHelper"* null, %"class.log4cxx::Logger"* %82, i32 %83, i8* getelementptr inbounds ([40 x i8]* @.str23, i32 0, i32 0), i32 108, i8* getelementptr inbounds ([92 x i8]* @__PRETTY_FUNCTION__._ZNK3ros9Publisher7publishIN8std_msgs6Int16_ISaIvEEEEEvRKT_, i32 0, i32 0), i8* getelementptr inbounds ([2 x i8]* @.str27, i32 0, i32 0)), !dbg !10840
  br label %if.end194, !dbg !10840

if.end194:                                        ; preds = %if.then193, %land.end190
  br label %do.end195, !dbg !10843

do.end195:                                        ; preds = %if.end194
  call void asm sideeffect "int $$3", "~{dirflag},~{fpsr},~{flags}"() #3, !dbg !10846, !srcloc !10848
  br label %do.end196, !dbg !10849

do.end196:                                        ; preds = %do.end195
  br label %return, !dbg !10850

if.end197:                                        ; preds = %if.end88
  br label %do.body198, !dbg !10851

do.body198:                                       ; preds = %if.end197
  %impl_199 = getelementptr inbounds %"class.ros::Publisher"* %this1, i32 0, i32 0, !dbg !10852
  %call200 = call %"class.ros::Publisher::Impl"* @_ZNK5boost10shared_ptrIN3ros9Publisher4ImplEEptEv(%"class.boost::shared_ptr.21"* %impl_199), !dbg !10852
  %md5sum_ = getelementptr inbounds %"class.ros::Publisher::Impl"* %call200, i32 0, i32 1, !dbg !10852
  %call201 = call zeroext i1 @_ZSteqIcSt11char_traitsIcESaIcEEbRKSbIT_T0_T1_EPKS3_(%"class.std::basic_string"* dereferenceable(8) %md5sum_, i8* getelementptr inbounds ([2 x i8]* @.str29, i32 0, i32 0)), !dbg !10852
  store i1 false, i1* %cleanup.cond
  store i1 false, i1* %cleanup.cond207
  br i1 %call201, label %lor.end, label %lor.lhs.false, !dbg !10856

lor.lhs.false:                                    ; preds = %do.body198
  %84 = load %"struct.std_msgs::Int16_"** %message.addr, align 8, !dbg !10857
  %call203 = call i8* @_ZN3ros14message_traits6md5sumIN8std_msgs6Int16_ISaIvEEEEEPKcRKT_(%"struct.std_msgs::Int16_"* dereferenceable(24) %84), !dbg !10857
  call void @_ZNSaIcEC1Ev(%"class.std::ios_base::Init"* %ref.tmp204) #3, !dbg !10857
  store i1 true, i1* %cleanup.cond, !dbg !10857
  invoke void @_ZNSsC1EPKcRKSaIcE(%"class.std::basic_string"* %ref.tmp202, i8* %call203, %"class.std::ios_base::Init"* dereferenceable(1) %ref.tmp204)
          to label %invoke.cont206 unwind label %lpad205, !dbg !10857

invoke.cont206:                                   ; preds = %lor.lhs.false
  store i1 true, i1* %cleanup.cond207, !dbg !10859
  %call210 = invoke zeroext i1 @_ZSteqIcSt11char_traitsIcESaIcEEbRKSbIT_T0_T1_EPKS3_(%"class.std::basic_string"* dereferenceable(8) %ref.tmp202, i8* getelementptr inbounds ([2 x i8]* @.str29, i32 0, i32 0))
          to label %invoke.cont209 unwind label %lpad208, !dbg !10859

invoke.cont209:                                   ; preds = %invoke.cont206
  br i1 %call210, label %lor.end, label %lor.rhs, !dbg !10861

lor.rhs:                                          ; preds = %invoke.cont209
  %impl_211 = getelementptr inbounds %"class.ros::Publisher"* %this1, i32 0, i32 0, !dbg !10863
  %call213 = invoke %"class.ros::Publisher::Impl"* @_ZNK5boost10shared_ptrIN3ros9Publisher4ImplEEptEv(%"class.boost::shared_ptr.21"* %impl_211)
          to label %invoke.cont212 unwind label %lpad208, !dbg !10863

invoke.cont212:                                   ; preds = %lor.rhs
  %md5sum_214 = getelementptr inbounds %"class.ros::Publisher::Impl"* %call213, i32 0, i32 1, !dbg !10865
  %85 = load %"struct.std_msgs::Int16_"** %message.addr, align 8, !dbg !10865
  %call216 = invoke i8* @_ZN3ros14message_traits6md5sumIN8std_msgs6Int16_ISaIvEEEEEPKcRKT_(%"struct.std_msgs::Int16_"* dereferenceable(24) %85)
          to label %invoke.cont215 unwind label %lpad208, !dbg !10865

invoke.cont215:                                   ; preds = %invoke.cont212
  %call218 = invoke zeroext i1 @_ZSteqIcSt11char_traitsIcESaIcEEbRKSbIT_T0_T1_EPKS3_(%"class.std::basic_string"* dereferenceable(8) %md5sum_214, i8* %call216)
          to label %invoke.cont217 unwind label %lpad208, !dbg !10867

invoke.cont217:                                   ; preds = %invoke.cont215
  br label %lor.end, !dbg !10869

lor.end:                                          ; preds = %invoke.cont217, %invoke.cont209, %do.body198
  %86 = phi i1 [ true, %invoke.cont209 ], [ true, %do.body198 ], [ %call218, %invoke.cont217 ]
  %lnot219 = xor i1 %86, true, !dbg !10871
  %cleanup.is_active = load i1* %cleanup.cond207, !dbg !10871
  br i1 %cleanup.is_active, label %cleanup.action, label %cleanup.done, !dbg !10871

cleanup.action:                                   ; preds = %lor.end
  invoke void @_ZNSsD1Ev(%"class.std::basic_string"* %ref.tmp202)
          to label %invoke.cont220 unwind label %lpad205, !dbg !10875

invoke.cont220:                                   ; preds = %cleanup.action
  br label %cleanup.done, !dbg !10877

cleanup.done:                                     ; preds = %invoke.cont220, %lor.end
  %cleanup.is_active226 = load i1* %cleanup.cond, !dbg !10879
  br i1 %cleanup.is_active226, label %cleanup.action227, label %cleanup.done228, !dbg !10879

cleanup.action227:                                ; preds = %cleanup.done
  call void @_ZNSaIcED1Ev(%"class.std::ios_base::Init"* %ref.tmp204) #3, !dbg !10882
  br label %cleanup.done228, !dbg !10882

cleanup.done228:                                  ; preds = %cleanup.action227, %cleanup.done
  br i1 %lnot219, label %if.then233, label %if.end342, !dbg !10884

if.then233:                                       ; preds = %cleanup.done228
  br label %do.body234, !dbg !10887

do.body234:                                       ; preds = %if.then233
  br label %do.body235, !dbg !10890

do.body235:                                       ; preds = %do.body234
  %87 = load i8* @_ZN3ros7console13g_initializedE, align 1, !dbg !10893
  %tobool236 = trunc i8 %87 to i1, !dbg !10893
  %lnot237 = xor i1 %tobool236, true, !dbg !10893
  br i1 %lnot237, label %if.then238, label %if.end239, !dbg !10897

if.then238:                                       ; preds = %do.body235
  call void @_ZN3ros7console10initializeEv(), !dbg !10898
  br label %if.end239, !dbg !10898

lpad205:                                          ; preds = %cleanup.action, %lor.lhs.false
  %88 = landingpad { i8*, i32 } personality i8* bitcast (i32 (...)* @__gxx_personality_v0 to i8*)
          cleanup, !dbg !10901
  %89 = extractvalue { i8*, i32 } %88, 0, !dbg !10901
  store i8* %89, i8** %exn.slot, !dbg !10901
  %90 = extractvalue { i8*, i32 } %88, 1, !dbg !10901
  store i32 %90, i32* %ehselector.slot, !dbg !10901
  br label %ehcleanup229, !dbg !10901

lpad208:                                          ; preds = %invoke.cont215, %invoke.cont212, %lor.rhs, %invoke.cont206
  %91 = landingpad { i8*, i32 } personality i8* bitcast (i32 (...)* @__gxx_personality_v0 to i8*)
          cleanup, !dbg !10901
  %92 = extractvalue { i8*, i32 } %91, 0, !dbg !10901
  store i8* %92, i8** %exn.slot, !dbg !10901
  %93 = extractvalue { i8*, i32 } %91, 1, !dbg !10901
  store i32 %93, i32* %ehselector.slot, !dbg !10901
  %cleanup.is_active222 = load i1* %cleanup.cond207, !dbg !10856
  br i1 %cleanup.is_active222, label %cleanup.action223, label %cleanup.done225, !dbg !10856

cleanup.action223:                                ; preds = %lpad208
  invoke void @_ZNSsD1Ev(%"class.std::basic_string"* %ref.tmp202)
          to label %invoke.cont224 unwind label %terminate.lpad, !dbg !10902

invoke.cont224:                                   ; preds = %cleanup.action223
  br label %cleanup.done225, !dbg !10904

cleanup.done225:                                  ; preds = %invoke.cont224, %lpad208
  br label %ehcleanup229, !dbg !10906

ehcleanup229:                                     ; preds = %cleanup.done225, %lpad205
  %cleanup.is_active230 = load i1* %cleanup.cond, !dbg !10909
  br i1 %cleanup.is_active230, label %cleanup.action231, label %cleanup.done232, !dbg !10909

cleanup.action231:                                ; preds = %ehcleanup229
  call void @_ZNSaIcED1Ev(%"class.std::ios_base::Init"* %ref.tmp204) #3, !dbg !10911
  br label %cleanup.done232, !dbg !10911

cleanup.done232:                                  ; preds = %cleanup.action231, %ehcleanup229
  br label %eh.resume, !dbg !10913

if.end239:                                        ; preds = %if.then238, %do.body235
  br label %do.end240, !dbg !10916

do.end240:                                        ; preds = %if.end239
  %94 = load i8* getelementptr inbounds (%"struct.ros::console::LogLocation"* @_ZZNK3ros9Publisher7publishIN8std_msgs6Int16_ISaIvEEEEEvRKT_E3loc_5, i32 0, i32 0), align 1, !dbg !10919
  %tobool241 = trunc i8 %94 to i1, !dbg !10919
  %lnot242 = xor i1 %tobool241, true, !dbg !10919
  br i1 %lnot242, label %if.then243, label %if.end254, !dbg !10922

if.then243:                                       ; preds = %do.end240
  call void @_ZNSaIcEC1Ev(%"class.std::ios_base::Init"* %ref.tmp245) #3, !dbg !10923
  invoke void @_ZNSsC1EPKcRKSaIcE(%"class.std::basic_string"* %ref.tmp244, i8* getelementptr inbounds ([20 x i8]* @.str18, i32 0, i32 0), %"class.std::ios_base::Init"* dereferenceable(1) %ref.tmp245)
          to label %invoke.cont247 unwind label %lpad246, !dbg !10923

invoke.cont247:                                   ; preds = %if.then243
  invoke void @_ZN3ros7console21initializeLogLocationEPNS0_11LogLocationERKSsNS0_6levels5LevelE(%"struct.ros::console::LogLocation"* @_ZZNK3ros9Publisher7publishIN8std_msgs6Int16_ISaIvEEEEEvRKT_E3loc_5, %"class.std::basic_string"* dereferenceable(8) %ref.tmp244, i32 4)
          to label %invoke.cont249 unwind label %lpad248, !dbg !10926

invoke.cont249:                                   ; preds = %invoke.cont247
  invoke void @_ZNSsD1Ev(%"class.std::basic_string"* %ref.tmp244)
          to label %invoke.cont250 unwind label %lpad246, !dbg !10928

invoke.cont250:                                   ; preds = %invoke.cont249
  call void @_ZNSaIcED1Ev(%"class.std::ios_base::Init"* %ref.tmp245) #3, !dbg !10930
  br label %if.end254, !dbg !10930

lpad246:                                          ; preds = %invoke.cont249, %if.then243
  %95 = landingpad { i8*, i32 } personality i8* bitcast (i32 (...)* @__gxx_personality_v0 to i8*)
          cleanup, !dbg !10932
  %96 = extractvalue { i8*, i32 } %95, 0, !dbg !10932
  store i8* %96, i8** %exn.slot, !dbg !10932
  %97 = extractvalue { i8*, i32 } %95, 1, !dbg !10932
  store i32 %97, i32* %ehselector.slot, !dbg !10932
  br label %ehcleanup253, !dbg !10932

lpad248:                                          ; preds = %invoke.cont247
  %98 = landingpad { i8*, i32 } personality i8* bitcast (i32 (...)* @__gxx_personality_v0 to i8*)
          cleanup, !dbg !10932
  %99 = extractvalue { i8*, i32 } %98, 0, !dbg !10932
  store i8* %99, i8** %exn.slot, !dbg !10932
  %100 = extractvalue { i8*, i32 } %98, 1, !dbg !10932
  store i32 %100, i32* %ehselector.slot, !dbg !10932
  invoke void @_ZNSsD1Ev(%"class.std::basic_string"* %ref.tmp244)
          to label %invoke.cont252 unwind label %terminate.lpad, !dbg !10933

invoke.cont252:                                   ; preds = %lpad248
  br label %ehcleanup253, !dbg !10934

ehcleanup253:                                     ; preds = %invoke.cont252, %lpad246
  call void @_ZNSaIcED1Ev(%"class.std::ios_base::Init"* %ref.tmp245) #3, !dbg !10936
  br label %eh.resume, !dbg !10936

if.end254:                                        ; preds = %invoke.cont250, %do.end240
  %101 = load i32* getelementptr inbounds (%"struct.ros::console::LogLocation"* @_ZZNK3ros9Publisher7publishIN8std_msgs6Int16_ISaIvEEEEEvRKT_E3loc_5, i32 0, i32 2), align 4, !dbg !10938
  %cmp255 = icmp ne i32 %101, 4, !dbg !10938
  br i1 %cmp255, label %if.then256, label %if.end257, !dbg !10922

if.then256:                                       ; preds = %if.end254
  call void @_ZN3ros7console19setLogLocationLevelEPNS0_11LogLocationENS0_6levels5LevelE(%"struct.ros::console::LogLocation"* @_ZZNK3ros9Publisher7publishIN8std_msgs6Int16_ISaIvEEEEEvRKT_E3loc_5, i32 4), !dbg !10942
  call void @_ZN3ros7console23checkLogLocationEnabledEPNS0_11LogLocationE(%"struct.ros::console::LogLocation"* @_ZZNK3ros9Publisher7publishIN8std_msgs6Int16_ISaIvEEEEEvRKT_E3loc_5), !dbg !10942
  br label %if.end257, !dbg !10942

if.end257:                                        ; preds = %if.then256, %if.end254
  call void @llvm.dbg.declare(metadata i8* %enabled258, metadata !10945, metadata !10095), !dbg !10922
  %102 = load i8* getelementptr inbounds (%"struct.ros::console::LogLocation"* @_ZZNK3ros9Publisher7publishIN8std_msgs6Int16_ISaIvEEEEEvRKT_E3loc_5, i32 0, i32 1), align 1, !dbg !10946
  %tobool259 = trunc i8 %102 to i1, !dbg !10946
  br i1 %tobool259, label %land.rhs260, label %land.end261, !dbg !10946

land.rhs260:                                      ; preds = %if.end257
  br label %land.end261

land.end261:                                      ; preds = %land.rhs260, %if.end257
  %103 = phi i1 [ false, %if.end257 ], [ true, %land.rhs260 ]
  %frombool262 = zext i1 %103 to i8, !dbg !10949
  store i8 %frombool262, i8* %enabled258, align 1, !dbg !10949
  %104 = load i8* %enabled258, align 1, !dbg !10951
  %tobool263 = trunc i8 %104 to i1, !dbg !10951
  br i1 %tobool263, label %if.then264, label %if.end265, !dbg !10922

if.then264:                                       ; preds = %land.end261
  %105 = load %"class.log4cxx::Logger"** getelementptr inbounds (%"struct.ros::console::LogLocation"* @_ZZNK3ros9Publisher7publishIN8std_msgs6Int16_ISaIvEEEEEvRKT_E3loc_5, i32 0, i32 3), align 8, !dbg !10953
  %106 = load i32* getelementptr inbounds (%"struct.ros::console::LogLocation"* @_ZZNK3ros9Publisher7publishIN8std_msgs6Int16_ISaIvEEEEEvRKT_E3loc_5, i32 0, i32 2), align 4, !dbg !10953
  call void (%"class.ros::SubscriptionCallbackHelper"*, %"class.log4cxx::Logger"*, i32, i8*, i32, i8*, i8*, ...)* @_ZN3ros7console5printEPNS0_10FilterBaseEPN7log4cxx6LoggerENS0_6levels5LevelEPKciS9_S9_z(%"class.ros::SubscriptionCallbackHelper"* null, %"class.log4cxx::Logger"* %105, i32 %106, i8* getelementptr inbounds ([40 x i8]* @.str23, i32 0, i32 0), i32 115, i8* getelementptr inbounds ([92 x i8]* @__PRETTY_FUNCTION__._ZNK3ros9Publisher7publishIN8std_msgs6Int16_ISaIvEEEEEvRKT_, i32 0, i32 0), i8* getelementptr inbounds ([62 x i8]* @.str24, i32 0, i32 0), i8* getelementptr inbounds ([40 x i8]* @.str23, i32 0, i32 0), i32 115, i8* getelementptr inbounds ([112 x i8]* @.str30, i32 0, i32 0)), !dbg !10953
  br label %if.end265, !dbg !10953

if.end265:                                        ; preds = %if.then264, %land.end261
  br label %do.end266, !dbg !10956

do.end266:                                        ; preds = %if.end265
  br label %do.body267, !dbg !10959

do.body267:                                       ; preds = %do.end266
  br label %do.body268, !dbg !10961

do.body268:                                       ; preds = %do.body267
  %107 = load i8* @_ZN3ros7console13g_initializedE, align 1, !dbg !10964
  %tobool269 = trunc i8 %107 to i1, !dbg !10964
  %lnot270 = xor i1 %tobool269, true, !dbg !10964
  br i1 %lnot270, label %if.then271, label %if.end272, !dbg !10968

if.then271:                                       ; preds = %do.body268
  call void @_ZN3ros7console10initializeEv(), !dbg !10969
  br label %if.end272, !dbg !10969

if.end272:                                        ; preds = %if.then271, %do.body268
  br label %do.end273, !dbg !10972

do.end273:                                        ; preds = %if.end272
  %108 = load i8* getelementptr inbounds (%"struct.ros::console::LogLocation"* @_ZZNK3ros9Publisher7publishIN8std_msgs6Int16_ISaIvEEEEEvRKT_E3loc_6, i32 0, i32 0), align 1, !dbg !10975
  %tobool274 = trunc i8 %108 to i1, !dbg !10975
  %lnot275 = xor i1 %tobool274, true, !dbg !10975
  br i1 %lnot275, label %if.then276, label %if.end287, !dbg !10978

if.then276:                                       ; preds = %do.end273
  call void @_ZNSaIcEC1Ev(%"class.std::ios_base::Init"* %ref.tmp278) #3, !dbg !10979
  invoke void @_ZNSsC1EPKcRKSaIcE(%"class.std::basic_string"* %ref.tmp277, i8* getelementptr inbounds ([20 x i8]* @.str18, i32 0, i32 0), %"class.std::ios_base::Init"* dereferenceable(1) %ref.tmp278)
          to label %invoke.cont280 unwind label %lpad279, !dbg !10979

invoke.cont280:                                   ; preds = %if.then276
  invoke void @_ZN3ros7console21initializeLogLocationEPNS0_11LogLocationERKSsNS0_6levels5LevelE(%"struct.ros::console::LogLocation"* @_ZZNK3ros9Publisher7publishIN8std_msgs6Int16_ISaIvEEEEEvRKT_E3loc_6, %"class.std::basic_string"* dereferenceable(8) %ref.tmp277, i32 4)
          to label %invoke.cont282 unwind label %lpad281, !dbg !10982

invoke.cont282:                                   ; preds = %invoke.cont280
  invoke void @_ZNSsD1Ev(%"class.std::basic_string"* %ref.tmp277)
          to label %invoke.cont283 unwind label %lpad279, !dbg !10984

invoke.cont283:                                   ; preds = %invoke.cont282
  call void @_ZNSaIcED1Ev(%"class.std::ios_base::Init"* %ref.tmp278) #3, !dbg !10986
  br label %if.end287, !dbg !10986

lpad279:                                          ; preds = %invoke.cont282, %if.then276
  %109 = landingpad { i8*, i32 } personality i8* bitcast (i32 (...)* @__gxx_personality_v0 to i8*)
          cleanup, !dbg !10988
  %110 = extractvalue { i8*, i32 } %109, 0, !dbg !10988
  store i8* %110, i8** %exn.slot, !dbg !10988
  %111 = extractvalue { i8*, i32 } %109, 1, !dbg !10988
  store i32 %111, i32* %ehselector.slot, !dbg !10988
  br label %ehcleanup286, !dbg !10988

lpad281:                                          ; preds = %invoke.cont280
  %112 = landingpad { i8*, i32 } personality i8* bitcast (i32 (...)* @__gxx_personality_v0 to i8*)
          cleanup, !dbg !10988
  %113 = extractvalue { i8*, i32 } %112, 0, !dbg !10988
  store i8* %113, i8** %exn.slot, !dbg !10988
  %114 = extractvalue { i8*, i32 } %112, 1, !dbg !10988
  store i32 %114, i32* %ehselector.slot, !dbg !10988
  invoke void @_ZNSsD1Ev(%"class.std::basic_string"* %ref.tmp277)
          to label %invoke.cont285 unwind label %terminate.lpad, !dbg !10989

invoke.cont285:                                   ; preds = %lpad281
  br label %ehcleanup286, !dbg !10990

ehcleanup286:                                     ; preds = %invoke.cont285, %lpad279
  call void @_ZNSaIcED1Ev(%"class.std::ios_base::Init"* %ref.tmp278) #3, !dbg !10992
  br label %eh.resume, !dbg !10992

if.end287:                                        ; preds = %invoke.cont283, %do.end273
  %115 = load i32* getelementptr inbounds (%"struct.ros::console::LogLocation"* @_ZZNK3ros9Publisher7publishIN8std_msgs6Int16_ISaIvEEEEEvRKT_E3loc_6, i32 0, i32 2), align 4, !dbg !10994
  %cmp288 = icmp ne i32 %115, 4, !dbg !10994
  br i1 %cmp288, label %if.then289, label %if.end290, !dbg !10978

if.then289:                                       ; preds = %if.end287
  call void @_ZN3ros7console19setLogLocationLevelEPNS0_11LogLocationENS0_6levels5LevelE(%"struct.ros::console::LogLocation"* @_ZZNK3ros9Publisher7publishIN8std_msgs6Int16_ISaIvEEEEEvRKT_E3loc_6, i32 4), !dbg !10998
  call void @_ZN3ros7console23checkLogLocationEnabledEPNS0_11LogLocationE(%"struct.ros::console::LogLocation"* @_ZZNK3ros9Publisher7publishIN8std_msgs6Int16_ISaIvEEEEEvRKT_E3loc_6), !dbg !10998
  br label %if.end290, !dbg !10998

if.end290:                                        ; preds = %if.then289, %if.end287
  call void @llvm.dbg.declare(metadata i8* %enabled291, metadata !11001, metadata !10095), !dbg !10978
  %116 = load i8* getelementptr inbounds (%"struct.ros::console::LogLocation"* @_ZZNK3ros9Publisher7publishIN8std_msgs6Int16_ISaIvEEEEEvRKT_E3loc_6, i32 0, i32 1), align 1, !dbg !11002
  %tobool292 = trunc i8 %116 to i1, !dbg !11002
  br i1 %tobool292, label %land.rhs293, label %land.end294, !dbg !11002

land.rhs293:                                      ; preds = %if.end290
  br label %land.end294

land.end294:                                      ; preds = %land.rhs293, %if.end290
  %117 = phi i1 [ false, %if.end290 ], [ true, %land.rhs293 ]
  %frombool295 = zext i1 %117 to i8, !dbg !11005
  store i8 %frombool295, i8* %enabled291, align 1, !dbg !11005
  %118 = load i8* %enabled291, align 1, !dbg !11007
  %tobool296 = trunc i8 %118 to i1, !dbg !11007
  br i1 %tobool296, label %if.then297, label %if.end307, !dbg !10978

if.then297:                                       ; preds = %land.end294
  %119 = load %"class.log4cxx::Logger"** getelementptr inbounds (%"struct.ros::console::LogLocation"* @_ZZNK3ros9Publisher7publishIN8std_msgs6Int16_ISaIvEEEEEvRKT_E3loc_6, i32 0, i32 3), align 8, !dbg !11009
  %120 = load i32* getelementptr inbounds (%"struct.ros::console::LogLocation"* @_ZZNK3ros9Publisher7publishIN8std_msgs6Int16_ISaIvEEEEEvRKT_E3loc_6, i32 0, i32 2), align 4, !dbg !11009
  %121 = load %"struct.std_msgs::Int16_"** %message.addr, align 8, !dbg !11009
  %call298 = call i8* @_ZN3ros14message_traits8datatypeIN8std_msgs6Int16_ISaIvEEEEEPKcRKT_(%"struct.std_msgs::Int16_"* dereferenceable(24) %121), !dbg !11009
  %122 = load %"struct.std_msgs::Int16_"** %message.addr, align 8, !dbg !11009
  %call299 = call i8* @_ZN3ros14message_traits6md5sumIN8std_msgs6Int16_ISaIvEEEEEPKcRKT_(%"struct.std_msgs::Int16_"* dereferenceable(24) %122), !dbg !11009
  %impl_300 = getelementptr inbounds %"class.ros::Publisher"* %this1, i32 0, i32 0, !dbg !11009
  %call301 = call %"class.ros::Publisher::Impl"* @_ZNK5boost10shared_ptrIN3ros9Publisher4ImplEEptEv(%"class.boost::shared_ptr.21"* %impl_300), !dbg !11009
  %datatype_ = getelementptr inbounds %"class.ros::Publisher::Impl"* %call301, i32 0, i32 2, !dbg !11009
  %call302 = call i8* @_ZNKSs5c_strEv(%"class.std::basic_string"* %datatype_), !dbg !11009
  %impl_303 = getelementptr inbounds %"class.ros::Publisher"* %this1, i32 0, i32 0, !dbg !11009
  %call304 = call %"class.ros::Publisher::Impl"* @_ZNK5boost10shared_ptrIN3ros9Publisher4ImplEEptEv(%"class.boost::shared_ptr.21"* %impl_303), !dbg !11009
  %md5sum_305 = getelementptr inbounds %"class.ros::Publisher::Impl"* %call304, i32 0, i32 1, !dbg !11009
  %call306 = call i8* @_ZNKSs5c_strEv(%"class.std::basic_string"* %md5sum_305), !dbg !11009
  call void (%"class.ros::SubscriptionCallbackHelper"*, %"class.log4cxx::Logger"*, i32, i8*, i32, i8*, i8*, ...)* @_ZN3ros7console5printEPNS0_10FilterBaseEPN7log4cxx6LoggerENS0_6levels5LevelEPKciS9_S9_z(%"class.ros::SubscriptionCallbackHelper"* null, %"class.log4cxx::Logger"* %119, i32 %120, i8* getelementptr inbounds ([40 x i8]* @.str23, i32 0, i32 0), i32 115, i8* getelementptr inbounds ([92 x i8]* @__PRETTY_FUNCTION__._ZNK3ros9Publisher7publishIN8std_msgs6Int16_ISaIvEEEEEvRKT_, i32 0, i32 0), i8* getelementptr inbounds ([75 x i8]* @.str31, i32 0, i32 0), i8* %call298, i8* %call299, i8* %call302, i8* %call306), !dbg !11009
  br label %if.end307, !dbg !11009

if.end307:                                        ; preds = %if.then297, %land.end294
  br label %do.end308, !dbg !11012

do.end308:                                        ; preds = %if.end307
  br label %do.body309, !dbg !11015

do.body309:                                       ; preds = %do.end308
  br label %do.body310, !dbg !11017

do.body310:                                       ; preds = %do.body309
  %123 = load i8* @_ZN3ros7console13g_initializedE, align 1, !dbg !11020
  %tobool311 = trunc i8 %123 to i1, !dbg !11020
  %lnot312 = xor i1 %tobool311, true, !dbg !11020
  br i1 %lnot312, label %if.then313, label %if.end314, !dbg !11024

if.then313:                                       ; preds = %do.body310
  call void @_ZN3ros7console10initializeEv(), !dbg !11025
  br label %if.end314, !dbg !11025

if.end314:                                        ; preds = %if.then313, %do.body310
  br label %do.end315, !dbg !11028

do.end315:                                        ; preds = %if.end314
  %124 = load i8* getelementptr inbounds (%"struct.ros::console::LogLocation"* @_ZZNK3ros9Publisher7publishIN8std_msgs6Int16_ISaIvEEEEEvRKT_E3loc_7, i32 0, i32 0), align 1, !dbg !11031
  %tobool316 = trunc i8 %124 to i1, !dbg !11031
  %lnot317 = xor i1 %tobool316, true, !dbg !11031
  br i1 %lnot317, label %if.then318, label %if.end329, !dbg !11034

if.then318:                                       ; preds = %do.end315
  call void @_ZNSaIcEC1Ev(%"class.std::ios_base::Init"* %ref.tmp320) #3, !dbg !11035
  invoke void @_ZNSsC1EPKcRKSaIcE(%"class.std::basic_string"* %ref.tmp319, i8* getelementptr inbounds ([20 x i8]* @.str18, i32 0, i32 0), %"class.std::ios_base::Init"* dereferenceable(1) %ref.tmp320)
          to label %invoke.cont322 unwind label %lpad321, !dbg !11035

invoke.cont322:                                   ; preds = %if.then318
  invoke void @_ZN3ros7console21initializeLogLocationEPNS0_11LogLocationERKSsNS0_6levels5LevelE(%"struct.ros::console::LogLocation"* @_ZZNK3ros9Publisher7publishIN8std_msgs6Int16_ISaIvEEEEEvRKT_E3loc_7, %"class.std::basic_string"* dereferenceable(8) %ref.tmp319, i32 4)
          to label %invoke.cont324 unwind label %lpad323, !dbg !11038

invoke.cont324:                                   ; preds = %invoke.cont322
  invoke void @_ZNSsD1Ev(%"class.std::basic_string"* %ref.tmp319)
          to label %invoke.cont325 unwind label %lpad321, !dbg !11040

invoke.cont325:                                   ; preds = %invoke.cont324
  call void @_ZNSaIcED1Ev(%"class.std::ios_base::Init"* %ref.tmp320) #3, !dbg !11042
  br label %if.end329, !dbg !11042

lpad321:                                          ; preds = %invoke.cont324, %if.then318
  %125 = landingpad { i8*, i32 } personality i8* bitcast (i32 (...)* @__gxx_personality_v0 to i8*)
          cleanup, !dbg !11044
  %126 = extractvalue { i8*, i32 } %125, 0, !dbg !11044
  store i8* %126, i8** %exn.slot, !dbg !11044
  %127 = extractvalue { i8*, i32 } %125, 1, !dbg !11044
  store i32 %127, i32* %ehselector.slot, !dbg !11044
  br label %ehcleanup328, !dbg !11044

lpad323:                                          ; preds = %invoke.cont322
  %128 = landingpad { i8*, i32 } personality i8* bitcast (i32 (...)* @__gxx_personality_v0 to i8*)
          cleanup, !dbg !11044
  %129 = extractvalue { i8*, i32 } %128, 0, !dbg !11044
  store i8* %129, i8** %exn.slot, !dbg !11044
  %130 = extractvalue { i8*, i32 } %128, 1, !dbg !11044
  store i32 %130, i32* %ehselector.slot, !dbg !11044
  invoke void @_ZNSsD1Ev(%"class.std::basic_string"* %ref.tmp319)
          to label %invoke.cont327 unwind label %terminate.lpad, !dbg !11045

invoke.cont327:                                   ; preds = %lpad323
  br label %ehcleanup328, !dbg !11046

ehcleanup328:                                     ; preds = %invoke.cont327, %lpad321
  call void @_ZNSaIcED1Ev(%"class.std::ios_base::Init"* %ref.tmp320) #3, !dbg !11048
  br label %eh.resume, !dbg !11048

if.end329:                                        ; preds = %invoke.cont325, %do.end315
  %131 = load i32* getelementptr inbounds (%"struct.ros::console::LogLocation"* @_ZZNK3ros9Publisher7publishIN8std_msgs6Int16_ISaIvEEEEEvRKT_E3loc_7, i32 0, i32 2), align 4, !dbg !11050
  %cmp330 = icmp ne i32 %131, 4, !dbg !11050
  br i1 %cmp330, label %if.then331, label %if.end332, !dbg !11034

if.then331:                                       ; preds = %if.end329
  call void @_ZN3ros7console19setLogLocationLevelEPNS0_11LogLocationENS0_6levels5LevelE(%"struct.ros::console::LogLocation"* @_ZZNK3ros9Publisher7publishIN8std_msgs6Int16_ISaIvEEEEEvRKT_E3loc_7, i32 4), !dbg !11054
  call void @_ZN3ros7console23checkLogLocationEnabledEPNS0_11LogLocationE(%"struct.ros::console::LogLocation"* @_ZZNK3ros9Publisher7publishIN8std_msgs6Int16_ISaIvEEEEEvRKT_E3loc_7), !dbg !11054
  br label %if.end332, !dbg !11054

if.end332:                                        ; preds = %if.then331, %if.end329
  call void @llvm.dbg.declare(metadata i8* %enabled333, metadata !11057, metadata !10095), !dbg !11034
  %132 = load i8* getelementptr inbounds (%"struct.ros::console::LogLocation"* @_ZZNK3ros9Publisher7publishIN8std_msgs6Int16_ISaIvEEEEEvRKT_E3loc_7, i32 0, i32 1), align 1, !dbg !11058
  %tobool334 = trunc i8 %132 to i1, !dbg !11058
  br i1 %tobool334, label %land.rhs335, label %land.end336, !dbg !11058

land.rhs335:                                      ; preds = %if.end332
  br label %land.end336

land.end336:                                      ; preds = %land.rhs335, %if.end332
  %133 = phi i1 [ false, %if.end332 ], [ true, %land.rhs335 ]
  %frombool337 = zext i1 %133 to i8, !dbg !11061
  store i8 %frombool337, i8* %enabled333, align 1, !dbg !11061
  %134 = load i8* %enabled333, align 1, !dbg !11063
  %tobool338 = trunc i8 %134 to i1, !dbg !11063
  br i1 %tobool338, label %if.then339, label %if.end340, !dbg !11034

if.then339:                                       ; preds = %land.end336
  %135 = load %"class.log4cxx::Logger"** getelementptr inbounds (%"struct.ros::console::LogLocation"* @_ZZNK3ros9Publisher7publishIN8std_msgs6Int16_ISaIvEEEEEvRKT_E3loc_7, i32 0, i32 3), align 8, !dbg !11065
  %136 = load i32* getelementptr inbounds (%"struct.ros::console::LogLocation"* @_ZZNK3ros9Publisher7publishIN8std_msgs6Int16_ISaIvEEEEEvRKT_E3loc_7, i32 0, i32 2), align 4, !dbg !11065
  call void (%"class.ros::SubscriptionCallbackHelper"*, %"class.log4cxx::Logger"*, i32, i8*, i32, i8*, i8*, ...)* @_ZN3ros7console5printEPNS0_10FilterBaseEPN7log4cxx6LoggerENS0_6levels5LevelEPKciS9_S9_z(%"class.ros::SubscriptionCallbackHelper"* null, %"class.log4cxx::Logger"* %135, i32 %136, i8* getelementptr inbounds ([40 x i8]* @.str23, i32 0, i32 0), i32 115, i8* getelementptr inbounds ([92 x i8]* @__PRETTY_FUNCTION__._ZNK3ros9Publisher7publishIN8std_msgs6Int16_ISaIvEEEEEvRKT_, i32 0, i32 0), i8* getelementptr inbounds ([2 x i8]* @.str27, i32 0, i32 0)), !dbg !11065
  br label %if.end340, !dbg !11065

if.end340:                                        ; preds = %if.then339, %land.end336
  br label %do.end341, !dbg !11068

do.end341:                                        ; preds = %if.end340
  call void asm sideeffect "int $$3", "~{dirflag},~{fpsr},~{flags}"() #3, !dbg !11071, !srcloc !11073
  br label %if.end342, !dbg !11071

if.end342:                                        ; preds = %do.end341, %cleanup.done228
  br label %do.end343, !dbg !11074

do.end343:                                        ; preds = %if.end342
  call void @llvm.dbg.declare(metadata %"class.ros::SerializedMessage"* %m, metadata !11077, metadata !10095), !dbg !11078
  call void @_ZN3ros17SerializedMessageC2Ev(%"class.ros::SerializedMessage"* %m), !dbg !11078
  %137 = load %"struct.std_msgs::Int16_"** %message.addr, align 8, !dbg !11079
  %call348 = invoke %"struct.std_msgs::Int16_"* @_ZN5boost3refIKN8std_msgs6Int16_ISaIvEEEEEKNS_17reference_wrapperIT_EERS7_(%"struct.std_msgs::Int16_"* dereferenceable(24) %137)
          to label %invoke.cont347 unwind label %lpad346, !dbg !11080

invoke.cont347:                                   ; preds = %do.end343
  %coerce.dive = getelementptr %"class.boost::reference_wrapper"* %agg.tmp345, i32 0, i32 0, !dbg !11081
  store %"struct.std_msgs::Int16_"* %call348, %"struct.std_msgs::Int16_"** %coerce.dive, !dbg !11081
  %coerce.dive349 = getelementptr %"class.boost::reference_wrapper"* %agg.tmp345, i32 0, i32 0, !dbg !11083
  %138 = load %"struct.std_msgs::Int16_"** %coerce.dive349, !dbg !11083
  %call351 = invoke { void (%"class.ros::SerializedMessage"*, %"struct.std_msgs::Int16_"*)*, %"struct.std_msgs::Int16_"* } @_ZN5boost4bindIN3ros17SerializedMessageERKN8std_msgs6Int16_ISaIvEEENS_17reference_wrapperIS7_EEEENS_3_bi6bind_tIT_PFSD_T0_ENSB_9list_av_1IT1_E4typeEEESG_SI_(void (%"class.ros::SerializedMessage"*, %"struct.std_msgs::Int16_"*)* @_ZN3ros13serialization16serializeMessageIN8std_msgs6Int16_ISaIvEEEEENS_17SerializedMessageERKT_, %"struct.std_msgs::Int16_"* %138)
          to label %invoke.cont350 unwind label %lpad346, !dbg !11083

invoke.cont350:                                   ; preds = %invoke.cont347
  %139 = bitcast %"class.boost::_bi::bind_t.63"* %agg.tmp to { void (%"class.ros::SerializedMessage"*, %"struct.std_msgs::Int16_"*)*, %"struct.std_msgs::Int16_"* }*, !dbg !11084
  %140 = getelementptr { void (%"class.ros::SerializedMessage"*, %"struct.std_msgs::Int16_"*)*, %"struct.std_msgs::Int16_"* }* %139, i32 0, i32 0, !dbg !11084
  %141 = extractvalue { void (%"class.ros::SerializedMessage"*, %"struct.std_msgs::Int16_"*)*, %"struct.std_msgs::Int16_"* } %call351, 0, !dbg !11084
  store void (%"class.ros::SerializedMessage"*, %"struct.std_msgs::Int16_"*)* %141, void (%"class.ros::SerializedMessage"*, %"struct.std_msgs::Int16_"*)** %140, align 1, !dbg !11084
  %142 = getelementptr { void (%"class.ros::SerializedMessage"*, %"struct.std_msgs::Int16_"*)*, %"struct.std_msgs::Int16_"* }* %139, i32 0, i32 1, !dbg !11084
  %143 = extractvalue { void (%"class.ros::SerializedMessage"*, %"struct.std_msgs::Int16_"*)*, %"struct.std_msgs::Int16_"* } %call351, 1, !dbg !11084
  store %"struct.std_msgs::Int16_"* %143, %"struct.std_msgs::Int16_"** %142, align 1, !dbg !11084
  %144 = bitcast %"class.boost::_bi::bind_t.63"* %agg.tmp to { void (%"class.ros::SerializedMessage"*, %"struct.std_msgs::Int16_"*)*, %"struct.std_msgs::Int16_"* }*, !dbg !11084
  %145 = getelementptr { void (%"class.ros::SerializedMessage"*, %"struct.std_msgs::Int16_"*)*, %"struct.std_msgs::Int16_"* }* %144, i32 0, i32 0, !dbg !11084
  %146 = load void (%"class.ros::SerializedMessage"*, %"struct.std_msgs::Int16_"*)** %145, align 1, !dbg !11084
  %147 = getelementptr { void (%"class.ros::SerializedMessage"*, %"struct.std_msgs::Int16_"*)*, %"struct.std_msgs::Int16_"* }* %144, i32 0, i32 1, !dbg !11084
  %148 = load %"struct.std_msgs::Int16_"** %147, align 1, !dbg !11084
  invoke void @_ZN5boost8functionIFN3ros17SerializedMessageEvEEC2INS_3_bi6bind_tIS2_PFS2_RKN8std_msgs6Int16_ISaIvEEEENS6_5list1INS_17reference_wrapperISC_EEEEEEEET_NS_11enable_if_cIXsr5boost11type_traits7ice_notIXsr11is_integralISL_EE5valueEEE5valueEiE4typeE(%"class.boost::function"* %ref.tmp344, void (%"class.ros::SerializedMessage"*, %"struct.std_msgs::Int16_"*)* %146, %"struct.std_msgs::Int16_"* %148, i32 0)
          to label %invoke.cont352 unwind label %lpad346, !dbg !11084

invoke.cont352:                                   ; preds = %invoke.cont350
  invoke void @_ZNK3ros9Publisher7publishERKN5boost8functionIFNS_17SerializedMessageEvEEERS3_(%"class.ros::Publisher"* %this1, %"class.boost::function"* dereferenceable(32) %ref.tmp344, %"class.ros::SerializedMessage"* dereferenceable(56) %m)
          to label %invoke.cont354 unwind label %lpad353, !dbg !11086

invoke.cont354:                                   ; preds = %invoke.cont352
  invoke void @_ZN5boost8functionIFN3ros17SerializedMessageEvEED2Ev(%"class.boost::function"* %ref.tmp344)
          to label %invoke.cont355 unwind label %lpad346, !dbg !11088

invoke.cont355:                                   ; preds = %invoke.cont354
  call void @_ZN3ros17SerializedMessageD2Ev(%"class.ros::SerializedMessage"* %m), !dbg !11090
  br label %return, !dbg !11090

return:                                           ; preds = %invoke.cont355, %do.end196, %do.end87
  ret void, !dbg !11091

lpad346:                                          ; preds = %invoke.cont354, %invoke.cont350, %invoke.cont347, %do.end343
  %149 = landingpad { i8*, i32 } personality i8* bitcast (i32 (...)* @__gxx_personality_v0 to i8*)
          cleanup, !dbg !11090
  %150 = extractvalue { i8*, i32 } %149, 0, !dbg !11090
  store i8* %150, i8** %exn.slot, !dbg !11090
  %151 = extractvalue { i8*, i32 } %149, 1, !dbg !11090
  store i32 %151, i32* %ehselector.slot, !dbg !11090
  br label %ehcleanup358, !dbg !11090

lpad353:                                          ; preds = %invoke.cont352
  %152 = landingpad { i8*, i32 } personality i8* bitcast (i32 (...)* @__gxx_personality_v0 to i8*)
          cleanup, !dbg !11090
  %153 = extractvalue { i8*, i32 } %152, 0, !dbg !11090
  store i8* %153, i8** %exn.slot, !dbg !11090
  %154 = extractvalue { i8*, i32 } %152, 1, !dbg !11090
  store i32 %154, i32* %ehselector.slot, !dbg !11090
  invoke void @_ZN5boost8functionIFN3ros17SerializedMessageEvEED2Ev(%"class.boost::function"* %ref.tmp344)
          to label %invoke.cont357 unwind label %terminate.lpad, !dbg !11092

invoke.cont357:                                   ; preds = %lpad353
  br label %ehcleanup358, !dbg !11093

ehcleanup358:                                     ; preds = %invoke.cont357, %lpad346
  invoke void @_ZN3ros17SerializedMessageD2Ev(%"class.ros::SerializedMessage"* %m)
          to label %invoke.cont359 unwind label %terminate.lpad, !dbg !11095

invoke.cont359:                                   ; preds = %ehcleanup358
  br label %eh.resume, !dbg !11096

eh.resume:                                        ; preds = %invoke.cont359, %ehcleanup328, %ehcleanup286, %ehcleanup253, %cleanup.done232, %ehcleanup182, %ehcleanup146, %ehcleanup113, %ehcleanup73, %ehcleanup40, %ehcleanup
  %exn = load i8** %exn.slot, !dbg !11097
  %sel = load i32* %ehselector.slot, !dbg !11097
  %lpad.val = insertvalue { i8*, i32 } undef, i8* %exn, 0, !dbg !11097
  %lpad.val360 = insertvalue { i8*, i32 } %lpad.val, i32 %sel, 1, !dbg !11097
  resume { i8*, i32 } %lpad.val360, !dbg !11097

terminate.lpad:                                   ; preds = %ehcleanup358, %lpad353, %lpad323, %lpad281, %lpad248, %cleanup.action223, %lpad177, %lpad141, %lpad108, %lpad68, %lpad35, %lpad9
  %155 = landingpad { i8*, i32 } personality i8* bitcast (i32 (...)* @__gxx_personality_v0 to i8*)
          catch i8* null, !dbg !11101
  %156 = extractvalue { i8*, i32 } %155, 0, !dbg !11101
  call void @__clang_call_terminate(i8* %156) #9, !dbg !11101
  unreachable, !dbg !11101
}

; Function Attrs: inlinehint uwtable
define linkonce_odr void @_ZN8std_msgs6Int16_ISaIvEED2Ev(%"struct.std_msgs::Int16_"* %this) unnamed_addr #11 comdat align 2 {
entry:
  %this.addr = alloca %"struct.std_msgs::Int16_"*, align 8
  store %"struct.std_msgs::Int16_"* %this, %"struct.std_msgs::Int16_"** %this.addr, align 8
  call void @llvm.dbg.declare(metadata %"struct.std_msgs::Int16_"** %this.addr, metadata !11105, metadata !10095), !dbg !11106
  %this1 = load %"struct.std_msgs::Int16_"** %this.addr
  %__connection_header = getelementptr inbounds %"struct.std_msgs::Int16_"* %this1, i32 0, i32 1, !dbg !11107
  call void @_ZN5boost10shared_ptrISt3mapISsSsSt4lessISsESaISt4pairIKSsSsEEEED2Ev(%"class.boost::shared_ptr.27"* %__connection_header), !dbg !11107
  ret void, !dbg !11109
}

; Function Attrs: inlinehint uwtable
define linkonce_odr void @_ZN4TestD2Ev(%class.Test* %this) unnamed_addr #11 comdat align 2 {
entry:
  %this.addr = alloca %class.Test*, align 8
  %exn.slot = alloca i8*
  %ehselector.slot = alloca i32
  store %class.Test* %this, %class.Test** %this.addr, align 8
  call void @llvm.dbg.declare(metadata %class.Test** %this.addr, metadata !11110, metadata !10095), !dbg !11111
  %this1 = load %class.Test** %this.addr
  %msg_pub = getelementptr inbounds %class.Test* %this1, i32 0, i32 4, !dbg !11112
  invoke void @_ZN3ros9PublisherD1Ev(%"class.ros::Publisher"* %msg_pub)
          to label %invoke.cont unwind label %lpad, !dbg !11112

invoke.cont:                                      ; preds = %entry
  %msg_sub = getelementptr inbounds %class.Test* %this1, i32 0, i32 3, !dbg !11114
  invoke void @_ZN3ros10SubscriberD1Ev(%"class.ros::Subscriber"* %msg_sub)
          to label %invoke.cont3 unwind label %lpad2, !dbg !11114

invoke.cont3:                                     ; preds = %invoke.cont
  %nh = getelementptr inbounds %class.Test* %this1, i32 0, i32 1, !dbg !11116
  invoke void @_ZN3ros10NodeHandleD1Ev(%"class.ros::NodeHandle"* %nh)
          to label %invoke.cont7 unwind label %lpad6, !dbg !11116

invoke.cont7:                                     ; preds = %invoke.cont3
  %private_nh_ = getelementptr inbounds %class.Test* %this1, i32 0, i32 0, !dbg !11118
  call void @_ZN3ros10NodeHandleD1Ev(%"class.ros::NodeHandle"* %private_nh_), !dbg !11118
  ret void, !dbg !11120

lpad:                                             ; preds = %entry
  %0 = landingpad { i8*, i32 } personality i8* bitcast (i32 (...)* @__gxx_personality_v0 to i8*)
          cleanup, !dbg !11121
  %1 = extractvalue { i8*, i32 } %0, 0, !dbg !11121
  store i8* %1, i8** %exn.slot, !dbg !11121
  %2 = extractvalue { i8*, i32 } %0, 1, !dbg !11121
  store i32 %2, i32* %ehselector.slot, !dbg !11121
  %msg_sub4 = getelementptr inbounds %class.Test* %this1, i32 0, i32 3, !dbg !11112
  invoke void @_ZN3ros10SubscriberD1Ev(%"class.ros::Subscriber"* %msg_sub4)
          to label %invoke.cont5 unwind label %terminate.lpad, !dbg !11112

lpad2:                                            ; preds = %invoke.cont
  %3 = landingpad { i8*, i32 } personality i8* bitcast (i32 (...)* @__gxx_personality_v0 to i8*)
          cleanup, !dbg !11123
  %4 = extractvalue { i8*, i32 } %3, 0, !dbg !11123
  store i8* %4, i8** %exn.slot, !dbg !11123
  %5 = extractvalue { i8*, i32 } %3, 1, !dbg !11123
  store i32 %5, i32* %ehselector.slot, !dbg !11123
  br label %ehcleanup, !dbg !11123

invoke.cont5:                                     ; preds = %lpad
  br label %ehcleanup, !dbg !11125

lpad6:                                            ; preds = %invoke.cont3
  %6 = landingpad { i8*, i32 } personality i8* bitcast (i32 (...)* @__gxx_personality_v0 to i8*)
          cleanup, !dbg !11127
  %7 = extractvalue { i8*, i32 } %6, 0, !dbg !11127
  store i8* %7, i8** %exn.slot, !dbg !11127
  %8 = extractvalue { i8*, i32 } %6, 1, !dbg !11127
  store i32 %8, i32* %ehselector.slot, !dbg !11127
  br label %ehcleanup10, !dbg !11127

ehcleanup:                                        ; preds = %invoke.cont5, %lpad2
  %nh8 = getelementptr inbounds %class.Test* %this1, i32 0, i32 1, !dbg !11129
  invoke void @_ZN3ros10NodeHandleD1Ev(%"class.ros::NodeHandle"* %nh8)
          to label %invoke.cont9 unwind label %terminate.lpad, !dbg !11129

invoke.cont9:                                     ; preds = %ehcleanup
  br label %ehcleanup10, !dbg !11132

ehcleanup10:                                      ; preds = %invoke.cont9, %lpad6
  %private_nh_11 = getelementptr inbounds %class.Test* %this1, i32 0, i32 0, !dbg !11134
  invoke void @_ZN3ros10NodeHandleD1Ev(%"class.ros::NodeHandle"* %private_nh_11)
          to label %invoke.cont12 unwind label %terminate.lpad, !dbg !11134

invoke.cont12:                                    ; preds = %ehcleanup10
  br label %eh.resume, !dbg !11137

eh.resume:                                        ; preds = %invoke.cont12
  %exn = load i8** %exn.slot, !dbg !11139
  %sel = load i32* %ehselector.slot, !dbg !11139
  %lpad.val = insertvalue { i8*, i32 } undef, i8* %exn, 0, !dbg !11139
  %lpad.val13 = insertvalue { i8*, i32 } %lpad.val, i32 %sel, 1, !dbg !11139
  resume { i8*, i32 } %lpad.val13, !dbg !11139

terminate.lpad:                                   ; preds = %ehcleanup10, %ehcleanup, %lpad
  %9 = landingpad { i8*, i32 } personality i8* bitcast (i32 (...)* @__gxx_personality_v0 to i8*)
          catch i8* null, !dbg !11141
  %10 = extractvalue { i8*, i32 } %9, 0, !dbg !11141
  call void @__clang_call_terminate(i8* %10) #9, !dbg !11141
  unreachable, !dbg !11141
}

define internal void @__cxx_global_var_init() section ".text.startup" {
entry:
  call void @_ZNSt8ios_base4InitC1Ev(%"class.std::ios_base::Init"* @_ZStL8__ioinit), !dbg !11145
  %0 = call i32 @__cxa_atexit(void (i8*)* bitcast (void (%"class.std::ios_base::Init"*)* @_ZNSt8ios_base4InitD1Ev to void (i8*)*), i8* getelementptr inbounds (%"class.std::ios_base::Init"* @_ZStL8__ioinit, i32 0, i32 0), i8* @__dso_handle) #3, !dbg !11145
  ret void, !dbg !11145
}

define internal void @__cxx_global_var_init1() section ".text.startup" {
entry:
  call void @_ZN5boost3argILi1EEC2Ev(%"class.std::ios_base::Init"* @_ZN12_GLOBAL__N_12_1E), !dbg !11146
  ret void, !dbg !11146
}

define internal void @__cxx_global_var_init2() section ".text.startup" {
entry:
  call void @_ZN5boost3argILi2EEC2Ev(%"class.std::ios_base::Init"* @_ZN12_GLOBAL__N_12_2E), !dbg !11147
  ret void, !dbg !11147
}

define internal void @__cxx_global_var_init3() section ".text.startup" {
entry:
  call void @_ZN5boost3argILi3EEC2Ev(%"class.std::ios_base::Init"* @_ZN12_GLOBAL__N_12_3E), !dbg !11148
  ret void, !dbg !11148
}

define internal void @__cxx_global_var_init4() section ".text.startup" {
entry:
  call void @_ZN5boost3argILi4EEC2Ev(%"class.std::ios_base::Init"* @_ZN12_GLOBAL__N_12_4E), !dbg !11149
  ret void, !dbg !11149
}

define internal void @__cxx_global_var_init5() section ".text.startup" {
entry:
  call void @_ZN5boost3argILi5EEC2Ev(%"class.std::ios_base::Init"* @_ZN12_GLOBAL__N_12_5E), !dbg !11150
  ret void, !dbg !11150
}

define internal void @__cxx_global_var_init6() section ".text.startup" {
entry:
  call void @_ZN5boost3argILi6EEC2Ev(%"class.std::ios_base::Init"* @_ZN12_GLOBAL__N_12_6E), !dbg !11151
  ret void, !dbg !11151
}

define internal void @__cxx_global_var_init7() section ".text.startup" {
entry:
  call void @_ZN5boost3argILi7EEC2Ev(%"class.std::ios_base::Init"* @_ZN12_GLOBAL__N_12_7E), !dbg !11152
  ret void, !dbg !11152
}

define internal void @__cxx_global_var_init8() section ".text.startup" {
entry:
  call void @_ZN5boost3argILi8EEC2Ev(%"class.std::ios_base::Init"* @_ZN12_GLOBAL__N_12_8E), !dbg !11153
  ret void, !dbg !11153
}

define internal void @__cxx_global_var_init9() section ".text.startup" {
entry:
  call void @_ZN5boost3argILi9EEC2Ev(%"class.std::ios_base::Init"* @_ZN12_GLOBAL__N_12_9E), !dbg !11154
  ret void, !dbg !11154
}

; Function Attrs: uwtable
define linkonce_odr void @_ZNSt8_Rb_treeISsSt4pairIKSsSsESt10_Select1stIS2_ESt4lessISsESaIS2_EED2Ev(%"class.std::_Rb_tree"* %this) unnamed_addr #0 comdat align 2 {
entry:
  %this.addr = alloca %"class.std::_Rb_tree"*, align 8
  %exn.slot = alloca i8*
  %ehselector.slot = alloca i32
  store %"class.std::_Rb_tree"* %this, %"class.std::_Rb_tree"** %this.addr, align 8
  call void @llvm.dbg.declare(metadata %"class.std::_Rb_tree"** %this.addr, metadata !11155, metadata !10095), !dbg !11157
  %this1 = load %"class.std::_Rb_tree"** %this.addr
  %call = invoke %"struct.std::_Rb_tree_node"* @_ZNSt8_Rb_treeISsSt4pairIKSsSsESt10_Select1stIS2_ESt4lessISsESaIS2_EE8_M_beginEv(%"class.std::_Rb_tree"* %this1)
          to label %invoke.cont unwind label %lpad, !dbg !11158

invoke.cont:                                      ; preds = %entry
  invoke void @_ZNSt8_Rb_treeISsSt4pairIKSsSsESt10_Select1stIS2_ESt4lessISsESaIS2_EE8_M_eraseEPSt13_Rb_tree_nodeIS2_E(%"class.std::_Rb_tree"* %this1, %"struct.std::_Rb_tree_node"* %call)
          to label %invoke.cont2 unwind label %lpad, !dbg !11160

invoke.cont2:                                     ; preds = %invoke.cont
  %_M_impl = getelementptr inbounds %"class.std::_Rb_tree"* %this1, i32 0, i32 0, !dbg !11162
  call void @_ZNSt8_Rb_treeISsSt4pairIKSsSsESt10_Select1stIS2_ESt4lessISsESaIS2_EE13_Rb_tree_implIS6_Lb0EED2Ev(%"struct.std::_Rb_tree<std::basic_string<char>, std::pair<const std::basic_string<char>, std::basic_string<char> >, std::_Select1st<std::pair<const std::basic_string<char>, std::basic_string<char> > >, std::less<std::basic_string<char> >, std::allocator<std::pair<const std::basic_string<char>, std::basic_string<char> > > >::_Rb_tree_impl"* %_M_impl) #3, !dbg !11162
  ret void, !dbg !11164

lpad:                                             ; preds = %invoke.cont, %entry
  %0 = landingpad { i8*, i32 } personality i8* bitcast (i32 (...)* @__gxx_personality_v0 to i8*)
          cleanup, !dbg !11165
  %1 = extractvalue { i8*, i32 } %0, 0, !dbg !11165
  store i8* %1, i8** %exn.slot, !dbg !11165
  %2 = extractvalue { i8*, i32 } %0, 1, !dbg !11165
  store i32 %2, i32* %ehselector.slot, !dbg !11165
  %_M_impl3 = getelementptr inbounds %"class.std::_Rb_tree"* %this1, i32 0, i32 0, !dbg !11165
  call void @_ZNSt8_Rb_treeISsSt4pairIKSsSsESt10_Select1stIS2_ESt4lessISsESaIS2_EE13_Rb_tree_implIS6_Lb0EED2Ev(%"struct.std::_Rb_tree<std::basic_string<char>, std::pair<const std::basic_string<char>, std::basic_string<char> >, std::_Select1st<std::pair<const std::basic_string<char>, std::basic_string<char> > >, std::less<std::basic_string<char> >, std::allocator<std::pair<const std::basic_string<char>, std::basic_string<char> > > >::_Rb_tree_impl"* %_M_impl3) #3, !dbg !11165
  br label %eh.resume, !dbg !11165

eh.resume:                                        ; preds = %lpad
  %exn = load i8** %exn.slot, !dbg !11168
  %sel = load i32* %ehselector.slot, !dbg !11168
  %lpad.val = insertvalue { i8*, i32 } undef, i8* %exn, 0, !dbg !11168
  %lpad.val4 = insertvalue { i8*, i32 } %lpad.val, i32 %sel, 1, !dbg !11168
  resume { i8*, i32 } %lpad.val4, !dbg !11168
}

; Function Attrs: uwtable
define linkonce_odr void @_ZNSt8_Rb_treeISsSt4pairIKSsSsESt10_Select1stIS2_ESt4lessISsESaIS2_EE8_M_eraseEPSt13_Rb_tree_nodeIS2_E(%"class.std::_Rb_tree"* %this, %"struct.std::_Rb_tree_node"* %__x) #0 comdat align 2 {
entry:
  %this.addr = alloca %"class.std::_Rb_tree"*, align 8
  %__x.addr = alloca %"struct.std::_Rb_tree_node"*, align 8
  %__y = alloca %"struct.std::_Rb_tree_node"*, align 8
  store %"class.std::_Rb_tree"* %this, %"class.std::_Rb_tree"** %this.addr, align 8
  call void @llvm.dbg.declare(metadata %"class.std::_Rb_tree"** %this.addr, metadata !11170, metadata !10095), !dbg !11171
  store %"struct.std::_Rb_tree_node"* %__x, %"struct.std::_Rb_tree_node"** %__x.addr, align 8
  call void @llvm.dbg.declare(metadata %"struct.std::_Rb_tree_node"** %__x.addr, metadata !11172, metadata !10095), !dbg !11174
  %this1 = load %"class.std::_Rb_tree"** %this.addr
  br label %while.cond, !dbg !11175

while.cond:                                       ; preds = %while.body, %entry
  %0 = load %"struct.std::_Rb_tree_node"** %__x.addr, align 8, !dbg !11176
  %cmp = icmp ne %"struct.std::_Rb_tree_node"* %0, null, !dbg !11179
  br i1 %cmp, label %while.body, label %while.end, !dbg !11175

while.body:                                       ; preds = %while.cond
  %1 = load %"struct.std::_Rb_tree_node"** %__x.addr, align 8, !dbg !11180
  %2 = bitcast %"struct.std::_Rb_tree_node"* %1 to %"struct.std::_Rb_tree_node_base"*, !dbg !11180
  %call = call %"struct.std::_Rb_tree_node"* @_ZNSt8_Rb_treeISsSt4pairIKSsSsESt10_Select1stIS2_ESt4lessISsESaIS2_EE8_S_rightEPSt18_Rb_tree_node_base(%"struct.std::_Rb_tree_node_base"* %2), !dbg !11182
  call void @_ZNSt8_Rb_treeISsSt4pairIKSsSsESt10_Select1stIS2_ESt4lessISsESaIS2_EE8_M_eraseEPSt13_Rb_tree_nodeIS2_E(%"class.std::_Rb_tree"* %this1, %"struct.std::_Rb_tree_node"* %call), !dbg !11183
  call void @llvm.dbg.declare(metadata %"struct.std::_Rb_tree_node"** %__y, metadata !11184, metadata !10095), !dbg !11185
  %3 = load %"struct.std::_Rb_tree_node"** %__x.addr, align 8, !dbg !11186
  %4 = bitcast %"struct.std::_Rb_tree_node"* %3 to %"struct.std::_Rb_tree_node_base"*, !dbg !11186
  %call2 = call %"struct.std::_Rb_tree_node"* @_ZNSt8_Rb_treeISsSt4pairIKSsSsESt10_Select1stIS2_ESt4lessISsESaIS2_EE7_S_leftEPSt18_Rb_tree_node_base(%"struct.std::_Rb_tree_node_base"* %4), !dbg !11187
  store %"struct.std::_Rb_tree_node"* %call2, %"struct.std::_Rb_tree_node"** %__y, align 8, !dbg !11185
  %5 = load %"struct.std::_Rb_tree_node"** %__x.addr, align 8, !dbg !11188
  call void @_ZNSt8_Rb_treeISsSt4pairIKSsSsESt10_Select1stIS2_ESt4lessISsESaIS2_EE15_M_destroy_nodeEPSt13_Rb_tree_nodeIS2_E(%"class.std::_Rb_tree"* %this1, %"struct.std::_Rb_tree_node"* %5), !dbg !11189
  %6 = load %"struct.std::_Rb_tree_node"** %__y, align 8, !dbg !11190
  store %"struct.std::_Rb_tree_node"* %6, %"struct.std::_Rb_tree_node"** %__x.addr, align 8, !dbg !11191
  br label %while.cond, !dbg !11175

while.end:                                        ; preds = %while.cond
  ret void, !dbg !11192
}

; Function Attrs: nounwind uwtable
define linkonce_odr %"struct.std::_Rb_tree_node"* @_ZNSt8_Rb_treeISsSt4pairIKSsSsESt10_Select1stIS2_ESt4lessISsESaIS2_EE8_S_rightEPSt18_Rb_tree_node_base(%"struct.std::_Rb_tree_node_base"* %__x) #13 comdat align 2 {
entry:
  %__x.addr = alloca %"struct.std::_Rb_tree_node_base"*, align 8
  store %"struct.std::_Rb_tree_node_base"* %__x, %"struct.std::_Rb_tree_node_base"** %__x.addr, align 8
  call void @llvm.dbg.declare(metadata %"struct.std::_Rb_tree_node_base"** %__x.addr, metadata !11193, metadata !10095), !dbg !11194
  %0 = load %"struct.std::_Rb_tree_node_base"** %__x.addr, align 8, !dbg !11195
  %_M_right = getelementptr inbounds %"struct.std::_Rb_tree_node_base"* %0, i32 0, i32 3, !dbg !11196
  %1 = load %"struct.std::_Rb_tree_node_base"** %_M_right, align 8, !dbg !11196
  %2 = bitcast %"struct.std::_Rb_tree_node_base"* %1 to %"struct.std::_Rb_tree_node"*, !dbg !11197
  ret %"struct.std::_Rb_tree_node"* %2, !dbg !11198
}

; Function Attrs: nounwind uwtable
define linkonce_odr %"struct.std::_Rb_tree_node"* @_ZNSt8_Rb_treeISsSt4pairIKSsSsESt10_Select1stIS2_ESt4lessISsESaIS2_EE7_S_leftEPSt18_Rb_tree_node_base(%"struct.std::_Rb_tree_node_base"* %__x) #13 comdat align 2 {
entry:
  %__x.addr = alloca %"struct.std::_Rb_tree_node_base"*, align 8
  store %"struct.std::_Rb_tree_node_base"* %__x, %"struct.std::_Rb_tree_node_base"** %__x.addr, align 8
  call void @llvm.dbg.declare(metadata %"struct.std::_Rb_tree_node_base"** %__x.addr, metadata !11199, metadata !10095), !dbg !11200
  %0 = load %"struct.std::_Rb_tree_node_base"** %__x.addr, align 8, !dbg !11201
  %_M_left = getelementptr inbounds %"struct.std::_Rb_tree_node_base"* %0, i32 0, i32 2, !dbg !11202
  %1 = load %"struct.std::_Rb_tree_node_base"** %_M_left, align 8, !dbg !11202
  %2 = bitcast %"struct.std::_Rb_tree_node_base"* %1 to %"struct.std::_Rb_tree_node"*, !dbg !11203
  ret %"struct.std::_Rb_tree_node"* %2, !dbg !11204
}

; Function Attrs: uwtable
define linkonce_odr void @_ZNSt8_Rb_treeISsSt4pairIKSsSsESt10_Select1stIS2_ESt4lessISsESaIS2_EE15_M_destroy_nodeEPSt13_Rb_tree_nodeIS2_E(%"class.std::_Rb_tree"* %this, %"struct.std::_Rb_tree_node"* %__p) #0 comdat align 2 {
entry:
  %this.addr = alloca %"class.std::_Rb_tree"*, align 8
  %__p.addr = alloca %"struct.std::_Rb_tree_node"*, align 8
  %temp.lvalue = alloca %"class.std::ios_base::Init", align 1
  %exn.slot = alloca i8*
  %ehselector.slot = alloca i32
  store %"class.std::_Rb_tree"* %this, %"class.std::_Rb_tree"** %this.addr, align 8
  call void @llvm.dbg.declare(metadata %"class.std::_Rb_tree"** %this.addr, metadata !11205, metadata !10095), !dbg !11206
  store %"struct.std::_Rb_tree_node"* %__p, %"struct.std::_Rb_tree_node"** %__p.addr, align 8
  call void @llvm.dbg.declare(metadata %"struct.std::_Rb_tree_node"** %__p.addr, metadata !11207, metadata !10095), !dbg !11208
  %this1 = load %"class.std::_Rb_tree"** %this.addr
  call void @_ZNKSt8_Rb_treeISsSt4pairIKSsSsESt10_Select1stIS2_ESt4lessISsESaIS2_EE13get_allocatorEv(%"class.std::ios_base::Init"* sret %temp.lvalue, %"class.std::_Rb_tree"* %this1), !dbg !11209
  %0 = bitcast %"class.std::ios_base::Init"* %temp.lvalue to %"class.std::ios_base::Init"*, !dbg !11209
  %1 = load %"struct.std::_Rb_tree_node"** %__p.addr, align 8, !dbg !11210
  %_M_value_field = getelementptr inbounds %"struct.std::_Rb_tree_node"* %1, i32 0, i32 1, !dbg !11211
  %call = invoke %"struct.std::pair"* @_ZSt11__addressofISt4pairIKSsSsEEPT_RS3_(%"struct.std::pair"* dereferenceable(16) %_M_value_field)
          to label %invoke.cont unwind label %lpad, !dbg !11212

invoke.cont:                                      ; preds = %entry
  invoke void @_ZN9__gnu_cxx13new_allocatorISt4pairIKSsSsEE7destroyEPS3_(%"class.std::ios_base::Init"* %0, %"struct.std::pair"* %call)
          to label %invoke.cont2 unwind label %lpad, !dbg !11213

invoke.cont2:                                     ; preds = %invoke.cont
  call void @_ZNSaISt4pairIKSsSsEED2Ev(%"class.std::ios_base::Init"* %temp.lvalue) #3, !dbg !11215
  %2 = load %"struct.std::_Rb_tree_node"** %__p.addr, align 8, !dbg !11217
  call void @_ZNSt8_Rb_treeISsSt4pairIKSsSsESt10_Select1stIS2_ESt4lessISsESaIS2_EE11_M_put_nodeEPSt13_Rb_tree_nodeIS2_E(%"class.std::_Rb_tree"* %this1, %"struct.std::_Rb_tree_node"* %2), !dbg !11218
  ret void, !dbg !11219

lpad:                                             ; preds = %invoke.cont, %entry
  %3 = landingpad { i8*, i32 } personality i8* bitcast (i32 (...)* @__gxx_personality_v0 to i8*)
          cleanup, !dbg !11219
  %4 = extractvalue { i8*, i32 } %3, 0, !dbg !11219
  store i8* %4, i8** %exn.slot, !dbg !11219
  %5 = extractvalue { i8*, i32 } %3, 1, !dbg !11219
  store i32 %5, i32* %ehselector.slot, !dbg !11219
  call void @_ZNSaISt4pairIKSsSsEED2Ev(%"class.std::ios_base::Init"* %temp.lvalue) #3, !dbg !11209
  br label %eh.resume, !dbg !11209

eh.resume:                                        ; preds = %lpad
  %exn = load i8** %exn.slot, !dbg !11220
  %sel = load i32* %ehselector.slot, !dbg !11220
  %lpad.val = insertvalue { i8*, i32 } undef, i8* %exn, 0, !dbg !11220
  %lpad.val3 = insertvalue { i8*, i32 } %lpad.val, i32 %sel, 1, !dbg !11220
  resume { i8*, i32 } %lpad.val3, !dbg !11220
}

; Function Attrs: uwtable
define linkonce_odr void @_ZNKSt8_Rb_treeISsSt4pairIKSsSsESt10_Select1stIS2_ESt4lessISsESaIS2_EE13get_allocatorEv(%"class.std::ios_base::Init"* noalias sret %agg.result, %"class.std::_Rb_tree"* %this) #0 comdat align 2 {
entry:
  %this.addr = alloca %"class.std::_Rb_tree"*, align 8
  store %"class.std::_Rb_tree"* %this, %"class.std::_Rb_tree"** %this.addr, align 8
  call void @llvm.dbg.declare(metadata %"class.std::_Rb_tree"** %this.addr, metadata !11222, metadata !10095), !dbg !11224
  %this1 = load %"class.std::_Rb_tree"** %this.addr
  %call = call dereferenceable(1) %"class.std::ios_base::Init"* @_ZNKSt8_Rb_treeISsSt4pairIKSsSsESt10_Select1stIS2_ESt4lessISsESaIS2_EE21_M_get_Node_allocatorEv(%"class.std::_Rb_tree"* %this1), !dbg !11225
  call void @_ZNSaISt4pairIKSsSsEEC2ISt13_Rb_tree_nodeIS1_EEERKSaIT_E(%"class.std::ios_base::Init"* %agg.result, %"class.std::ios_base::Init"* dereferenceable(1) %call) #3, !dbg !11226
  ret void, !dbg !11227
}

; Function Attrs: nounwind uwtable
define linkonce_odr dereferenceable(1) %"class.std::ios_base::Init"* @_ZNKSt8_Rb_treeISsSt4pairIKSsSsESt10_Select1stIS2_ESt4lessISsESaIS2_EE21_M_get_Node_allocatorEv(%"class.std::_Rb_tree"* %this) #13 comdat align 2 {
entry:
  %this.addr = alloca %"class.std::_Rb_tree"*, align 8
  store %"class.std::_Rb_tree"* %this, %"class.std::_Rb_tree"** %this.addr, align 8
  call void @llvm.dbg.declare(metadata %"class.std::_Rb_tree"** %this.addr, metadata !11228, metadata !10095), !dbg !11229
  %this1 = load %"class.std::_Rb_tree"** %this.addr
  %_M_impl = getelementptr inbounds %"class.std::_Rb_tree"* %this1, i32 0, i32 0, !dbg !11230
  %0 = bitcast %"struct.std::_Rb_tree<std::basic_string<char>, std::pair<const std::basic_string<char>, std::basic_string<char> >, std::_Select1st<std::pair<const std::basic_string<char>, std::basic_string<char> > >, std::less<std::basic_string<char> >, std::allocator<std::pair<const std::basic_string<char>, std::basic_string<char> > > >::_Rb_tree_impl"* %_M_impl to %"class.std::ios_base::Init"*, !dbg !11231
  ret %"class.std::ios_base::Init"* %0, !dbg !11232
}

; Function Attrs: nounwind uwtable
define linkonce_odr void @_ZNSaISt4pairIKSsSsEEC2ISt13_Rb_tree_nodeIS1_EEERKSaIT_E(%"class.std::ios_base::Init"* %this, %"class.std::ios_base::Init"* dereferenceable(1)) unnamed_addr #13 comdat align 2 {
entry:
  %this.addr = alloca %"class.std::ios_base::Init"*, align 8
  %.addr = alloca %"class.std::ios_base::Init"*, align 8
  store %"class.std::ios_base::Init"* %this, %"class.std::ios_base::Init"** %this.addr, align 8
  call void @llvm.dbg.declare(metadata %"class.std::ios_base::Init"** %this.addr, metadata !11233, metadata !10095), !dbg !11235
  store %"class.std::ios_base::Init"* %0, %"class.std::ios_base::Init"** %.addr, align 8
  call void @llvm.dbg.declare(metadata %"class.std::ios_base::Init"** %.addr, metadata !11236, metadata !10095), !dbg !11238
  %this1 = load %"class.std::ios_base::Init"** %this.addr
  %1 = bitcast %"class.std::ios_base::Init"* %this1 to %"class.std::ios_base::Init"*, !dbg !11239
  call void @_ZN9__gnu_cxx13new_allocatorISt4pairIKSsSsEEC2Ev(%"class.std::ios_base::Init"* %1) #3, !dbg !11240
  ret void, !dbg !11241
}

; Function Attrs: nounwind uwtable
define linkonce_odr void @_ZN9__gnu_cxx13new_allocatorISt4pairIKSsSsEEC2Ev(%"class.std::ios_base::Init"* %this) unnamed_addr #13 comdat align 2 {
entry:
  %this.addr = alloca %"class.std::ios_base::Init"*, align 8
  store %"class.std::ios_base::Init"* %this, %"class.std::ios_base::Init"** %this.addr, align 8
  call void @llvm.dbg.declare(metadata %"class.std::ios_base::Init"** %this.addr, metadata !11242, metadata !10095), !dbg !11244
  %this1 = load %"class.std::ios_base::Init"** %this.addr
  ret void, !dbg !11245
}

; Function Attrs: uwtable
define linkonce_odr void @_ZN9__gnu_cxx13new_allocatorISt4pairIKSsSsEE7destroyEPS3_(%"class.std::ios_base::Init"* %this, %"struct.std::pair"* %__p) #0 comdat align 2 {
entry:
  %this.addr = alloca %"class.std::ios_base::Init"*, align 8
  %__p.addr = alloca %"struct.std::pair"*, align 8
  store %"class.std::ios_base::Init"* %this, %"class.std::ios_base::Init"** %this.addr, align 8
  call void @llvm.dbg.declare(metadata %"class.std::ios_base::Init"** %this.addr, metadata !11246, metadata !10095), !dbg !11247
  store %"struct.std::pair"* %__p, %"struct.std::pair"** %__p.addr, align 8
  call void @llvm.dbg.declare(metadata %"struct.std::pair"** %__p.addr, metadata !11248, metadata !10095), !dbg !11250
  %this1 = load %"class.std::ios_base::Init"** %this.addr
  %0 = load %"struct.std::pair"** %__p.addr, align 8, !dbg !11251
  call void @_ZNSt4pairIKSsSsED2Ev(%"struct.std::pair"* %0), !dbg !11251
  ret void, !dbg !11252
}

; Function Attrs: inlinehint uwtable
define linkonce_odr void @_ZNSt4pairIKSsSsED2Ev(%"struct.std::pair"* %this) unnamed_addr #11 comdat align 2 {
entry:
  %this.addr = alloca %"struct.std::pair"*, align 8
  %exn.slot = alloca i8*
  %ehselector.slot = alloca i32
  store %"struct.std::pair"* %this, %"struct.std::pair"** %this.addr, align 8
  call void @llvm.dbg.declare(metadata %"struct.std::pair"** %this.addr, metadata !11253, metadata !10095), !dbg !11254
  %this1 = load %"struct.std::pair"** %this.addr
  %second = getelementptr inbounds %"struct.std::pair"* %this1, i32 0, i32 1, !dbg !11255
  invoke void @_ZNSsD1Ev(%"class.std::basic_string"* %second)
          to label %invoke.cont unwind label %lpad, !dbg !11255

invoke.cont:                                      ; preds = %entry
  %first = getelementptr inbounds %"struct.std::pair"* %this1, i32 0, i32 0, !dbg !11257
  call void @_ZNSsD1Ev(%"class.std::basic_string"* %first), !dbg !11257
  ret void, !dbg !11259

lpad:                                             ; preds = %entry
  %0 = landingpad { i8*, i32 } personality i8* bitcast (i32 (...)* @__gxx_personality_v0 to i8*)
          cleanup, !dbg !11260
  %1 = extractvalue { i8*, i32 } %0, 0, !dbg !11260
  store i8* %1, i8** %exn.slot, !dbg !11260
  %2 = extractvalue { i8*, i32 } %0, 1, !dbg !11260
  store i32 %2, i32* %ehselector.slot, !dbg !11260
  %first2 = getelementptr inbounds %"struct.std::pair"* %this1, i32 0, i32 0, !dbg !11255
  invoke void @_ZNSsD1Ev(%"class.std::basic_string"* %first2)
          to label %invoke.cont3 unwind label %terminate.lpad, !dbg !11255

invoke.cont3:                                     ; preds = %lpad
  br label %eh.resume, !dbg !11262

eh.resume:                                        ; preds = %invoke.cont3
  %exn = load i8** %exn.slot, !dbg !11264
  %sel = load i32* %ehselector.slot, !dbg !11264
  %lpad.val = insertvalue { i8*, i32 } undef, i8* %exn, 0, !dbg !11264
  %lpad.val4 = insertvalue { i8*, i32 } %lpad.val, i32 %sel, 1, !dbg !11264
  resume { i8*, i32 } %lpad.val4, !dbg !11264

terminate.lpad:                                   ; preds = %lpad
  %3 = landingpad { i8*, i32 } personality i8* bitcast (i32 (...)* @__gxx_personality_v0 to i8*)
          catch i8* null, !dbg !11266
  %4 = extractvalue { i8*, i32 } %3, 0, !dbg !11266
  call void @__clang_call_terminate(i8* %4) #9, !dbg !11266
  unreachable, !dbg !11266
}

; Function Attrs: inlinehint nounwind uwtable
define linkonce_odr %"struct.std::pair"* @_ZSt11__addressofISt4pairIKSsSsEEPT_RS3_(%"struct.std::pair"* dereferenceable(16) %__r) #14 comdat {
entry:
  %__r.addr = alloca %"struct.std::pair"*, align 8
  store %"struct.std::pair"* %__r, %"struct.std::pair"** %__r.addr, align 8
  call void @llvm.dbg.declare(metadata %"struct.std::pair"** %__r.addr, metadata !11268, metadata !10095), !dbg !11270
  %0 = load %"struct.std::pair"** %__r.addr, align 8, !dbg !11271
  %1 = bitcast %"struct.std::pair"* %0 to i8*, !dbg !11272
  %2 = bitcast i8* %1 to %"struct.std::pair"*, !dbg !11273
  ret %"struct.std::pair"* %2, !dbg !11274
}

; Function Attrs: nounwind uwtable
define linkonce_odr void @_ZNSaISt4pairIKSsSsEED2Ev(%"class.std::ios_base::Init"* %this) unnamed_addr #13 comdat align 2 {
entry:
  %this.addr = alloca %"class.std::ios_base::Init"*, align 8
  store %"class.std::ios_base::Init"* %this, %"class.std::ios_base::Init"** %this.addr, align 8
  call void @llvm.dbg.declare(metadata %"class.std::ios_base::Init"** %this.addr, metadata !11275, metadata !10095), !dbg !11276
  %this1 = load %"class.std::ios_base::Init"** %this.addr
  %0 = bitcast %"class.std::ios_base::Init"* %this1 to %"class.std::ios_base::Init"*, !dbg !11277
  call void @_ZN9__gnu_cxx13new_allocatorISt4pairIKSsSsEED2Ev(%"class.std::ios_base::Init"* %0) #3, !dbg !11277
  ret void, !dbg !11279
}

; Function Attrs: nounwind uwtable
define linkonce_odr void @_ZN9__gnu_cxx13new_allocatorISt4pairIKSsSsEED2Ev(%"class.std::ios_base::Init"* %this) unnamed_addr #13 comdat align 2 {
entry:
  %this.addr = alloca %"class.std::ios_base::Init"*, align 8
  store %"class.std::ios_base::Init"* %this, %"class.std::ios_base::Init"** %this.addr, align 8
  call void @llvm.dbg.declare(metadata %"class.std::ios_base::Init"** %this.addr, metadata !11280, metadata !10095), !dbg !11281
  %this1 = load %"class.std::ios_base::Init"** %this.addr
  ret void, !dbg !11282
}

; Function Attrs: uwtable
define linkonce_odr void @_ZNSt8_Rb_treeISsSt4pairIKSsSsESt10_Select1stIS2_ESt4lessISsESaIS2_EE11_M_put_nodeEPSt13_Rb_tree_nodeIS2_E(%"class.std::_Rb_tree"* %this, %"struct.std::_Rb_tree_node"* %__p) #0 comdat align 2 {
entry:
  %this.addr = alloca %"class.std::_Rb_tree"*, align 8
  %__p.addr = alloca %"struct.std::_Rb_tree_node"*, align 8
  store %"class.std::_Rb_tree"* %this, %"class.std::_Rb_tree"** %this.addr, align 8
  call void @llvm.dbg.declare(metadata %"class.std::_Rb_tree"** %this.addr, metadata !11283, metadata !10095), !dbg !11284
  store %"struct.std::_Rb_tree_node"* %__p, %"struct.std::_Rb_tree_node"** %__p.addr, align 8
  call void @llvm.dbg.declare(metadata %"struct.std::_Rb_tree_node"** %__p.addr, metadata !11285, metadata !10095), !dbg !11286
  %this1 = load %"class.std::_Rb_tree"** %this.addr
  %_M_impl = getelementptr inbounds %"class.std::_Rb_tree"* %this1, i32 0, i32 0, !dbg !11287
  %0 = bitcast %"struct.std::_Rb_tree<std::basic_string<char>, std::pair<const std::basic_string<char>, std::basic_string<char> >, std::_Select1st<std::pair<const std::basic_string<char>, std::basic_string<char> > >, std::less<std::basic_string<char> >, std::allocator<std::pair<const std::basic_string<char>, std::basic_string<char> > > >::_Rb_tree_impl"* %_M_impl to %"class.std::ios_base::Init"*, !dbg !11287
  %1 = bitcast %"class.std::ios_base::Init"* %0 to %"class.std::ios_base::Init"*, !dbg !11287
  %2 = load %"struct.std::_Rb_tree_node"** %__p.addr, align 8, !dbg !11288
  call void @_ZN9__gnu_cxx13new_allocatorISt13_Rb_tree_nodeISt4pairIKSsSsEEE10deallocateEPS5_m(%"class.std::ios_base::Init"* %1, %"struct.std::_Rb_tree_node"* %2, i64 1), !dbg !11287
  ret void, !dbg !11289
}

; Function Attrs: nounwind uwtable
define linkonce_odr void @_ZN9__gnu_cxx13new_allocatorISt13_Rb_tree_nodeISt4pairIKSsSsEEE10deallocateEPS5_m(%"class.std::ios_base::Init"* %this, %"struct.std::_Rb_tree_node"* %__p, i64) #13 comdat align 2 {
entry:
  %this.addr = alloca %"class.std::ios_base::Init"*, align 8
  %__p.addr = alloca %"struct.std::_Rb_tree_node"*, align 8
  %.addr = alloca i64, align 8
  store %"class.std::ios_base::Init"* %this, %"class.std::ios_base::Init"** %this.addr, align 8
  call void @llvm.dbg.declare(metadata %"class.std::ios_base::Init"** %this.addr, metadata !11290, metadata !10095), !dbg !11292
  store %"struct.std::_Rb_tree_node"* %__p, %"struct.std::_Rb_tree_node"** %__p.addr, align 8
  call void @llvm.dbg.declare(metadata %"struct.std::_Rb_tree_node"** %__p.addr, metadata !11293, metadata !10095), !dbg !11294
  store i64 %0, i64* %.addr, align 8
  call void @llvm.dbg.declare(metadata i64* %.addr, metadata !11295, metadata !10095), !dbg !11296
  %this1 = load %"class.std::ios_base::Init"** %this.addr
  %1 = load %"struct.std::_Rb_tree_node"** %__p.addr, align 8, !dbg !11297
  %2 = bitcast %"struct.std::_Rb_tree_node"* %1 to i8*, !dbg !11297
  call void @_ZdlPv(i8* %2) #3, !dbg !11298
  ret void, !dbg !11299
}

; Function Attrs: nounwind uwtable
define linkonce_odr %"struct.std::_Rb_tree_node"* @_ZNSt8_Rb_treeISsSt4pairIKSsSsESt10_Select1stIS2_ESt4lessISsESaIS2_EE8_M_beginEv(%"class.std::_Rb_tree"* %this) #13 comdat align 2 {
entry:
  %this.addr = alloca %"class.std::_Rb_tree"*, align 8
  store %"class.std::_Rb_tree"* %this, %"class.std::_Rb_tree"** %this.addr, align 8
  call void @llvm.dbg.declare(metadata %"class.std::_Rb_tree"** %this.addr, metadata !11300, metadata !10095), !dbg !11301
  %this1 = load %"class.std::_Rb_tree"** %this.addr
  %_M_impl = getelementptr inbounds %"class.std::_Rb_tree"* %this1, i32 0, i32 0, !dbg !11302
  %_M_header = getelementptr inbounds %"struct.std::_Rb_tree<std::basic_string<char>, std::pair<const std::basic_string<char>, std::basic_string<char> >, std::_Select1st<std::pair<const std::basic_string<char>, std::basic_string<char> > >, std::less<std::basic_string<char> >, std::allocator<std::pair<const std::basic_string<char>, std::basic_string<char> > > >::_Rb_tree_impl"* %_M_impl, i32 0, i32 1, !dbg !11303
  %_M_parent = getelementptr inbounds %"struct.std::_Rb_tree_node_base"* %_M_header, i32 0, i32 1, !dbg !11304
  %0 = load %"struct.std::_Rb_tree_node_base"** %_M_parent, align 8, !dbg !11304
  %1 = bitcast %"struct.std::_Rb_tree_node_base"* %0 to %"struct.std::_Rb_tree_node"*, !dbg !11305
  ret %"struct.std::_Rb_tree_node"* %1, !dbg !11306
}

; Function Attrs: inlinehint nounwind uwtable
define linkonce_odr void @_ZNSt8_Rb_treeISsSt4pairIKSsSsESt10_Select1stIS2_ESt4lessISsESaIS2_EE13_Rb_tree_implIS6_Lb0EED2Ev(%"struct.std::_Rb_tree<std::basic_string<char>, std::pair<const std::basic_string<char>, std::basic_string<char> >, std::_Select1st<std::pair<const std::basic_string<char>, std::basic_string<char> > >, std::less<std::basic_string<char> >, std::allocator<std::pair<const std::basic_string<char>, std::basic_string<char> > > >::_Rb_tree_impl"* %this) unnamed_addr #14 comdat align 2 {
entry:
  %this.addr = alloca %"struct.std::_Rb_tree<std::basic_string<char>, std::pair<const std::basic_string<char>, std::basic_string<char> >, std::_Select1st<std::pair<const std::basic_string<char>, std::basic_string<char> > >, std::less<std::basic_string<char> >, std::allocator<std::pair<const std::basic_string<char>, std::basic_string<char> > > >::_Rb_tree_impl"*, align 8
  store %"struct.std::_Rb_tree<std::basic_string<char>, std::pair<const std::basic_string<char>, std::basic_string<char> >, std::_Select1st<std::pair<const std::basic_string<char>, std::basic_string<char> > >, std::less<std::basic_string<char> >, std::allocator<std::pair<const std::basic_string<char>, std::basic_string<char> > > >::_Rb_tree_impl"* %this, %"struct.std::_Rb_tree<std::basic_string<char>, std::pair<const std::basic_string<char>, std::basic_string<char> >, std::_Select1st<std::pair<const std::basic_string<char>, std::basic_string<char> > >, std::less<std::basic_string<char> >, std::allocator<std::pair<const std::basic_string<char>, std::basic_string<char> > > >::_Rb_tree_impl"** %this.addr, align 8
  call void @llvm.dbg.declare(metadata %"struct.std::_Rb_tree<std::basic_string<char>, std::pair<const std::basic_string<char>, std::basic_string<char> >, std::_Select1st<std::pair<const std::basic_string<char>, std::basic_string<char> > >, std::less<std::basic_string<char> >, std::allocator<std::pair<const std::basic_string<char>, std::basic_string<char> > > >::_Rb_tree_impl"** %this.addr, metadata !11307, metadata !10095), !dbg !11309
  %this1 = load %"struct.std::_Rb_tree<std::basic_string<char>, std::pair<const std::basic_string<char>, std::basic_string<char> >, std::_Select1st<std::pair<const std::basic_string<char>, std::basic_string<char> > >, std::less<std::basic_string<char> >, std::allocator<std::pair<const std::basic_string<char>, std::basic_string<char> > > >::_Rb_tree_impl"** %this.addr
  %0 = bitcast %"struct.std::_Rb_tree<std::basic_string<char>, std::pair<const std::basic_string<char>, std::basic_string<char> >, std::_Select1st<std::pair<const std::basic_string<char>, std::basic_string<char> > >, std::less<std::basic_string<char> >, std::allocator<std::pair<const std::basic_string<char>, std::basic_string<char> > > >::_Rb_tree_impl"* %this1 to %"class.std::ios_base::Init"*, !dbg !11310
  call void @_ZNSaISt13_Rb_tree_nodeISt4pairIKSsSsEEED2Ev(%"class.std::ios_base::Init"* %0) #3, !dbg !11310
  ret void, !dbg !11312
}

; Function Attrs: nounwind uwtable
define linkonce_odr void @_ZNSaISt13_Rb_tree_nodeISt4pairIKSsSsEEED2Ev(%"class.std::ios_base::Init"* %this) unnamed_addr #13 comdat align 2 {
entry:
  %this.addr = alloca %"class.std::ios_base::Init"*, align 8
  store %"class.std::ios_base::Init"* %this, %"class.std::ios_base::Init"** %this.addr, align 8
  call void @llvm.dbg.declare(metadata %"class.std::ios_base::Init"** %this.addr, metadata !11313, metadata !10095), !dbg !11315
  %this1 = load %"class.std::ios_base::Init"** %this.addr
  %0 = bitcast %"class.std::ios_base::Init"* %this1 to %"class.std::ios_base::Init"*, !dbg !11316
  call void @_ZN9__gnu_cxx13new_allocatorISt13_Rb_tree_nodeISt4pairIKSsSsEEED2Ev(%"class.std::ios_base::Init"* %0) #3, !dbg !11316
  ret void, !dbg !11318
}

; Function Attrs: nounwind uwtable
define linkonce_odr void @_ZN9__gnu_cxx13new_allocatorISt13_Rb_tree_nodeISt4pairIKSsSsEEED2Ev(%"class.std::ios_base::Init"* %this) unnamed_addr #13 comdat align 2 {
entry:
  %this.addr = alloca %"class.std::ios_base::Init"*, align 8
  store %"class.std::ios_base::Init"* %this, %"class.std::ios_base::Init"** %this.addr, align 8
  call void @llvm.dbg.declare(metadata %"class.std::ios_base::Init"** %this.addr, metadata !11319, metadata !10095), !dbg !11320
  %this1 = load %"class.std::ios_base::Init"** %this.addr
  ret void, !dbg !11321
}

; Function Attrs: uwtable
define linkonce_odr void @_ZN5boost10shared_ptrIN3ros10Subscriber4ImplEEC2Ev(%"class.boost::shared_ptr"* %this) unnamed_addr #0 comdat align 2 {
entry:
  %this.addr = alloca %"class.boost::shared_ptr"*, align 8
  store %"class.boost::shared_ptr"* %this, %"class.boost::shared_ptr"** %this.addr, align 8
  call void @llvm.dbg.declare(metadata %"class.boost::shared_ptr"** %this.addr, metadata !11322, metadata !10095), !dbg !11324
  %this1 = load %"class.boost::shared_ptr"** %this.addr
  %px = getelementptr inbounds %"class.boost::shared_ptr"* %this1, i32 0, i32 0, !dbg !11325
  store %"class.ros::Subscriber::Impl"* null, %"class.ros::Subscriber::Impl"** %px, align 8, !dbg !11325
  %pn = getelementptr inbounds %"class.boost::shared_ptr"* %this1, i32 0, i32 1, !dbg !11326
  call void @_ZN5boost6detail12shared_countC2Ev(%"class.boost::detail::shared_count"* %pn), !dbg !11326
  ret void, !dbg !11327
}

; Function Attrs: nounwind uwtable
define linkonce_odr void @_ZN5boost6detail12shared_countC2Ev(%"class.boost::detail::shared_count"* %this) unnamed_addr #13 comdat align 2 {
entry:
  %this.addr = alloca %"class.boost::detail::shared_count"*, align 8
  store %"class.boost::detail::shared_count"* %this, %"class.boost::detail::shared_count"** %this.addr, align 8
  call void @llvm.dbg.declare(metadata %"class.boost::detail::shared_count"** %this.addr, metadata !11328, metadata !10095), !dbg !11330
  %this1 = load %"class.boost::detail::shared_count"** %this.addr
  %pi_ = getelementptr inbounds %"class.boost::detail::shared_count"* %this1, i32 0, i32 0, !dbg !11331
  store %"class.boost::detail::sp_counted_base"* null, %"class.boost::detail::sp_counted_base"** %pi_, align 8, !dbg !11331
  ret void, !dbg !11332
}

; Function Attrs: uwtable
define linkonce_odr void @_ZN5boost10shared_ptrIN3ros9Publisher4ImplEEC2Ev(%"class.boost::shared_ptr.21"* %this) unnamed_addr #0 comdat align 2 {
entry:
  %this.addr = alloca %"class.boost::shared_ptr.21"*, align 8
  store %"class.boost::shared_ptr.21"* %this, %"class.boost::shared_ptr.21"** %this.addr, align 8
  call void @llvm.dbg.declare(metadata %"class.boost::shared_ptr.21"** %this.addr, metadata !11333, metadata !10095), !dbg !11335
  %this1 = load %"class.boost::shared_ptr.21"** %this.addr
  %px = getelementptr inbounds %"class.boost::shared_ptr.21"* %this1, i32 0, i32 0, !dbg !11336
  store %"class.ros::Publisher::Impl"* null, %"class.ros::Publisher::Impl"** %px, align 8, !dbg !11336
  %pn = getelementptr inbounds %"class.boost::shared_ptr.21"* %this1, i32 0, i32 1, !dbg !11337
  call void @_ZN5boost6detail12shared_countC2Ev(%"class.boost::detail::shared_count"* %pn), !dbg !11337
  ret void, !dbg !11338
}

; Function Attrs: uwtable
define linkonce_odr dereferenceable(16) %"class.boost::shared_ptr.21"* @_ZN5boost10shared_ptrIN3ros9Publisher4ImplEEaSERKS4_(%"class.boost::shared_ptr.21"* %this, %"class.boost::shared_ptr.21"* dereferenceable(16) %r) #0 comdat align 2 {
entry:
  %this.addr = alloca %"class.boost::shared_ptr.21"*, align 8
  %r.addr = alloca %"class.boost::shared_ptr.21"*, align 8
  %temp.lvalue = alloca %"class.boost::shared_ptr.21", align 8
  %exn.slot = alloca i8*
  %ehselector.slot = alloca i32
  store %"class.boost::shared_ptr.21"* %this, %"class.boost::shared_ptr.21"** %this.addr, align 8
  call void @llvm.dbg.declare(metadata %"class.boost::shared_ptr.21"** %this.addr, metadata !11339, metadata !10095), !dbg !11340
  store %"class.boost::shared_ptr.21"* %r, %"class.boost::shared_ptr.21"** %r.addr, align 8
  call void @llvm.dbg.declare(metadata %"class.boost::shared_ptr.21"** %r.addr, metadata !11341, metadata !10095), !dbg !11343
  %this1 = load %"class.boost::shared_ptr.21"** %this.addr
  %0 = load %"class.boost::shared_ptr.21"** %r.addr, align 8, !dbg !11344
  call void @_ZN5boost10shared_ptrIN3ros9Publisher4ImplEEC2ERKS4_(%"class.boost::shared_ptr.21"* %temp.lvalue, %"class.boost::shared_ptr.21"* dereferenceable(16) %0), !dbg !11345
  invoke void @_ZN5boost10shared_ptrIN3ros9Publisher4ImplEE4swapERS4_(%"class.boost::shared_ptr.21"* %temp.lvalue, %"class.boost::shared_ptr.21"* dereferenceable(16) %this1)
          to label %invoke.cont unwind label %lpad, !dbg !11345

invoke.cont:                                      ; preds = %entry
  call void @_ZN5boost10shared_ptrIN3ros9Publisher4ImplEED2Ev(%"class.boost::shared_ptr.21"* %temp.lvalue), !dbg !11346
  ret %"class.boost::shared_ptr.21"* %this1, !dbg !11348

lpad:                                             ; preds = %entry
  %1 = landingpad { i8*, i32 } personality i8* bitcast (i32 (...)* @__gxx_personality_v0 to i8*)
          cleanup, !dbg !11349
  %2 = extractvalue { i8*, i32 } %1, 0, !dbg !11349
  store i8* %2, i8** %exn.slot, !dbg !11349
  %3 = extractvalue { i8*, i32 } %1, 1, !dbg !11349
  store i32 %3, i32* %ehselector.slot, !dbg !11349
  invoke void @_ZN5boost10shared_ptrIN3ros9Publisher4ImplEED2Ev(%"class.boost::shared_ptr.21"* %temp.lvalue)
          to label %invoke.cont2 unwind label %terminate.lpad, !dbg !11345

invoke.cont2:                                     ; preds = %lpad
  br label %eh.resume, !dbg !11350

eh.resume:                                        ; preds = %invoke.cont2
  %exn = load i8** %exn.slot, !dbg !11352
  %sel = load i32* %ehselector.slot, !dbg !11352
  %lpad.val = insertvalue { i8*, i32 } undef, i8* %exn, 0, !dbg !11352
  %lpad.val3 = insertvalue { i8*, i32 } %lpad.val, i32 %sel, 1, !dbg !11352
  resume { i8*, i32 } %lpad.val3, !dbg !11352

terminate.lpad:                                   ; preds = %lpad
  %4 = landingpad { i8*, i32 } personality i8* bitcast (i32 (...)* @__gxx_personality_v0 to i8*)
          catch i8* null, !dbg !11354
  %5 = extractvalue { i8*, i32 } %4, 0, !dbg !11354
  call void @__clang_call_terminate(i8* %5) #9, !dbg !11354
  unreachable, !dbg !11354
}

; Function Attrs: inlinehint uwtable
define linkonce_odr void @_ZN5boost10shared_ptrIN3ros9Publisher4ImplEEC2ERKS4_(%"class.boost::shared_ptr.21"* %this, %"class.boost::shared_ptr.21"* dereferenceable(16)) unnamed_addr #11 comdat align 2 {
entry:
  %this.addr = alloca %"class.boost::shared_ptr.21"*, align 8
  %.addr = alloca %"class.boost::shared_ptr.21"*, align 8
  store %"class.boost::shared_ptr.21"* %this, %"class.boost::shared_ptr.21"** %this.addr, align 8
  call void @llvm.dbg.declare(metadata %"class.boost::shared_ptr.21"** %this.addr, metadata !11356, metadata !10095), !dbg !11357
  store %"class.boost::shared_ptr.21"* %0, %"class.boost::shared_ptr.21"** %.addr, align 8
  call void @llvm.dbg.declare(metadata %"class.boost::shared_ptr.21"** %.addr, metadata !11358, metadata !10095), !dbg !11357
  %this1 = load %"class.boost::shared_ptr.21"** %this.addr
  %px = getelementptr inbounds %"class.boost::shared_ptr.21"* %this1, i32 0, i32 0, !dbg !11359
  %1 = load %"class.boost::shared_ptr.21"** %.addr, align 8, !dbg !11359
  %px2 = getelementptr inbounds %"class.boost::shared_ptr.21"* %1, i32 0, i32 0, !dbg !11359
  %2 = load %"class.ros::Publisher::Impl"** %px2, align 8, !dbg !11359
  store %"class.ros::Publisher::Impl"* %2, %"class.ros::Publisher::Impl"** %px, align 8, !dbg !11359
  %pn = getelementptr inbounds %"class.boost::shared_ptr.21"* %this1, i32 0, i32 1, !dbg !11359
  %3 = load %"class.boost::shared_ptr.21"** %.addr, align 8, !dbg !11359
  %pn3 = getelementptr inbounds %"class.boost::shared_ptr.21"* %3, i32 0, i32 1, !dbg !11359
  call void @_ZN5boost6detail12shared_countC2ERKS1_(%"class.boost::detail::shared_count"* %pn, %"class.boost::detail::shared_count"* dereferenceable(8) %pn3), !dbg !11359
  %px4 = getelementptr inbounds %"class.boost::shared_ptr.21"* %this1, i32 0, i32 0, !dbg !11359
  %4 = load %"class.boost::shared_ptr.21"** %.addr, align 8, !dbg !11359
  %px5 = getelementptr inbounds %"class.boost::shared_ptr.21"* %4, i32 0, i32 0, !dbg !11359
  %5 = load %"class.ros::Publisher::Impl"** %px5, align 8, !dbg !11359
  store %"class.ros::Publisher::Impl"* %5, %"class.ros::Publisher::Impl"** %px4, align 8, !dbg !11359
  ret void, !dbg !11359
}

; Function Attrs: uwtable
define linkonce_odr void @_ZN5boost6detail12shared_countC2ERKS1_(%"class.boost::detail::shared_count"* %this, %"class.boost::detail::shared_count"* dereferenceable(8) %r) unnamed_addr #0 comdat align 2 {
entry:
  %this.addr = alloca %"class.boost::detail::shared_count"*, align 8
  %r.addr = alloca %"class.boost::detail::shared_count"*, align 8
  store %"class.boost::detail::shared_count"* %this, %"class.boost::detail::shared_count"** %this.addr, align 8
  call void @llvm.dbg.declare(metadata %"class.boost::detail::shared_count"** %this.addr, metadata !11360, metadata !10095), !dbg !11361
  store %"class.boost::detail::shared_count"* %r, %"class.boost::detail::shared_count"** %r.addr, align 8
  call void @llvm.dbg.declare(metadata %"class.boost::detail::shared_count"** %r.addr, metadata !11362, metadata !10095), !dbg !11364
  %this1 = load %"class.boost::detail::shared_count"** %this.addr
  %pi_ = getelementptr inbounds %"class.boost::detail::shared_count"* %this1, i32 0, i32 0, !dbg !11365
  %0 = load %"class.boost::detail::shared_count"** %r.addr, align 8, !dbg !11366
  %pi_2 = getelementptr inbounds %"class.boost::detail::shared_count"* %0, i32 0, i32 0, !dbg !11367
  %1 = load %"class.boost::detail::sp_counted_base"** %pi_2, align 8, !dbg !11367
  store %"class.boost::detail::sp_counted_base"* %1, %"class.boost::detail::sp_counted_base"** %pi_, align 8, !dbg !11365
  %pi_3 = getelementptr inbounds %"class.boost::detail::shared_count"* %this1, i32 0, i32 0, !dbg !11368
  %2 = load %"class.boost::detail::sp_counted_base"** %pi_3, align 8, !dbg !11368
  %cmp = icmp ne %"class.boost::detail::sp_counted_base"* %2, null, !dbg !11371
  br i1 %cmp, label %if.then, label %if.end, !dbg !11372

if.then:                                          ; preds = %entry
  %pi_4 = getelementptr inbounds %"class.boost::detail::shared_count"* %this1, i32 0, i32 0, !dbg !11373
  %3 = load %"class.boost::detail::sp_counted_base"** %pi_4, align 8, !dbg !11373
  call void @_ZN5boost6detail15sp_counted_base12add_ref_copyEv(%"class.boost::detail::sp_counted_base"* %3), !dbg !11373
  br label %if.end, !dbg !11373

if.end:                                           ; preds = %if.then, %entry
  ret void, !dbg !11375
}

; Function Attrs: uwtable
define linkonce_odr void @_ZN5boost6detail15sp_counted_base12add_ref_copyEv(%"class.boost::detail::sp_counted_base"* %this) #0 comdat align 2 {
entry:
  %this.addr = alloca %"class.boost::detail::sp_counted_base"*, align 8
  store %"class.boost::detail::sp_counted_base"* %this, %"class.boost::detail::sp_counted_base"** %this.addr, align 8
  call void @llvm.dbg.declare(metadata %"class.boost::detail::sp_counted_base"** %this.addr, metadata !11376, metadata !10095), !dbg !11377
  %this1 = load %"class.boost::detail::sp_counted_base"** %this.addr
  %use_count_ = getelementptr inbounds %"class.boost::detail::sp_counted_base"* %this1, i32 0, i32 1, !dbg !11378
  call void @_ZN5boost6detail16atomic_incrementEPi(i32* %use_count_), !dbg !11379
  ret void, !dbg !11380
}

; Function Attrs: inlinehint nounwind uwtable
define linkonce_odr void @_ZN5boost6detail16atomic_incrementEPi(i32* %pw) #14 comdat {
entry:
  %pw.addr = alloca i32*, align 8
  store i32* %pw, i32** %pw.addr, align 8
  call void @llvm.dbg.declare(metadata i32** %pw.addr, metadata !11381, metadata !10095), !dbg !11382
  %0 = load i32** %pw.addr, align 8, !dbg !11383
  %1 = load i32** %pw.addr, align 8, !dbg !11384
  call void asm "lock\0A\09incl $0", "=*m,*m,~{cc},~{dirflag},~{fpsr},~{flags}"(i32* %0, i32* %1) #3, !dbg !11385, !srcloc !11386
  ret void, !dbg !11387
}

; Function Attrs: uwtable
define linkonce_odr void @_ZN5boost10shared_ptrIN3ros9Publisher4ImplEE4swapERS4_(%"class.boost::shared_ptr.21"* %this, %"class.boost::shared_ptr.21"* dereferenceable(16) %other) #0 comdat align 2 {
entry:
  %this.addr = alloca %"class.boost::shared_ptr.21"*, align 8
  %other.addr = alloca %"class.boost::shared_ptr.21"*, align 8
  store %"class.boost::shared_ptr.21"* %this, %"class.boost::shared_ptr.21"** %this.addr, align 8
  call void @llvm.dbg.declare(metadata %"class.boost::shared_ptr.21"** %this.addr, metadata !11388, metadata !10095), !dbg !11389
  store %"class.boost::shared_ptr.21"* %other, %"class.boost::shared_ptr.21"** %other.addr, align 8
  call void @llvm.dbg.declare(metadata %"class.boost::shared_ptr.21"** %other.addr, metadata !11390, metadata !10095), !dbg !11391
  %this1 = load %"class.boost::shared_ptr.21"** %this.addr
  %px = getelementptr inbounds %"class.boost::shared_ptr.21"* %this1, i32 0, i32 0, !dbg !11392
  %0 = load %"class.boost::shared_ptr.21"** %other.addr, align 8, !dbg !11393
  %px2 = getelementptr inbounds %"class.boost::shared_ptr.21"* %0, i32 0, i32 0, !dbg !11394
  call void @_ZSt4swapIPN3ros9Publisher4ImplEEvRT_S5_(%"class.ros::Publisher::Impl"** dereferenceable(8) %px, %"class.ros::Publisher::Impl"** dereferenceable(8) %px2), !dbg !11395
  %pn = getelementptr inbounds %"class.boost::shared_ptr.21"* %this1, i32 0, i32 1, !dbg !11396
  %1 = load %"class.boost::shared_ptr.21"** %other.addr, align 8, !dbg !11397
  %pn3 = getelementptr inbounds %"class.boost::shared_ptr.21"* %1, i32 0, i32 1, !dbg !11398
  call void @_ZN5boost6detail12shared_count4swapERS1_(%"class.boost::detail::shared_count"* %pn, %"class.boost::detail::shared_count"* dereferenceable(8) %pn3), !dbg !11396
  ret void, !dbg !11399
}

; Function Attrs: nounwind uwtable
define linkonce_odr void @_ZSt4swapIPN3ros9Publisher4ImplEEvRT_S5_(%"class.ros::Publisher::Impl"** dereferenceable(8) %__a, %"class.ros::Publisher::Impl"** dereferenceable(8) %__b) #13 comdat {
entry:
  %__a.addr = alloca %"class.ros::Publisher::Impl"**, align 8
  %__b.addr = alloca %"class.ros::Publisher::Impl"**, align 8
  %__tmp = alloca %"class.ros::Publisher::Impl"*, align 8
  store %"class.ros::Publisher::Impl"** %__a, %"class.ros::Publisher::Impl"*** %__a.addr, align 8
  call void @llvm.dbg.declare(metadata %"class.ros::Publisher::Impl"*** %__a.addr, metadata !11400, metadata !10095), !dbg !11403
  store %"class.ros::Publisher::Impl"** %__b, %"class.ros::Publisher::Impl"*** %__b.addr, align 8
  call void @llvm.dbg.declare(metadata %"class.ros::Publisher::Impl"*** %__b.addr, metadata !11404, metadata !10095), !dbg !11405
  call void @llvm.dbg.declare(metadata %"class.ros::Publisher::Impl"** %__tmp, metadata !11406, metadata !10095), !dbg !11407
  %0 = load %"class.ros::Publisher::Impl"*** %__a.addr, align 8, !dbg !11408
  %1 = load %"class.ros::Publisher::Impl"** %0, align 8, !dbg !11408
  store %"class.ros::Publisher::Impl"* %1, %"class.ros::Publisher::Impl"** %__tmp, align 8, !dbg !11407
  %2 = load %"class.ros::Publisher::Impl"*** %__b.addr, align 8, !dbg !11409
  %3 = load %"class.ros::Publisher::Impl"** %2, align 8, !dbg !11409
  %4 = load %"class.ros::Publisher::Impl"*** %__a.addr, align 8, !dbg !11410
  store %"class.ros::Publisher::Impl"* %3, %"class.ros::Publisher::Impl"** %4, align 8, !dbg !11411
  %5 = load %"class.ros::Publisher::Impl"** %__tmp, align 8, !dbg !11412
  %6 = load %"class.ros::Publisher::Impl"*** %__b.addr, align 8, !dbg !11413
  store %"class.ros::Publisher::Impl"* %5, %"class.ros::Publisher::Impl"** %6, align 8, !dbg !11414
  ret void, !dbg !11415
}

; Function Attrs: nounwind uwtable
define linkonce_odr void @_ZN5boost6detail12shared_count4swapERS1_(%"class.boost::detail::shared_count"* %this, %"class.boost::detail::shared_count"* dereferenceable(8) %r) #13 comdat align 2 {
entry:
  %this.addr = alloca %"class.boost::detail::shared_count"*, align 8
  %r.addr = alloca %"class.boost::detail::shared_count"*, align 8
  %tmp = alloca %"class.boost::detail::sp_counted_base"*, align 8
  store %"class.boost::detail::shared_count"* %this, %"class.boost::detail::shared_count"** %this.addr, align 8
  call void @llvm.dbg.declare(metadata %"class.boost::detail::shared_count"** %this.addr, metadata !11416, metadata !10095), !dbg !11417
  store %"class.boost::detail::shared_count"* %r, %"class.boost::detail::shared_count"** %r.addr, align 8
  call void @llvm.dbg.declare(metadata %"class.boost::detail::shared_count"** %r.addr, metadata !11418, metadata !10095), !dbg !11419
  %this1 = load %"class.boost::detail::shared_count"** %this.addr
  call void @llvm.dbg.declare(metadata %"class.boost::detail::sp_counted_base"** %tmp, metadata !11420, metadata !10095), !dbg !11421
  %0 = load %"class.boost::detail::shared_count"** %r.addr, align 8, !dbg !11422
  %pi_ = getelementptr inbounds %"class.boost::detail::shared_count"* %0, i32 0, i32 0, !dbg !11423
  %1 = load %"class.boost::detail::sp_counted_base"** %pi_, align 8, !dbg !11423
  store %"class.boost::detail::sp_counted_base"* %1, %"class.boost::detail::sp_counted_base"** %tmp, align 8, !dbg !11421
  %pi_2 = getelementptr inbounds %"class.boost::detail::shared_count"* %this1, i32 0, i32 0, !dbg !11424
  %2 = load %"class.boost::detail::sp_counted_base"** %pi_2, align 8, !dbg !11424
  %3 = load %"class.boost::detail::shared_count"** %r.addr, align 8, !dbg !11425
  %pi_3 = getelementptr inbounds %"class.boost::detail::shared_count"* %3, i32 0, i32 0, !dbg !11426
  store %"class.boost::detail::sp_counted_base"* %2, %"class.boost::detail::sp_counted_base"** %pi_3, align 8, !dbg !11427
  %4 = load %"class.boost::detail::sp_counted_base"** %tmp, align 8, !dbg !11428
  %pi_4 = getelementptr inbounds %"class.boost::detail::shared_count"* %this1, i32 0, i32 0, !dbg !11429
  store %"class.boost::detail::sp_counted_base"* %4, %"class.boost::detail::sp_counted_base"** %pi_4, align 8, !dbg !11430
  ret void, !dbg !11431
}

; Function Attrs: inlinehint uwtable
define linkonce_odr void @_ZN5boost10shared_ptrIN3ros9Publisher4ImplEED2Ev(%"class.boost::shared_ptr.21"* %this) unnamed_addr #11 comdat align 2 {
entry:
  %this.addr = alloca %"class.boost::shared_ptr.21"*, align 8
  store %"class.boost::shared_ptr.21"* %this, %"class.boost::shared_ptr.21"** %this.addr, align 8
  call void @llvm.dbg.declare(metadata %"class.boost::shared_ptr.21"** %this.addr, metadata !11432, metadata !10095), !dbg !11433
  %this1 = load %"class.boost::shared_ptr.21"** %this.addr
  %pn = getelementptr inbounds %"class.boost::shared_ptr.21"* %this1, i32 0, i32 1, !dbg !11434
  call void @_ZN5boost6detail12shared_countD2Ev(%"class.boost::detail::shared_count"* %pn), !dbg !11434
  ret void, !dbg !11436
}

; Function Attrs: uwtable
define linkonce_odr void @_ZN5boost6detail12shared_countD2Ev(%"class.boost::detail::shared_count"* %this) unnamed_addr #0 comdat align 2 {
entry:
  %this.addr = alloca %"class.boost::detail::shared_count"*, align 8
  store %"class.boost::detail::shared_count"* %this, %"class.boost::detail::shared_count"** %this.addr, align 8
  call void @llvm.dbg.declare(metadata %"class.boost::detail::shared_count"** %this.addr, metadata !11437, metadata !10095), !dbg !11438
  %this1 = load %"class.boost::detail::shared_count"** %this.addr
  %pi_ = getelementptr inbounds %"class.boost::detail::shared_count"* %this1, i32 0, i32 0, !dbg !11439
  %0 = load %"class.boost::detail::sp_counted_base"** %pi_, align 8, !dbg !11439
  %cmp = icmp ne %"class.boost::detail::sp_counted_base"* %0, null, !dbg !11442
  br i1 %cmp, label %if.then, label %if.end, !dbg !11443

if.then:                                          ; preds = %entry
  %pi_2 = getelementptr inbounds %"class.boost::detail::shared_count"* %this1, i32 0, i32 0, !dbg !11444
  %1 = load %"class.boost::detail::sp_counted_base"** %pi_2, align 8, !dbg !11444
  call void @_ZN5boost6detail15sp_counted_base7releaseEv(%"class.boost::detail::sp_counted_base"* %1), !dbg !11444
  br label %if.end, !dbg !11444

if.end:                                           ; preds = %if.then, %entry
  ret void, !dbg !11446
}

; Function Attrs: uwtable
define linkonce_odr void @_ZN5boost6detail15sp_counted_base7releaseEv(%"class.boost::detail::sp_counted_base"* %this) #0 comdat align 2 {
entry:
  %this.addr = alloca %"class.boost::detail::sp_counted_base"*, align 8
  store %"class.boost::detail::sp_counted_base"* %this, %"class.boost::detail::sp_counted_base"** %this.addr, align 8
  call void @llvm.dbg.declare(metadata %"class.boost::detail::sp_counted_base"** %this.addr, metadata !11447, metadata !10095), !dbg !11448
  %this1 = load %"class.boost::detail::sp_counted_base"** %this.addr
  %use_count_ = getelementptr inbounds %"class.boost::detail::sp_counted_base"* %this1, i32 0, i32 1, !dbg !11449
  %call = call i32 @_ZN5boost6detail23atomic_exchange_and_addEPii(i32* %use_count_, i32 -1), !dbg !11451
  %cmp = icmp eq i32 %call, 1, !dbg !11452
  br i1 %cmp, label %if.then, label %if.end, !dbg !11453

if.then:                                          ; preds = %entry
  %0 = bitcast %"class.boost::detail::sp_counted_base"* %this1 to void (%"class.boost::detail::sp_counted_base"*)***, !dbg !11454
  %vtable = load void (%"class.boost::detail::sp_counted_base"*)*** %0, !dbg !11454
  %vfn = getelementptr inbounds void (%"class.boost::detail::sp_counted_base"*)** %vtable, i64 2, !dbg !11454
  %1 = load void (%"class.boost::detail::sp_counted_base"*)** %vfn, !dbg !11454
  call void %1(%"class.boost::detail::sp_counted_base"* %this1), !dbg !11454
  call void @_ZN5boost6detail15sp_counted_base12weak_releaseEv(%"class.boost::detail::sp_counted_base"* %this1), !dbg !11456
  br label %if.end, !dbg !11457

if.end:                                           ; preds = %if.then, %entry
  ret void, !dbg !11458
}

; Function Attrs: inlinehint nounwind uwtable
define linkonce_odr i32 @_ZN5boost6detail23atomic_exchange_and_addEPii(i32* %pw, i32 %dv) #14 comdat {
entry:
  %pw.addr = alloca i32*, align 8
  %dv.addr = alloca i32, align 4
  %r = alloca i32, align 4
  store i32* %pw, i32** %pw.addr, align 8
  call void @llvm.dbg.declare(metadata i32** %pw.addr, metadata !11459, metadata !10095), !dbg !11460
  store i32 %dv, i32* %dv.addr, align 4
  call void @llvm.dbg.declare(metadata i32* %dv.addr, metadata !11461, metadata !10095), !dbg !11462
  call void @llvm.dbg.declare(metadata i32* %r, metadata !11463, metadata !10095), !dbg !11464
  %0 = load i32** %pw.addr, align 8, !dbg !11465
  %1 = load i32** %pw.addr, align 8, !dbg !11466
  %2 = load i32* %dv.addr, align 4, !dbg !11467
  %3 = call i32 asm sideeffect "lock\0A\09xadd $1, $0", "=*m,=r,*m,1,~{memory},~{cc},~{dirflag},~{fpsr},~{flags}"(i32* %0, i32* %1, i32 %2) #3, !dbg !11468, !srcloc !11469
  store i32 %3, i32* %r, align 4, !dbg !11468
  %4 = load i32* %r, align 4, !dbg !11470
  ret i32 %4, !dbg !11471
}

; Function Attrs: uwtable
define linkonce_odr void @_ZN5boost6detail15sp_counted_base12weak_releaseEv(%"class.boost::detail::sp_counted_base"* %this) #0 comdat align 2 {
entry:
  %this.addr = alloca %"class.boost::detail::sp_counted_base"*, align 8
  store %"class.boost::detail::sp_counted_base"* %this, %"class.boost::detail::sp_counted_base"** %this.addr, align 8
  call void @llvm.dbg.declare(metadata %"class.boost::detail::sp_counted_base"** %this.addr, metadata !11472, metadata !10095), !dbg !11473
  %this1 = load %"class.boost::detail::sp_counted_base"** %this.addr
  %weak_count_ = getelementptr inbounds %"class.boost::detail::sp_counted_base"* %this1, i32 0, i32 2, !dbg !11474
  %call = call i32 @_ZN5boost6detail23atomic_exchange_and_addEPii(i32* %weak_count_, i32 -1), !dbg !11476
  %cmp = icmp eq i32 %call, 1, !dbg !11477
  br i1 %cmp, label %if.then, label %if.end, !dbg !11478

if.then:                                          ; preds = %entry
  %0 = bitcast %"class.boost::detail::sp_counted_base"* %this1 to void (%"class.boost::detail::sp_counted_base"*)***, !dbg !11479
  %vtable = load void (%"class.boost::detail::sp_counted_base"*)*** %0, !dbg !11479
  %vfn = getelementptr inbounds void (%"class.boost::detail::sp_counted_base"*)** %vtable, i64 3, !dbg !11479
  %1 = load void (%"class.boost::detail::sp_counted_base"*)** %vfn, !dbg !11479
  call void %1(%"class.boost::detail::sp_counted_base"* %this1), !dbg !11479
  br label %if.end, !dbg !11481

if.end:                                           ; preds = %if.then, %entry
  ret void, !dbg !11482
}

; Function Attrs: uwtable
define linkonce_odr dereferenceable(16) %"class.boost::shared_ptr"* @_ZN5boost10shared_ptrIN3ros10Subscriber4ImplEEaSERKS4_(%"class.boost::shared_ptr"* %this, %"class.boost::shared_ptr"* dereferenceable(16) %r) #0 comdat align 2 {
entry:
  %this.addr = alloca %"class.boost::shared_ptr"*, align 8
  %r.addr = alloca %"class.boost::shared_ptr"*, align 8
  %temp.lvalue = alloca %"class.boost::shared_ptr", align 8
  %exn.slot = alloca i8*
  %ehselector.slot = alloca i32
  store %"class.boost::shared_ptr"* %this, %"class.boost::shared_ptr"** %this.addr, align 8
  call void @llvm.dbg.declare(metadata %"class.boost::shared_ptr"** %this.addr, metadata !11483, metadata !10095), !dbg !11484
  store %"class.boost::shared_ptr"* %r, %"class.boost::shared_ptr"** %r.addr, align 8
  call void @llvm.dbg.declare(metadata %"class.boost::shared_ptr"** %r.addr, metadata !11485, metadata !10095), !dbg !11486
  %this1 = load %"class.boost::shared_ptr"** %this.addr
  %0 = load %"class.boost::shared_ptr"** %r.addr, align 8, !dbg !11487
  call void @_ZN5boost10shared_ptrIN3ros10Subscriber4ImplEEC2ERKS4_(%"class.boost::shared_ptr"* %temp.lvalue, %"class.boost::shared_ptr"* dereferenceable(16) %0), !dbg !11488
  invoke void @_ZN5boost10shared_ptrIN3ros10Subscriber4ImplEE4swapERS4_(%"class.boost::shared_ptr"* %temp.lvalue, %"class.boost::shared_ptr"* dereferenceable(16) %this1)
          to label %invoke.cont unwind label %lpad, !dbg !11488

invoke.cont:                                      ; preds = %entry
  call void @_ZN5boost10shared_ptrIN3ros10Subscriber4ImplEED2Ev(%"class.boost::shared_ptr"* %temp.lvalue), !dbg !11489
  ret %"class.boost::shared_ptr"* %this1, !dbg !11491

lpad:                                             ; preds = %entry
  %1 = landingpad { i8*, i32 } personality i8* bitcast (i32 (...)* @__gxx_personality_v0 to i8*)
          cleanup, !dbg !11492
  %2 = extractvalue { i8*, i32 } %1, 0, !dbg !11492
  store i8* %2, i8** %exn.slot, !dbg !11492
  %3 = extractvalue { i8*, i32 } %1, 1, !dbg !11492
  store i32 %3, i32* %ehselector.slot, !dbg !11492
  invoke void @_ZN5boost10shared_ptrIN3ros10Subscriber4ImplEED2Ev(%"class.boost::shared_ptr"* %temp.lvalue)
          to label %invoke.cont2 unwind label %terminate.lpad, !dbg !11488

invoke.cont2:                                     ; preds = %lpad
  br label %eh.resume, !dbg !11493

eh.resume:                                        ; preds = %invoke.cont2
  %exn = load i8** %exn.slot, !dbg !11495
  %sel = load i32* %ehselector.slot, !dbg !11495
  %lpad.val = insertvalue { i8*, i32 } undef, i8* %exn, 0, !dbg !11495
  %lpad.val3 = insertvalue { i8*, i32 } %lpad.val, i32 %sel, 1, !dbg !11495
  resume { i8*, i32 } %lpad.val3, !dbg !11495

terminate.lpad:                                   ; preds = %lpad
  %4 = landingpad { i8*, i32 } personality i8* bitcast (i32 (...)* @__gxx_personality_v0 to i8*)
          catch i8* null, !dbg !11497
  %5 = extractvalue { i8*, i32 } %4, 0, !dbg !11497
  call void @__clang_call_terminate(i8* %5) #9, !dbg !11497
  unreachable, !dbg !11497
}

; Function Attrs: inlinehint uwtable
define linkonce_odr void @_ZN5boost10shared_ptrIN3ros10Subscriber4ImplEEC2ERKS4_(%"class.boost::shared_ptr"* %this, %"class.boost::shared_ptr"* dereferenceable(16)) unnamed_addr #11 comdat align 2 {
entry:
  %this.addr = alloca %"class.boost::shared_ptr"*, align 8
  %.addr = alloca %"class.boost::shared_ptr"*, align 8
  store %"class.boost::shared_ptr"* %this, %"class.boost::shared_ptr"** %this.addr, align 8
  call void @llvm.dbg.declare(metadata %"class.boost::shared_ptr"** %this.addr, metadata !11499, metadata !10095), !dbg !11500
  store %"class.boost::shared_ptr"* %0, %"class.boost::shared_ptr"** %.addr, align 8
  call void @llvm.dbg.declare(metadata %"class.boost::shared_ptr"** %.addr, metadata !11501, metadata !10095), !dbg !11500
  %this1 = load %"class.boost::shared_ptr"** %this.addr
  %px = getelementptr inbounds %"class.boost::shared_ptr"* %this1, i32 0, i32 0, !dbg !11502
  %1 = load %"class.boost::shared_ptr"** %.addr, align 8, !dbg !11502
  %px2 = getelementptr inbounds %"class.boost::shared_ptr"* %1, i32 0, i32 0, !dbg !11502
  %2 = load %"class.ros::Subscriber::Impl"** %px2, align 8, !dbg !11502
  store %"class.ros::Subscriber::Impl"* %2, %"class.ros::Subscriber::Impl"** %px, align 8, !dbg !11502
  %pn = getelementptr inbounds %"class.boost::shared_ptr"* %this1, i32 0, i32 1, !dbg !11502
  %3 = load %"class.boost::shared_ptr"** %.addr, align 8, !dbg !11502
  %pn3 = getelementptr inbounds %"class.boost::shared_ptr"* %3, i32 0, i32 1, !dbg !11502
  call void @_ZN5boost6detail12shared_countC2ERKS1_(%"class.boost::detail::shared_count"* %pn, %"class.boost::detail::shared_count"* dereferenceable(8) %pn3), !dbg !11502
  %px4 = getelementptr inbounds %"class.boost::shared_ptr"* %this1, i32 0, i32 0, !dbg !11502
  %4 = load %"class.boost::shared_ptr"** %.addr, align 8, !dbg !11502
  %px5 = getelementptr inbounds %"class.boost::shared_ptr"* %4, i32 0, i32 0, !dbg !11502
  %5 = load %"class.ros::Subscriber::Impl"** %px5, align 8, !dbg !11502
  store %"class.ros::Subscriber::Impl"* %5, %"class.ros::Subscriber::Impl"** %px4, align 8, !dbg !11502
  ret void, !dbg !11502
}

; Function Attrs: uwtable
define linkonce_odr void @_ZN5boost10shared_ptrIN3ros10Subscriber4ImplEE4swapERS4_(%"class.boost::shared_ptr"* %this, %"class.boost::shared_ptr"* dereferenceable(16) %other) #0 comdat align 2 {
entry:
  %this.addr = alloca %"class.boost::shared_ptr"*, align 8
  %other.addr = alloca %"class.boost::shared_ptr"*, align 8
  store %"class.boost::shared_ptr"* %this, %"class.boost::shared_ptr"** %this.addr, align 8
  call void @llvm.dbg.declare(metadata %"class.boost::shared_ptr"** %this.addr, metadata !11503, metadata !10095), !dbg !11504
  store %"class.boost::shared_ptr"* %other, %"class.boost::shared_ptr"** %other.addr, align 8
  call void @llvm.dbg.declare(metadata %"class.boost::shared_ptr"** %other.addr, metadata !11505, metadata !10095), !dbg !11506
  %this1 = load %"class.boost::shared_ptr"** %this.addr
  %px = getelementptr inbounds %"class.boost::shared_ptr"* %this1, i32 0, i32 0, !dbg !11507
  %0 = load %"class.boost::shared_ptr"** %other.addr, align 8, !dbg !11508
  %px2 = getelementptr inbounds %"class.boost::shared_ptr"* %0, i32 0, i32 0, !dbg !11509
  call void @_ZSt4swapIPN3ros10Subscriber4ImplEEvRT_S5_(%"class.ros::Subscriber::Impl"** dereferenceable(8) %px, %"class.ros::Subscriber::Impl"** dereferenceable(8) %px2), !dbg !11510
  %pn = getelementptr inbounds %"class.boost::shared_ptr"* %this1, i32 0, i32 1, !dbg !11511
  %1 = load %"class.boost::shared_ptr"** %other.addr, align 8, !dbg !11512
  %pn3 = getelementptr inbounds %"class.boost::shared_ptr"* %1, i32 0, i32 1, !dbg !11513
  call void @_ZN5boost6detail12shared_count4swapERS1_(%"class.boost::detail::shared_count"* %pn, %"class.boost::detail::shared_count"* dereferenceable(8) %pn3), !dbg !11511
  ret void, !dbg !11514
}

; Function Attrs: nounwind uwtable
define linkonce_odr void @_ZSt4swapIPN3ros10Subscriber4ImplEEvRT_S5_(%"class.ros::Subscriber::Impl"** dereferenceable(8) %__a, %"class.ros::Subscriber::Impl"** dereferenceable(8) %__b) #13 comdat {
entry:
  %__a.addr = alloca %"class.ros::Subscriber::Impl"**, align 8
  %__b.addr = alloca %"class.ros::Subscriber::Impl"**, align 8
  %__tmp = alloca %"class.ros::Subscriber::Impl"*, align 8
  store %"class.ros::Subscriber::Impl"** %__a, %"class.ros::Subscriber::Impl"*** %__a.addr, align 8
  call void @llvm.dbg.declare(metadata %"class.ros::Subscriber::Impl"*** %__a.addr, metadata !11515, metadata !10095), !dbg !11516
  store %"class.ros::Subscriber::Impl"** %__b, %"class.ros::Subscriber::Impl"*** %__b.addr, align 8
  call void @llvm.dbg.declare(metadata %"class.ros::Subscriber::Impl"*** %__b.addr, metadata !11517, metadata !10095), !dbg !11518
  call void @llvm.dbg.declare(metadata %"class.ros::Subscriber::Impl"** %__tmp, metadata !11519, metadata !10095), !dbg !11520
  %0 = load %"class.ros::Subscriber::Impl"*** %__a.addr, align 8, !dbg !11521
  %1 = load %"class.ros::Subscriber::Impl"** %0, align 8, !dbg !11521
  store %"class.ros::Subscriber::Impl"* %1, %"class.ros::Subscriber::Impl"** %__tmp, align 8, !dbg !11520
  %2 = load %"class.ros::Subscriber::Impl"*** %__b.addr, align 8, !dbg !11522
  %3 = load %"class.ros::Subscriber::Impl"** %2, align 8, !dbg !11522
  %4 = load %"class.ros::Subscriber::Impl"*** %__a.addr, align 8, !dbg !11523
  store %"class.ros::Subscriber::Impl"* %3, %"class.ros::Subscriber::Impl"** %4, align 8, !dbg !11524
  %5 = load %"class.ros::Subscriber::Impl"** %__tmp, align 8, !dbg !11525
  %6 = load %"class.ros::Subscriber::Impl"*** %__b.addr, align 8, !dbg !11526
  store %"class.ros::Subscriber::Impl"* %5, %"class.ros::Subscriber::Impl"** %6, align 8, !dbg !11527
  ret void, !dbg !11528
}

; Function Attrs: inlinehint uwtable
define linkonce_odr void @_ZN5boost10shared_ptrIN3ros10Subscriber4ImplEED2Ev(%"class.boost::shared_ptr"* %this) unnamed_addr #11 comdat align 2 {
entry:
  %this.addr = alloca %"class.boost::shared_ptr"*, align 8
  store %"class.boost::shared_ptr"* %this, %"class.boost::shared_ptr"** %this.addr, align 8
  call void @llvm.dbg.declare(metadata %"class.boost::shared_ptr"** %this.addr, metadata !11529, metadata !10095), !dbg !11530
  %this1 = load %"class.boost::shared_ptr"** %this.addr
  %pn = getelementptr inbounds %"class.boost::shared_ptr"* %this1, i32 0, i32 1, !dbg !11531
  call void @_ZN5boost6detail12shared_countD2Ev(%"class.boost::detail::shared_count"* %pn), !dbg !11531
  ret void, !dbg !11533
}

; Function Attrs: uwtable
define linkonce_odr void @_ZNSt6vectorISsSaISsEEC2Ev(%"class.std::vector"* %this) unnamed_addr #0 comdat align 2 {
entry:
  %this.addr = alloca %"class.std::vector"*, align 8
  store %"class.std::vector"* %this, %"class.std::vector"** %this.addr, align 8
  call void @llvm.dbg.declare(metadata %"class.std::vector"** %this.addr, metadata !11534, metadata !10095), !dbg !11536
  %this1 = load %"class.std::vector"** %this.addr
  %0 = bitcast %"class.std::vector"* %this1 to %"struct.std::_Vector_base"*, !dbg !11537
  call void @_ZNSt12_Vector_baseISsSaISsEEC2Ev(%"struct.std::_Vector_base"* %0), !dbg !11538
  ret void, !dbg !11539
}

; Function Attrs: uwtable
define linkonce_odr void @_ZNSt12_Vector_baseISsSaISsEEC2Ev(%"struct.std::_Vector_base"* %this) unnamed_addr #0 comdat align 2 {
entry:
  %this.addr = alloca %"struct.std::_Vector_base"*, align 8
  store %"struct.std::_Vector_base"* %this, %"struct.std::_Vector_base"** %this.addr, align 8
  call void @llvm.dbg.declare(metadata %"struct.std::_Vector_base"** %this.addr, metadata !11540, metadata !10095), !dbg !11542
  %this1 = load %"struct.std::_Vector_base"** %this.addr
  %_M_impl = getelementptr inbounds %"struct.std::_Vector_base"* %this1, i32 0, i32 0, !dbg !11543
  call void @_ZNSt12_Vector_baseISsSaISsEE12_Vector_implC2Ev(%"struct.std::_Vector_base<std::basic_string<char>, std::allocator<std::basic_string<char> > >::_Vector_impl"* %_M_impl), !dbg !11543
  ret void, !dbg !11544
}

; Function Attrs: nounwind uwtable
define linkonce_odr void @_ZNSt12_Vector_baseISsSaISsEE12_Vector_implC2Ev(%"struct.std::_Vector_base<std::basic_string<char>, std::allocator<std::basic_string<char> > >::_Vector_impl"* %this) unnamed_addr #13 comdat align 2 {
entry:
  %this.addr = alloca %"struct.std::_Vector_base<std::basic_string<char>, std::allocator<std::basic_string<char> > >::_Vector_impl"*, align 8
  store %"struct.std::_Vector_base<std::basic_string<char>, std::allocator<std::basic_string<char> > >::_Vector_impl"* %this, %"struct.std::_Vector_base<std::basic_string<char>, std::allocator<std::basic_string<char> > >::_Vector_impl"** %this.addr, align 8
  call void @llvm.dbg.declare(metadata %"struct.std::_Vector_base<std::basic_string<char>, std::allocator<std::basic_string<char> > >::_Vector_impl"** %this.addr, metadata !11545, metadata !10095), !dbg !11547
  %this1 = load %"struct.std::_Vector_base<std::basic_string<char>, std::allocator<std::basic_string<char> > >::_Vector_impl"** %this.addr
  %0 = bitcast %"struct.std::_Vector_base<std::basic_string<char>, std::allocator<std::basic_string<char> > >::_Vector_impl"* %this1 to %"class.std::ios_base::Init"*, !dbg !11548
  call void @_ZNSaISsEC2Ev(%"class.std::ios_base::Init"* %0) #3, !dbg !11549
  %_M_start = getelementptr inbounds %"struct.std::_Vector_base<std::basic_string<char>, std::allocator<std::basic_string<char> > >::_Vector_impl"* %this1, i32 0, i32 0, !dbg !11550
  store %"class.std::basic_string"* null, %"class.std::basic_string"** %_M_start, align 8, !dbg !11550
  %_M_finish = getelementptr inbounds %"struct.std::_Vector_base<std::basic_string<char>, std::allocator<std::basic_string<char> > >::_Vector_impl"* %this1, i32 0, i32 1, !dbg !11551
  store %"class.std::basic_string"* null, %"class.std::basic_string"** %_M_finish, align 8, !dbg !11551
  %_M_end_of_storage = getelementptr inbounds %"struct.std::_Vector_base<std::basic_string<char>, std::allocator<std::basic_string<char> > >::_Vector_impl"* %this1, i32 0, i32 2, !dbg !11552
  store %"class.std::basic_string"* null, %"class.std::basic_string"** %_M_end_of_storage, align 8, !dbg !11552
  ret void, !dbg !11553
}

; Function Attrs: nounwind uwtable
define linkonce_odr void @_ZNSaISsEC2Ev(%"class.std::ios_base::Init"* %this) unnamed_addr #13 comdat align 2 {
entry:
  %this.addr = alloca %"class.std::ios_base::Init"*, align 8
  store %"class.std::ios_base::Init"* %this, %"class.std::ios_base::Init"** %this.addr, align 8
  call void @llvm.dbg.declare(metadata %"class.std::ios_base::Init"** %this.addr, metadata !11554, metadata !10095), !dbg !11556
  %this1 = load %"class.std::ios_base::Init"** %this.addr
  %0 = bitcast %"class.std::ios_base::Init"* %this1 to %"class.std::ios_base::Init"*, !dbg !11557
  call void @_ZN9__gnu_cxx13new_allocatorISsEC2Ev(%"class.std::ios_base::Init"* %0) #3, !dbg !11558
  ret void, !dbg !11559
}

; Function Attrs: nounwind uwtable
define linkonce_odr void @_ZN9__gnu_cxx13new_allocatorISsEC2Ev(%"class.std::ios_base::Init"* %this) unnamed_addr #13 comdat align 2 {
entry:
  %this.addr = alloca %"class.std::ios_base::Init"*, align 8
  store %"class.std::ios_base::Init"* %this, %"class.std::ios_base::Init"** %this.addr, align 8
  call void @llvm.dbg.declare(metadata %"class.std::ios_base::Init"** %this.addr, metadata !11560, metadata !10095), !dbg !11562
  %this1 = load %"class.std::ios_base::Init"** %this.addr
  ret void, !dbg !11563
}

; Function Attrs: uwtable
define linkonce_odr void @_ZNSt6vectorISsSaISsEED2Ev(%"class.std::vector"* %this) unnamed_addr #0 comdat align 2 {
entry:
  %this.addr = alloca %"class.std::vector"*, align 8
  %exn.slot = alloca i8*
  %ehselector.slot = alloca i32
  store %"class.std::vector"* %this, %"class.std::vector"** %this.addr, align 8
  call void @llvm.dbg.declare(metadata %"class.std::vector"** %this.addr, metadata !11564, metadata !10095), !dbg !11565
  %this1 = load %"class.std::vector"** %this.addr
  %0 = bitcast %"class.std::vector"* %this1 to %"struct.std::_Vector_base"*, !dbg !11566
  %_M_impl = getelementptr inbounds %"struct.std::_Vector_base"* %0, i32 0, i32 0, !dbg !11568
  %_M_start = getelementptr inbounds %"struct.std::_Vector_base<std::basic_string<char>, std::allocator<std::basic_string<char> > >::_Vector_impl"* %_M_impl, i32 0, i32 0, !dbg !11569
  %1 = load %"class.std::basic_string"** %_M_start, align 8, !dbg !11569
  %2 = bitcast %"class.std::vector"* %this1 to %"struct.std::_Vector_base"*, !dbg !11570
  %_M_impl2 = getelementptr inbounds %"struct.std::_Vector_base"* %2, i32 0, i32 0, !dbg !11571
  %_M_finish = getelementptr inbounds %"struct.std::_Vector_base<std::basic_string<char>, std::allocator<std::basic_string<char> > >::_Vector_impl"* %_M_impl2, i32 0, i32 1, !dbg !11572
  %3 = load %"class.std::basic_string"** %_M_finish, align 8, !dbg !11572
  %4 = bitcast %"class.std::vector"* %this1 to %"struct.std::_Vector_base"*, !dbg !11573
  %call = invoke dereferenceable(1) %"class.std::ios_base::Init"* @_ZNSt12_Vector_baseISsSaISsEE19_M_get_Tp_allocatorEv(%"struct.std::_Vector_base"* %4)
          to label %invoke.cont unwind label %lpad, !dbg !11573

invoke.cont:                                      ; preds = %entry
  invoke void @_ZSt8_DestroyIPSsSsEvT_S1_RSaIT0_E(%"class.std::basic_string"* %1, %"class.std::basic_string"* %3, %"class.std::ios_base::Init"* dereferenceable(1) %call)
          to label %invoke.cont3 unwind label %lpad, !dbg !11574

invoke.cont3:                                     ; preds = %invoke.cont
  %5 = bitcast %"class.std::vector"* %this1 to %"struct.std::_Vector_base"*, !dbg !11575
  call void @_ZNSt12_Vector_baseISsSaISsEED2Ev(%"struct.std::_Vector_base"* %5), !dbg !11575
  ret void, !dbg !11576

lpad:                                             ; preds = %invoke.cont, %entry
  %6 = landingpad { i8*, i32 } personality i8* bitcast (i32 (...)* @__gxx_personality_v0 to i8*)
          cleanup, !dbg !11577
  %7 = extractvalue { i8*, i32 } %6, 0, !dbg !11577
  store i8* %7, i8** %exn.slot, !dbg !11577
  %8 = extractvalue { i8*, i32 } %6, 1, !dbg !11577
  store i32 %8, i32* %ehselector.slot, !dbg !11577
  %9 = bitcast %"class.std::vector"* %this1 to %"struct.std::_Vector_base"*, !dbg !11577
  invoke void @_ZNSt12_Vector_baseISsSaISsEED2Ev(%"struct.std::_Vector_base"* %9)
          to label %invoke.cont4 unwind label %terminate.lpad, !dbg !11577

invoke.cont4:                                     ; preds = %lpad
  br label %eh.resume, !dbg !11579

eh.resume:                                        ; preds = %invoke.cont4
  %exn = load i8** %exn.slot, !dbg !11581
  %sel = load i32* %ehselector.slot, !dbg !11581
  %lpad.val = insertvalue { i8*, i32 } undef, i8* %exn, 0, !dbg !11581
  %lpad.val5 = insertvalue { i8*, i32 } %lpad.val, i32 %sel, 1, !dbg !11581
  resume { i8*, i32 } %lpad.val5, !dbg !11581

terminate.lpad:                                   ; preds = %lpad
  %10 = landingpad { i8*, i32 } personality i8* bitcast (i32 (...)* @__gxx_personality_v0 to i8*)
          catch i8* null, !dbg !11583
  %11 = extractvalue { i8*, i32 } %10, 0, !dbg !11583
  call void @__clang_call_terminate(i8* %11) #9, !dbg !11583
  unreachable, !dbg !11583
}

; Function Attrs: inlinehint uwtable
define linkonce_odr void @_ZSt8_DestroyIPSsSsEvT_S1_RSaIT0_E(%"class.std::basic_string"* %__first, %"class.std::basic_string"* %__last, %"class.std::ios_base::Init"* dereferenceable(1)) #11 comdat {
entry:
  %__first.addr = alloca %"class.std::basic_string"*, align 8
  %__last.addr = alloca %"class.std::basic_string"*, align 8
  %.addr = alloca %"class.std::ios_base::Init"*, align 8
  store %"class.std::basic_string"* %__first, %"class.std::basic_string"** %__first.addr, align 8
  call void @llvm.dbg.declare(metadata %"class.std::basic_string"** %__first.addr, metadata !11585, metadata !10095), !dbg !11587
  store %"class.std::basic_string"* %__last, %"class.std::basic_string"** %__last.addr, align 8
  call void @llvm.dbg.declare(metadata %"class.std::basic_string"** %__last.addr, metadata !11588, metadata !10095), !dbg !11589
  store %"class.std::ios_base::Init"* %0, %"class.std::ios_base::Init"** %.addr, align 8
  call void @llvm.dbg.declare(metadata %"class.std::ios_base::Init"** %.addr, metadata !11590, metadata !10095), !dbg !11591
  %1 = load %"class.std::basic_string"** %__first.addr, align 8, !dbg !11592
  %2 = load %"class.std::basic_string"** %__last.addr, align 8, !dbg !11593
  call void @_ZSt8_DestroyIPSsEvT_S1_(%"class.std::basic_string"* %1, %"class.std::basic_string"* %2), !dbg !11594
  ret void, !dbg !11595
}

; Function Attrs: inlinehint uwtable
define linkonce_odr void @_ZSt8_DestroyIPSsEvT_S1_(%"class.std::basic_string"* %__first, %"class.std::basic_string"* %__last) #11 comdat {
entry:
  %__first.addr = alloca %"class.std::basic_string"*, align 8
  %__last.addr = alloca %"class.std::basic_string"*, align 8
  store %"class.std::basic_string"* %__first, %"class.std::basic_string"** %__first.addr, align 8
  call void @llvm.dbg.declare(metadata %"class.std::basic_string"** %__first.addr, metadata !11596, metadata !10095), !dbg !11597
  store %"class.std::basic_string"* %__last, %"class.std::basic_string"** %__last.addr, align 8
  call void @llvm.dbg.declare(metadata %"class.std::basic_string"** %__last.addr, metadata !11598, metadata !10095), !dbg !11599
  %0 = load %"class.std::basic_string"** %__first.addr, align 8, !dbg !11600
  %1 = load %"class.std::basic_string"** %__last.addr, align 8, !dbg !11601
  call void @_ZNSt12_Destroy_auxILb0EE9__destroyIPSsEEvT_S3_(%"class.std::basic_string"* %0, %"class.std::basic_string"* %1), !dbg !11602
  ret void, !dbg !11603
}

; Function Attrs: uwtable
define linkonce_odr void @_ZNSt12_Destroy_auxILb0EE9__destroyIPSsEEvT_S3_(%"class.std::basic_string"* %__first, %"class.std::basic_string"* %__last) #0 comdat align 2 {
entry:
  %__first.addr = alloca %"class.std::basic_string"*, align 8
  %__last.addr = alloca %"class.std::basic_string"*, align 8
  store %"class.std::basic_string"* %__first, %"class.std::basic_string"** %__first.addr, align 8
  call void @llvm.dbg.declare(metadata %"class.std::basic_string"** %__first.addr, metadata !11604, metadata !10095), !dbg !11605
  store %"class.std::basic_string"* %__last, %"class.std::basic_string"** %__last.addr, align 8
  call void @llvm.dbg.declare(metadata %"class.std::basic_string"** %__last.addr, metadata !11606, metadata !10095), !dbg !11607
  br label %for.cond, !dbg !11608

for.cond:                                         ; preds = %for.inc, %entry
  %0 = load %"class.std::basic_string"** %__first.addr, align 8, !dbg !11609
  %1 = load %"class.std::basic_string"** %__last.addr, align 8, !dbg !11614
  %cmp = icmp ne %"class.std::basic_string"* %0, %1, !dbg !11615
  br i1 %cmp, label %for.body, label %for.end, !dbg !11616

for.body:                                         ; preds = %for.cond
  %2 = load %"class.std::basic_string"** %__first.addr, align 8, !dbg !11617
  %call = call %"class.std::basic_string"* @_ZSt11__addressofISsEPT_RS0_(%"class.std::basic_string"* dereferenceable(8) %2), !dbg !11618
  call void @_ZSt8_DestroyISsEvPT_(%"class.std::basic_string"* %call), !dbg !11619
  br label %for.inc, !dbg !11619

for.inc:                                          ; preds = %for.body
  %3 = load %"class.std::basic_string"** %__first.addr, align 8, !dbg !11620
  %incdec.ptr = getelementptr inbounds %"class.std::basic_string"* %3, i32 1, !dbg !11620
  store %"class.std::basic_string"* %incdec.ptr, %"class.std::basic_string"** %__first.addr, align 8, !dbg !11620
  br label %for.cond, !dbg !11621

for.end:                                          ; preds = %for.cond
  ret void, !dbg !11622
}

; Function Attrs: inlinehint uwtable
define linkonce_odr void @_ZSt8_DestroyISsEvPT_(%"class.std::basic_string"* %__pointer) #11 comdat {
entry:
  %__pointer.addr = alloca %"class.std::basic_string"*, align 8
  store %"class.std::basic_string"* %__pointer, %"class.std::basic_string"** %__pointer.addr, align 8
  call void @llvm.dbg.declare(metadata %"class.std::basic_string"** %__pointer.addr, metadata !11623, metadata !10095), !dbg !11624
  %0 = load %"class.std::basic_string"** %__pointer.addr, align 8, !dbg !11625
  call void @_ZNSsD1Ev(%"class.std::basic_string"* %0), !dbg !11625
  ret void, !dbg !11626
}

; Function Attrs: inlinehint nounwind uwtable
define linkonce_odr %"class.std::basic_string"* @_ZSt11__addressofISsEPT_RS0_(%"class.std::basic_string"* dereferenceable(8) %__r) #14 comdat {
entry:
  %__r.addr = alloca %"class.std::basic_string"*, align 8
  store %"class.std::basic_string"* %__r, %"class.std::basic_string"** %__r.addr, align 8
  call void @llvm.dbg.declare(metadata %"class.std::basic_string"** %__r.addr, metadata !11627, metadata !10095), !dbg !11628
  %0 = load %"class.std::basic_string"** %__r.addr, align 8, !dbg !11629
  %1 = bitcast %"class.std::basic_string"* %0 to i8*, !dbg !11630
  %2 = bitcast i8* %1 to %"class.std::basic_string"*, !dbg !11631
  ret %"class.std::basic_string"* %2, !dbg !11632
}

; Function Attrs: nounwind uwtable
define linkonce_odr dereferenceable(1) %"class.std::ios_base::Init"* @_ZNSt12_Vector_baseISsSaISsEE19_M_get_Tp_allocatorEv(%"struct.std::_Vector_base"* %this) #13 comdat align 2 {
entry:
  %this.addr = alloca %"struct.std::_Vector_base"*, align 8
  store %"struct.std::_Vector_base"* %this, %"struct.std::_Vector_base"** %this.addr, align 8
  call void @llvm.dbg.declare(metadata %"struct.std::_Vector_base"** %this.addr, metadata !11633, metadata !10095), !dbg !11634
  %this1 = load %"struct.std::_Vector_base"** %this.addr
  %_M_impl = getelementptr inbounds %"struct.std::_Vector_base"* %this1, i32 0, i32 0, !dbg !11635
  %0 = bitcast %"struct.std::_Vector_base<std::basic_string<char>, std::allocator<std::basic_string<char> > >::_Vector_impl"* %_M_impl to %"class.std::ios_base::Init"*, !dbg !11636
  ret %"class.std::ios_base::Init"* %0, !dbg !11637
}

; Function Attrs: uwtable
define linkonce_odr void @_ZNSt12_Vector_baseISsSaISsEED2Ev(%"struct.std::_Vector_base"* %this) unnamed_addr #0 comdat align 2 {
entry:
  %this.addr = alloca %"struct.std::_Vector_base"*, align 8
  %exn.slot = alloca i8*
  %ehselector.slot = alloca i32
  store %"struct.std::_Vector_base"* %this, %"struct.std::_Vector_base"** %this.addr, align 8
  call void @llvm.dbg.declare(metadata %"struct.std::_Vector_base"** %this.addr, metadata !11638, metadata !10095), !dbg !11639
  %this1 = load %"struct.std::_Vector_base"** %this.addr
  %_M_impl = getelementptr inbounds %"struct.std::_Vector_base"* %this1, i32 0, i32 0, !dbg !11640
  %_M_start = getelementptr inbounds %"struct.std::_Vector_base<std::basic_string<char>, std::allocator<std::basic_string<char> > >::_Vector_impl"* %_M_impl, i32 0, i32 0, !dbg !11642
  %0 = load %"class.std::basic_string"** %_M_start, align 8, !dbg !11642
  %_M_impl2 = getelementptr inbounds %"struct.std::_Vector_base"* %this1, i32 0, i32 0, !dbg !11643
  %_M_end_of_storage = getelementptr inbounds %"struct.std::_Vector_base<std::basic_string<char>, std::allocator<std::basic_string<char> > >::_Vector_impl"* %_M_impl2, i32 0, i32 2, !dbg !11644
  %1 = load %"class.std::basic_string"** %_M_end_of_storage, align 8, !dbg !11644
  %_M_impl3 = getelementptr inbounds %"struct.std::_Vector_base"* %this1, i32 0, i32 0, !dbg !11645
  %_M_start4 = getelementptr inbounds %"struct.std::_Vector_base<std::basic_string<char>, std::allocator<std::basic_string<char> > >::_Vector_impl"* %_M_impl3, i32 0, i32 0, !dbg !11646
  %2 = load %"class.std::basic_string"** %_M_start4, align 8, !dbg !11646
  %sub.ptr.lhs.cast = ptrtoint %"class.std::basic_string"* %1 to i64, !dbg !11647
  %sub.ptr.rhs.cast = ptrtoint %"class.std::basic_string"* %2 to i64, !dbg !11647
  %sub.ptr.sub = sub i64 %sub.ptr.lhs.cast, %sub.ptr.rhs.cast, !dbg !11647
  %sub.ptr.div = sdiv exact i64 %sub.ptr.sub, 8, !dbg !11647
  invoke void @_ZNSt12_Vector_baseISsSaISsEE13_M_deallocateEPSsm(%"struct.std::_Vector_base"* %this1, %"class.std::basic_string"* %0, i64 %sub.ptr.div)
          to label %invoke.cont unwind label %lpad, !dbg !11648

invoke.cont:                                      ; preds = %entry
  %_M_impl5 = getelementptr inbounds %"struct.std::_Vector_base"* %this1, i32 0, i32 0, !dbg !11649
  call void @_ZNSt12_Vector_baseISsSaISsEE12_Vector_implD2Ev(%"struct.std::_Vector_base<std::basic_string<char>, std::allocator<std::basic_string<char> > >::_Vector_impl"* %_M_impl5) #3, !dbg !11649
  ret void, !dbg !11650

lpad:                                             ; preds = %entry
  %3 = landingpad { i8*, i32 } personality i8* bitcast (i32 (...)* @__gxx_personality_v0 to i8*)
          cleanup, !dbg !11649
  %4 = extractvalue { i8*, i32 } %3, 0, !dbg !11649
  store i8* %4, i8** %exn.slot, !dbg !11649
  %5 = extractvalue { i8*, i32 } %3, 1, !dbg !11649
  store i32 %5, i32* %ehselector.slot, !dbg !11649
  %_M_impl6 = getelementptr inbounds %"struct.std::_Vector_base"* %this1, i32 0, i32 0, !dbg !11649
  call void @_ZNSt12_Vector_baseISsSaISsEE12_Vector_implD2Ev(%"struct.std::_Vector_base<std::basic_string<char>, std::allocator<std::basic_string<char> > >::_Vector_impl"* %_M_impl6) #3, !dbg !11649
  br label %eh.resume, !dbg !11649

eh.resume:                                        ; preds = %lpad
  %exn = load i8** %exn.slot, !dbg !11651
  %sel = load i32* %ehselector.slot, !dbg !11651
  %lpad.val = insertvalue { i8*, i32 } undef, i8* %exn, 0, !dbg !11651
  %lpad.val7 = insertvalue { i8*, i32 } %lpad.val, i32 %sel, 1, !dbg !11651
  resume { i8*, i32 } %lpad.val7, !dbg !11651
}

; Function Attrs: uwtable
define linkonce_odr void @_ZNSt12_Vector_baseISsSaISsEE13_M_deallocateEPSsm(%"struct.std::_Vector_base"* %this, %"class.std::basic_string"* %__p, i64 %__n) #0 comdat align 2 {
entry:
  %this.addr = alloca %"struct.std::_Vector_base"*, align 8
  %__p.addr = alloca %"class.std::basic_string"*, align 8
  %__n.addr = alloca i64, align 8
  store %"struct.std::_Vector_base"* %this, %"struct.std::_Vector_base"** %this.addr, align 8
  call void @llvm.dbg.declare(metadata %"struct.std::_Vector_base"** %this.addr, metadata !11653, metadata !10095), !dbg !11654
  store %"class.std::basic_string"* %__p, %"class.std::basic_string"** %__p.addr, align 8
  call void @llvm.dbg.declare(metadata %"class.std::basic_string"** %__p.addr, metadata !11655, metadata !10095), !dbg !11657
  store i64 %__n, i64* %__n.addr, align 8
  call void @llvm.dbg.declare(metadata i64* %__n.addr, metadata !11658, metadata !10095), !dbg !11659
  %this1 = load %"struct.std::_Vector_base"** %this.addr
  %0 = load %"class.std::basic_string"** %__p.addr, align 8, !dbg !11660
  %tobool = icmp ne %"class.std::basic_string"* %0, null, !dbg !11660
  br i1 %tobool, label %if.then, label %if.end, !dbg !11662

if.then:                                          ; preds = %entry
  %_M_impl = getelementptr inbounds %"struct.std::_Vector_base"* %this1, i32 0, i32 0, !dbg !11663
  %1 = bitcast %"struct.std::_Vector_base<std::basic_string<char>, std::allocator<std::basic_string<char> > >::_Vector_impl"* %_M_impl to %"class.std::ios_base::Init"*, !dbg !11663
  %2 = load %"class.std::basic_string"** %__p.addr, align 8, !dbg !11664
  %3 = load i64* %__n.addr, align 8, !dbg !11665
  call void @_ZN9__gnu_cxx13new_allocatorISsE10deallocateEPSsm(%"class.std::ios_base::Init"* %1, %"class.std::basic_string"* %2, i64 %3), !dbg !11663
  br label %if.end, !dbg !11663

if.end:                                           ; preds = %if.then, %entry
  ret void, !dbg !11666
}

; Function Attrs: nounwind uwtable
define linkonce_odr void @_ZN9__gnu_cxx13new_allocatorISsE10deallocateEPSsm(%"class.std::ios_base::Init"* %this, %"class.std::basic_string"* %__p, i64) #13 comdat align 2 {
entry:
  %this.addr = alloca %"class.std::ios_base::Init"*, align 8
  %__p.addr = alloca %"class.std::basic_string"*, align 8
  %.addr = alloca i64, align 8
  store %"class.std::ios_base::Init"* %this, %"class.std::ios_base::Init"** %this.addr, align 8
  call void @llvm.dbg.declare(metadata %"class.std::ios_base::Init"** %this.addr, metadata !11667, metadata !10095), !dbg !11668
  store %"class.std::basic_string"* %__p, %"class.std::basic_string"** %__p.addr, align 8
  call void @llvm.dbg.declare(metadata %"class.std::basic_string"** %__p.addr, metadata !11669, metadata !10095), !dbg !11670
  store i64 %0, i64* %.addr, align 8
  call void @llvm.dbg.declare(metadata i64* %.addr, metadata !11671, metadata !10095), !dbg !11672
  %this1 = load %"class.std::ios_base::Init"** %this.addr
  %1 = load %"class.std::basic_string"** %__p.addr, align 8, !dbg !11673
  %2 = bitcast %"class.std::basic_string"* %1 to i8*, !dbg !11673
  call void @_ZdlPv(i8* %2) #3, !dbg !11674
  ret void, !dbg !11675
}

; Function Attrs: inlinehint nounwind uwtable
define linkonce_odr void @_ZNSt12_Vector_baseISsSaISsEE12_Vector_implD2Ev(%"struct.std::_Vector_base<std::basic_string<char>, std::allocator<std::basic_string<char> > >::_Vector_impl"* %this) unnamed_addr #14 comdat align 2 {
entry:
  %this.addr = alloca %"struct.std::_Vector_base<std::basic_string<char>, std::allocator<std::basic_string<char> > >::_Vector_impl"*, align 8
  store %"struct.std::_Vector_base<std::basic_string<char>, std::allocator<std::basic_string<char> > >::_Vector_impl"* %this, %"struct.std::_Vector_base<std::basic_string<char>, std::allocator<std::basic_string<char> > >::_Vector_impl"** %this.addr, align 8
  call void @llvm.dbg.declare(metadata %"struct.std::_Vector_base<std::basic_string<char>, std::allocator<std::basic_string<char> > >::_Vector_impl"** %this.addr, metadata !11676, metadata !10095), !dbg !11677
  %this1 = load %"struct.std::_Vector_base<std::basic_string<char>, std::allocator<std::basic_string<char> > >::_Vector_impl"** %this.addr
  %0 = bitcast %"struct.std::_Vector_base<std::basic_string<char>, std::allocator<std::basic_string<char> > >::_Vector_impl"* %this1 to %"class.std::ios_base::Init"*, !dbg !11678
  call void @_ZNSaISsED2Ev(%"class.std::ios_base::Init"* %0) #3, !dbg !11678
  ret void, !dbg !11680
}

; Function Attrs: nounwind uwtable
define linkonce_odr void @_ZNSaISsED2Ev(%"class.std::ios_base::Init"* %this) unnamed_addr #13 comdat align 2 {
entry:
  %this.addr = alloca %"class.std::ios_base::Init"*, align 8
  store %"class.std::ios_base::Init"* %this, %"class.std::ios_base::Init"** %this.addr, align 8
  call void @llvm.dbg.declare(metadata %"class.std::ios_base::Init"** %this.addr, metadata !11681, metadata !10095), !dbg !11682
  %this1 = load %"class.std::ios_base::Init"** %this.addr
  %0 = bitcast %"class.std::ios_base::Init"* %this1 to %"class.std::ios_base::Init"*, !dbg !11683
  call void @_ZN9__gnu_cxx13new_allocatorISsED2Ev(%"class.std::ios_base::Init"* %0) #3, !dbg !11683
  ret void, !dbg !11685
}

; Function Attrs: nounwind uwtable
define linkonce_odr void @_ZN9__gnu_cxx13new_allocatorISsED2Ev(%"class.std::ios_base::Init"* %this) unnamed_addr #13 comdat align 2 {
entry:
  %this.addr = alloca %"class.std::ios_base::Init"*, align 8
  store %"class.std::ios_base::Init"* %this, %"class.std::ios_base::Init"** %this.addr, align 8
  call void @llvm.dbg.declare(metadata %"class.std::ios_base::Init"** %this.addr, metadata !11686, metadata !10095), !dbg !11687
  %this1 = load %"class.std::ios_base::Init"** %this.addr
  ret void, !dbg !11688
}

; Function Attrs: inlinehint uwtable
define linkonce_odr void @_ZN5boost10shared_ptrISt3mapISsSsSt4lessISsESaISt4pairIKSsSsEEEED2Ev(%"class.boost::shared_ptr.27"* %this) unnamed_addr #11 comdat align 2 {
entry:
  %this.addr = alloca %"class.boost::shared_ptr.27"*, align 8
  store %"class.boost::shared_ptr.27"* %this, %"class.boost::shared_ptr.27"** %this.addr, align 8
  call void @llvm.dbg.declare(metadata %"class.boost::shared_ptr.27"** %this.addr, metadata !11689, metadata !10095), !dbg !11691
  %this1 = load %"class.boost::shared_ptr.27"** %this.addr
  %pn = getelementptr inbounds %"class.boost::shared_ptr.27"* %this1, i32 0, i32 1, !dbg !11692
  call void @_ZN5boost6detail12shared_countD2Ev(%"class.boost::detail::shared_count"* %pn), !dbg !11692
  ret void, !dbg !11694
}

; Function Attrs: nounwind uwtable
define linkonce_odr void @_ZN5boost3argILi1EEC2Ev(%"class.std::ios_base::Init"* %this) unnamed_addr #13 comdat align 2 {
entry:
  %this.addr = alloca %"class.std::ios_base::Init"*, align 8
  store %"class.std::ios_base::Init"* %this, %"class.std::ios_base::Init"** %this.addr, align 8
  call void @llvm.dbg.declare(metadata %"class.std::ios_base::Init"** %this.addr, metadata !11695, metadata !10095), !dbg !11697
  %this1 = load %"class.std::ios_base::Init"** %this.addr
  ret void, !dbg !11698
}

; Function Attrs: nounwind uwtable
define linkonce_odr void @_ZN5boost3argILi2EEC2Ev(%"class.std::ios_base::Init"* %this) unnamed_addr #13 comdat align 2 {
entry:
  %this.addr = alloca %"class.std::ios_base::Init"*, align 8
  store %"class.std::ios_base::Init"* %this, %"class.std::ios_base::Init"** %this.addr, align 8
  call void @llvm.dbg.declare(metadata %"class.std::ios_base::Init"** %this.addr, metadata !11699, metadata !10095), !dbg !11701
  %this1 = load %"class.std::ios_base::Init"** %this.addr
  ret void, !dbg !11702
}

; Function Attrs: nounwind uwtable
define linkonce_odr void @_ZN5boost3argILi3EEC2Ev(%"class.std::ios_base::Init"* %this) unnamed_addr #13 comdat align 2 {
entry:
  %this.addr = alloca %"class.std::ios_base::Init"*, align 8
  store %"class.std::ios_base::Init"* %this, %"class.std::ios_base::Init"** %this.addr, align 8
  call void @llvm.dbg.declare(metadata %"class.std::ios_base::Init"** %this.addr, metadata !11703, metadata !10095), !dbg !11705
  %this1 = load %"class.std::ios_base::Init"** %this.addr
  ret void, !dbg !11706
}

; Function Attrs: nounwind uwtable
define linkonce_odr void @_ZN5boost3argILi4EEC2Ev(%"class.std::ios_base::Init"* %this) unnamed_addr #13 comdat align 2 {
entry:
  %this.addr = alloca %"class.std::ios_base::Init"*, align 8
  store %"class.std::ios_base::Init"* %this, %"class.std::ios_base::Init"** %this.addr, align 8
  call void @llvm.dbg.declare(metadata %"class.std::ios_base::Init"** %this.addr, metadata !11707, metadata !10095), !dbg !11709
  %this1 = load %"class.std::ios_base::Init"** %this.addr
  ret void, !dbg !11710
}

; Function Attrs: nounwind uwtable
define linkonce_odr void @_ZN5boost3argILi5EEC2Ev(%"class.std::ios_base::Init"* %this) unnamed_addr #13 comdat align 2 {
entry:
  %this.addr = alloca %"class.std::ios_base::Init"*, align 8
  store %"class.std::ios_base::Init"* %this, %"class.std::ios_base::Init"** %this.addr, align 8
  call void @llvm.dbg.declare(metadata %"class.std::ios_base::Init"** %this.addr, metadata !11711, metadata !10095), !dbg !11713
  %this1 = load %"class.std::ios_base::Init"** %this.addr
  ret void, !dbg !11714
}

; Function Attrs: nounwind uwtable
define linkonce_odr void @_ZN5boost3argILi6EEC2Ev(%"class.std::ios_base::Init"* %this) unnamed_addr #13 comdat align 2 {
entry:
  %this.addr = alloca %"class.std::ios_base::Init"*, align 8
  store %"class.std::ios_base::Init"* %this, %"class.std::ios_base::Init"** %this.addr, align 8
  call void @llvm.dbg.declare(metadata %"class.std::ios_base::Init"** %this.addr, metadata !11715, metadata !10095), !dbg !11717
  %this1 = load %"class.std::ios_base::Init"** %this.addr
  ret void, !dbg !11718
}

; Function Attrs: nounwind uwtable
define linkonce_odr void @_ZN5boost3argILi7EEC2Ev(%"class.std::ios_base::Init"* %this) unnamed_addr #13 comdat align 2 {
entry:
  %this.addr = alloca %"class.std::ios_base::Init"*, align 8
  store %"class.std::ios_base::Init"* %this, %"class.std::ios_base::Init"** %this.addr, align 8
  call void @llvm.dbg.declare(metadata %"class.std::ios_base::Init"** %this.addr, metadata !11719, metadata !10095), !dbg !11721
  %this1 = load %"class.std::ios_base::Init"** %this.addr
  ret void, !dbg !11722
}

; Function Attrs: nounwind uwtable
define linkonce_odr void @_ZN5boost3argILi8EEC2Ev(%"class.std::ios_base::Init"* %this) unnamed_addr #13 comdat align 2 {
entry:
  %this.addr = alloca %"class.std::ios_base::Init"*, align 8
  store %"class.std::ios_base::Init"* %this, %"class.std::ios_base::Init"** %this.addr, align 8
  call void @llvm.dbg.declare(metadata %"class.std::ios_base::Init"** %this.addr, metadata !11723, metadata !10095), !dbg !11725
  %this1 = load %"class.std::ios_base::Init"** %this.addr
  ret void, !dbg !11726
}

; Function Attrs: nounwind uwtable
define linkonce_odr void @_ZN5boost3argILi9EEC2Ev(%"class.std::ios_base::Init"* %this) unnamed_addr #13 comdat align 2 {
entry:
  %this.addr = alloca %"class.std::ios_base::Init"*, align 8
  store %"class.std::ios_base::Init"* %this, %"class.std::ios_base::Init"** %this.addr, align 8
  call void @llvm.dbg.declare(metadata %"class.std::ios_base::Init"** %this.addr, metadata !11727, metadata !10095), !dbg !11729
  %this1 = load %"class.std::ios_base::Init"** %this.addr
  ret void, !dbg !11730
}

; Function Attrs: uwtable
define linkonce_odr void @_ZNSt8_Rb_treeISsSt4pairIKSsSsESt10_Select1stIS2_ESt4lessISsESaIS2_EEC2Ev(%"class.std::_Rb_tree"* %this) unnamed_addr #0 comdat align 2 {
entry:
  %this.addr = alloca %"class.std::_Rb_tree"*, align 8
  store %"class.std::_Rb_tree"* %this, %"class.std::_Rb_tree"** %this.addr, align 8
  call void @llvm.dbg.declare(metadata %"class.std::_Rb_tree"** %this.addr, metadata !11731, metadata !10095), !dbg !11732
  %this1 = load %"class.std::_Rb_tree"** %this.addr
  %_M_impl = getelementptr inbounds %"class.std::_Rb_tree"* %this1, i32 0, i32 0, !dbg !11733
  call void @_ZNSt8_Rb_treeISsSt4pairIKSsSsESt10_Select1stIS2_ESt4lessISsESaIS2_EE13_Rb_tree_implIS6_Lb0EEC2Ev(%"struct.std::_Rb_tree<std::basic_string<char>, std::pair<const std::basic_string<char>, std::basic_string<char> >, std::_Select1st<std::pair<const std::basic_string<char>, std::basic_string<char> > >, std::less<std::basic_string<char> >, std::allocator<std::pair<const std::basic_string<char>, std::basic_string<char> > > >::_Rb_tree_impl"* %_M_impl), !dbg !11733
  ret void, !dbg !11734
}

; Function Attrs: uwtable
define linkonce_odr void @_ZNSt8_Rb_treeISsSt4pairIKSsSsESt10_Select1stIS2_ESt4lessISsESaIS2_EE13_Rb_tree_implIS6_Lb0EEC2Ev(%"struct.std::_Rb_tree<std::basic_string<char>, std::pair<const std::basic_string<char>, std::basic_string<char> >, std::_Select1st<std::pair<const std::basic_string<char>, std::basic_string<char> > >, std::less<std::basic_string<char> >, std::allocator<std::pair<const std::basic_string<char>, std::basic_string<char> > > >::_Rb_tree_impl"* %this) unnamed_addr #0 comdat align 2 {
entry:
  %this.addr = alloca %"struct.std::_Rb_tree<std::basic_string<char>, std::pair<const std::basic_string<char>, std::basic_string<char> >, std::_Select1st<std::pair<const std::basic_string<char>, std::basic_string<char> > >, std::less<std::basic_string<char> >, std::allocator<std::pair<const std::basic_string<char>, std::basic_string<char> > > >::_Rb_tree_impl"*, align 8
  %exn.slot = alloca i8*
  %ehselector.slot = alloca i32
  store %"struct.std::_Rb_tree<std::basic_string<char>, std::pair<const std::basic_string<char>, std::basic_string<char> >, std::_Select1st<std::pair<const std::basic_string<char>, std::basic_string<char> > >, std::less<std::basic_string<char> >, std::allocator<std::pair<const std::basic_string<char>, std::basic_string<char> > > >::_Rb_tree_impl"* %this, %"struct.std::_Rb_tree<std::basic_string<char>, std::pair<const std::basic_string<char>, std::basic_string<char> >, std::_Select1st<std::pair<const std::basic_string<char>, std::basic_string<char> > >, std::less<std::basic_string<char> >, std::allocator<std::pair<const std::basic_string<char>, std::basic_string<char> > > >::_Rb_tree_impl"** %this.addr, align 8
  call void @llvm.dbg.declare(metadata %"struct.std::_Rb_tree<std::basic_string<char>, std::pair<const std::basic_string<char>, std::basic_string<char> >, std::_Select1st<std::pair<const std::basic_string<char>, std::basic_string<char> > >, std::less<std::basic_string<char> >, std::allocator<std::pair<const std::basic_string<char>, std::basic_string<char> > > >::_Rb_tree_impl"** %this.addr, metadata !11735, metadata !10095), !dbg !11736
  %this1 = load %"struct.std::_Rb_tree<std::basic_string<char>, std::pair<const std::basic_string<char>, std::basic_string<char> >, std::_Select1st<std::pair<const std::basic_string<char>, std::basic_string<char> > >, std::less<std::basic_string<char> >, std::allocator<std::pair<const std::basic_string<char>, std::basic_string<char> > > >::_Rb_tree_impl"** %this.addr
  %0 = bitcast %"struct.std::_Rb_tree<std::basic_string<char>, std::pair<const std::basic_string<char>, std::basic_string<char> >, std::_Select1st<std::pair<const std::basic_string<char>, std::basic_string<char> > >, std::less<std::basic_string<char> >, std::allocator<std::pair<const std::basic_string<char>, std::basic_string<char> > > >::_Rb_tree_impl"* %this1 to %"class.std::ios_base::Init"*, !dbg !11737
  call void @_ZNSaISt13_Rb_tree_nodeISt4pairIKSsSsEEEC2Ev(%"class.std::ios_base::Init"* %0) #3, !dbg !11738
  %_M_key_compare = getelementptr inbounds %"struct.std::_Rb_tree<std::basic_string<char>, std::pair<const std::basic_string<char>, std::basic_string<char> >, std::_Select1st<std::pair<const std::basic_string<char>, std::basic_string<char> > >, std::less<std::basic_string<char> >, std::allocator<std::pair<const std::basic_string<char>, std::basic_string<char> > > >::_Rb_tree_impl"* %this1, i32 0, i32 0, !dbg !11739
  %_M_header = getelementptr inbounds %"struct.std::_Rb_tree<std::basic_string<char>, std::pair<const std::basic_string<char>, std::basic_string<char> >, std::_Select1st<std::pair<const std::basic_string<char>, std::basic_string<char> > >, std::less<std::basic_string<char> >, std::allocator<std::pair<const std::basic_string<char>, std::basic_string<char> > > >::_Rb_tree_impl"* %this1, i32 0, i32 1, !dbg !11740
  %1 = bitcast %"struct.std::_Rb_tree_node_base"* %_M_header to i8*, !dbg !11740
  call void @llvm.memset.p0i8.i64(i8* %1, i8 0, i64 32, i32 8, i1 false), !dbg !11740
  %_M_node_count = getelementptr inbounds %"struct.std::_Rb_tree<std::basic_string<char>, std::pair<const std::basic_string<char>, std::basic_string<char> >, std::_Select1st<std::pair<const std::basic_string<char>, std::basic_string<char> > >, std::less<std::basic_string<char> >, std::allocator<std::pair<const std::basic_string<char>, std::basic_string<char> > > >::_Rb_tree_impl"* %this1, i32 0, i32 2, !dbg !11741
  store i64 0, i64* %_M_node_count, align 8, !dbg !11741
  invoke void @_ZNSt8_Rb_treeISsSt4pairIKSsSsESt10_Select1stIS2_ESt4lessISsESaIS2_EE13_Rb_tree_implIS6_Lb0EE13_M_initializeEv(%"struct.std::_Rb_tree<std::basic_string<char>, std::pair<const std::basic_string<char>, std::basic_string<char> >, std::_Select1st<std::pair<const std::basic_string<char>, std::basic_string<char> > >, std::less<std::basic_string<char> >, std::allocator<std::pair<const std::basic_string<char>, std::basic_string<char> > > >::_Rb_tree_impl"* %this1)
          to label %invoke.cont unwind label %lpad, !dbg !11742

invoke.cont:                                      ; preds = %entry
  ret void, !dbg !11744

lpad:                                             ; preds = %entry
  %2 = landingpad { i8*, i32 } personality i8* bitcast (i32 (...)* @__gxx_personality_v0 to i8*)
          cleanup, !dbg !11746
  %3 = extractvalue { i8*, i32 } %2, 0, !dbg !11746
  store i8* %3, i8** %exn.slot, !dbg !11746
  %4 = extractvalue { i8*, i32 } %2, 1, !dbg !11746
  store i32 %4, i32* %ehselector.slot, !dbg !11746
  %5 = bitcast %"struct.std::_Rb_tree<std::basic_string<char>, std::pair<const std::basic_string<char>, std::basic_string<char> >, std::_Select1st<std::pair<const std::basic_string<char>, std::basic_string<char> > >, std::less<std::basic_string<char> >, std::allocator<std::pair<const std::basic_string<char>, std::basic_string<char> > > >::_Rb_tree_impl"* %this1 to %"class.std::ios_base::Init"*, !dbg !11746
  call void @_ZNSaISt13_Rb_tree_nodeISt4pairIKSsSsEEED2Ev(%"class.std::ios_base::Init"* %5) #3, !dbg !11746
  br label %eh.resume, !dbg !11746

eh.resume:                                        ; preds = %lpad
  %exn = load i8** %exn.slot, !dbg !11748
  %sel = load i32* %ehselector.slot, !dbg !11748
  %lpad.val = insertvalue { i8*, i32 } undef, i8* %exn, 0, !dbg !11748
  %lpad.val2 = insertvalue { i8*, i32 } %lpad.val, i32 %sel, 1, !dbg !11748
  resume { i8*, i32 } %lpad.val2, !dbg !11748
}

; Function Attrs: nounwind uwtable
define linkonce_odr void @_ZNSaISt13_Rb_tree_nodeISt4pairIKSsSsEEEC2Ev(%"class.std::ios_base::Init"* %this) unnamed_addr #13 comdat align 2 {
entry:
  %this.addr = alloca %"class.std::ios_base::Init"*, align 8
  store %"class.std::ios_base::Init"* %this, %"class.std::ios_base::Init"** %this.addr, align 8
  call void @llvm.dbg.declare(metadata %"class.std::ios_base::Init"** %this.addr, metadata !11750, metadata !10095), !dbg !11751
  %this1 = load %"class.std::ios_base::Init"** %this.addr
  %0 = bitcast %"class.std::ios_base::Init"* %this1 to %"class.std::ios_base::Init"*, !dbg !11752
  call void @_ZN9__gnu_cxx13new_allocatorISt13_Rb_tree_nodeISt4pairIKSsSsEEEC2Ev(%"class.std::ios_base::Init"* %0) #3, !dbg !11753
  ret void, !dbg !11754
}

; Function Attrs: nounwind uwtable
define linkonce_odr void @_ZN9__gnu_cxx13new_allocatorISt13_Rb_tree_nodeISt4pairIKSsSsEEEC2Ev(%"class.std::ios_base::Init"* %this) unnamed_addr #13 comdat align 2 {
entry:
  %this.addr = alloca %"class.std::ios_base::Init"*, align 8
  store %"class.std::ios_base::Init"* %this, %"class.std::ios_base::Init"** %this.addr, align 8
  call void @llvm.dbg.declare(metadata %"class.std::ios_base::Init"** %this.addr, metadata !11755, metadata !10095), !dbg !11756
  %this1 = load %"class.std::ios_base::Init"** %this.addr
  ret void, !dbg !11757
}

; Function Attrs: nounwind uwtable
define linkonce_odr void @_ZNSt8_Rb_treeISsSt4pairIKSsSsESt10_Select1stIS2_ESt4lessISsESaIS2_EE13_Rb_tree_implIS6_Lb0EE13_M_initializeEv(%"struct.std::_Rb_tree<std::basic_string<char>, std::pair<const std::basic_string<char>, std::basic_string<char> >, std::_Select1st<std::pair<const std::basic_string<char>, std::basic_string<char> > >, std::less<std::basic_string<char> >, std::allocator<std::pair<const std::basic_string<char>, std::basic_string<char> > > >::_Rb_tree_impl"* %this) #13 comdat align 2 {
entry:
  %this.addr = alloca %"struct.std::_Rb_tree<std::basic_string<char>, std::pair<const std::basic_string<char>, std::basic_string<char> >, std::_Select1st<std::pair<const std::basic_string<char>, std::basic_string<char> > >, std::less<std::basic_string<char> >, std::allocator<std::pair<const std::basic_string<char>, std::basic_string<char> > > >::_Rb_tree_impl"*, align 8
  store %"struct.std::_Rb_tree<std::basic_string<char>, std::pair<const std::basic_string<char>, std::basic_string<char> >, std::_Select1st<std::pair<const std::basic_string<char>, std::basic_string<char> > >, std::less<std::basic_string<char> >, std::allocator<std::pair<const std::basic_string<char>, std::basic_string<char> > > >::_Rb_tree_impl"* %this, %"struct.std::_Rb_tree<std::basic_string<char>, std::pair<const std::basic_string<char>, std::basic_string<char> >, std::_Select1st<std::pair<const std::basic_string<char>, std::basic_string<char> > >, std::less<std::basic_string<char> >, std::allocator<std::pair<const std::basic_string<char>, std::basic_string<char> > > >::_Rb_tree_impl"** %this.addr, align 8
  call void @llvm.dbg.declare(metadata %"struct.std::_Rb_tree<std::basic_string<char>, std::pair<const std::basic_string<char>, std::basic_string<char> >, std::_Select1st<std::pair<const std::basic_string<char>, std::basic_string<char> > >, std::less<std::basic_string<char> >, std::allocator<std::pair<const std::basic_string<char>, std::basic_string<char> > > >::_Rb_tree_impl"** %this.addr, metadata !11758, metadata !10095), !dbg !11759
  %this1 = load %"struct.std::_Rb_tree<std::basic_string<char>, std::pair<const std::basic_string<char>, std::basic_string<char> >, std::_Select1st<std::pair<const std::basic_string<char>, std::basic_string<char> > >, std::less<std::basic_string<char> >, std::allocator<std::pair<const std::basic_string<char>, std::basic_string<char> > > >::_Rb_tree_impl"** %this.addr
  %_M_header = getelementptr inbounds %"struct.std::_Rb_tree<std::basic_string<char>, std::pair<const std::basic_string<char>, std::basic_string<char> >, std::_Select1st<std::pair<const std::basic_string<char>, std::basic_string<char> > >, std::less<std::basic_string<char> >, std::allocator<std::pair<const std::basic_string<char>, std::basic_string<char> > > >::_Rb_tree_impl"* %this1, i32 0, i32 1, !dbg !11760
  %_M_color = getelementptr inbounds %"struct.std::_Rb_tree_node_base"* %_M_header, i32 0, i32 0, !dbg !11761
  store i32 0, i32* %_M_color, align 4, !dbg !11762
  %_M_header2 = getelementptr inbounds %"struct.std::_Rb_tree<std::basic_string<char>, std::pair<const std::basic_string<char>, std::basic_string<char> >, std::_Select1st<std::pair<const std::basic_string<char>, std::basic_string<char> > >, std::less<std::basic_string<char> >, std::allocator<std::pair<const std::basic_string<char>, std::basic_string<char> > > >::_Rb_tree_impl"* %this1, i32 0, i32 1, !dbg !11763
  %_M_parent = getelementptr inbounds %"struct.std::_Rb_tree_node_base"* %_M_header2, i32 0, i32 1, !dbg !11764
  store %"struct.std::_Rb_tree_node_base"* null, %"struct.std::_Rb_tree_node_base"** %_M_parent, align 8, !dbg !11765
  %_M_header3 = getelementptr inbounds %"struct.std::_Rb_tree<std::basic_string<char>, std::pair<const std::basic_string<char>, std::basic_string<char> >, std::_Select1st<std::pair<const std::basic_string<char>, std::basic_string<char> > >, std::less<std::basic_string<char> >, std::allocator<std::pair<const std::basic_string<char>, std::basic_string<char> > > >::_Rb_tree_impl"* %this1, i32 0, i32 1, !dbg !11766
  %_M_header4 = getelementptr inbounds %"struct.std::_Rb_tree<std::basic_string<char>, std::pair<const std::basic_string<char>, std::basic_string<char> >, std::_Select1st<std::pair<const std::basic_string<char>, std::basic_string<char> > >, std::less<std::basic_string<char> >, std::allocator<std::pair<const std::basic_string<char>, std::basic_string<char> > > >::_Rb_tree_impl"* %this1, i32 0, i32 1, !dbg !11767
  %_M_left = getelementptr inbounds %"struct.std::_Rb_tree_node_base"* %_M_header4, i32 0, i32 2, !dbg !11768
  store %"struct.std::_Rb_tree_node_base"* %_M_header3, %"struct.std::_Rb_tree_node_base"** %_M_left, align 8, !dbg !11769
  %_M_header5 = getelementptr inbounds %"struct.std::_Rb_tree<std::basic_string<char>, std::pair<const std::basic_string<char>, std::basic_string<char> >, std::_Select1st<std::pair<const std::basic_string<char>, std::basic_string<char> > >, std::less<std::basic_string<char> >, std::allocator<std::pair<const std::basic_string<char>, std::basic_string<char> > > >::_Rb_tree_impl"* %this1, i32 0, i32 1, !dbg !11770
  %_M_header6 = getelementptr inbounds %"struct.std::_Rb_tree<std::basic_string<char>, std::pair<const std::basic_string<char>, std::basic_string<char> >, std::_Select1st<std::pair<const std::basic_string<char>, std::basic_string<char> > >, std::less<std::basic_string<char> >, std::allocator<std::pair<const std::basic_string<char>, std::basic_string<char> > > >::_Rb_tree_impl"* %this1, i32 0, i32 1, !dbg !11771
  %_M_right = getelementptr inbounds %"struct.std::_Rb_tree_node_base"* %_M_header6, i32 0, i32 3, !dbg !11772
  store %"struct.std::_Rb_tree_node_base"* %_M_header5, %"struct.std::_Rb_tree_node_base"** %_M_right, align 8, !dbg !11773
  ret void, !dbg !11774
}

; Function Attrs: uwtable
define linkonce_odr void @_ZN3ros16AdvertiseOptionsC2Ev(%"struct.ros::AdvertiseOptions"* %this) unnamed_addr #0 comdat align 2 {
entry:
  %this.addr = alloca %"struct.ros::AdvertiseOptions"*, align 8
  %exn.slot = alloca i8*
  %ehselector.slot = alloca i32
  store %"struct.ros::AdvertiseOptions"* %this, %"struct.ros::AdvertiseOptions"** %this.addr, align 8
  call void @llvm.dbg.declare(metadata %"struct.ros::AdvertiseOptions"** %this.addr, metadata !11775, metadata !10095), !dbg !11777
  %this1 = load %"struct.ros::AdvertiseOptions"** %this.addr
  %topic = getelementptr inbounds %"struct.ros::AdvertiseOptions"* %this1, i32 0, i32 0, !dbg !11778
  call void @_ZNSsC1Ev(%"class.std::basic_string"* %topic), !dbg !11778
  %md5sum = getelementptr inbounds %"struct.ros::AdvertiseOptions"* %this1, i32 0, i32 3, !dbg !11778
  invoke void @_ZNSsC1Ev(%"class.std::basic_string"* %md5sum)
          to label %invoke.cont unwind label %lpad, !dbg !11778

invoke.cont:                                      ; preds = %entry
  %datatype = getelementptr inbounds %"struct.ros::AdvertiseOptions"* %this1, i32 0, i32 4, !dbg !11779
  invoke void @_ZNSsC1Ev(%"class.std::basic_string"* %datatype)
          to label %invoke.cont3 unwind label %lpad2, !dbg !11779

invoke.cont3:                                     ; preds = %invoke.cont
  %message_definition = getelementptr inbounds %"struct.ros::AdvertiseOptions"* %this1, i32 0, i32 5, !dbg !11781
  invoke void @_ZNSsC1Ev(%"class.std::basic_string"* %message_definition)
          to label %invoke.cont5 unwind label %lpad4, !dbg !11781

invoke.cont5:                                     ; preds = %invoke.cont3
  %connect_cb = getelementptr inbounds %"struct.ros::AdvertiseOptions"* %this1, i32 0, i32 6, !dbg !11783
  invoke void @_ZN5boost8functionIFvRKN3ros25SingleSubscriberPublisherEEEC2Ev(%"class.boost::function"* %connect_cb)
          to label %invoke.cont7 unwind label %lpad6, !dbg !11783

invoke.cont7:                                     ; preds = %invoke.cont5
  %disconnect_cb = getelementptr inbounds %"struct.ros::AdvertiseOptions"* %this1, i32 0, i32 7, !dbg !11785
  invoke void @_ZN5boost8functionIFvRKN3ros25SingleSubscriberPublisherEEEC2Ev(%"class.boost::function"* %disconnect_cb)
          to label %invoke.cont9 unwind label %lpad8, !dbg !11785

invoke.cont9:                                     ; preds = %invoke.cont7
  %callback_queue = getelementptr inbounds %"struct.ros::AdvertiseOptions"* %this1, i32 0, i32 8, !dbg !11787
  store %"class.ros::CallbackQueueInterface"* null, %"class.ros::CallbackQueueInterface"** %callback_queue, align 8, !dbg !11787
  %tracked_object = getelementptr inbounds %"struct.ros::AdvertiseOptions"* %this1, i32 0, i32 9, !dbg !11778
  invoke void @_ZN5boost10shared_ptrIKvEC2Ev(%"class.boost::weak_ptr"* %tracked_object)
          to label %invoke.cont11 unwind label %lpad10, !dbg !11778

invoke.cont11:                                    ; preds = %invoke.cont9
  %latch = getelementptr inbounds %"struct.ros::AdvertiseOptions"* %this1, i32 0, i32 10, !dbg !11788
  store i8 0, i8* %latch, align 1, !dbg !11788
  ret void, !dbg !11789

lpad:                                             ; preds = %entry
  %0 = landingpad { i8*, i32 } personality i8* bitcast (i32 (...)* @__gxx_personality_v0 to i8*)
          cleanup, !dbg !11789
  %1 = extractvalue { i8*, i32 } %0, 0, !dbg !11789
  store i8* %1, i8** %exn.slot, !dbg !11789
  %2 = extractvalue { i8*, i32 } %0, 1, !dbg !11789
  store i32 %2, i32* %ehselector.slot, !dbg !11789
  br label %ehcleanup20, !dbg !11789

lpad2:                                            ; preds = %invoke.cont
  %3 = landingpad { i8*, i32 } personality i8* bitcast (i32 (...)* @__gxx_personality_v0 to i8*)
          cleanup, !dbg !11789
  %4 = extractvalue { i8*, i32 } %3, 0, !dbg !11789
  store i8* %4, i8** %exn.slot, !dbg !11789
  %5 = extractvalue { i8*, i32 } %3, 1, !dbg !11789
  store i32 %5, i32* %ehselector.slot, !dbg !11789
  br label %ehcleanup18, !dbg !11789

lpad4:                                            ; preds = %invoke.cont3
  %6 = landingpad { i8*, i32 } personality i8* bitcast (i32 (...)* @__gxx_personality_v0 to i8*)
          cleanup, !dbg !11789
  %7 = extractvalue { i8*, i32 } %6, 0, !dbg !11789
  store i8* %7, i8** %exn.slot, !dbg !11789
  %8 = extractvalue { i8*, i32 } %6, 1, !dbg !11789
  store i32 %8, i32* %ehselector.slot, !dbg !11789
  br label %ehcleanup16, !dbg !11789

lpad6:                                            ; preds = %invoke.cont5
  %9 = landingpad { i8*, i32 } personality i8* bitcast (i32 (...)* @__gxx_personality_v0 to i8*)
          cleanup, !dbg !11789
  %10 = extractvalue { i8*, i32 } %9, 0, !dbg !11789
  store i8* %10, i8** %exn.slot, !dbg !11789
  %11 = extractvalue { i8*, i32 } %9, 1, !dbg !11789
  store i32 %11, i32* %ehselector.slot, !dbg !11789
  br label %ehcleanup14, !dbg !11789

lpad8:                                            ; preds = %invoke.cont7
  %12 = landingpad { i8*, i32 } personality i8* bitcast (i32 (...)* @__gxx_personality_v0 to i8*)
          cleanup, !dbg !11789
  %13 = extractvalue { i8*, i32 } %12, 0, !dbg !11789
  store i8* %13, i8** %exn.slot, !dbg !11789
  %14 = extractvalue { i8*, i32 } %12, 1, !dbg !11789
  store i32 %14, i32* %ehselector.slot, !dbg !11789
  br label %ehcleanup, !dbg !11789

lpad10:                                           ; preds = %invoke.cont9
  %15 = landingpad { i8*, i32 } personality i8* bitcast (i32 (...)* @__gxx_personality_v0 to i8*)
          cleanup, !dbg !11789
  %16 = extractvalue { i8*, i32 } %15, 0, !dbg !11789
  store i8* %16, i8** %exn.slot, !dbg !11789
  %17 = extractvalue { i8*, i32 } %15, 1, !dbg !11789
  store i32 %17, i32* %ehselector.slot, !dbg !11789
  invoke void @_ZN5boost8functionIFvRKN3ros25SingleSubscriberPublisherEEED2Ev(%"class.boost::function"* %disconnect_cb)
          to label %invoke.cont12 unwind label %terminate.lpad, !dbg !11790

invoke.cont12:                                    ; preds = %lpad10
  br label %ehcleanup, !dbg !11792

ehcleanup:                                        ; preds = %invoke.cont12, %lpad8
  invoke void @_ZN5boost8functionIFvRKN3ros25SingleSubscriberPublisherEEED2Ev(%"class.boost::function"* %connect_cb)
          to label %invoke.cont13 unwind label %terminate.lpad, !dbg !11794

invoke.cont13:                                    ; preds = %ehcleanup
  br label %ehcleanup14, !dbg !11797

ehcleanup14:                                      ; preds = %invoke.cont13, %lpad6
  invoke void @_ZNSsD1Ev(%"class.std::basic_string"* %message_definition)
          to label %invoke.cont15 unwind label %terminate.lpad, !dbg !11799

invoke.cont15:                                    ; preds = %ehcleanup14
  br label %ehcleanup16, !dbg !11802

ehcleanup16:                                      ; preds = %invoke.cont15, %lpad4
  invoke void @_ZNSsD1Ev(%"class.std::basic_string"* %datatype)
          to label %invoke.cont17 unwind label %terminate.lpad, !dbg !11804

invoke.cont17:                                    ; preds = %ehcleanup16
  br label %ehcleanup18, !dbg !11807

ehcleanup18:                                      ; preds = %invoke.cont17, %lpad2
  invoke void @_ZNSsD1Ev(%"class.std::basic_string"* %md5sum)
          to label %invoke.cont19 unwind label %terminate.lpad, !dbg !11809

invoke.cont19:                                    ; preds = %ehcleanup18
  br label %ehcleanup20, !dbg !11812

ehcleanup20:                                      ; preds = %invoke.cont19, %lpad
  invoke void @_ZNSsD1Ev(%"class.std::basic_string"* %topic)
          to label %invoke.cont21 unwind label %terminate.lpad, !dbg !11814

invoke.cont21:                                    ; preds = %ehcleanup20
  br label %eh.resume, !dbg !11817

eh.resume:                                        ; preds = %invoke.cont21
  %exn = load i8** %exn.slot, !dbg !11819
  %sel = load i32* %ehselector.slot, !dbg !11819
  %lpad.val = insertvalue { i8*, i32 } undef, i8* %exn, 0, !dbg !11819
  %lpad.val22 = insertvalue { i8*, i32 } %lpad.val, i32 %sel, 1, !dbg !11819
  resume { i8*, i32 } %lpad.val22, !dbg !11819

terminate.lpad:                                   ; preds = %ehcleanup20, %ehcleanup18, %ehcleanup16, %ehcleanup14, %ehcleanup, %lpad10
  %18 = landingpad { i8*, i32 } personality i8* bitcast (i32 (...)* @__gxx_personality_v0 to i8*)
          catch i8* null, !dbg !11821
  %19 = extractvalue { i8*, i32 } %18, 0, !dbg !11821
  call void @__clang_call_terminate(i8* %19) #9, !dbg !11821
  unreachable, !dbg !11821
}

; Function Attrs: uwtable
define linkonce_odr void @_ZN5boost10shared_ptrIKvEC2Ev(%"class.boost::weak_ptr"* %this) unnamed_addr #0 comdat align 2 {
entry:
  %this.addr = alloca %"class.boost::weak_ptr"*, align 8
  store %"class.boost::weak_ptr"* %this, %"class.boost::weak_ptr"** %this.addr, align 8
  call void @llvm.dbg.declare(metadata %"class.boost::weak_ptr"** %this.addr, metadata !11828, metadata !10095), !dbg !11830
  %this1 = load %"class.boost::weak_ptr"** %this.addr
  %px = getelementptr inbounds %"class.boost::weak_ptr"* %this1, i32 0, i32 0, !dbg !11831
  store i8* null, i8** %px, align 8, !dbg !11831
  %pn = getelementptr inbounds %"class.boost::weak_ptr"* %this1, i32 0, i32 1, !dbg !11832
  call void @_ZN5boost6detail12shared_countC2Ev(%"class.boost::detail::shared_count"* %pn), !dbg !11832
  ret void, !dbg !11833
}

; Function Attrs: uwtable
define linkonce_odr void @_ZN3ros16AdvertiseOptions4initIN8std_msgs6Int16_ISaIvEEEEEvRKSsjRKN5boost8functionIFvRKNS_25SingleSubscriberPublisherEEEESG_(%"struct.ros::AdvertiseOptions"* %this, %"class.std::basic_string"* dereferenceable(8) %_topic, i32 %_queue_size, %"class.boost::function"* dereferenceable(32) %_connect_cb, %"class.boost::function"* dereferenceable(32) %_disconnect_cb) #0 comdat align 2 {
entry:
  %this.addr = alloca %"struct.ros::AdvertiseOptions"*, align 8
  %_topic.addr = alloca %"class.std::basic_string"*, align 8
  %_queue_size.addr = alloca i32, align 4
  %_connect_cb.addr = alloca %"class.boost::function"*, align 8
  %_disconnect_cb.addr = alloca %"class.boost::function"*, align 8
  store %"struct.ros::AdvertiseOptions"* %this, %"struct.ros::AdvertiseOptions"** %this.addr, align 8
  call void @llvm.dbg.declare(metadata %"struct.ros::AdvertiseOptions"** %this.addr, metadata !11834, metadata !10095), !dbg !11835
  store %"class.std::basic_string"* %_topic, %"class.std::basic_string"** %_topic.addr, align 8
  call void @llvm.dbg.declare(metadata %"class.std::basic_string"** %_topic.addr, metadata !11836, metadata !10095), !dbg !11838
  store i32 %_queue_size, i32* %_queue_size.addr, align 4
  call void @llvm.dbg.declare(metadata i32* %_queue_size.addr, metadata !11839, metadata !10095), !dbg !11840
  store %"class.boost::function"* %_connect_cb, %"class.boost::function"** %_connect_cb.addr, align 8
  call void @llvm.dbg.declare(metadata %"class.boost::function"** %_connect_cb.addr, metadata !11841, metadata !10095), !dbg !11842
  store %"class.boost::function"* %_disconnect_cb, %"class.boost::function"** %_disconnect_cb.addr, align 8
  call void @llvm.dbg.declare(metadata %"class.boost::function"** %_disconnect_cb.addr, metadata !11843, metadata !10095), !dbg !11844
  %this1 = load %"struct.ros::AdvertiseOptions"** %this.addr
  %topic = getelementptr inbounds %"struct.ros::AdvertiseOptions"* %this1, i32 0, i32 0, !dbg !11845
  %0 = load %"class.std::basic_string"** %_topic.addr, align 8, !dbg !11846
  %call = call dereferenceable(8) %"class.std::basic_string"* @_ZNSsaSERKSs(%"class.std::basic_string"* %topic, %"class.std::basic_string"* dereferenceable(8) %0), !dbg !11847
  %1 = load i32* %_queue_size.addr, align 4, !dbg !11848
  %queue_size = getelementptr inbounds %"struct.ros::AdvertiseOptions"* %this1, i32 0, i32 1, !dbg !11849
  store i32 %1, i32* %queue_size, align 4, !dbg !11850
  %connect_cb = getelementptr inbounds %"struct.ros::AdvertiseOptions"* %this1, i32 0, i32 6, !dbg !11851
  %2 = load %"class.boost::function"** %_connect_cb.addr, align 8, !dbg !11852
  %call2 = call dereferenceable(32) %"class.boost::function"* @_ZN5boost8functionIFvRKN3ros25SingleSubscriberPublisherEEEaSERKS6_(%"class.boost::function"* %connect_cb, %"class.boost::function"* dereferenceable(32) %2), !dbg !11853
  %disconnect_cb = getelementptr inbounds %"struct.ros::AdvertiseOptions"* %this1, i32 0, i32 7, !dbg !11854
  %3 = load %"class.boost::function"** %_disconnect_cb.addr, align 8, !dbg !11855
  %call3 = call dereferenceable(32) %"class.boost::function"* @_ZN5boost8functionIFvRKN3ros25SingleSubscriberPublisherEEEaSERKS6_(%"class.boost::function"* %disconnect_cb, %"class.boost::function"* dereferenceable(32) %3), !dbg !11856
  %md5sum = getelementptr inbounds %"struct.ros::AdvertiseOptions"* %this1, i32 0, i32 3, !dbg !11857
  %call4 = call i8* @_ZN3ros14message_traits6md5sumIN8std_msgs6Int16_ISaIvEEEEEPKcv(), !dbg !11858
  %call5 = call dereferenceable(8) %"class.std::basic_string"* @_ZNSsaSEPKc(%"class.std::basic_string"* %md5sum, i8* %call4), !dbg !11859
  %datatype = getelementptr inbounds %"struct.ros::AdvertiseOptions"* %this1, i32 0, i32 4, !dbg !11860
  %call6 = call i8* @_ZN3ros14message_traits8datatypeIN8std_msgs6Int16_ISaIvEEEEEPKcv(), !dbg !11861
  %call7 = call dereferenceable(8) %"class.std::basic_string"* @_ZNSsaSEPKc(%"class.std::basic_string"* %datatype, i8* %call6), !dbg !11862
  %message_definition = getelementptr inbounds %"struct.ros::AdvertiseOptions"* %this1, i32 0, i32 5, !dbg !11863
  %call8 = call i8* @_ZN3ros14message_traits10definitionIN8std_msgs6Int16_ISaIvEEEEEPKcv(), !dbg !11864
  %call9 = call dereferenceable(8) %"class.std::basic_string"* @_ZNSsaSEPKc(%"class.std::basic_string"* %message_definition, i8* %call8), !dbg !11865
  %call10 = call zeroext i1 @_ZN3ros14message_traits9hasHeaderIN8std_msgs6Int16_ISaIvEEEEEbv(), !dbg !11866
  %has_header = getelementptr inbounds %"struct.ros::AdvertiseOptions"* %this1, i32 0, i32 11, !dbg !11867
  %frombool = zext i1 %call10 to i8, !dbg !11868
  store i8 %frombool, i8* %has_header, align 1, !dbg !11868
  ret void, !dbg !11869
}

; Function Attrs: uwtable
define linkonce_odr dereferenceable(32) %"class.boost::function"* @_ZN5boost8functionIFvRKN3ros25SingleSubscriberPublisherEEEaSERKS6_(%"class.boost::function"* %this, %"class.boost::function"* dereferenceable(32) %f) #0 comdat align 2 {
entry:
  %this.addr = alloca %"class.boost::function"*, align 8
  %f.addr = alloca %"class.boost::function"*, align 8
  %temp.lvalue = alloca %"class.boost::function", align 8
  %exn.slot = alloca i8*
  %ehselector.slot = alloca i32
  store %"class.boost::function"* %this, %"class.boost::function"** %this.addr, align 8
  call void @llvm.dbg.declare(metadata %"class.boost::function"** %this.addr, metadata !11870, metadata !10095), !dbg !11872
  store %"class.boost::function"* %f, %"class.boost::function"** %f.addr, align 8
  call void @llvm.dbg.declare(metadata %"class.boost::function"** %f.addr, metadata !11873, metadata !10095), !dbg !11874
  %this1 = load %"class.boost::function"** %this.addr
  %0 = load %"class.boost::function"** %f.addr, align 8, !dbg !11875
  call void @_ZN5boost8functionIFvRKN3ros25SingleSubscriberPublisherEEEC2ERKS6_(%"class.boost::function"* %temp.lvalue, %"class.boost::function"* dereferenceable(32) %0), !dbg !11876
  %1 = bitcast %"class.boost::function"* %temp.lvalue to %"class.boost::function1"*, !dbg !11876
  %2 = bitcast %"class.boost::function"* %this1 to %"class.boost::function1"*, !dbg !11877
  invoke void @_ZN5boost9function1IvRKN3ros25SingleSubscriberPublisherEE4swapERS5_(%"class.boost::function1"* %1, %"class.boost::function1"* dereferenceable(32) %2)
          to label %invoke.cont unwind label %lpad, !dbg !11876

invoke.cont:                                      ; preds = %entry
  call void @_ZN5boost8functionIFvRKN3ros25SingleSubscriberPublisherEEED2Ev(%"class.boost::function"* %temp.lvalue), !dbg !11878
  ret %"class.boost::function"* %this1, !dbg !11880

lpad:                                             ; preds = %entry
  %3 = landingpad { i8*, i32 } personality i8* bitcast (i32 (...)* @__gxx_personality_v0 to i8*)
          cleanup, !dbg !11881
  %4 = extractvalue { i8*, i32 } %3, 0, !dbg !11881
  store i8* %4, i8** %exn.slot, !dbg !11881
  %5 = extractvalue { i8*, i32 } %3, 1, !dbg !11881
  store i32 %5, i32* %ehselector.slot, !dbg !11881
  invoke void @_ZN5boost8functionIFvRKN3ros25SingleSubscriberPublisherEEED2Ev(%"class.boost::function"* %temp.lvalue)
          to label %invoke.cont2 unwind label %terminate.lpad, !dbg !11876

invoke.cont2:                                     ; preds = %lpad
  br label %eh.resume, !dbg !11882

eh.resume:                                        ; preds = %invoke.cont2
  %exn = load i8** %exn.slot, !dbg !11884
  %sel = load i32* %ehselector.slot, !dbg !11884
  %lpad.val = insertvalue { i8*, i32 } undef, i8* %exn, 0, !dbg !11884
  %lpad.val3 = insertvalue { i8*, i32 } %lpad.val, i32 %sel, 1, !dbg !11884
  resume { i8*, i32 } %lpad.val3, !dbg !11884

terminate.lpad:                                   ; preds = %lpad
  %6 = landingpad { i8*, i32 } personality i8* bitcast (i32 (...)* @__gxx_personality_v0 to i8*)
          catch i8* null, !dbg !11886
  %7 = extractvalue { i8*, i32 } %6, 0, !dbg !11886
  call void @__clang_call_terminate(i8* %7) #9, !dbg !11886
  unreachable, !dbg !11886
}

; Function Attrs: uwtable
define linkonce_odr void @_ZN5boost8functionIFvRKN3ros25SingleSubscriberPublisherEEEC2ERKS6_(%"class.boost::function"* %this, %"class.boost::function"* dereferenceable(32) %f) unnamed_addr #0 comdat align 2 {
entry:
  %this.addr = alloca %"class.boost::function"*, align 8
  %f.addr = alloca %"class.boost::function"*, align 8
  store %"class.boost::function"* %this, %"class.boost::function"** %this.addr, align 8
  call void @llvm.dbg.declare(metadata %"class.boost::function"** %this.addr, metadata !11888, metadata !10095), !dbg !11889
  store %"class.boost::function"* %f, %"class.boost::function"** %f.addr, align 8
  call void @llvm.dbg.declare(metadata %"class.boost::function"** %f.addr, metadata !11890, metadata !10095), !dbg !11891
  %this1 = load %"class.boost::function"** %this.addr
  %0 = bitcast %"class.boost::function"* %this1 to %"class.boost::function1"*, !dbg !11892
  %1 = load %"class.boost::function"** %f.addr, align 8, !dbg !11893
  %2 = bitcast %"class.boost::function"* %1 to %"class.boost::function1"*, !dbg !11893
  call void @_ZN5boost9function1IvRKN3ros25SingleSubscriberPublisherEEC2ERKS5_(%"class.boost::function1"* %0, %"class.boost::function1"* dereferenceable(32) %2), !dbg !11894
  ret void, !dbg !11895
}

; Function Attrs: uwtable
define linkonce_odr void @_ZN5boost9function1IvRKN3ros25SingleSubscriberPublisherEEC2ERKS5_(%"class.boost::function1"* %this, %"class.boost::function1"* dereferenceable(32) %f) unnamed_addr #0 comdat align 2 {
entry:
  %this.addr = alloca %"class.boost::function1"*, align 8
  %f.addr = alloca %"class.boost::function1"*, align 8
  store %"class.boost::function1"* %this, %"class.boost::function1"** %this.addr, align 8
  call void @llvm.dbg.declare(metadata %"class.boost::function1"** %this.addr, metadata !11896, metadata !10095), !dbg !11898
  store %"class.boost::function1"* %f, %"class.boost::function1"** %f.addr, align 8
  call void @llvm.dbg.declare(metadata %"class.boost::function1"** %f.addr, metadata !11899, metadata !10095), !dbg !11900
  %this1 = load %"class.boost::function1"** %this.addr
  %0 = bitcast %"class.boost::function1"* %this1 to %"class.boost::function_base"*, !dbg !11901
  call void @_ZN5boost13function_baseC2Ev(%"class.boost::function_base"* %0), !dbg !11902
  %1 = bitcast %"class.boost::function1"* %this1 to %"class.std::ios_base::Init"*, !dbg !11901
  %2 = load %"class.boost::function1"** %f.addr, align 8, !dbg !11903
  call void @_ZN5boost9function1IvRKN3ros25SingleSubscriberPublisherEE13assign_to_ownERKS5_(%"class.boost::function1"* %this1, %"class.boost::function1"* dereferenceable(32) %2), !dbg !11905
  ret void, !dbg !11906
}

; Function Attrs: nounwind uwtable
define linkonce_odr void @_ZN5boost13function_baseC2Ev(%"class.boost::function_base"* %this) unnamed_addr #13 comdat align 2 {
entry:
  %this.addr = alloca %"class.boost::function_base"*, align 8
  store %"class.boost::function_base"* %this, %"class.boost::function_base"** %this.addr, align 8
  call void @llvm.dbg.declare(metadata %"class.boost::function_base"** %this.addr, metadata !11907, metadata !10095), !dbg !11909
  %this1 = load %"class.boost::function_base"** %this.addr
  %vtable = getelementptr inbounds %"class.boost::function_base"* %this1, i32 0, i32 0, !dbg !11910
  store %"struct.boost::detail::function::vtable_base"* null, %"struct.boost::detail::function::vtable_base"** %vtable, align 8, !dbg !11910
  %functor = getelementptr inbounds %"class.boost::function_base"* %this1, i32 0, i32 1, !dbg !11911
  ret void, !dbg !11912
}

; Function Attrs: uwtable
define linkonce_odr void @_ZN5boost9function1IvRKN3ros25SingleSubscriberPublisherEE13assign_to_ownERKS5_(%"class.boost::function1"* %this, %"class.boost::function1"* dereferenceable(32) %f) #0 comdat align 2 {
entry:
  %this.addr = alloca %"class.boost::function1"*, align 8
  %f.addr = alloca %"class.boost::function1"*, align 8
  store %"class.boost::function1"* %this, %"class.boost::function1"** %this.addr, align 8
  call void @llvm.dbg.declare(metadata %"class.boost::function1"** %this.addr, metadata !11913, metadata !10095), !dbg !11914
  store %"class.boost::function1"* %f, %"class.boost::function1"** %f.addr, align 8
  call void @llvm.dbg.declare(metadata %"class.boost::function1"** %f.addr, metadata !11915, metadata !10095), !dbg !11916
  %this1 = load %"class.boost::function1"** %this.addr
  %0 = load %"class.boost::function1"** %f.addr, align 8, !dbg !11917
  %1 = bitcast %"class.boost::function1"* %0 to %"class.boost::function_base"*, !dbg !11917
  %call = call zeroext i1 @_ZNK5boost13function_base5emptyEv(%"class.boost::function_base"* %1), !dbg !11917
  br i1 %call, label %if.end9, label %if.then, !dbg !11919

if.then:                                          ; preds = %entry
  %2 = load %"class.boost::function1"** %f.addr, align 8, !dbg !11920
  %3 = bitcast %"class.boost::function1"* %2 to %"class.boost::function_base"*, !dbg !11920
  %vtable = getelementptr inbounds %"class.boost::function_base"* %3, i32 0, i32 0, !dbg !11922
  %4 = load %"struct.boost::detail::function::vtable_base"** %vtable, align 8, !dbg !11922
  %5 = bitcast %"class.boost::function1"* %this1 to %"class.boost::function_base"*, !dbg !11923
  %vtable2 = getelementptr inbounds %"class.boost::function_base"* %5, i32 0, i32 0, !dbg !11924
  store %"struct.boost::detail::function::vtable_base"* %4, %"struct.boost::detail::function::vtable_base"** %vtable2, align 8, !dbg !11925
  %6 = bitcast %"class.boost::function1"* %this1 to %"class.boost::function_base"*, !dbg !11926
  %call3 = call zeroext i1 @_ZNK5boost13function_base28has_trivial_copy_and_destroyEv(%"class.boost::function_base"* %6), !dbg !11926
  br i1 %call3, label %if.then4, label %if.else, !dbg !11928

if.then4:                                         ; preds = %if.then
  %7 = bitcast %"class.boost::function1"* %this1 to %"class.boost::function_base"*, !dbg !11929
  %functor = getelementptr inbounds %"class.boost::function_base"* %7, i32 0, i32 1, !dbg !11930
  %8 = load %"class.boost::function1"** %f.addr, align 8, !dbg !11931
  %9 = bitcast %"class.boost::function1"* %8 to %"class.boost::function_base"*, !dbg !11931
  %functor5 = getelementptr inbounds %"class.boost::function_base"* %9, i32 0, i32 1, !dbg !11932
  %10 = bitcast %"union.boost::detail::function::function_buffer"* %functor to i8*, !dbg !11933
  %11 = bitcast %"union.boost::detail::function::function_buffer"* %functor5 to i8*, !dbg !11933
  call void @llvm.memcpy.p0i8.p0i8.i64(i8* %10, i8* %11, i64 24, i32 8, i1 false), !dbg !11933
  br label %if.end, !dbg !11929

if.else:                                          ; preds = %if.then
  %call6 = call %"struct.boost::detail::function::basic_vtable1"* @_ZNK5boost9function1IvRKN3ros25SingleSubscriberPublisherEE10get_vtableEv(%"class.boost::function1"* %this1), !dbg !11934
  %base = getelementptr inbounds %"struct.boost::detail::function::basic_vtable1"* %call6, i32 0, i32 0, !dbg !11935
  %manager = getelementptr inbounds %"struct.boost::detail::function::vtable_base"* %base, i32 0, i32 0, !dbg !11936
  %12 = load void (%"union.boost::detail::function::function_buffer"*, %"union.boost::detail::function::function_buffer"*, i32)** %manager, align 8, !dbg !11936
  %13 = load %"class.boost::function1"** %f.addr, align 8, !dbg !11937
  %14 = bitcast %"class.boost::function1"* %13 to %"class.boost::function_base"*, !dbg !11937
  %functor7 = getelementptr inbounds %"class.boost::function_base"* %14, i32 0, i32 1, !dbg !11938
  %15 = bitcast %"class.boost::function1"* %this1 to %"class.boost::function_base"*, !dbg !11939
  %functor8 = getelementptr inbounds %"class.boost::function_base"* %15, i32 0, i32 1, !dbg !11940
  call void %12(%"union.boost::detail::function::function_buffer"* dereferenceable(24) %functor7, %"union.boost::detail::function::function_buffer"* dereferenceable(24) %functor8, i32 0), !dbg !11934
  br label %if.end

if.end:                                           ; preds = %if.else, %if.then4
  br label %if.end9, !dbg !11941

if.end9:                                          ; preds = %if.end, %entry
  ret void, !dbg !11942
}

; Function Attrs: nounwind uwtable
define linkonce_odr zeroext i1 @_ZNK5boost13function_base5emptyEv(%"class.boost::function_base"* %this) #13 comdat align 2 {
entry:
  %this.addr = alloca %"class.boost::function_base"*, align 8
  store %"class.boost::function_base"* %this, %"class.boost::function_base"** %this.addr, align 8
  call void @llvm.dbg.declare(metadata %"class.boost::function_base"** %this.addr, metadata !11943, metadata !10095), !dbg !11944
  %this1 = load %"class.boost::function_base"** %this.addr
  %vtable = getelementptr inbounds %"class.boost::function_base"* %this1, i32 0, i32 0, !dbg !11945
  %0 = load %"struct.boost::detail::function::vtable_base"** %vtable, align 8, !dbg !11945
  %tobool = icmp ne %"struct.boost::detail::function::vtable_base"* %0, null, !dbg !11945
  %lnot = xor i1 %tobool, true, !dbg !11946
  ret i1 %lnot, !dbg !11947
}

; Function Attrs: nounwind uwtable
define linkonce_odr zeroext i1 @_ZNK5boost13function_base28has_trivial_copy_and_destroyEv(%"class.boost::function_base"* %this) #13 comdat align 2 {
entry:
  %this.addr = alloca %"class.boost::function_base"*, align 8
  store %"class.boost::function_base"* %this, %"class.boost::function_base"** %this.addr, align 8
  call void @llvm.dbg.declare(metadata %"class.boost::function_base"** %this.addr, metadata !11948, metadata !10095), !dbg !11949
  %this1 = load %"class.boost::function_base"** %this.addr
  %vtable = getelementptr inbounds %"class.boost::function_base"* %this1, i32 0, i32 0, !dbg !11950
  %0 = load %"struct.boost::detail::function::vtable_base"** %vtable, align 8, !dbg !11950
  %1 = ptrtoint %"struct.boost::detail::function::vtable_base"* %0 to i64, !dbg !11951
  %and = and i64 %1, 1, !dbg !11952
  %tobool = icmp ne i64 %and, 0, !dbg !11951
  ret i1 %tobool, !dbg !11953
}

; Function Attrs: nounwind uwtable
define linkonce_odr %"struct.boost::detail::function::basic_vtable1"* @_ZNK5boost9function1IvRKN3ros25SingleSubscriberPublisherEE10get_vtableEv(%"class.boost::function1"* %this) #13 comdat align 2 {
entry:
  %this.addr = alloca %"class.boost::function1"*, align 8
  store %"class.boost::function1"* %this, %"class.boost::function1"** %this.addr, align 8
  call void @llvm.dbg.declare(metadata %"class.boost::function1"** %this.addr, metadata !11954, metadata !10095), !dbg !11956
  %this1 = load %"class.boost::function1"** %this.addr
  %0 = bitcast %"class.boost::function1"* %this1 to %"class.boost::function_base"*, !dbg !11957
  %vtable = getelementptr inbounds %"class.boost::function_base"* %0, i32 0, i32 0, !dbg !11957
  %1 = load %"struct.boost::detail::function::vtable_base"** %vtable, align 8, !dbg !11957
  %2 = ptrtoint %"struct.boost::detail::function::vtable_base"* %1 to i64, !dbg !11958
  %and = and i64 %2, -2, !dbg !11959
  %3 = inttoptr i64 %and to %"struct.boost::detail::function::basic_vtable1"*, !dbg !11960
  ret %"struct.boost::detail::function::basic_vtable1"* %3, !dbg !11961
}

; Function Attrs: uwtable
define linkonce_odr void @_ZN5boost9function1IvRKN3ros25SingleSubscriberPublisherEE4swapERS5_(%"class.boost::function1"* %this, %"class.boost::function1"* dereferenceable(32) %other) #0 comdat align 2 {
entry:
  %this.addr = alloca %"class.boost::function1"*, align 8
  %other.addr = alloca %"class.boost::function1"*, align 8
  %tmp = alloca %"class.boost::function1", align 8
  %exn.slot = alloca i8*
  %ehselector.slot = alloca i32
  store %"class.boost::function1"* %this, %"class.boost::function1"** %this.addr, align 8
  call void @llvm.dbg.declare(metadata %"class.boost::function1"** %this.addr, metadata !11962, metadata !10095), !dbg !11963
  store %"class.boost::function1"* %other, %"class.boost::function1"** %other.addr, align 8
  call void @llvm.dbg.declare(metadata %"class.boost::function1"** %other.addr, metadata !11964, metadata !10095), !dbg !11965
  %this1 = load %"class.boost::function1"** %this.addr
  %0 = load %"class.boost::function1"** %other.addr, align 8, !dbg !11966
  %cmp = icmp eq %"class.boost::function1"* %0, %this1, !dbg !11968
  br i1 %cmp, label %if.then, label %if.end, !dbg !11969

if.then:                                          ; preds = %entry
  br label %return, !dbg !11970

if.end:                                           ; preds = %entry
  call void @llvm.dbg.declare(metadata %"class.boost::function1"* %tmp, metadata !11971, metadata !10095), !dbg !11972
  call void @_ZN5boost9function1IvRKN3ros25SingleSubscriberPublisherEEC2Ev(%"class.boost::function1"* %tmp), !dbg !11972
  invoke void @_ZN5boost9function1IvRKN3ros25SingleSubscriberPublisherEE11move_assignERS5_(%"class.boost::function1"* %tmp, %"class.boost::function1"* dereferenceable(32) %this1)
          to label %invoke.cont unwind label %lpad, !dbg !11973

invoke.cont:                                      ; preds = %if.end
  %1 = load %"class.boost::function1"** %other.addr, align 8, !dbg !11974
  invoke void @_ZN5boost9function1IvRKN3ros25SingleSubscriberPublisherEE11move_assignERS5_(%"class.boost::function1"* %this1, %"class.boost::function1"* dereferenceable(32) %1)
          to label %invoke.cont2 unwind label %lpad, !dbg !11975

invoke.cont2:                                     ; preds = %invoke.cont
  %2 = load %"class.boost::function1"** %other.addr, align 8, !dbg !11976
  invoke void @_ZN5boost9function1IvRKN3ros25SingleSubscriberPublisherEE11move_assignERS5_(%"class.boost::function1"* %2, %"class.boost::function1"* dereferenceable(32) %tmp)
          to label %invoke.cont3 unwind label %lpad, !dbg !11976

invoke.cont3:                                     ; preds = %invoke.cont2
  call void @_ZN5boost9function1IvRKN3ros25SingleSubscriberPublisherEED2Ev(%"class.boost::function1"* %tmp), !dbg !11977
  br label %return, !dbg !11977

return:                                           ; preds = %invoke.cont3, %if.then
  ret void, !dbg !11978

lpad:                                             ; preds = %invoke.cont2, %invoke.cont, %if.end
  %3 = landingpad { i8*, i32 } personality i8* bitcast (i32 (...)* @__gxx_personality_v0 to i8*)
          cleanup, !dbg !11977
  %4 = extractvalue { i8*, i32 } %3, 0, !dbg !11977
  store i8* %4, i8** %exn.slot, !dbg !11977
  %5 = extractvalue { i8*, i32 } %3, 1, !dbg !11977
  store i32 %5, i32* %ehselector.slot, !dbg !11977
  invoke void @_ZN5boost9function1IvRKN3ros25SingleSubscriberPublisherEED2Ev(%"class.boost::function1"* %tmp)
          to label %invoke.cont4 unwind label %terminate.lpad, !dbg !11977

invoke.cont4:                                     ; preds = %lpad
  br label %eh.resume, !dbg !11980

eh.resume:                                        ; preds = %invoke.cont4
  %exn = load i8** %exn.slot, !dbg !11982
  %sel = load i32* %ehselector.slot, !dbg !11982
  %lpad.val = insertvalue { i8*, i32 } undef, i8* %exn, 0, !dbg !11982
  %lpad.val5 = insertvalue { i8*, i32 } %lpad.val, i32 %sel, 1, !dbg !11982
  resume { i8*, i32 } %lpad.val5, !dbg !11982

terminate.lpad:                                   ; preds = %lpad
  %6 = landingpad { i8*, i32 } personality i8* bitcast (i32 (...)* @__gxx_personality_v0 to i8*)
          catch i8* null, !dbg !11984
  %7 = extractvalue { i8*, i32 } %6, 0, !dbg !11984
  call void @__clang_call_terminate(i8* %7) #9, !dbg !11984
  unreachable, !dbg !11984
}

; Function Attrs: nounwind uwtable
define linkonce_odr void @_ZN5boost9function1IvRKN3ros25SingleSubscriberPublisherEEC2Ev(%"class.boost::function1"* %this) unnamed_addr #13 comdat align 2 {
entry:
  %this.addr = alloca %"class.boost::function1"*, align 8
  store %"class.boost::function1"* %this, %"class.boost::function1"** %this.addr, align 8
  call void @llvm.dbg.declare(metadata %"class.boost::function1"** %this.addr, metadata !11986, metadata !10095), !dbg !11987
  %this1 = load %"class.boost::function1"** %this.addr
  %0 = bitcast %"class.boost::function1"* %this1 to %"class.boost::function_base"*, !dbg !11988
  call void @_ZN5boost13function_baseC2Ev(%"class.boost::function_base"* %0), !dbg !11989
  %1 = bitcast %"class.boost::function1"* %this1 to %"class.std::ios_base::Init"*, !dbg !11988
  ret void, !dbg !11990
}

; Function Attrs: uwtable
define linkonce_odr void @_ZN5boost9function1IvRKN3ros25SingleSubscriberPublisherEE11move_assignERS5_(%"class.boost::function1"* %this, %"class.boost::function1"* dereferenceable(32) %f) #0 comdat align 2 {
entry:
  %this.addr = alloca %"class.boost::function1"*, align 8
  %f.addr = alloca %"class.boost::function1"*, align 8
  %exn.slot = alloca i8*
  %ehselector.slot = alloca i32
  store %"class.boost::function1"* %this, %"class.boost::function1"** %this.addr, align 8
  call void @llvm.dbg.declare(metadata %"class.boost::function1"** %this.addr, metadata !11991, metadata !10095), !dbg !11992
  store %"class.boost::function1"* %f, %"class.boost::function1"** %f.addr, align 8
  call void @llvm.dbg.declare(metadata %"class.boost::function1"** %f.addr, metadata !11993, metadata !10095), !dbg !11994
  %this1 = load %"class.boost::function1"** %this.addr
  %0 = load %"class.boost::function1"** %f.addr, align 8, !dbg !11995
  %cmp = icmp eq %"class.boost::function1"* %0, %this1, !dbg !11997
  br i1 %cmp, label %if.then, label %if.end, !dbg !11998

if.then:                                          ; preds = %entry
  br label %try.cont, !dbg !11999

if.end:                                           ; preds = %entry
  %1 = load %"class.boost::function1"** %f.addr, align 8, !dbg !12000
  %2 = bitcast %"class.boost::function1"* %1 to %"class.boost::function_base"*, !dbg !12000
  %call = invoke zeroext i1 @_ZNK5boost13function_base5emptyEv(%"class.boost::function_base"* %2)
          to label %invoke.cont unwind label %lpad, !dbg !12000

invoke.cont:                                      ; preds = %if.end
  br i1 %call, label %if.else15, label %if.then2, !dbg !12004

if.then2:                                         ; preds = %invoke.cont
  %3 = load %"class.boost::function1"** %f.addr, align 8, !dbg !12006
  %4 = bitcast %"class.boost::function1"* %3 to %"class.boost::function_base"*, !dbg !12006
  %vtable = getelementptr inbounds %"class.boost::function_base"* %4, i32 0, i32 0, !dbg !12008
  %5 = load %"struct.boost::detail::function::vtable_base"** %vtable, align 8, !dbg !12008
  %6 = bitcast %"class.boost::function1"* %this1 to %"class.boost::function_base"*, !dbg !12009
  %vtable3 = getelementptr inbounds %"class.boost::function_base"* %6, i32 0, i32 0, !dbg !12010
  store %"struct.boost::detail::function::vtable_base"* %5, %"struct.boost::detail::function::vtable_base"** %vtable3, align 8, !dbg !12011
  %7 = bitcast %"class.boost::function1"* %this1 to %"class.boost::function_base"*, !dbg !12012
  %call5 = invoke zeroext i1 @_ZNK5boost13function_base28has_trivial_copy_and_destroyEv(%"class.boost::function_base"* %7)
          to label %invoke.cont4 unwind label %lpad, !dbg !12012

invoke.cont4:                                     ; preds = %if.then2
  br i1 %call5, label %if.then6, label %if.else, !dbg !12014

if.then6:                                         ; preds = %invoke.cont4
  %8 = bitcast %"class.boost::function1"* %this1 to %"class.boost::function_base"*, !dbg !12016
  %functor = getelementptr inbounds %"class.boost::function_base"* %8, i32 0, i32 1, !dbg !12017
  %9 = load %"class.boost::function1"** %f.addr, align 8, !dbg !12018
  %10 = bitcast %"class.boost::function1"* %9 to %"class.boost::function_base"*, !dbg !12018
  %functor7 = getelementptr inbounds %"class.boost::function_base"* %10, i32 0, i32 1, !dbg !12019
  %11 = bitcast %"union.boost::detail::function::function_buffer"* %functor to i8*, !dbg !12020
  %12 = bitcast %"union.boost::detail::function::function_buffer"* %functor7 to i8*, !dbg !12020
  call void @llvm.memcpy.p0i8.p0i8.i64(i8* %11, i8* %12, i64 24, i32 8, i1 false), !dbg !12020
  br label %if.end13, !dbg !12016

lpad:                                             ; preds = %if.else15, %invoke.cont8, %if.else, %if.then2, %if.end
  %13 = landingpad { i8*, i32 } personality i8* bitcast (i32 (...)* @__gxx_personality_v0 to i8*)
          catch i8* null, !dbg !12021
  %14 = extractvalue { i8*, i32 } %13, 0, !dbg !12021
  store i8* %14, i8** %exn.slot, !dbg !12021
  %15 = extractvalue { i8*, i32 } %13, 1, !dbg !12021
  store i32 %15, i32* %ehselector.slot, !dbg !12021
  br label %catch, !dbg !12021

catch:                                            ; preds = %lpad
  %exn = load i8** %exn.slot, !dbg !12022
  %16 = call i8* @__cxa_begin_catch(i8* %exn) #3, !dbg !12022
  %17 = bitcast %"class.boost::function1"* %this1 to %"class.boost::function_base"*, !dbg !12023
  %vtable18 = getelementptr inbounds %"class.boost::function_base"* %17, i32 0, i32 0, !dbg !12023
  store %"struct.boost::detail::function::vtable_base"* null, %"struct.boost::detail::function::vtable_base"** %vtable18, align 8, !dbg !12025
  invoke void @__cxa_rethrow() #17
          to label %unreachable unwind label %lpad19, !dbg !12026

if.else:                                          ; preds = %invoke.cont4
  %call9 = invoke %"struct.boost::detail::function::basic_vtable1"* @_ZNK5boost9function1IvRKN3ros25SingleSubscriberPublisherEE10get_vtableEv(%"class.boost::function1"* %this1)
          to label %invoke.cont8 unwind label %lpad, !dbg !12027

invoke.cont8:                                     ; preds = %if.else
  %base = getelementptr inbounds %"struct.boost::detail::function::basic_vtable1"* %call9, i32 0, i32 0, !dbg !12028
  %manager = getelementptr inbounds %"struct.boost::detail::function::vtable_base"* %base, i32 0, i32 0, !dbg !12030
  %18 = load void (%"union.boost::detail::function::function_buffer"*, %"union.boost::detail::function::function_buffer"*, i32)** %manager, align 8, !dbg !12030
  %19 = load %"class.boost::function1"** %f.addr, align 8, !dbg !12031
  %20 = bitcast %"class.boost::function1"* %19 to %"class.boost::function_base"*, !dbg !12031
  %functor10 = getelementptr inbounds %"class.boost::function_base"* %20, i32 0, i32 1, !dbg !12032
  %21 = bitcast %"class.boost::function1"* %this1 to %"class.boost::function_base"*, !dbg !12033
  %functor11 = getelementptr inbounds %"class.boost::function_base"* %21, i32 0, i32 1, !dbg !12034
  invoke void %18(%"union.boost::detail::function::function_buffer"* dereferenceable(24) %functor10, %"union.boost::detail::function::function_buffer"* dereferenceable(24) %functor11, i32 1)
          to label %invoke.cont12 unwind label %lpad, !dbg !12027

invoke.cont12:                                    ; preds = %invoke.cont8
  br label %if.end13

if.end13:                                         ; preds = %invoke.cont12, %if.then6
  %22 = load %"class.boost::function1"** %f.addr, align 8, !dbg !12035
  %23 = bitcast %"class.boost::function1"* %22 to %"class.boost::function_base"*, !dbg !12035
  %vtable14 = getelementptr inbounds %"class.boost::function_base"* %23, i32 0, i32 0, !dbg !12036
  store %"struct.boost::detail::function::vtable_base"* null, %"struct.boost::detail::function::vtable_base"** %vtable14, align 8, !dbg !12037
  br label %if.end17, !dbg !12038

if.else15:                                        ; preds = %invoke.cont
  invoke void @_ZN5boost9function1IvRKN3ros25SingleSubscriberPublisherEE5clearEv(%"class.boost::function1"* %this1)
          to label %invoke.cont16 unwind label %lpad, !dbg !12039

invoke.cont16:                                    ; preds = %if.else15
  br label %if.end17

if.end17:                                         ; preds = %invoke.cont16, %if.end13
  br label %try.cont, !dbg !12022

lpad19:                                           ; preds = %catch
  %24 = landingpad { i8*, i32 } personality i8* bitcast (i32 (...)* @__gxx_personality_v0 to i8*)
          cleanup, !dbg !12041
  %25 = extractvalue { i8*, i32 } %24, 0, !dbg !12041
  store i8* %25, i8** %exn.slot, !dbg !12041
  %26 = extractvalue { i8*, i32 } %24, 1, !dbg !12041
  store i32 %26, i32* %ehselector.slot, !dbg !12041
  invoke void @__cxa_end_catch()
          to label %invoke.cont20 unwind label %terminate.lpad, !dbg !12042

invoke.cont20:                                    ; preds = %lpad19
  br label %eh.resume, !dbg !12043

try.cont:                                         ; preds = %if.end17, %if.then
  ret void, !dbg !12045

eh.resume:                                        ; preds = %invoke.cont20
  %exn21 = load i8** %exn.slot, !dbg !12046
  %sel = load i32* %ehselector.slot, !dbg !12046
  %lpad.val = insertvalue { i8*, i32 } undef, i8* %exn21, 0, !dbg !12046
  %lpad.val22 = insertvalue { i8*, i32 } %lpad.val, i32 %sel, 1, !dbg !12046
  resume { i8*, i32 } %lpad.val22, !dbg !12046

terminate.lpad:                                   ; preds = %lpad19
  %27 = landingpad { i8*, i32 } personality i8* bitcast (i32 (...)* @__gxx_personality_v0 to i8*)
          catch i8* null, !dbg !12048
  %28 = extractvalue { i8*, i32 } %27, 0, !dbg !12048
  call void @__clang_call_terminate(i8* %28) #9, !dbg !12048
  unreachable, !dbg !12048

unreachable:                                      ; preds = %catch
  unreachable
}

; Function Attrs: uwtable
define linkonce_odr void @_ZN5boost9function1IvRKN3ros25SingleSubscriberPublisherEE5clearEv(%"class.boost::function1"* %this) #0 comdat align 2 {
entry:
  %this.addr = alloca %"class.boost::function1"*, align 8
  store %"class.boost::function1"* %this, %"class.boost::function1"** %this.addr, align 8
  call void @llvm.dbg.declare(metadata %"class.boost::function1"** %this.addr, metadata !12050, metadata !10095), !dbg !12051
  %this1 = load %"class.boost::function1"** %this.addr
  %0 = bitcast %"class.boost::function1"* %this1 to %"class.boost::function_base"*, !dbg !12052
  %vtable = getelementptr inbounds %"class.boost::function_base"* %0, i32 0, i32 0, !dbg !12052
  %1 = load %"struct.boost::detail::function::vtable_base"** %vtable, align 8, !dbg !12052
  %tobool = icmp ne %"struct.boost::detail::function::vtable_base"* %1, null, !dbg !12052
  br i1 %tobool, label %if.then, label %if.end5, !dbg !12054

if.then:                                          ; preds = %entry
  %2 = bitcast %"class.boost::function1"* %this1 to %"class.boost::function_base"*, !dbg !12055
  %call = call zeroext i1 @_ZNK5boost13function_base28has_trivial_copy_and_destroyEv(%"class.boost::function_base"* %2), !dbg !12055
  br i1 %call, label %if.end, label %if.then2, !dbg !12058

if.then2:                                         ; preds = %if.then
  %call3 = call %"struct.boost::detail::function::basic_vtable1"* @_ZNK5boost9function1IvRKN3ros25SingleSubscriberPublisherEE10get_vtableEv(%"class.boost::function1"* %this1), !dbg !12059
  %3 = bitcast %"class.boost::function1"* %this1 to %"class.boost::function_base"*, !dbg !12060
  %functor = getelementptr inbounds %"class.boost::function_base"* %3, i32 0, i32 1, !dbg !12061
  call void @_ZN5boost6detail8function13basic_vtable1IvRKN3ros25SingleSubscriberPublisherEE5clearERNS1_15function_bufferE(%"struct.boost::detail::function::basic_vtable1"* %call3, %"union.boost::detail::function::function_buffer"* dereferenceable(24) %functor), !dbg !12059
  br label %if.end, !dbg !12059

if.end:                                           ; preds = %if.then2, %if.then
  %4 = bitcast %"class.boost::function1"* %this1 to %"class.boost::function_base"*, !dbg !12062
  %vtable4 = getelementptr inbounds %"class.boost::function_base"* %4, i32 0, i32 0, !dbg !12062
  store %"struct.boost::detail::function::vtable_base"* null, %"struct.boost::detail::function::vtable_base"** %vtable4, align 8, !dbg !12063
  br label %if.end5, !dbg !12064

if.end5:                                          ; preds = %if.end, %entry
  ret void, !dbg !12065
}

; Function Attrs: uwtable
define linkonce_odr void @_ZN5boost6detail8function13basic_vtable1IvRKN3ros25SingleSubscriberPublisherEE5clearERNS1_15function_bufferE(%"struct.boost::detail::function::basic_vtable1"* %this, %"union.boost::detail::function::function_buffer"* dereferenceable(24) %functor) #0 comdat align 2 {
entry:
  %this.addr = alloca %"struct.boost::detail::function::basic_vtable1"*, align 8
  %functor.addr = alloca %"union.boost::detail::function::function_buffer"*, align 8
  store %"struct.boost::detail::function::basic_vtable1"* %this, %"struct.boost::detail::function::basic_vtable1"** %this.addr, align 8
  call void @llvm.dbg.declare(metadata %"struct.boost::detail::function::basic_vtable1"** %this.addr, metadata !12066, metadata !10095), !dbg !12068
  store %"union.boost::detail::function::function_buffer"* %functor, %"union.boost::detail::function::function_buffer"** %functor.addr, align 8
  call void @llvm.dbg.declare(metadata %"union.boost::detail::function::function_buffer"** %functor.addr, metadata !12069, metadata !10095), !dbg !12070
  %this1 = load %"struct.boost::detail::function::basic_vtable1"** %this.addr
  %base = getelementptr inbounds %"struct.boost::detail::function::basic_vtable1"* %this1, i32 0, i32 0, !dbg !12071
  %manager = getelementptr inbounds %"struct.boost::detail::function::vtable_base"* %base, i32 0, i32 0, !dbg !12073
  %0 = load void (%"union.boost::detail::function::function_buffer"*, %"union.boost::detail::function::function_buffer"*, i32)** %manager, align 8, !dbg !12073
  %tobool = icmp ne void (%"union.boost::detail::function::function_buffer"*, %"union.boost::detail::function::function_buffer"*, i32)* %0, null, !dbg !12071
  br i1 %tobool, label %if.then, label %if.end, !dbg !12074

if.then:                                          ; preds = %entry
  %base2 = getelementptr inbounds %"struct.boost::detail::function::basic_vtable1"* %this1, i32 0, i32 0, !dbg !12075
  %manager3 = getelementptr inbounds %"struct.boost::detail::function::vtable_base"* %base2, i32 0, i32 0, !dbg !12076
  %1 = load void (%"union.boost::detail::function::function_buffer"*, %"union.boost::detail::function::function_buffer"*, i32)** %manager3, align 8, !dbg !12076
  %2 = load %"union.boost::detail::function::function_buffer"** %functor.addr, align 8, !dbg !12077
  %3 = load %"union.boost::detail::function::function_buffer"** %functor.addr, align 8, !dbg !12078
  call void %1(%"union.boost::detail::function::function_buffer"* dereferenceable(24) %2, %"union.boost::detail::function::function_buffer"* dereferenceable(24) %3, i32 2), !dbg !12075
  br label %if.end, !dbg !12075

if.end:                                           ; preds = %if.then, %entry
  ret void, !dbg !12079
}

; Function Attrs: uwtable
define linkonce_odr void @_ZN5boost9function1IvRKN3ros25SingleSubscriberPublisherEED2Ev(%"class.boost::function1"* %this) unnamed_addr #0 comdat align 2 {
entry:
  %this.addr = alloca %"class.boost::function1"*, align 8
  store %"class.boost::function1"* %this, %"class.boost::function1"** %this.addr, align 8
  call void @llvm.dbg.declare(metadata %"class.boost::function1"** %this.addr, metadata !12080, metadata !10095), !dbg !12081
  %this1 = load %"class.boost::function1"** %this.addr
  call void @_ZN5boost9function1IvRKN3ros25SingleSubscriberPublisherEE5clearEv(%"class.boost::function1"* %this1), !dbg !12082
  ret void, !dbg !12084
}

; Function Attrs: inlinehint uwtable
define linkonce_odr i8* @_ZN3ros14message_traits6md5sumIN8std_msgs6Int16_ISaIvEEEEEPKcv() #11 comdat {
entry:
  %call = call i8* @_ZN3ros14message_traits6MD5SumIN8std_msgs6Int16_ISaIvEEEE5valueEv(), !dbg !12085
  ret i8* %call, !dbg !12086
}

; Function Attrs: nounwind uwtable
define linkonce_odr i8* @_ZN3ros14message_traits6MD5SumIN8std_msgs6Int16_ISaIvEEEE5valueEv() #13 comdat align 2 {
entry:
  ret i8* getelementptr inbounds ([33 x i8]* @.str14, i32 0, i32 0), !dbg !12087
}

; Function Attrs: inlinehint uwtable
define linkonce_odr i8* @_ZN3ros14message_traits8datatypeIN8std_msgs6Int16_ISaIvEEEEEPKcv() #11 comdat {
entry:
  %call = call i8* @_ZN3ros14message_traits8DataTypeIN8std_msgs6Int16_ISaIvEEEE5valueEv(), !dbg !12088
  ret i8* %call, !dbg !12089
}

; Function Attrs: nounwind uwtable
define linkonce_odr i8* @_ZN3ros14message_traits8DataTypeIN8std_msgs6Int16_ISaIvEEEE5valueEv() #13 comdat align 2 {
entry:
  ret i8* getelementptr inbounds ([15 x i8]* @.str15, i32 0, i32 0), !dbg !12090
}

; Function Attrs: inlinehint uwtable
define linkonce_odr i8* @_ZN3ros14message_traits10definitionIN8std_msgs6Int16_ISaIvEEEEEPKcv() #11 comdat {
entry:
  %call = call i8* @_ZN3ros14message_traits10DefinitionIN8std_msgs6Int16_ISaIvEEEE5valueEv(), !dbg !12091
  ret i8* %call, !dbg !12092
}

; Function Attrs: nounwind uwtable
define linkonce_odr i8* @_ZN3ros14message_traits10DefinitionIN8std_msgs6Int16_ISaIvEEEE5valueEv() #13 comdat align 2 {
entry:
  ret i8* getelementptr inbounds ([12 x i8]* @.str16, i32 0, i32 0), !dbg !12093
}

; Function Attrs: inlinehint nounwind uwtable
define linkonce_odr zeroext i1 @_ZN3ros14message_traits9hasHeaderIN8std_msgs6Int16_ISaIvEEEEEbv() #14 comdat {
entry:
  ret i1 false, !dbg !12094
}

; Function Attrs: nounwind uwtable
define linkonce_odr void @_ZN5boost8functionIFvRKN3ros25SingleSubscriberPublisherEEEC2Ev(%"class.boost::function"* %this) unnamed_addr #13 comdat align 2 {
entry:
  %this.addr = alloca %"class.boost::function"*, align 8
  store %"class.boost::function"* %this, %"class.boost::function"** %this.addr, align 8
  call void @llvm.dbg.declare(metadata %"class.boost::function"** %this.addr, metadata !12095, metadata !10095), !dbg !12096
  %this1 = load %"class.boost::function"** %this.addr
  %0 = bitcast %"class.boost::function"* %this1 to %"class.boost::function1"*, !dbg !12097
  call void @_ZN5boost9function1IvRKN3ros25SingleSubscriberPublisherEEC2Ev(%"class.boost::function1"* %0), !dbg !12098
  ret void, !dbg !12099
}

; Function Attrs: inlinehint uwtable
define linkonce_odr void @_ZN5boost8functionIFvRKN3ros25SingleSubscriberPublisherEEED2Ev(%"class.boost::function"* %this) unnamed_addr #11 comdat align 2 {
entry:
  %this.addr = alloca %"class.boost::function"*, align 8
  store %"class.boost::function"* %this, %"class.boost::function"** %this.addr, align 8
  call void @llvm.dbg.declare(metadata %"class.boost::function"** %this.addr, metadata !12100, metadata !10095), !dbg !12101
  %this1 = load %"class.boost::function"** %this.addr
  %0 = bitcast %"class.boost::function"* %this1 to %"class.boost::function1"*, !dbg !12102
  call void @_ZN5boost9function1IvRKN3ros25SingleSubscriberPublisherEED2Ev(%"class.boost::function1"* %0), !dbg !12102
  ret void, !dbg !12104
}

; Function Attrs: inlinehint uwtable
define linkonce_odr void @_ZN3ros16AdvertiseOptionsD2Ev(%"struct.ros::AdvertiseOptions"* %this) unnamed_addr #11 comdat align 2 {
entry:
  %this.addr = alloca %"struct.ros::AdvertiseOptions"*, align 8
  %exn.slot = alloca i8*
  %ehselector.slot = alloca i32
  store %"struct.ros::AdvertiseOptions"* %this, %"struct.ros::AdvertiseOptions"** %this.addr, align 8
  call void @llvm.dbg.declare(metadata %"struct.ros::AdvertiseOptions"** %this.addr, metadata !12105, metadata !10095), !dbg !12106
  %this1 = load %"struct.ros::AdvertiseOptions"** %this.addr
  %tracked_object = getelementptr inbounds %"struct.ros::AdvertiseOptions"* %this1, i32 0, i32 9, !dbg !12107
  invoke void @_ZN5boost10shared_ptrIKvED2Ev(%"class.boost::weak_ptr"* %tracked_object)
          to label %invoke.cont unwind label %lpad, !dbg !12107

invoke.cont:                                      ; preds = %entry
  %disconnect_cb = getelementptr inbounds %"struct.ros::AdvertiseOptions"* %this1, i32 0, i32 7, !dbg !12109
  invoke void @_ZN5boost8functionIFvRKN3ros25SingleSubscriberPublisherEEED2Ev(%"class.boost::function"* %disconnect_cb)
          to label %invoke.cont3 unwind label %lpad2, !dbg !12109

invoke.cont3:                                     ; preds = %invoke.cont
  %connect_cb = getelementptr inbounds %"struct.ros::AdvertiseOptions"* %this1, i32 0, i32 6, !dbg !12111
  invoke void @_ZN5boost8functionIFvRKN3ros25SingleSubscriberPublisherEEED2Ev(%"class.boost::function"* %connect_cb)
          to label %invoke.cont7 unwind label %lpad6, !dbg !12111

invoke.cont7:                                     ; preds = %invoke.cont3
  %message_definition = getelementptr inbounds %"struct.ros::AdvertiseOptions"* %this1, i32 0, i32 5, !dbg !12113
  invoke void @_ZNSsD1Ev(%"class.std::basic_string"* %message_definition)
          to label %invoke.cont11 unwind label %lpad10, !dbg !12113

invoke.cont11:                                    ; preds = %invoke.cont7
  %datatype = getelementptr inbounds %"struct.ros::AdvertiseOptions"* %this1, i32 0, i32 4, !dbg !12115
  invoke void @_ZNSsD1Ev(%"class.std::basic_string"* %datatype)
          to label %invoke.cont16 unwind label %lpad15, !dbg !12115

invoke.cont16:                                    ; preds = %invoke.cont11
  %md5sum = getelementptr inbounds %"struct.ros::AdvertiseOptions"* %this1, i32 0, i32 3, !dbg !12117
  invoke void @_ZNSsD1Ev(%"class.std::basic_string"* %md5sum)
          to label %invoke.cont21 unwind label %lpad20, !dbg !12117

invoke.cont21:                                    ; preds = %invoke.cont16
  %topic = getelementptr inbounds %"struct.ros::AdvertiseOptions"* %this1, i32 0, i32 0, !dbg !12119
  call void @_ZNSsD1Ev(%"class.std::basic_string"* %topic), !dbg !12119
  ret void, !dbg !12121

lpad:                                             ; preds = %entry
  %0 = landingpad { i8*, i32 } personality i8* bitcast (i32 (...)* @__gxx_personality_v0 to i8*)
          cleanup, !dbg !12122
  %1 = extractvalue { i8*, i32 } %0, 0, !dbg !12122
  store i8* %1, i8** %exn.slot, !dbg !12122
  %2 = extractvalue { i8*, i32 } %0, 1, !dbg !12122
  store i32 %2, i32* %ehselector.slot, !dbg !12122
  %disconnect_cb4 = getelementptr inbounds %"struct.ros::AdvertiseOptions"* %this1, i32 0, i32 7, !dbg !12107
  invoke void @_ZN5boost8functionIFvRKN3ros25SingleSubscriberPublisherEEED2Ev(%"class.boost::function"* %disconnect_cb4)
          to label %invoke.cont5 unwind label %terminate.lpad, !dbg !12107

lpad2:                                            ; preds = %invoke.cont
  %3 = landingpad { i8*, i32 } personality i8* bitcast (i32 (...)* @__gxx_personality_v0 to i8*)
          cleanup, !dbg !12124
  %4 = extractvalue { i8*, i32 } %3, 0, !dbg !12124
  store i8* %4, i8** %exn.slot, !dbg !12124
  %5 = extractvalue { i8*, i32 } %3, 1, !dbg !12124
  store i32 %5, i32* %ehselector.slot, !dbg !12124
  br label %ehcleanup, !dbg !12124

invoke.cont5:                                     ; preds = %lpad
  br label %ehcleanup, !dbg !12126

lpad6:                                            ; preds = %invoke.cont3
  %6 = landingpad { i8*, i32 } personality i8* bitcast (i32 (...)* @__gxx_personality_v0 to i8*)
          cleanup, !dbg !12128
  %7 = extractvalue { i8*, i32 } %6, 0, !dbg !12128
  store i8* %7, i8** %exn.slot, !dbg !12128
  %8 = extractvalue { i8*, i32 } %6, 1, !dbg !12128
  store i32 %8, i32* %ehselector.slot, !dbg !12128
  br label %ehcleanup12, !dbg !12128

ehcleanup:                                        ; preds = %invoke.cont5, %lpad2
  %connect_cb8 = getelementptr inbounds %"struct.ros::AdvertiseOptions"* %this1, i32 0, i32 6, !dbg !12130
  invoke void @_ZN5boost8functionIFvRKN3ros25SingleSubscriberPublisherEEED2Ev(%"class.boost::function"* %connect_cb8)
          to label %invoke.cont9 unwind label %terminate.lpad, !dbg !12130

invoke.cont9:                                     ; preds = %ehcleanup
  br label %ehcleanup12, !dbg !12133

lpad10:                                           ; preds = %invoke.cont7
  %9 = landingpad { i8*, i32 } personality i8* bitcast (i32 (...)* @__gxx_personality_v0 to i8*)
          cleanup, !dbg !12135
  %10 = extractvalue { i8*, i32 } %9, 0, !dbg !12135
  store i8* %10, i8** %exn.slot, !dbg !12135
  %11 = extractvalue { i8*, i32 } %9, 1, !dbg !12135
  store i32 %11, i32* %ehselector.slot, !dbg !12135
  br label %ehcleanup17, !dbg !12135

ehcleanup12:                                      ; preds = %invoke.cont9, %lpad6
  %message_definition13 = getelementptr inbounds %"struct.ros::AdvertiseOptions"* %this1, i32 0, i32 5, !dbg !12137
  invoke void @_ZNSsD1Ev(%"class.std::basic_string"* %message_definition13)
          to label %invoke.cont14 unwind label %terminate.lpad, !dbg !12137

invoke.cont14:                                    ; preds = %ehcleanup12
  br label %ehcleanup17, !dbg !12140

lpad15:                                           ; preds = %invoke.cont11
  %12 = landingpad { i8*, i32 } personality i8* bitcast (i32 (...)* @__gxx_personality_v0 to i8*)
          cleanup, !dbg !12142
  %13 = extractvalue { i8*, i32 } %12, 0, !dbg !12142
  store i8* %13, i8** %exn.slot, !dbg !12142
  %14 = extractvalue { i8*, i32 } %12, 1, !dbg !12142
  store i32 %14, i32* %ehselector.slot, !dbg !12142
  br label %ehcleanup22, !dbg !12142

ehcleanup17:                                      ; preds = %invoke.cont14, %lpad10
  %datatype18 = getelementptr inbounds %"struct.ros::AdvertiseOptions"* %this1, i32 0, i32 4, !dbg !12144
  invoke void @_ZNSsD1Ev(%"class.std::basic_string"* %datatype18)
          to label %invoke.cont19 unwind label %terminate.lpad, !dbg !12144

invoke.cont19:                                    ; preds = %ehcleanup17
  br label %ehcleanup22, !dbg !12147

lpad20:                                           ; preds = %invoke.cont16
  %15 = landingpad { i8*, i32 } personality i8* bitcast (i32 (...)* @__gxx_personality_v0 to i8*)
          cleanup, !dbg !12149
  %16 = extractvalue { i8*, i32 } %15, 0, !dbg !12149
  store i8* %16, i8** %exn.slot, !dbg !12149
  %17 = extractvalue { i8*, i32 } %15, 1, !dbg !12149
  store i32 %17, i32* %ehselector.slot, !dbg !12149
  br label %ehcleanup25, !dbg !12149

ehcleanup22:                                      ; preds = %invoke.cont19, %lpad15
  %md5sum23 = getelementptr inbounds %"struct.ros::AdvertiseOptions"* %this1, i32 0, i32 3, !dbg !12151
  invoke void @_ZNSsD1Ev(%"class.std::basic_string"* %md5sum23)
          to label %invoke.cont24 unwind label %terminate.lpad, !dbg !12151

invoke.cont24:                                    ; preds = %ehcleanup22
  br label %ehcleanup25, !dbg !12154

ehcleanup25:                                      ; preds = %invoke.cont24, %lpad20
  %topic26 = getelementptr inbounds %"struct.ros::AdvertiseOptions"* %this1, i32 0, i32 0, !dbg !12156
  invoke void @_ZNSsD1Ev(%"class.std::basic_string"* %topic26)
          to label %invoke.cont27 unwind label %terminate.lpad, !dbg !12156

invoke.cont27:                                    ; preds = %ehcleanup25
  br label %eh.resume, !dbg !12159

eh.resume:                                        ; preds = %invoke.cont27
  %exn = load i8** %exn.slot, !dbg !12161
  %sel = load i32* %ehselector.slot, !dbg !12161
  %lpad.val = insertvalue { i8*, i32 } undef, i8* %exn, 0, !dbg !12161
  %lpad.val28 = insertvalue { i8*, i32 } %lpad.val, i32 %sel, 1, !dbg !12161
  resume { i8*, i32 } %lpad.val28, !dbg !12161

terminate.lpad:                                   ; preds = %ehcleanup25, %ehcleanup22, %ehcleanup17, %ehcleanup12, %ehcleanup, %lpad
  %18 = landingpad { i8*, i32 } personality i8* bitcast (i32 (...)* @__gxx_personality_v0 to i8*)
          catch i8* null, !dbg !12163
  %19 = extractvalue { i8*, i32 } %18, 0, !dbg !12163
  call void @__clang_call_terminate(i8* %19) #9, !dbg !12163
  unreachable, !dbg !12163
}

; Function Attrs: inlinehint uwtable
define linkonce_odr void @_ZN5boost10shared_ptrIKvED2Ev(%"class.boost::weak_ptr"* %this) unnamed_addr #11 comdat align 2 {
entry:
  %this.addr = alloca %"class.boost::weak_ptr"*, align 8
  store %"class.boost::weak_ptr"* %this, %"class.boost::weak_ptr"** %this.addr, align 8
  call void @llvm.dbg.declare(metadata %"class.boost::weak_ptr"** %this.addr, metadata !12170, metadata !10095), !dbg !12171
  %this1 = load %"class.boost::weak_ptr"** %this.addr
  %pn = getelementptr inbounds %"class.boost::weak_ptr"* %this1, i32 0, i32 1, !dbg !12172
  call void @_ZN5boost6detail12shared_countD2Ev(%"class.boost::detail::shared_count"* %pn), !dbg !12172
  ret void, !dbg !12174
}

; Function Attrs: uwtable
define linkonce_odr void @_ZN3ros16SubscribeOptionsC2Ev(%"struct.ros::SubscribeOptions"* %this) unnamed_addr #0 comdat align 2 {
entry:
  %this.addr = alloca %"struct.ros::SubscribeOptions"*, align 8
  %exn.slot = alloca i8*
  %ehselector.slot = alloca i32
  store %"struct.ros::SubscribeOptions"* %this, %"struct.ros::SubscribeOptions"** %this.addr, align 8
  call void @llvm.dbg.declare(metadata %"struct.ros::SubscribeOptions"** %this.addr, metadata !12175, metadata !10095), !dbg !12177
  %this1 = load %"struct.ros::SubscribeOptions"** %this.addr
  %topic = getelementptr inbounds %"struct.ros::SubscribeOptions"* %this1, i32 0, i32 0, !dbg !12178
  call void @_ZNSsC1Ev(%"class.std::basic_string"* %topic), !dbg !12178
  %queue_size = getelementptr inbounds %"struct.ros::SubscribeOptions"* %this1, i32 0, i32 1, !dbg !12179
  store i32 1, i32* %queue_size, align 4, !dbg !12179
  %md5sum = getelementptr inbounds %"struct.ros::SubscribeOptions"* %this1, i32 0, i32 2, !dbg !12178
  invoke void @_ZNSsC1Ev(%"class.std::basic_string"* %md5sum)
          to label %invoke.cont unwind label %lpad, !dbg !12178

invoke.cont:                                      ; preds = %entry
  %datatype = getelementptr inbounds %"struct.ros::SubscribeOptions"* %this1, i32 0, i32 3, !dbg !12180
  invoke void @_ZNSsC1Ev(%"class.std::basic_string"* %datatype)
          to label %invoke.cont3 unwind label %lpad2, !dbg !12180

invoke.cont3:                                     ; preds = %invoke.cont
  %helper = getelementptr inbounds %"struct.ros::SubscribeOptions"* %this1, i32 0, i32 4, !dbg !12182
  invoke void @_ZN5boost10shared_ptrIN3ros26SubscriptionCallbackHelperEEC2Ev(%"class.boost::shared_ptr.20"* %helper)
          to label %invoke.cont5 unwind label %lpad4, !dbg !12182

invoke.cont5:                                     ; preds = %invoke.cont3
  %callback_queue = getelementptr inbounds %"struct.ros::SubscribeOptions"* %this1, i32 0, i32 5, !dbg !12184
  store %"class.ros::CallbackQueueInterface"* null, %"class.ros::CallbackQueueInterface"** %callback_queue, align 8, !dbg !12184
  %allow_concurrent_callbacks = getelementptr inbounds %"struct.ros::SubscribeOptions"* %this1, i32 0, i32 6, !dbg !12185
  store i8 0, i8* %allow_concurrent_callbacks, align 1, !dbg !12185
  %tracked_object = getelementptr inbounds %"struct.ros::SubscribeOptions"* %this1, i32 0, i32 7, !dbg !12178
  invoke void @_ZN5boost10shared_ptrIKvEC2Ev(%"class.boost::weak_ptr"* %tracked_object)
          to label %invoke.cont7 unwind label %lpad6, !dbg !12178

invoke.cont7:                                     ; preds = %invoke.cont5
  %transport_hints = getelementptr inbounds %"struct.ros::SubscribeOptions"* %this1, i32 0, i32 8, !dbg !12186
  invoke void @_ZN3ros14TransportHintsC2Ev(%"class.ros::TransportHints"* %transport_hints)
          to label %invoke.cont9 unwind label %lpad8, !dbg !12186

invoke.cont9:                                     ; preds = %invoke.cont7
  ret void, !dbg !12188

lpad:                                             ; preds = %entry
  %0 = landingpad { i8*, i32 } personality i8* bitcast (i32 (...)* @__gxx_personality_v0 to i8*)
          cleanup, !dbg !12188
  %1 = extractvalue { i8*, i32 } %0, 0, !dbg !12188
  store i8* %1, i8** %exn.slot, !dbg !12188
  %2 = extractvalue { i8*, i32 } %0, 1, !dbg !12188
  store i32 %2, i32* %ehselector.slot, !dbg !12188
  br label %ehcleanup16, !dbg !12188

lpad2:                                            ; preds = %invoke.cont
  %3 = landingpad { i8*, i32 } personality i8* bitcast (i32 (...)* @__gxx_personality_v0 to i8*)
          cleanup, !dbg !12188
  %4 = extractvalue { i8*, i32 } %3, 0, !dbg !12188
  store i8* %4, i8** %exn.slot, !dbg !12188
  %5 = extractvalue { i8*, i32 } %3, 1, !dbg !12188
  store i32 %5, i32* %ehselector.slot, !dbg !12188
  br label %ehcleanup14, !dbg !12188

lpad4:                                            ; preds = %invoke.cont3
  %6 = landingpad { i8*, i32 } personality i8* bitcast (i32 (...)* @__gxx_personality_v0 to i8*)
          cleanup, !dbg !12188
  %7 = extractvalue { i8*, i32 } %6, 0, !dbg !12188
  store i8* %7, i8** %exn.slot, !dbg !12188
  %8 = extractvalue { i8*, i32 } %6, 1, !dbg !12188
  store i32 %8, i32* %ehselector.slot, !dbg !12188
  br label %ehcleanup12, !dbg !12188

lpad6:                                            ; preds = %invoke.cont5
  %9 = landingpad { i8*, i32 } personality i8* bitcast (i32 (...)* @__gxx_personality_v0 to i8*)
          cleanup, !dbg !12188
  %10 = extractvalue { i8*, i32 } %9, 0, !dbg !12188
  store i8* %10, i8** %exn.slot, !dbg !12188
  %11 = extractvalue { i8*, i32 } %9, 1, !dbg !12188
  store i32 %11, i32* %ehselector.slot, !dbg !12188
  br label %ehcleanup, !dbg !12188

lpad8:                                            ; preds = %invoke.cont7
  %12 = landingpad { i8*, i32 } personality i8* bitcast (i32 (...)* @__gxx_personality_v0 to i8*)
          cleanup, !dbg !12188
  %13 = extractvalue { i8*, i32 } %12, 0, !dbg !12188
  store i8* %13, i8** %exn.slot, !dbg !12188
  %14 = extractvalue { i8*, i32 } %12, 1, !dbg !12188
  store i32 %14, i32* %ehselector.slot, !dbg !12188
  invoke void @_ZN5boost10shared_ptrIKvED2Ev(%"class.boost::weak_ptr"* %tracked_object)
          to label %invoke.cont10 unwind label %terminate.lpad, !dbg !12189

invoke.cont10:                                    ; preds = %lpad8
  br label %ehcleanup, !dbg !12191

ehcleanup:                                        ; preds = %invoke.cont10, %lpad6
  invoke void @_ZN5boost10shared_ptrIN3ros26SubscriptionCallbackHelperEED2Ev(%"class.boost::shared_ptr.20"* %helper)
          to label %invoke.cont11 unwind label %terminate.lpad, !dbg !12193

invoke.cont11:                                    ; preds = %ehcleanup
  br label %ehcleanup12, !dbg !12196

ehcleanup12:                                      ; preds = %invoke.cont11, %lpad4
  invoke void @_ZNSsD1Ev(%"class.std::basic_string"* %datatype)
          to label %invoke.cont13 unwind label %terminate.lpad, !dbg !12198

invoke.cont13:                                    ; preds = %ehcleanup12
  br label %ehcleanup14, !dbg !12201

ehcleanup14:                                      ; preds = %invoke.cont13, %lpad2
  invoke void @_ZNSsD1Ev(%"class.std::basic_string"* %md5sum)
          to label %invoke.cont15 unwind label %terminate.lpad, !dbg !12203

invoke.cont15:                                    ; preds = %ehcleanup14
  br label %ehcleanup16, !dbg !12206

ehcleanup16:                                      ; preds = %invoke.cont15, %lpad
  invoke void @_ZNSsD1Ev(%"class.std::basic_string"* %topic)
          to label %invoke.cont17 unwind label %terminate.lpad, !dbg !12208

invoke.cont17:                                    ; preds = %ehcleanup16
  br label %eh.resume, !dbg !12211

eh.resume:                                        ; preds = %invoke.cont17
  %exn = load i8** %exn.slot, !dbg !12213
  %sel = load i32* %ehselector.slot, !dbg !12213
  %lpad.val = insertvalue { i8*, i32 } undef, i8* %exn, 0, !dbg !12213
  %lpad.val18 = insertvalue { i8*, i32 } %lpad.val, i32 %sel, 1, !dbg !12213
  resume { i8*, i32 } %lpad.val18, !dbg !12213

terminate.lpad:                                   ; preds = %ehcleanup16, %ehcleanup14, %ehcleanup12, %ehcleanup, %lpad8
  %15 = landingpad { i8*, i32 } personality i8* bitcast (i32 (...)* @__gxx_personality_v0 to i8*)
          catch i8* null, !dbg !12215
  %16 = extractvalue { i8*, i32 } %15, 0, !dbg !12215
  call void @__clang_call_terminate(i8* %16) #9, !dbg !12215
  unreachable, !dbg !12215
}

; Function Attrs: uwtable
define linkonce_odr void @_ZN5boost10shared_ptrIN3ros26SubscriptionCallbackHelperEEC2Ev(%"class.boost::shared_ptr.20"* %this) unnamed_addr #0 comdat align 2 {
entry:
  %this.addr = alloca %"class.boost::shared_ptr.20"*, align 8
  store %"class.boost::shared_ptr.20"* %this, %"class.boost::shared_ptr.20"** %this.addr, align 8
  call void @llvm.dbg.declare(metadata %"class.boost::shared_ptr.20"** %this.addr, metadata !12221, metadata !10095), !dbg !12223
  %this1 = load %"class.boost::shared_ptr.20"** %this.addr
  %px = getelementptr inbounds %"class.boost::shared_ptr.20"* %this1, i32 0, i32 0, !dbg !12224
  store %"class.ros::SubscriptionCallbackHelper"* null, %"class.ros::SubscriptionCallbackHelper"** %px, align 8, !dbg !12224
  %pn = getelementptr inbounds %"class.boost::shared_ptr.20"* %this1, i32 0, i32 1, !dbg !12225
  call void @_ZN5boost6detail12shared_countC2Ev(%"class.boost::detail::shared_count"* %pn), !dbg !12225
  ret void, !dbg !12226
}

; Function Attrs: inlinehint uwtable
define linkonce_odr void @_ZN5boost10shared_ptrIN3ros26SubscriptionCallbackHelperEED2Ev(%"class.boost::shared_ptr.20"* %this) unnamed_addr #11 comdat align 2 {
entry:
  %this.addr = alloca %"class.boost::shared_ptr.20"*, align 8
  store %"class.boost::shared_ptr.20"* %this, %"class.boost::shared_ptr.20"** %this.addr, align 8
  call void @llvm.dbg.declare(metadata %"class.boost::shared_ptr.20"** %this.addr, metadata !12227, metadata !10095), !dbg !12228
  %this1 = load %"class.boost::shared_ptr.20"** %this.addr
  %pn = getelementptr inbounds %"class.boost::shared_ptr.20"* %this1, i32 0, i32 1, !dbg !12229
  call void @_ZN5boost6detail12shared_countD2Ev(%"class.boost::detail::shared_count"* %pn), !dbg !12229
  ret void, !dbg !12231
}

; Function Attrs: uwtable
define linkonce_odr void @_ZN3ros16SubscribeOptions4initIN8std_msgs6Int16_ISaIvEEEEEvRKSsjRKN5boost8functionIFvRKNS8_10shared_ptrIKT_EEEEERKNS9_IFNSA_ISB_EEvEEE(%"struct.ros::SubscribeOptions"* %this, %"class.std::basic_string"* dereferenceable(8) %_topic, i32 %_queue_size, %"class.boost::function"* dereferenceable(32) %_callback, %"class.boost::function"* dereferenceable(32) %factory_fn) #0 comdat align 2 {
entry:
  %this.addr = alloca %"struct.ros::SubscribeOptions"*, align 8
  %_topic.addr = alloca %"class.std::basic_string"*, align 8
  %_queue_size.addr = alloca i32, align 4
  %_callback.addr = alloca %"class.boost::function"*, align 8
  %factory_fn.addr = alloca %"class.boost::function"*, align 8
  %ref.tmp = alloca %"class.boost::shared_ptr.20", align 8
  %ref.tmp7 = alloca %"class.boost::function", align 8
  %agg.tmp = alloca %"class.boost::function", align 8
  %exn.slot = alloca i8*
  %ehselector.slot = alloca i32
  %cleanup.isactive = alloca i1
  store %"struct.ros::SubscribeOptions"* %this, %"struct.ros::SubscribeOptions"** %this.addr, align 8
  call void @llvm.dbg.declare(metadata %"struct.ros::SubscribeOptions"** %this.addr, metadata !12232, metadata !10095), !dbg !12233
  store %"class.std::basic_string"* %_topic, %"class.std::basic_string"** %_topic.addr, align 8
  call void @llvm.dbg.declare(metadata %"class.std::basic_string"** %_topic.addr, metadata !12234, metadata !10095), !dbg !12236
  store i32 %_queue_size, i32* %_queue_size.addr, align 4
  call void @llvm.dbg.declare(metadata i32* %_queue_size.addr, metadata !12237, metadata !10095), !dbg !12238
  store %"class.boost::function"* %_callback, %"class.boost::function"** %_callback.addr, align 8
  call void @llvm.dbg.declare(metadata %"class.boost::function"** %_callback.addr, metadata !12239, metadata !10095), !dbg !12240
  store %"class.boost::function"* %factory_fn, %"class.boost::function"** %factory_fn.addr, align 8
  call void @llvm.dbg.declare(metadata %"class.boost::function"** %factory_fn.addr, metadata !12241, metadata !10095), !dbg !12242
  %this1 = load %"struct.ros::SubscribeOptions"** %this.addr
  %topic = getelementptr inbounds %"struct.ros::SubscribeOptions"* %this1, i32 0, i32 0, !dbg !12243
  %0 = load %"class.std::basic_string"** %_topic.addr, align 8, !dbg !12244
  %call = call dereferenceable(8) %"class.std::basic_string"* @_ZNSsaSERKSs(%"class.std::basic_string"* %topic, %"class.std::basic_string"* dereferenceable(8) %0), !dbg !12245
  %1 = load i32* %_queue_size.addr, align 4, !dbg !12246
  %queue_size = getelementptr inbounds %"struct.ros::SubscribeOptions"* %this1, i32 0, i32 1, !dbg !12247
  store i32 %1, i32* %queue_size, align 4, !dbg !12248
  %md5sum = getelementptr inbounds %"struct.ros::SubscribeOptions"* %this1, i32 0, i32 2, !dbg !12249
  %call2 = call i8* @_ZN3ros14message_traits6md5sumIN8std_msgs6Int16_ISaIvEEEEEPKcv(), !dbg !12250
  %call3 = call dereferenceable(8) %"class.std::basic_string"* @_ZNSsaSEPKc(%"class.std::basic_string"* %md5sum, i8* %call2), !dbg !12251
  %datatype = getelementptr inbounds %"struct.ros::SubscribeOptions"* %this1, i32 0, i32 3, !dbg !12252
  %call4 = call i8* @_ZN3ros14message_traits8datatypeIN8std_msgs6Int16_ISaIvEEEEEPKcv(), !dbg !12253
  %call5 = call dereferenceable(8) %"class.std::basic_string"* @_ZNSsaSEPKc(%"class.std::basic_string"* %datatype, i8* %call4), !dbg !12254
  %helper = getelementptr inbounds %"struct.ros::SubscribeOptions"* %this1, i32 0, i32 4, !dbg !12255
  %call6 = call noalias i8* @_Znwm(i64 72) #18, !dbg !12256
  store i1 true, i1* %cleanup.isactive
  %2 = bitcast i8* %call6 to %"class.ros::SubscriptionCallbackHelperT"*, !dbg !12256
  %3 = load %"class.boost::function"** %_callback.addr, align 8, !dbg !12257
  invoke void @_ZN5boost8functionIFvRKNS_10shared_ptrIKN8std_msgs6Int16_ISaIvEEEEEEEC2ERKSB_(%"class.boost::function"* %agg.tmp, %"class.boost::function"* dereferenceable(32) %3)
          to label %invoke.cont unwind label %lpad, !dbg !12257

invoke.cont:                                      ; preds = %entry
  invoke void @_ZN5boost8functionIFvNS_10shared_ptrIKN8std_msgs6Int16_ISaIvEEEEEEEC2INS0_IFvRKS7_EEEEET_NS_11enable_if_cIXsr5boost11type_traits7ice_notIXsr11is_integralISF_EE5valueEEE5valueEiE4typeE(%"class.boost::function"* %ref.tmp7, %"class.boost::function"* %agg.tmp, i32 0)
          to label %invoke.cont9 unwind label %lpad8, !dbg !12258

invoke.cont9:                                     ; preds = %invoke.cont
  %4 = load %"class.boost::function"** %factory_fn.addr, align 8, !dbg !12260
  invoke void @_ZN3ros27SubscriptionCallbackHelperTIRKN5boost10shared_ptrIKN8std_msgs6Int16_ISaIvEEEEEvEC2ERKNS1_8functionIFvS8_EEERKNSC_IFNS2_IS6_EEvEEE(%"class.ros::SubscriptionCallbackHelperT"* %2, %"class.boost::function"* dereferenceable(32) %ref.tmp7, %"class.boost::function"* dereferenceable(32) %4)
          to label %invoke.cont11 unwind label %lpad10, !dbg !12262

invoke.cont11:                                    ; preds = %invoke.cont9
  store i1 false, i1* %cleanup.isactive, !dbg !12263
  invoke void @_ZN5boost10shared_ptrIN3ros26SubscriptionCallbackHelperEEC2INS1_27SubscriptionCallbackHelperTIRKNS0_IKN8std_msgs6Int16_ISaIvEEEEEvEEEEPT_(%"class.boost::shared_ptr.20"* %ref.tmp, %"class.ros::SubscriptionCallbackHelperT"* %2)
          to label %invoke.cont12 unwind label %lpad10, !dbg !12265

invoke.cont12:                                    ; preds = %invoke.cont11
  %call15 = invoke dereferenceable(16) %"class.boost::shared_ptr.20"* @_ZN5boost10shared_ptrIN3ros26SubscriptionCallbackHelperEEaSERKS3_(%"class.boost::shared_ptr.20"* %helper, %"class.boost::shared_ptr.20"* dereferenceable(16) %ref.tmp)
          to label %invoke.cont14 unwind label %lpad13, !dbg !12266

invoke.cont14:                                    ; preds = %invoke.cont12
  invoke void @_ZN5boost10shared_ptrIN3ros26SubscriptionCallbackHelperEED2Ev(%"class.boost::shared_ptr.20"* %ref.tmp)
          to label %invoke.cont16 unwind label %lpad10, !dbg !12268

invoke.cont16:                                    ; preds = %invoke.cont14
  invoke void @_ZN5boost8functionIFvNS_10shared_ptrIKN8std_msgs6Int16_ISaIvEEEEEEED2Ev(%"class.boost::function"* %ref.tmp7)
          to label %invoke.cont18 unwind label %lpad8, !dbg !12270

invoke.cont18:                                    ; preds = %invoke.cont16
  invoke void @_ZN5boost8functionIFvRKNS_10shared_ptrIKN8std_msgs6Int16_ISaIvEEEEEEED2Ev(%"class.boost::function"* %agg.tmp)
          to label %invoke.cont20 unwind label %lpad, !dbg !12272

invoke.cont20:                                    ; preds = %invoke.cont18
  ret void, !dbg !12274

lpad:                                             ; preds = %invoke.cont18, %entry
  %5 = landingpad { i8*, i32 } personality i8* bitcast (i32 (...)* @__gxx_personality_v0 to i8*)
          cleanup, !dbg !12274
  %6 = extractvalue { i8*, i32 } %5, 0, !dbg !12274
  store i8* %6, i8** %exn.slot, !dbg !12274
  %7 = extractvalue { i8*, i32 } %5, 1, !dbg !12274
  store i32 %7, i32* %ehselector.slot, !dbg !12274
  br label %ehcleanup23, !dbg !12274

lpad8:                                            ; preds = %invoke.cont16, %invoke.cont
  %8 = landingpad { i8*, i32 } personality i8* bitcast (i32 (...)* @__gxx_personality_v0 to i8*)
          cleanup, !dbg !12274
  %9 = extractvalue { i8*, i32 } %8, 0, !dbg !12274
  store i8* %9, i8** %exn.slot, !dbg !12274
  %10 = extractvalue { i8*, i32 } %8, 1, !dbg !12274
  store i32 %10, i32* %ehselector.slot, !dbg !12274
  br label %ehcleanup21, !dbg !12274

lpad10:                                           ; preds = %invoke.cont14, %invoke.cont11, %invoke.cont9
  %11 = landingpad { i8*, i32 } personality i8* bitcast (i32 (...)* @__gxx_personality_v0 to i8*)
          cleanup, !dbg !12274
  %12 = extractvalue { i8*, i32 } %11, 0, !dbg !12274
  store i8* %12, i8** %exn.slot, !dbg !12274
  %13 = extractvalue { i8*, i32 } %11, 1, !dbg !12274
  store i32 %13, i32* %ehselector.slot, !dbg !12274
  br label %ehcleanup, !dbg !12274

lpad13:                                           ; preds = %invoke.cont12
  %14 = landingpad { i8*, i32 } personality i8* bitcast (i32 (...)* @__gxx_personality_v0 to i8*)
          cleanup, !dbg !12274
  %15 = extractvalue { i8*, i32 } %14, 0, !dbg !12274
  store i8* %15, i8** %exn.slot, !dbg !12274
  %16 = extractvalue { i8*, i32 } %14, 1, !dbg !12274
  store i32 %16, i32* %ehselector.slot, !dbg !12274
  invoke void @_ZN5boost10shared_ptrIN3ros26SubscriptionCallbackHelperEED2Ev(%"class.boost::shared_ptr.20"* %ref.tmp)
          to label %invoke.cont17 unwind label %terminate.lpad, !dbg !12255

invoke.cont17:                                    ; preds = %lpad13
  br label %ehcleanup, !dbg !12275

ehcleanup:                                        ; preds = %invoke.cont17, %lpad10
  invoke void @_ZN5boost8functionIFvNS_10shared_ptrIKN8std_msgs6Int16_ISaIvEEEEEEED2Ev(%"class.boost::function"* %ref.tmp7)
          to label %invoke.cont19 unwind label %terminate.lpad, !dbg !12277

invoke.cont19:                                    ; preds = %ehcleanup
  br label %ehcleanup21, !dbg !12279

ehcleanup21:                                      ; preds = %invoke.cont19, %lpad8
  invoke void @_ZN5boost8functionIFvRKNS_10shared_ptrIKN8std_msgs6Int16_ISaIvEEEEEEED2Ev(%"class.boost::function"* %agg.tmp)
          to label %invoke.cont22 unwind label %terminate.lpad, !dbg !12281

invoke.cont22:                                    ; preds = %ehcleanup21
  br label %ehcleanup23, !dbg !12283

ehcleanup23:                                      ; preds = %invoke.cont22, %lpad
  %cleanup.is_active = load i1* %cleanup.isactive, !dbg !12285
  br i1 %cleanup.is_active, label %cleanup.action, label %cleanup.done, !dbg !12285

cleanup.action:                                   ; preds = %ehcleanup23
  call void @_ZdlPv(i8* %call6) #19, !dbg !12287
  br label %cleanup.done, !dbg !12287

cleanup.done:                                     ; preds = %cleanup.action, %ehcleanup23
  br label %eh.resume, !dbg !12289

eh.resume:                                        ; preds = %cleanup.done
  %exn = load i8** %exn.slot, !dbg !12292
  %sel = load i32* %ehselector.slot, !dbg !12292
  %lpad.val = insertvalue { i8*, i32 } undef, i8* %exn, 0, !dbg !12292
  %lpad.val24 = insertvalue { i8*, i32 } %lpad.val, i32 %sel, 1, !dbg !12292
  resume { i8*, i32 } %lpad.val24, !dbg !12292

terminate.lpad:                                   ; preds = %ehcleanup21, %ehcleanup, %lpad13
  %17 = landingpad { i8*, i32 } personality i8* bitcast (i32 (...)* @__gxx_personality_v0 to i8*)
          catch i8* null, !dbg !12294
  %18 = extractvalue { i8*, i32 } %17, 0, !dbg !12294
  call void @__clang_call_terminate(i8* %18) #9, !dbg !12294
  unreachable, !dbg !12294
}

; Function Attrs: uwtable
define linkonce_odr dereferenceable(16) %"class.boost::shared_ptr.20"* @_ZN5boost10shared_ptrIN3ros26SubscriptionCallbackHelperEEaSERKS3_(%"class.boost::shared_ptr.20"* %this, %"class.boost::shared_ptr.20"* dereferenceable(16) %r) #0 comdat align 2 {
entry:
  %this.addr = alloca %"class.boost::shared_ptr.20"*, align 8
  %r.addr = alloca %"class.boost::shared_ptr.20"*, align 8
  %temp.lvalue = alloca %"class.boost::shared_ptr.20", align 8
  %exn.slot = alloca i8*
  %ehselector.slot = alloca i32
  store %"class.boost::shared_ptr.20"* %this, %"class.boost::shared_ptr.20"** %this.addr, align 8
  call void @llvm.dbg.declare(metadata %"class.boost::shared_ptr.20"** %this.addr, metadata !12298, metadata !10095), !dbg !12299
  store %"class.boost::shared_ptr.20"* %r, %"class.boost::shared_ptr.20"** %r.addr, align 8
  call void @llvm.dbg.declare(metadata %"class.boost::shared_ptr.20"** %r.addr, metadata !12300, metadata !10095), !dbg !12301
  %this1 = load %"class.boost::shared_ptr.20"** %this.addr
  %0 = load %"class.boost::shared_ptr.20"** %r.addr, align 8, !dbg !12302
  call void @_ZN5boost10shared_ptrIN3ros26SubscriptionCallbackHelperEEC2ERKS3_(%"class.boost::shared_ptr.20"* %temp.lvalue, %"class.boost::shared_ptr.20"* dereferenceable(16) %0), !dbg !12303
  invoke void @_ZN5boost10shared_ptrIN3ros26SubscriptionCallbackHelperEE4swapERS3_(%"class.boost::shared_ptr.20"* %temp.lvalue, %"class.boost::shared_ptr.20"* dereferenceable(16) %this1)
          to label %invoke.cont unwind label %lpad, !dbg !12303

invoke.cont:                                      ; preds = %entry
  call void @_ZN5boost10shared_ptrIN3ros26SubscriptionCallbackHelperEED2Ev(%"class.boost::shared_ptr.20"* %temp.lvalue), !dbg !12304
  ret %"class.boost::shared_ptr.20"* %this1, !dbg !12306

lpad:                                             ; preds = %entry
  %1 = landingpad { i8*, i32 } personality i8* bitcast (i32 (...)* @__gxx_personality_v0 to i8*)
          cleanup, !dbg !12307
  %2 = extractvalue { i8*, i32 } %1, 0, !dbg !12307
  store i8* %2, i8** %exn.slot, !dbg !12307
  %3 = extractvalue { i8*, i32 } %1, 1, !dbg !12307
  store i32 %3, i32* %ehselector.slot, !dbg !12307
  invoke void @_ZN5boost10shared_ptrIN3ros26SubscriptionCallbackHelperEED2Ev(%"class.boost::shared_ptr.20"* %temp.lvalue)
          to label %invoke.cont2 unwind label %terminate.lpad, !dbg !12303

invoke.cont2:                                     ; preds = %lpad
  br label %eh.resume, !dbg !12308

eh.resume:                                        ; preds = %invoke.cont2
  %exn = load i8** %exn.slot, !dbg !12310
  %sel = load i32* %ehselector.slot, !dbg !12310
  %lpad.val = insertvalue { i8*, i32 } undef, i8* %exn, 0, !dbg !12310
  %lpad.val3 = insertvalue { i8*, i32 } %lpad.val, i32 %sel, 1, !dbg !12310
  resume { i8*, i32 } %lpad.val3, !dbg !12310

terminate.lpad:                                   ; preds = %lpad
  %4 = landingpad { i8*, i32 } personality i8* bitcast (i32 (...)* @__gxx_personality_v0 to i8*)
          catch i8* null, !dbg !12312
  %5 = extractvalue { i8*, i32 } %4, 0, !dbg !12312
  call void @__clang_call_terminate(i8* %5) #9, !dbg !12312
  unreachable, !dbg !12312
}

; Function Attrs: inlinehint uwtable
define linkonce_odr void @_ZN5boost10shared_ptrIN3ros26SubscriptionCallbackHelperEEC2ERKS3_(%"class.boost::shared_ptr.20"* %this, %"class.boost::shared_ptr.20"* dereferenceable(16)) unnamed_addr #11 comdat align 2 {
entry:
  %this.addr = alloca %"class.boost::shared_ptr.20"*, align 8
  %.addr = alloca %"class.boost::shared_ptr.20"*, align 8
  store %"class.boost::shared_ptr.20"* %this, %"class.boost::shared_ptr.20"** %this.addr, align 8
  call void @llvm.dbg.declare(metadata %"class.boost::shared_ptr.20"** %this.addr, metadata !12314, metadata !10095), !dbg !12315
  store %"class.boost::shared_ptr.20"* %0, %"class.boost::shared_ptr.20"** %.addr, align 8
  call void @llvm.dbg.declare(metadata %"class.boost::shared_ptr.20"** %.addr, metadata !12316, metadata !10095), !dbg !12315
  %this1 = load %"class.boost::shared_ptr.20"** %this.addr
  %px = getelementptr inbounds %"class.boost::shared_ptr.20"* %this1, i32 0, i32 0, !dbg !12317
  %1 = load %"class.boost::shared_ptr.20"** %.addr, align 8, !dbg !12317
  %px2 = getelementptr inbounds %"class.boost::shared_ptr.20"* %1, i32 0, i32 0, !dbg !12317
  %2 = load %"class.ros::SubscriptionCallbackHelper"** %px2, align 8, !dbg !12317
  store %"class.ros::SubscriptionCallbackHelper"* %2, %"class.ros::SubscriptionCallbackHelper"** %px, align 8, !dbg !12317
  %pn = getelementptr inbounds %"class.boost::shared_ptr.20"* %this1, i32 0, i32 1, !dbg !12317
  %3 = load %"class.boost::shared_ptr.20"** %.addr, align 8, !dbg !12317
  %pn3 = getelementptr inbounds %"class.boost::shared_ptr.20"* %3, i32 0, i32 1, !dbg !12317
  call void @_ZN5boost6detail12shared_countC2ERKS1_(%"class.boost::detail::shared_count"* %pn, %"class.boost::detail::shared_count"* dereferenceable(8) %pn3), !dbg !12317
  %px4 = getelementptr inbounds %"class.boost::shared_ptr.20"* %this1, i32 0, i32 0, !dbg !12317
  %4 = load %"class.boost::shared_ptr.20"** %.addr, align 8, !dbg !12317
  %px5 = getelementptr inbounds %"class.boost::shared_ptr.20"* %4, i32 0, i32 0, !dbg !12317
  %5 = load %"class.ros::SubscriptionCallbackHelper"** %px5, align 8, !dbg !12317
  store %"class.ros::SubscriptionCallbackHelper"* %5, %"class.ros::SubscriptionCallbackHelper"** %px4, align 8, !dbg !12317
  ret void, !dbg !12317
}

; Function Attrs: uwtable
define linkonce_odr void @_ZN5boost10shared_ptrIN3ros26SubscriptionCallbackHelperEE4swapERS3_(%"class.boost::shared_ptr.20"* %this, %"class.boost::shared_ptr.20"* dereferenceable(16) %other) #0 comdat align 2 {
entry:
  %this.addr = alloca %"class.boost::shared_ptr.20"*, align 8
  %other.addr = alloca %"class.boost::shared_ptr.20"*, align 8
  store %"class.boost::shared_ptr.20"* %this, %"class.boost::shared_ptr.20"** %this.addr, align 8
  call void @llvm.dbg.declare(metadata %"class.boost::shared_ptr.20"** %this.addr, metadata !12318, metadata !10095), !dbg !12319
  store %"class.boost::shared_ptr.20"* %other, %"class.boost::shared_ptr.20"** %other.addr, align 8
  call void @llvm.dbg.declare(metadata %"class.boost::shared_ptr.20"** %other.addr, metadata !12320, metadata !10095), !dbg !12321
  %this1 = load %"class.boost::shared_ptr.20"** %this.addr
  %px = getelementptr inbounds %"class.boost::shared_ptr.20"* %this1, i32 0, i32 0, !dbg !12322
  %0 = load %"class.boost::shared_ptr.20"** %other.addr, align 8, !dbg !12323
  %px2 = getelementptr inbounds %"class.boost::shared_ptr.20"* %0, i32 0, i32 0, !dbg !12324
  call void @_ZSt4swapIPN3ros26SubscriptionCallbackHelperEEvRT_S4_(%"class.ros::SubscriptionCallbackHelper"** dereferenceable(8) %px, %"class.ros::SubscriptionCallbackHelper"** dereferenceable(8) %px2), !dbg !12325
  %pn = getelementptr inbounds %"class.boost::shared_ptr.20"* %this1, i32 0, i32 1, !dbg !12326
  %1 = load %"class.boost::shared_ptr.20"** %other.addr, align 8, !dbg !12327
  %pn3 = getelementptr inbounds %"class.boost::shared_ptr.20"* %1, i32 0, i32 1, !dbg !12328
  call void @_ZN5boost6detail12shared_count4swapERS1_(%"class.boost::detail::shared_count"* %pn, %"class.boost::detail::shared_count"* dereferenceable(8) %pn3), !dbg !12326
  ret void, !dbg !12329
}

; Function Attrs: nounwind uwtable
define linkonce_odr void @_ZSt4swapIPN3ros26SubscriptionCallbackHelperEEvRT_S4_(%"class.ros::SubscriptionCallbackHelper"** dereferenceable(8) %__a, %"class.ros::SubscriptionCallbackHelper"** dereferenceable(8) %__b) #13 comdat {
entry:
  %__a.addr = alloca %"class.ros::SubscriptionCallbackHelper"**, align 8
  %__b.addr = alloca %"class.ros::SubscriptionCallbackHelper"**, align 8
  %__tmp = alloca %"class.ros::SubscriptionCallbackHelper"*, align 8
  store %"class.ros::SubscriptionCallbackHelper"** %__a, %"class.ros::SubscriptionCallbackHelper"*** %__a.addr, align 8
  call void @llvm.dbg.declare(metadata %"class.ros::SubscriptionCallbackHelper"*** %__a.addr, metadata !12330, metadata !10095), !dbg !12331
  store %"class.ros::SubscriptionCallbackHelper"** %__b, %"class.ros::SubscriptionCallbackHelper"*** %__b.addr, align 8
  call void @llvm.dbg.declare(metadata %"class.ros::SubscriptionCallbackHelper"*** %__b.addr, metadata !12332, metadata !10095), !dbg !12333
  call void @llvm.dbg.declare(metadata %"class.ros::SubscriptionCallbackHelper"** %__tmp, metadata !12334, metadata !10095), !dbg !12335
  %0 = load %"class.ros::SubscriptionCallbackHelper"*** %__a.addr, align 8, !dbg !12336
  %1 = load %"class.ros::SubscriptionCallbackHelper"** %0, align 8, !dbg !12336
  store %"class.ros::SubscriptionCallbackHelper"* %1, %"class.ros::SubscriptionCallbackHelper"** %__tmp, align 8, !dbg !12335
  %2 = load %"class.ros::SubscriptionCallbackHelper"*** %__b.addr, align 8, !dbg !12337
  %3 = load %"class.ros::SubscriptionCallbackHelper"** %2, align 8, !dbg !12337
  %4 = load %"class.ros::SubscriptionCallbackHelper"*** %__a.addr, align 8, !dbg !12338
  store %"class.ros::SubscriptionCallbackHelper"* %3, %"class.ros::SubscriptionCallbackHelper"** %4, align 8, !dbg !12339
  %5 = load %"class.ros::SubscriptionCallbackHelper"** %__tmp, align 8, !dbg !12340
  %6 = load %"class.ros::SubscriptionCallbackHelper"*** %__b.addr, align 8, !dbg !12341
  store %"class.ros::SubscriptionCallbackHelper"* %5, %"class.ros::SubscriptionCallbackHelper"** %6, align 8, !dbg !12342
  ret void, !dbg !12343
}

; Function Attrs: uwtable
define linkonce_odr void @_ZN5boost8functionIFvRKNS_10shared_ptrIKN8std_msgs6Int16_ISaIvEEEEEEEC2ERKSB_(%"class.boost::function"* %this, %"class.boost::function"* dereferenceable(32) %f) unnamed_addr #0 comdat align 2 {
entry:
  %this.addr = alloca %"class.boost::function"*, align 8
  %f.addr = alloca %"class.boost::function"*, align 8
  store %"class.boost::function"* %this, %"class.boost::function"** %this.addr, align 8
  call void @llvm.dbg.declare(metadata %"class.boost::function"** %this.addr, metadata !12344, metadata !10095), !dbg !12345
  store %"class.boost::function"* %f, %"class.boost::function"** %f.addr, align 8
  call void @llvm.dbg.declare(metadata %"class.boost::function"** %f.addr, metadata !12346, metadata !10095), !dbg !12347
  %this1 = load %"class.boost::function"** %this.addr
  %0 = bitcast %"class.boost::function"* %this1 to %"class.boost::function1"*, !dbg !12348
  %1 = load %"class.boost::function"** %f.addr, align 8, !dbg !12349
  %2 = bitcast %"class.boost::function"* %1 to %"class.boost::function1"*, !dbg !12349
  call void @_ZN5boost9function1IvRKNS_10shared_ptrIKN8std_msgs6Int16_ISaIvEEEEEEC2ERKSA_(%"class.boost::function1"* %0, %"class.boost::function1"* dereferenceable(32) %2), !dbg !12350
  ret void, !dbg !12351
}

; Function Attrs: uwtable
define linkonce_odr void @_ZN5boost9function1IvRKNS_10shared_ptrIKN8std_msgs6Int16_ISaIvEEEEEEC2ERKSA_(%"class.boost::function1"* %this, %"class.boost::function1"* dereferenceable(32) %f) unnamed_addr #0 comdat align 2 {
entry:
  %this.addr = alloca %"class.boost::function1"*, align 8
  %f.addr = alloca %"class.boost::function1"*, align 8
  store %"class.boost::function1"* %this, %"class.boost::function1"** %this.addr, align 8
  call void @llvm.dbg.declare(metadata %"class.boost::function1"** %this.addr, metadata !12352, metadata !10095), !dbg !12354
  store %"class.boost::function1"* %f, %"class.boost::function1"** %f.addr, align 8
  call void @llvm.dbg.declare(metadata %"class.boost::function1"** %f.addr, metadata !12355, metadata !10095), !dbg !12356
  %this1 = load %"class.boost::function1"** %this.addr
  %0 = bitcast %"class.boost::function1"* %this1 to %"class.boost::function_base"*, !dbg !12357
  call void @_ZN5boost13function_baseC2Ev(%"class.boost::function_base"* %0), !dbg !12358
  %1 = bitcast %"class.boost::function1"* %this1 to %"class.std::ios_base::Init"*, !dbg !12357
  %2 = load %"class.boost::function1"** %f.addr, align 8, !dbg !12359
  call void @_ZN5boost9function1IvRKNS_10shared_ptrIKN8std_msgs6Int16_ISaIvEEEEEE13assign_to_ownERKSA_(%"class.boost::function1"* %this1, %"class.boost::function1"* dereferenceable(32) %2), !dbg !12361
  ret void, !dbg !12362
}

; Function Attrs: uwtable
define linkonce_odr void @_ZN5boost9function1IvRKNS_10shared_ptrIKN8std_msgs6Int16_ISaIvEEEEEE13assign_to_ownERKSA_(%"class.boost::function1"* %this, %"class.boost::function1"* dereferenceable(32) %f) #0 comdat align 2 {
entry:
  %this.addr = alloca %"class.boost::function1"*, align 8
  %f.addr = alloca %"class.boost::function1"*, align 8
  store %"class.boost::function1"* %this, %"class.boost::function1"** %this.addr, align 8
  call void @llvm.dbg.declare(metadata %"class.boost::function1"** %this.addr, metadata !12363, metadata !10095), !dbg !12364
  store %"class.boost::function1"* %f, %"class.boost::function1"** %f.addr, align 8
  call void @llvm.dbg.declare(metadata %"class.boost::function1"** %f.addr, metadata !12365, metadata !10095), !dbg !12366
  %this1 = load %"class.boost::function1"** %this.addr
  %0 = load %"class.boost::function1"** %f.addr, align 8, !dbg !12367
  %1 = bitcast %"class.boost::function1"* %0 to %"class.boost::function_base"*, !dbg !12367
  %call = call zeroext i1 @_ZNK5boost13function_base5emptyEv(%"class.boost::function_base"* %1), !dbg !12367
  br i1 %call, label %if.end9, label %if.then, !dbg !12369

if.then:                                          ; preds = %entry
  %2 = load %"class.boost::function1"** %f.addr, align 8, !dbg !12370
  %3 = bitcast %"class.boost::function1"* %2 to %"class.boost::function_base"*, !dbg !12370
  %vtable = getelementptr inbounds %"class.boost::function_base"* %3, i32 0, i32 0, !dbg !12372
  %4 = load %"struct.boost::detail::function::vtable_base"** %vtable, align 8, !dbg !12372
  %5 = bitcast %"class.boost::function1"* %this1 to %"class.boost::function_base"*, !dbg !12373
  %vtable2 = getelementptr inbounds %"class.boost::function_base"* %5, i32 0, i32 0, !dbg !12374
  store %"struct.boost::detail::function::vtable_base"* %4, %"struct.boost::detail::function::vtable_base"** %vtable2, align 8, !dbg !12375
  %6 = bitcast %"class.boost::function1"* %this1 to %"class.boost::function_base"*, !dbg !12376
  %call3 = call zeroext i1 @_ZNK5boost13function_base28has_trivial_copy_and_destroyEv(%"class.boost::function_base"* %6), !dbg !12376
  br i1 %call3, label %if.then4, label %if.else, !dbg !12378

if.then4:                                         ; preds = %if.then
  %7 = bitcast %"class.boost::function1"* %this1 to %"class.boost::function_base"*, !dbg !12379
  %functor = getelementptr inbounds %"class.boost::function_base"* %7, i32 0, i32 1, !dbg !12380
  %8 = load %"class.boost::function1"** %f.addr, align 8, !dbg !12381
  %9 = bitcast %"class.boost::function1"* %8 to %"class.boost::function_base"*, !dbg !12381
  %functor5 = getelementptr inbounds %"class.boost::function_base"* %9, i32 0, i32 1, !dbg !12382
  %10 = bitcast %"union.boost::detail::function::function_buffer"* %functor to i8*, !dbg !12383
  %11 = bitcast %"union.boost::detail::function::function_buffer"* %functor5 to i8*, !dbg !12383
  call void @llvm.memcpy.p0i8.p0i8.i64(i8* %10, i8* %11, i64 24, i32 8, i1 false), !dbg !12383
  br label %if.end, !dbg !12379

if.else:                                          ; preds = %if.then
  %call6 = call %"struct.boost::detail::function::basic_vtable1.40"* @_ZNK5boost9function1IvRKNS_10shared_ptrIKN8std_msgs6Int16_ISaIvEEEEEE10get_vtableEv(%"class.boost::function1"* %this1), !dbg !12384
  %base = getelementptr inbounds %"struct.boost::detail::function::basic_vtable1.40"* %call6, i32 0, i32 0, !dbg !12385
  %manager = getelementptr inbounds %"struct.boost::detail::function::vtable_base"* %base, i32 0, i32 0, !dbg !12386
  %12 = load void (%"union.boost::detail::function::function_buffer"*, %"union.boost::detail::function::function_buffer"*, i32)** %manager, align 8, !dbg !12386
  %13 = load %"class.boost::function1"** %f.addr, align 8, !dbg !12387
  %14 = bitcast %"class.boost::function1"* %13 to %"class.boost::function_base"*, !dbg !12387
  %functor7 = getelementptr inbounds %"class.boost::function_base"* %14, i32 0, i32 1, !dbg !12388
  %15 = bitcast %"class.boost::function1"* %this1 to %"class.boost::function_base"*, !dbg !12389
  %functor8 = getelementptr inbounds %"class.boost::function_base"* %15, i32 0, i32 1, !dbg !12390
  call void %12(%"union.boost::detail::function::function_buffer"* dereferenceable(24) %functor7, %"union.boost::detail::function::function_buffer"* dereferenceable(24) %functor8, i32 0), !dbg !12384
  br label %if.end

if.end:                                           ; preds = %if.else, %if.then4
  br label %if.end9, !dbg !12391

if.end9:                                          ; preds = %if.end, %entry
  ret void, !dbg !12392
}

; Function Attrs: nounwind uwtable
define linkonce_odr %"struct.boost::detail::function::basic_vtable1.40"* @_ZNK5boost9function1IvRKNS_10shared_ptrIKN8std_msgs6Int16_ISaIvEEEEEE10get_vtableEv(%"class.boost::function1"* %this) #13 comdat align 2 {
entry:
  %this.addr = alloca %"class.boost::function1"*, align 8
  store %"class.boost::function1"* %this, %"class.boost::function1"** %this.addr, align 8
  call void @llvm.dbg.declare(metadata %"class.boost::function1"** %this.addr, metadata !12393, metadata !10095), !dbg !12395
  %this1 = load %"class.boost::function1"** %this.addr
  %0 = bitcast %"class.boost::function1"* %this1 to %"class.boost::function_base"*, !dbg !12396
  %vtable = getelementptr inbounds %"class.boost::function_base"* %0, i32 0, i32 0, !dbg !12396
  %1 = load %"struct.boost::detail::function::vtable_base"** %vtable, align 8, !dbg !12396
  %2 = ptrtoint %"struct.boost::detail::function::vtable_base"* %1 to i64, !dbg !12397
  %and = and i64 %2, -2, !dbg !12398
  %3 = inttoptr i64 %and to %"struct.boost::detail::function::basic_vtable1.40"*, !dbg !12399
  ret %"struct.boost::detail::function::basic_vtable1.40"* %3, !dbg !12400
}

; Function Attrs: uwtable
define linkonce_odr void @_ZN5boost8functionIFvNS_10shared_ptrIKN8std_msgs6Int16_ISaIvEEEEEEEC2INS0_IFvRKS7_EEEEET_NS_11enable_if_cIXsr5boost11type_traits7ice_notIXsr11is_integralISF_EE5valueEEE5valueEiE4typeE(%"class.boost::function"* %this, %"class.boost::function"* %f, i32) unnamed_addr #0 comdat align 2 {
entry:
  %this.addr = alloca %"class.boost::function"*, align 8
  %.addr = alloca i32, align 4
  %agg.tmp = alloca %"class.boost::function", align 8
  %exn.slot = alloca i8*
  %ehselector.slot = alloca i32
  store %"class.boost::function"* %this, %"class.boost::function"** %this.addr, align 8
  call void @llvm.dbg.declare(metadata %"class.boost::function"** %this.addr, metadata !12401, metadata !10095), !dbg !12403
  call void @llvm.dbg.declare(metadata %"class.boost::function"* %f, metadata !12404, metadata !12405), !dbg !12406
  store i32 %0, i32* %.addr, align 4
  call void @llvm.dbg.declare(metadata i32* %.addr, metadata !12407, metadata !10095), !dbg !12408
  %this1 = load %"class.boost::function"** %this.addr
  %1 = bitcast %"class.boost::function"* %this1 to %"class.boost::function1"*, !dbg !12409
  call void @_ZN5boost8functionIFvRKNS_10shared_ptrIKN8std_msgs6Int16_ISaIvEEEEEEEC2ERKSB_(%"class.boost::function"* %agg.tmp, %"class.boost::function"* dereferenceable(32) %f), !dbg !12410
  invoke void @_ZN5boost9function1IvNS_10shared_ptrIKN8std_msgs6Int16_ISaIvEEEEEEC2INS_8functionIFvRKS7_EEEEET_NS_11enable_if_cIXsr5boost11type_traits7ice_notIXsr11is_integralISF_EE5valueEEE5valueEiE4typeE(%"class.boost::function1"* %1, %"class.boost::function"* %agg.tmp, i32 0)
          to label %invoke.cont unwind label %lpad, !dbg !12411

invoke.cont:                                      ; preds = %entry
  call void @_ZN5boost8functionIFvRKNS_10shared_ptrIKN8std_msgs6Int16_ISaIvEEEEEEED2Ev(%"class.boost::function"* %agg.tmp), !dbg !12412
  ret void, !dbg !12414

lpad:                                             ; preds = %entry
  %2 = landingpad { i8*, i32 } personality i8* bitcast (i32 (...)* @__gxx_personality_v0 to i8*)
          cleanup, !dbg !12414
  %3 = extractvalue { i8*, i32 } %2, 0, !dbg !12414
  store i8* %3, i8** %exn.slot, !dbg !12414
  %4 = extractvalue { i8*, i32 } %2, 1, !dbg !12414
  store i32 %4, i32* %ehselector.slot, !dbg !12414
  invoke void @_ZN5boost8functionIFvRKNS_10shared_ptrIKN8std_msgs6Int16_ISaIvEEEEEEED2Ev(%"class.boost::function"* %agg.tmp)
          to label %invoke.cont2 unwind label %terminate.lpad, !dbg !12411

invoke.cont2:                                     ; preds = %lpad
  br label %eh.resume, !dbg !12415

eh.resume:                                        ; preds = %invoke.cont2
  %exn = load i8** %exn.slot, !dbg !12417
  %sel = load i32* %ehselector.slot, !dbg !12417
  %lpad.val = insertvalue { i8*, i32 } undef, i8* %exn, 0, !dbg !12417
  %lpad.val3 = insertvalue { i8*, i32 } %lpad.val, i32 %sel, 1, !dbg !12417
  resume { i8*, i32 } %lpad.val3, !dbg !12417

terminate.lpad:                                   ; preds = %lpad
  %5 = landingpad { i8*, i32 } personality i8* bitcast (i32 (...)* @__gxx_personality_v0 to i8*)
          catch i8* null, !dbg !12419
  %6 = extractvalue { i8*, i32 } %5, 0, !dbg !12419
  call void @__clang_call_terminate(i8* %6) #9, !dbg !12419
  unreachable, !dbg !12419
}

; Function Attrs: uwtable
define linkonce_odr void @_ZN5boost9function1IvNS_10shared_ptrIKN8std_msgs6Int16_ISaIvEEEEEEC2INS_8functionIFvRKS7_EEEEET_NS_11enable_if_cIXsr5boost11type_traits7ice_notIXsr11is_integralISF_EE5valueEEE5valueEiE4typeE(%"class.boost::function1"* %this, %"class.boost::function"* %f, i32) unnamed_addr #0 comdat align 2 {
entry:
  %this.addr = alloca %"class.boost::function1"*, align 8
  %.addr = alloca i32, align 4
  %agg.tmp = alloca %"class.boost::function", align 8
  %exn.slot = alloca i8*
  %ehselector.slot = alloca i32
  store %"class.boost::function1"* %this, %"class.boost::function1"** %this.addr, align 8
  call void @llvm.dbg.declare(metadata %"class.boost::function1"** %this.addr, metadata !12421, metadata !10095), !dbg !12423
  call void @llvm.dbg.declare(metadata %"class.boost::function"* %f, metadata !12424, metadata !12405), !dbg !12425
  store i32 %0, i32* %.addr, align 4
  call void @llvm.dbg.declare(metadata i32* %.addr, metadata !12426, metadata !10095), !dbg !12427
  %this1 = load %"class.boost::function1"** %this.addr
  %1 = bitcast %"class.boost::function1"* %this1 to %"class.boost::function_base"*, !dbg !12428
  call void @_ZN5boost13function_baseC2Ev(%"class.boost::function_base"* %1), !dbg !12429
  %2 = bitcast %"class.boost::function1"* %this1 to %"class.std::ios_base::Init"*, !dbg !12428
  call void @_ZN5boost8functionIFvRKNS_10shared_ptrIKN8std_msgs6Int16_ISaIvEEEEEEEC2ERKSB_(%"class.boost::function"* %agg.tmp, %"class.boost::function"* dereferenceable(32) %f), !dbg !12430
  invoke void @_ZN5boost9function1IvNS_10shared_ptrIKN8std_msgs6Int16_ISaIvEEEEEE9assign_toINS_8functionIFvRKS7_EEEEEvT_(%"class.boost::function1"* %this1, %"class.boost::function"* %agg.tmp)
          to label %invoke.cont unwind label %lpad, !dbg !12432

invoke.cont:                                      ; preds = %entry
  call void @_ZN5boost8functionIFvRKNS_10shared_ptrIKN8std_msgs6Int16_ISaIvEEEEEEED2Ev(%"class.boost::function"* %agg.tmp), !dbg !12433
  ret void, !dbg !12435

lpad:                                             ; preds = %entry
  %3 = landingpad { i8*, i32 } personality i8* bitcast (i32 (...)* @__gxx_personality_v0 to i8*)
          cleanup, !dbg !12436
  %4 = extractvalue { i8*, i32 } %3, 0, !dbg !12436
  store i8* %4, i8** %exn.slot, !dbg !12436
  %5 = extractvalue { i8*, i32 } %3, 1, !dbg !12436
  store i32 %5, i32* %ehselector.slot, !dbg !12436
  invoke void @_ZN5boost8functionIFvRKNS_10shared_ptrIKN8std_msgs6Int16_ISaIvEEEEEEED2Ev(%"class.boost::function"* %agg.tmp)
          to label %invoke.cont2 unwind label %terminate.lpad, !dbg !12432

invoke.cont2:                                     ; preds = %lpad
  br label %eh.resume, !dbg !12437

eh.resume:                                        ; preds = %invoke.cont2
  %exn = load i8** %exn.slot, !dbg !12439
  %sel = load i32* %ehselector.slot, !dbg !12439
  %lpad.val = insertvalue { i8*, i32 } undef, i8* %exn, 0, !dbg !12439
  %lpad.val3 = insertvalue { i8*, i32 } %lpad.val, i32 %sel, 1, !dbg !12439
  resume { i8*, i32 } %lpad.val3, !dbg !12439

terminate.lpad:                                   ; preds = %lpad
  %6 = landingpad { i8*, i32 } personality i8* bitcast (i32 (...)* @__gxx_personality_v0 to i8*)
          catch i8* null, !dbg !12441
  %7 = extractvalue { i8*, i32 } %6, 0, !dbg !12441
  call void @__clang_call_terminate(i8* %7) #9, !dbg !12441
  unreachable, !dbg !12441
}

; Function Attrs: uwtable
define linkonce_odr void @_ZN5boost9function1IvNS_10shared_ptrIKN8std_msgs6Int16_ISaIvEEEEEE9assign_toINS_8functionIFvRKS7_EEEEEvT_(%"class.boost::function1"* %this, %"class.boost::function"* %f) #0 comdat align 2 {
entry:
  %this.addr = alloca %"class.boost::function1"*, align 8
  %agg.tmp = alloca %"class.boost::function", align 8
  %exn.slot = alloca i8*
  %ehselector.slot = alloca i32
  %value = alloca i64, align 8
  store %"class.boost::function1"* %this, %"class.boost::function1"** %this.addr, align 8
  call void @llvm.dbg.declare(metadata %"class.boost::function1"** %this.addr, metadata !12443, metadata !10095), !dbg !12444
  call void @llvm.dbg.declare(metadata %"class.boost::function"* %f, metadata !12445, metadata !12405), !dbg !12446
  %this1 = load %"class.boost::function1"** %this.addr
  call void @_ZN5boost8functionIFvRKNS_10shared_ptrIKN8std_msgs6Int16_ISaIvEEEEEEEC2ERKSB_(%"class.boost::function"* %agg.tmp, %"class.boost::function"* dereferenceable(32) %f), !dbg !12447
  %0 = bitcast %"class.boost::function1"* %this1 to %"class.boost::function_base"*, !dbg !12449
  %functor = getelementptr inbounds %"class.boost::function_base"* %0, i32 0, i32 1, !dbg !12449
  %call = invoke zeroext i1 @_ZN5boost6detail8function13basic_vtable1IvNS_10shared_ptrIKN8std_msgs6Int16_ISaIvEEEEEE9assign_toINS_8functionIFvRKS9_EEEEEbT_RNS1_15function_bufferE(%"struct.boost::detail::function::basic_vtable1.40"* @_ZZN5boost9function1IvNS_10shared_ptrIKN8std_msgs6Int16_ISaIvEEEEEE9assign_toINS_8functionIFvRKS7_EEEEEvT_E13stored_vtable, %"class.boost::function"* %agg.tmp, %"union.boost::detail::function::function_buffer"* dereferenceable(24) %functor)
          to label %invoke.cont unwind label %lpad, !dbg !12450

invoke.cont:                                      ; preds = %entry
  call void @_ZN5boost8functionIFvRKNS_10shared_ptrIKN8std_msgs6Int16_ISaIvEEEEEEED2Ev(%"class.boost::function"* %agg.tmp), !dbg !12451
  br i1 %call, label %if.then, label %if.else, !dbg !12453

if.then:                                          ; preds = %invoke.cont
  call void @llvm.dbg.declare(metadata i64* %value, metadata !12454, metadata !10095), !dbg !12456
  store i64 ptrtoint (%"struct.boost::detail::function::basic_vtable1.40"* @_ZZN5boost9function1IvNS_10shared_ptrIKN8std_msgs6Int16_ISaIvEEEEEE9assign_toINS_8functionIFvRKS7_EEEEEvT_E13stored_vtable to i64), i64* %value, align 8, !dbg !12456
  %1 = load i64* %value, align 8, !dbg !12457
  %2 = inttoptr i64 %1 to %"struct.boost::detail::function::vtable_base"*, !dbg !12458
  %3 = bitcast %"class.boost::function1"* %this1 to %"class.boost::function_base"*, !dbg !12459
  %vtable = getelementptr inbounds %"class.boost::function_base"* %3, i32 0, i32 0, !dbg !12459
  store %"struct.boost::detail::function::vtable_base"* %2, %"struct.boost::detail::function::vtable_base"** %vtable, align 8, !dbg !12460
  br label %if.end, !dbg !12461

lpad:                                             ; preds = %entry
  %4 = landingpad { i8*, i32 } personality i8* bitcast (i32 (...)* @__gxx_personality_v0 to i8*)
          cleanup, !dbg !12462
  %5 = extractvalue { i8*, i32 } %4, 0, !dbg !12462
  store i8* %5, i8** %exn.slot, !dbg !12462
  %6 = extractvalue { i8*, i32 } %4, 1, !dbg !12462
  store i32 %6, i32* %ehselector.slot, !dbg !12462
  invoke void @_ZN5boost8functionIFvRKNS_10shared_ptrIKN8std_msgs6Int16_ISaIvEEEEEEED2Ev(%"class.boost::function"* %agg.tmp)
          to label %invoke.cont2 unwind label %terminate.lpad, !dbg !12450

invoke.cont2:                                     ; preds = %lpad
  br label %eh.resume, !dbg !12463

if.else:                                          ; preds = %invoke.cont
  %7 = bitcast %"class.boost::function1"* %this1 to %"class.boost::function_base"*, !dbg !12465
  %vtable3 = getelementptr inbounds %"class.boost::function_base"* %7, i32 0, i32 0, !dbg !12465
  store %"struct.boost::detail::function::vtable_base"* null, %"struct.boost::detail::function::vtable_base"** %vtable3, align 8, !dbg !12466
  br label %if.end

if.end:                                           ; preds = %if.else, %if.then
  ret void, !dbg !12467

eh.resume:                                        ; preds = %invoke.cont2
  %exn = load i8** %exn.slot, !dbg !12468
  %sel = load i32* %ehselector.slot, !dbg !12468
  %lpad.val = insertvalue { i8*, i32 } undef, i8* %exn, 0, !dbg !12468
  %lpad.val4 = insertvalue { i8*, i32 } %lpad.val, i32 %sel, 1, !dbg !12468
  resume { i8*, i32 } %lpad.val4, !dbg !12468

terminate.lpad:                                   ; preds = %lpad
  %8 = landingpad { i8*, i32 } personality i8* bitcast (i32 (...)* @__gxx_personality_v0 to i8*)
          catch i8* null, !dbg !12470
  %9 = extractvalue { i8*, i32 } %8, 0, !dbg !12470
  call void @__clang_call_terminate(i8* %9) #9, !dbg !12470
  unreachable, !dbg !12470
}

; Function Attrs: inlinehint uwtable
define linkonce_odr void @_ZN5boost6detail8function15functor_managerINS_8functionIFvRKNS_10shared_ptrIKN8std_msgs6Int16_ISaIvEEEEEEEEE6manageERKNS1_15function_bufferERSG_NS1_30functor_manager_operation_typeE(%"union.boost::detail::function::function_buffer"* dereferenceable(24) %in_buffer, %"union.boost::detail::function::function_buffer"* dereferenceable(24) %out_buffer, i32 %op) #11 comdat align 2 {
entry:
  %in_buffer.addr = alloca %"union.boost::detail::function::function_buffer"*, align 8
  %out_buffer.addr = alloca %"union.boost::detail::function::function_buffer"*, align 8
  %op.addr = alloca i32, align 4
  %agg.tmp = alloca %"class.std::ios_base::Init", align 1
  store %"union.boost::detail::function::function_buffer"* %in_buffer, %"union.boost::detail::function::function_buffer"** %in_buffer.addr, align 8
  call void @llvm.dbg.declare(metadata %"union.boost::detail::function::function_buffer"** %in_buffer.addr, metadata !12472, metadata !10095), !dbg !12474
  store %"union.boost::detail::function::function_buffer"* %out_buffer, %"union.boost::detail::function::function_buffer"** %out_buffer.addr, align 8
  call void @llvm.dbg.declare(metadata %"union.boost::detail::function::function_buffer"** %out_buffer.addr, metadata !12475, metadata !10095), !dbg !12476
  store i32 %op, i32* %op.addr, align 4
  call void @llvm.dbg.declare(metadata i32* %op.addr, metadata !12477, metadata !10095), !dbg !12478
  %0 = load i32* %op.addr, align 4, !dbg !12479
  switch i32 %0, label %sw.default [
    i32 4, label %sw.bb
  ], !dbg !12480

sw.bb:                                            ; preds = %entry
  %1 = load %"union.boost::detail::function::function_buffer"** %out_buffer.addr, align 8, !dbg !12481
  %type = bitcast %"union.boost::detail::function::function_buffer"* %1 to %"struct.boost::detail::function::function_buffer::type_t"*, !dbg !12483
  %type1 = getelementptr inbounds %"struct.boost::detail::function::function_buffer::type_t"* %type, i32 0, i32 0, !dbg !12484
  store %"class.std::type_info"* bitcast ({ i8*, i8*, i8* }* @_ZTIN5boost8functionIFvRKNS_10shared_ptrIKN8std_msgs6Int16_ISaIvEEEEEEEE to %"class.std::type_info"*), %"class.std::type_info"** %type1, align 8, !dbg !12485
  %2 = load %"union.boost::detail::function::function_buffer"** %out_buffer.addr, align 8, !dbg !12486
  %type2 = bitcast %"union.boost::detail::function::function_buffer"* %2 to %"struct.boost::detail::function::function_buffer::type_t"*, !dbg !12487
  %const_qualified = getelementptr inbounds %"struct.boost::detail::function::function_buffer::type_t"* %type2, i32 0, i32 1, !dbg !12488
  store i8 0, i8* %const_qualified, align 1, !dbg !12489
  %3 = load %"union.boost::detail::function::function_buffer"** %out_buffer.addr, align 8, !dbg !12490
  %type3 = bitcast %"union.boost::detail::function::function_buffer"* %3 to %"struct.boost::detail::function::function_buffer::type_t"*, !dbg !12491
  %volatile_qualified = getelementptr inbounds %"struct.boost::detail::function::function_buffer::type_t"* %type3, i32 0, i32 2, !dbg !12492
  store i8 0, i8* %volatile_qualified, align 1, !dbg !12493
  br label %return, !dbg !12494

sw.default:                                       ; preds = %entry
  %4 = load %"union.boost::detail::function::function_buffer"** %in_buffer.addr, align 8, !dbg !12495
  %5 = load %"union.boost::detail::function::function_buffer"** %out_buffer.addr, align 8, !dbg !12496
  %6 = load i32* %op.addr, align 4, !dbg !12497
  call void @_ZN5boost6detail8function15functor_managerINS_8functionIFvRKNS_10shared_ptrIKN8std_msgs6Int16_ISaIvEEEEEEEEE7managerERKNS1_15function_bufferERSG_NS1_30functor_manager_operation_typeENS1_16function_obj_tagE(%"union.boost::detail::function::function_buffer"* dereferenceable(24) %4, %"union.boost::detail::function::function_buffer"* dereferenceable(24) %5, i32 %6), !dbg !12498
  br label %return, !dbg !12499

return:                                           ; preds = %sw.default, %sw.bb
  ret void, !dbg !12500
}

; Function Attrs: inlinehint uwtable
define linkonce_odr void @_ZN5boost6detail8function15functor_managerINS_8functionIFvRKNS_10shared_ptrIKN8std_msgs6Int16_ISaIvEEEEEEEEE7managerERKNS1_15function_bufferERSG_NS1_30functor_manager_operation_typeENS1_16function_obj_tagE(%"union.boost::detail::function::function_buffer"* dereferenceable(24) %in_buffer, %"union.boost::detail::function::function_buffer"* dereferenceable(24) %out_buffer, i32 %op) #11 comdat align 2 {
entry:
  %0 = alloca %"class.std::ios_base::Init", align 1
  %in_buffer.addr = alloca %"union.boost::detail::function::function_buffer"*, align 8
  %out_buffer.addr = alloca %"union.boost::detail::function::function_buffer"*, align 8
  %op.addr = alloca i32, align 4
  %agg.tmp = alloca %"class.std::ios_base::Init", align 1
  store %"union.boost::detail::function::function_buffer"* %in_buffer, %"union.boost::detail::function::function_buffer"** %in_buffer.addr, align 8
  call void @llvm.dbg.declare(metadata %"union.boost::detail::function::function_buffer"** %in_buffer.addr, metadata !12501, metadata !10095), !dbg !12502
  store %"union.boost::detail::function::function_buffer"* %out_buffer, %"union.boost::detail::function::function_buffer"** %out_buffer.addr, align 8
  call void @llvm.dbg.declare(metadata %"union.boost::detail::function::function_buffer"** %out_buffer.addr, metadata !12503, metadata !10095), !dbg !12504
  store i32 %op, i32* %op.addr, align 4
  call void @llvm.dbg.declare(metadata i32* %op.addr, metadata !12505, metadata !10095), !dbg !12506
  call void @llvm.dbg.declare(metadata %"class.std::ios_base::Init"* %0, metadata !12507, metadata !10095), !dbg !12508
  %1 = load %"union.boost::detail::function::function_buffer"** %in_buffer.addr, align 8, !dbg !12509
  %2 = load %"union.boost::detail::function::function_buffer"** %out_buffer.addr, align 8, !dbg !12510
  %3 = load i32* %op.addr, align 4, !dbg !12511
  call void @_ZN5boost6detail8function15functor_managerINS_8functionIFvRKNS_10shared_ptrIKN8std_msgs6Int16_ISaIvEEEEEEEEE7managerERKNS1_15function_bufferERSG_NS1_30functor_manager_operation_typeEN4mpl_5bool_ILb0EEE(%"union.boost::detail::function::function_buffer"* dereferenceable(24) %1, %"union.boost::detail::function::function_buffer"* dereferenceable(24) %2, i32 %3), !dbg !12512
  ret void, !dbg !12513
}

; Function Attrs: inlinehint uwtable
define linkonce_odr void @_ZN5boost6detail8function15functor_managerINS_8functionIFvRKNS_10shared_ptrIKN8std_msgs6Int16_ISaIvEEEEEEEEE7managerERKNS1_15function_bufferERSG_NS1_30functor_manager_operation_typeEN4mpl_5bool_ILb0EEE(%"union.boost::detail::function::function_buffer"* dereferenceable(24) %in_buffer, %"union.boost::detail::function::function_buffer"* dereferenceable(24) %out_buffer, i32 %op) #11 comdat align 2 {
entry:
  %0 = alloca %"class.std::ios_base::Init", align 1
  %in_buffer.addr = alloca %"union.boost::detail::function::function_buffer"*, align 8
  %out_buffer.addr = alloca %"union.boost::detail::function::function_buffer"*, align 8
  %op.addr = alloca i32, align 4
  %f = alloca %"class.boost::function"*, align 8
  %new_f = alloca %"class.boost::function"*, align 8
  %exn.slot = alloca i8*
  %ehselector.slot = alloca i32
  %f10 = alloca %"class.boost::function"*, align 8
  %check_type = alloca %"class.std::type_info"*, align 8
  store %"union.boost::detail::function::function_buffer"* %in_buffer, %"union.boost::detail::function::function_buffer"** %in_buffer.addr, align 8
  call void @llvm.dbg.declare(metadata %"union.boost::detail::function::function_buffer"** %in_buffer.addr, metadata !12514, metadata !10095), !dbg !12515
  store %"union.boost::detail::function::function_buffer"* %out_buffer, %"union.boost::detail::function::function_buffer"** %out_buffer.addr, align 8
  call void @llvm.dbg.declare(metadata %"union.boost::detail::function::function_buffer"** %out_buffer.addr, metadata !12516, metadata !10095), !dbg !12517
  store i32 %op, i32* %op.addr, align 4
  call void @llvm.dbg.declare(metadata i32* %op.addr, metadata !12518, metadata !10095), !dbg !12519
  call void @llvm.dbg.declare(metadata %"class.std::ios_base::Init"* %0, metadata !12520, metadata !10095), !dbg !12521
  %1 = load i32* %op.addr, align 4, !dbg !12522
  %cmp = icmp eq i32 %1, 0, !dbg !12524
  br i1 %cmp, label %if.then, label %if.else, !dbg !12525

if.then:                                          ; preds = %entry
  call void @llvm.dbg.declare(metadata %"class.boost::function"** %f, metadata !12526, metadata !10095), !dbg !12528
  %2 = load %"union.boost::detail::function::function_buffer"** %in_buffer.addr, align 8, !dbg !12529
  %obj_ptr = bitcast %"union.boost::detail::function::function_buffer"* %2 to i8**, !dbg !12530
  %3 = load i8** %obj_ptr, align 8, !dbg !12530
  %4 = bitcast i8* %3 to %"class.boost::function"*, !dbg !12531
  store %"class.boost::function"* %4, %"class.boost::function"** %f, align 8, !dbg !12528
  call void @llvm.dbg.declare(metadata %"class.boost::function"** %new_f, metadata !12532, metadata !10095), !dbg !12533
  %call = call noalias i8* @_Znwm(i64 32) #18, !dbg !12534
  %5 = bitcast i8* %call to %"class.boost::function"*, !dbg !12534
  %6 = load %"class.boost::function"** %f, align 8, !dbg !12535
  invoke void @_ZN5boost8functionIFvRKNS_10shared_ptrIKN8std_msgs6Int16_ISaIvEEEEEEEC2ERKSB_(%"class.boost::function"* %5, %"class.boost::function"* dereferenceable(32) %6)
          to label %invoke.cont unwind label %lpad, !dbg !12536

invoke.cont:                                      ; preds = %if.then
  store %"class.boost::function"* %5, %"class.boost::function"** %new_f, align 8, !dbg !12537
  %7 = load %"class.boost::function"** %new_f, align 8, !dbg !12539
  %8 = bitcast %"class.boost::function"* %7 to i8*, !dbg !12539
  %9 = load %"union.boost::detail::function::function_buffer"** %out_buffer.addr, align 8, !dbg !12540
  %obj_ptr1 = bitcast %"union.boost::detail::function::function_buffer"* %9 to i8**, !dbg !12541
  store i8* %8, i8** %obj_ptr1, align 8, !dbg !12542
  br label %if.end36, !dbg !12543

lpad:                                             ; preds = %if.then
  %10 = landingpad { i8*, i32 } personality i8* bitcast (i32 (...)* @__gxx_personality_v0 to i8*)
          cleanup, !dbg !12544
  %11 = extractvalue { i8*, i32 } %10, 0, !dbg !12544
  store i8* %11, i8** %exn.slot, !dbg !12544
  %12 = extractvalue { i8*, i32 } %10, 1, !dbg !12544
  store i32 %12, i32* %ehselector.slot, !dbg !12544
  call void @_ZdlPv(i8* %call) #19, !dbg !12534
  br label %eh.resume, !dbg !12534

if.else:                                          ; preds = %entry
  %13 = load i32* %op.addr, align 4, !dbg !12545
